ARM GAS  /var/folders/kj/yzqgq53j3dg15vgwwwwgf5s00000gn/T//ccIz7yzx.s 			page 1


   1              		.cpu cortex-m4
   2              		.eabi_attribute 27, 1
   3              		.eabi_attribute 28, 1
   4              		.eabi_attribute 20, 1
   5              		.eabi_attribute 21, 1
   6              		.eabi_attribute 23, 3
   7              		.eabi_attribute 24, 1
   8              		.eabi_attribute 25, 1
   9              		.eabi_attribute 26, 1
  10              		.eabi_attribute 30, 6
  11              		.eabi_attribute 34, 1
  12              		.eabi_attribute 18, 4
  13              		.file	"event_groups.c"
  14              		.text
  15              	.Ltext0:
  16              		.cfi_sections	.debug_frame
  17              		.section	.text.xEventGroupCreate,"ax",%progbits
  18              		.align	1
  19              		.global	xEventGroupCreate
  20              		.arch armv7e-m
  21              		.syntax unified
  22              		.thumb
  23              		.thumb_func
  24              		.fpu fpv4-sp-d16
  26              	xEventGroupCreate:
  27              	.LFB5:
  28              		.file 1 "../../../../dependencies/freertos/FreeRTOSv10.4.1/FreeRTOS/Source/event_groups.c"
   1:../../../../dependencies/freertos/FreeRTOSv10.4.1/FreeRTOS/Source/event_groups.c **** /*
   2:../../../../dependencies/freertos/FreeRTOSv10.4.1/FreeRTOS/Source/event_groups.c ****  * FreeRTOS Kernel V10.4.1
   3:../../../../dependencies/freertos/FreeRTOSv10.4.1/FreeRTOS/Source/event_groups.c ****  * Copyright (C) 2020 Amazon.com, Inc. or its affiliates.  All Rights Reserved.
   4:../../../../dependencies/freertos/FreeRTOSv10.4.1/FreeRTOS/Source/event_groups.c ****  *
   5:../../../../dependencies/freertos/FreeRTOSv10.4.1/FreeRTOS/Source/event_groups.c ****  * Permission is hereby granted, free of charge, to any person obtaining a copy of
   6:../../../../dependencies/freertos/FreeRTOSv10.4.1/FreeRTOS/Source/event_groups.c ****  * this software and associated documentation files (the "Software"), to deal in
   7:../../../../dependencies/freertos/FreeRTOSv10.4.1/FreeRTOS/Source/event_groups.c ****  * the Software without restriction, including without limitation the rights to
   8:../../../../dependencies/freertos/FreeRTOSv10.4.1/FreeRTOS/Source/event_groups.c ****  * use, copy, modify, merge, publish, distribute, sublicense, and/or sell copies of
   9:../../../../dependencies/freertos/FreeRTOSv10.4.1/FreeRTOS/Source/event_groups.c ****  * the Software, and to permit persons to whom the Software is furnished to do so,
  10:../../../../dependencies/freertos/FreeRTOSv10.4.1/FreeRTOS/Source/event_groups.c ****  * subject to the following conditions:
  11:../../../../dependencies/freertos/FreeRTOSv10.4.1/FreeRTOS/Source/event_groups.c ****  *
  12:../../../../dependencies/freertos/FreeRTOSv10.4.1/FreeRTOS/Source/event_groups.c ****  * The above copyright notice and this permission notice shall be included in all
  13:../../../../dependencies/freertos/FreeRTOSv10.4.1/FreeRTOS/Source/event_groups.c ****  * copies or substantial portions of the Software.
  14:../../../../dependencies/freertos/FreeRTOSv10.4.1/FreeRTOS/Source/event_groups.c ****  *
  15:../../../../dependencies/freertos/FreeRTOSv10.4.1/FreeRTOS/Source/event_groups.c ****  * THE SOFTWARE IS PROVIDED "AS IS", WITHOUT WARRANTY OF ANY KIND, EXPRESS OR
  16:../../../../dependencies/freertos/FreeRTOSv10.4.1/FreeRTOS/Source/event_groups.c ****  * IMPLIED, INCLUDING BUT NOT LIMITED TO THE WARRANTIES OF MERCHANTABILITY, FITNESS
  17:../../../../dependencies/freertos/FreeRTOSv10.4.1/FreeRTOS/Source/event_groups.c ****  * FOR A PARTICULAR PURPOSE AND NONINFRINGEMENT. IN NO EVENT SHALL THE AUTHORS OR
  18:../../../../dependencies/freertos/FreeRTOSv10.4.1/FreeRTOS/Source/event_groups.c ****  * COPYRIGHT HOLDERS BE LIABLE FOR ANY CLAIM, DAMAGES OR OTHER LIABILITY, WHETHER
  19:../../../../dependencies/freertos/FreeRTOSv10.4.1/FreeRTOS/Source/event_groups.c ****  * IN AN ACTION OF CONTRACT, TORT OR OTHERWISE, ARISING FROM, OUT OF OR IN
  20:../../../../dependencies/freertos/FreeRTOSv10.4.1/FreeRTOS/Source/event_groups.c ****  * CONNECTION WITH THE SOFTWARE OR THE USE OR OTHER DEALINGS IN THE SOFTWARE.
  21:../../../../dependencies/freertos/FreeRTOSv10.4.1/FreeRTOS/Source/event_groups.c ****  *
  22:../../../../dependencies/freertos/FreeRTOSv10.4.1/FreeRTOS/Source/event_groups.c ****  * https://www.FreeRTOS.org
  23:../../../../dependencies/freertos/FreeRTOSv10.4.1/FreeRTOS/Source/event_groups.c ****  * https://github.com/FreeRTOS
  24:../../../../dependencies/freertos/FreeRTOSv10.4.1/FreeRTOS/Source/event_groups.c ****  *
  25:../../../../dependencies/freertos/FreeRTOSv10.4.1/FreeRTOS/Source/event_groups.c ****  */
  26:../../../../dependencies/freertos/FreeRTOSv10.4.1/FreeRTOS/Source/event_groups.c **** 
  27:../../../../dependencies/freertos/FreeRTOSv10.4.1/FreeRTOS/Source/event_groups.c **** /* Standard includes. */
  28:../../../../dependencies/freertos/FreeRTOSv10.4.1/FreeRTOS/Source/event_groups.c **** #include <stdlib.h>
  29:../../../../dependencies/freertos/FreeRTOSv10.4.1/FreeRTOS/Source/event_groups.c **** 
  30:../../../../dependencies/freertos/FreeRTOSv10.4.1/FreeRTOS/Source/event_groups.c **** /* Defining MPU_WRAPPERS_INCLUDED_FROM_API_FILE prevents task.h from redefining
ARM GAS  /var/folders/kj/yzqgq53j3dg15vgwwwwgf5s00000gn/T//ccIz7yzx.s 			page 2


  31:../../../../dependencies/freertos/FreeRTOSv10.4.1/FreeRTOS/Source/event_groups.c ****  * all the API functions to use the MPU wrappers.  That should only be done when
  32:../../../../dependencies/freertos/FreeRTOSv10.4.1/FreeRTOS/Source/event_groups.c ****  * task.h is included from an application file. */
  33:../../../../dependencies/freertos/FreeRTOSv10.4.1/FreeRTOS/Source/event_groups.c **** #define MPU_WRAPPERS_INCLUDED_FROM_API_FILE
  34:../../../../dependencies/freertos/FreeRTOSv10.4.1/FreeRTOS/Source/event_groups.c **** 
  35:../../../../dependencies/freertos/FreeRTOSv10.4.1/FreeRTOS/Source/event_groups.c **** /* FreeRTOS includes. */
  36:../../../../dependencies/freertos/FreeRTOSv10.4.1/FreeRTOS/Source/event_groups.c **** #include "FreeRTOS.h"
  37:../../../../dependencies/freertos/FreeRTOSv10.4.1/FreeRTOS/Source/event_groups.c **** #include "task.h"
  38:../../../../dependencies/freertos/FreeRTOSv10.4.1/FreeRTOS/Source/event_groups.c **** #include "timers.h"
  39:../../../../dependencies/freertos/FreeRTOSv10.4.1/FreeRTOS/Source/event_groups.c **** #include "event_groups.h"
  40:../../../../dependencies/freertos/FreeRTOSv10.4.1/FreeRTOS/Source/event_groups.c **** 
  41:../../../../dependencies/freertos/FreeRTOSv10.4.1/FreeRTOS/Source/event_groups.c **** /* Lint e961, e750 and e9021 are suppressed as a MISRA exception justified
  42:../../../../dependencies/freertos/FreeRTOSv10.4.1/FreeRTOS/Source/event_groups.c ****  * because the MPU ports require MPU_WRAPPERS_INCLUDED_FROM_API_FILE to be defined
  43:../../../../dependencies/freertos/FreeRTOSv10.4.1/FreeRTOS/Source/event_groups.c ****  * for the header files above, but not in this file, in order to generate the
  44:../../../../dependencies/freertos/FreeRTOSv10.4.1/FreeRTOS/Source/event_groups.c ****  * correct privileged Vs unprivileged linkage and placement. */
  45:../../../../dependencies/freertos/FreeRTOSv10.4.1/FreeRTOS/Source/event_groups.c **** #undef MPU_WRAPPERS_INCLUDED_FROM_API_FILE /*lint !e961 !e750 !e9021 See comment above. */
  46:../../../../dependencies/freertos/FreeRTOSv10.4.1/FreeRTOS/Source/event_groups.c **** 
  47:../../../../dependencies/freertos/FreeRTOSv10.4.1/FreeRTOS/Source/event_groups.c **** /* The following bit fields convey control information in a task's event list
  48:../../../../dependencies/freertos/FreeRTOSv10.4.1/FreeRTOS/Source/event_groups.c ****  * item value.  It is important they don't clash with the
  49:../../../../dependencies/freertos/FreeRTOSv10.4.1/FreeRTOS/Source/event_groups.c ****  * taskEVENT_LIST_ITEM_VALUE_IN_USE definition. */
  50:../../../../dependencies/freertos/FreeRTOSv10.4.1/FreeRTOS/Source/event_groups.c **** #if configUSE_16_BIT_TICKS == 1
  51:../../../../dependencies/freertos/FreeRTOSv10.4.1/FreeRTOS/Source/event_groups.c ****     #define eventCLEAR_EVENTS_ON_EXIT_BIT    0x0100U
  52:../../../../dependencies/freertos/FreeRTOSv10.4.1/FreeRTOS/Source/event_groups.c ****     #define eventUNBLOCKED_DUE_TO_BIT_SET    0x0200U
  53:../../../../dependencies/freertos/FreeRTOSv10.4.1/FreeRTOS/Source/event_groups.c ****     #define eventWAIT_FOR_ALL_BITS           0x0400U
  54:../../../../dependencies/freertos/FreeRTOSv10.4.1/FreeRTOS/Source/event_groups.c ****     #define eventEVENT_BITS_CONTROL_BYTES    0xff00U
  55:../../../../dependencies/freertos/FreeRTOSv10.4.1/FreeRTOS/Source/event_groups.c **** #else
  56:../../../../dependencies/freertos/FreeRTOSv10.4.1/FreeRTOS/Source/event_groups.c ****     #define eventCLEAR_EVENTS_ON_EXIT_BIT    0x01000000UL
  57:../../../../dependencies/freertos/FreeRTOSv10.4.1/FreeRTOS/Source/event_groups.c ****     #define eventUNBLOCKED_DUE_TO_BIT_SET    0x02000000UL
  58:../../../../dependencies/freertos/FreeRTOSv10.4.1/FreeRTOS/Source/event_groups.c ****     #define eventWAIT_FOR_ALL_BITS           0x04000000UL
  59:../../../../dependencies/freertos/FreeRTOSv10.4.1/FreeRTOS/Source/event_groups.c ****     #define eventEVENT_BITS_CONTROL_BYTES    0xff000000UL
  60:../../../../dependencies/freertos/FreeRTOSv10.4.1/FreeRTOS/Source/event_groups.c **** #endif
  61:../../../../dependencies/freertos/FreeRTOSv10.4.1/FreeRTOS/Source/event_groups.c **** 
  62:../../../../dependencies/freertos/FreeRTOSv10.4.1/FreeRTOS/Source/event_groups.c **** typedef struct EventGroupDef_t
  63:../../../../dependencies/freertos/FreeRTOSv10.4.1/FreeRTOS/Source/event_groups.c **** {
  64:../../../../dependencies/freertos/FreeRTOSv10.4.1/FreeRTOS/Source/event_groups.c ****     EventBits_t uxEventBits;
  65:../../../../dependencies/freertos/FreeRTOSv10.4.1/FreeRTOS/Source/event_groups.c ****     List_t xTasksWaitingForBits; /*< List of tasks waiting for a bit to be set. */
  66:../../../../dependencies/freertos/FreeRTOSv10.4.1/FreeRTOS/Source/event_groups.c **** 
  67:../../../../dependencies/freertos/FreeRTOSv10.4.1/FreeRTOS/Source/event_groups.c ****     #if ( configUSE_TRACE_FACILITY == 1 )
  68:../../../../dependencies/freertos/FreeRTOSv10.4.1/FreeRTOS/Source/event_groups.c ****         UBaseType_t uxEventGroupNumber;
  69:../../../../dependencies/freertos/FreeRTOSv10.4.1/FreeRTOS/Source/event_groups.c ****     #endif
  70:../../../../dependencies/freertos/FreeRTOSv10.4.1/FreeRTOS/Source/event_groups.c **** 
  71:../../../../dependencies/freertos/FreeRTOSv10.4.1/FreeRTOS/Source/event_groups.c ****     #if ( ( configSUPPORT_STATIC_ALLOCATION == 1 ) && ( configSUPPORT_DYNAMIC_ALLOCATION == 1 ) )
  72:../../../../dependencies/freertos/FreeRTOSv10.4.1/FreeRTOS/Source/event_groups.c ****         uint8_t ucStaticallyAllocated; /*< Set to pdTRUE if the event group is statically allocated
  73:../../../../dependencies/freertos/FreeRTOSv10.4.1/FreeRTOS/Source/event_groups.c ****     #endif
  74:../../../../dependencies/freertos/FreeRTOSv10.4.1/FreeRTOS/Source/event_groups.c **** } EventGroup_t;
  75:../../../../dependencies/freertos/FreeRTOSv10.4.1/FreeRTOS/Source/event_groups.c **** 
  76:../../../../dependencies/freertos/FreeRTOSv10.4.1/FreeRTOS/Source/event_groups.c **** /*-----------------------------------------------------------*/
  77:../../../../dependencies/freertos/FreeRTOSv10.4.1/FreeRTOS/Source/event_groups.c **** 
  78:../../../../dependencies/freertos/FreeRTOSv10.4.1/FreeRTOS/Source/event_groups.c **** /*
  79:../../../../dependencies/freertos/FreeRTOSv10.4.1/FreeRTOS/Source/event_groups.c ****  * Test the bits set in uxCurrentEventBits to see if the wait condition is met.
  80:../../../../dependencies/freertos/FreeRTOSv10.4.1/FreeRTOS/Source/event_groups.c ****  * The wait condition is defined by xWaitForAllBits.  If xWaitForAllBits is
  81:../../../../dependencies/freertos/FreeRTOSv10.4.1/FreeRTOS/Source/event_groups.c ****  * pdTRUE then the wait condition is met if all the bits set in uxBitsToWaitFor
  82:../../../../dependencies/freertos/FreeRTOSv10.4.1/FreeRTOS/Source/event_groups.c ****  * are also set in uxCurrentEventBits.  If xWaitForAllBits is pdFALSE then the
  83:../../../../dependencies/freertos/FreeRTOSv10.4.1/FreeRTOS/Source/event_groups.c ****  * wait condition is met if any of the bits set in uxBitsToWait for are also set
  84:../../../../dependencies/freertos/FreeRTOSv10.4.1/FreeRTOS/Source/event_groups.c ****  * in uxCurrentEventBits.
  85:../../../../dependencies/freertos/FreeRTOSv10.4.1/FreeRTOS/Source/event_groups.c ****  */
  86:../../../../dependencies/freertos/FreeRTOSv10.4.1/FreeRTOS/Source/event_groups.c **** static BaseType_t prvTestWaitCondition( const EventBits_t uxCurrentEventBits,
  87:../../../../dependencies/freertos/FreeRTOSv10.4.1/FreeRTOS/Source/event_groups.c ****                                         const EventBits_t uxBitsToWaitFor,
ARM GAS  /var/folders/kj/yzqgq53j3dg15vgwwwwgf5s00000gn/T//ccIz7yzx.s 			page 3


  88:../../../../dependencies/freertos/FreeRTOSv10.4.1/FreeRTOS/Source/event_groups.c ****                                         const BaseType_t xWaitForAllBits ) PRIVILEGED_FUNCTION;
  89:../../../../dependencies/freertos/FreeRTOSv10.4.1/FreeRTOS/Source/event_groups.c **** 
  90:../../../../dependencies/freertos/FreeRTOSv10.4.1/FreeRTOS/Source/event_groups.c **** /*-----------------------------------------------------------*/
  91:../../../../dependencies/freertos/FreeRTOSv10.4.1/FreeRTOS/Source/event_groups.c **** 
  92:../../../../dependencies/freertos/FreeRTOSv10.4.1/FreeRTOS/Source/event_groups.c **** #if ( configSUPPORT_STATIC_ALLOCATION == 1 )
  93:../../../../dependencies/freertos/FreeRTOSv10.4.1/FreeRTOS/Source/event_groups.c **** 
  94:../../../../dependencies/freertos/FreeRTOSv10.4.1/FreeRTOS/Source/event_groups.c ****     EventGroupHandle_t xEventGroupCreateStatic( StaticEventGroup_t * pxEventGroupBuffer )
  95:../../../../dependencies/freertos/FreeRTOSv10.4.1/FreeRTOS/Source/event_groups.c ****     {
  96:../../../../dependencies/freertos/FreeRTOSv10.4.1/FreeRTOS/Source/event_groups.c ****         EventGroup_t * pxEventBits;
  97:../../../../dependencies/freertos/FreeRTOSv10.4.1/FreeRTOS/Source/event_groups.c **** 
  98:../../../../dependencies/freertos/FreeRTOSv10.4.1/FreeRTOS/Source/event_groups.c ****         /* A StaticEventGroup_t object must be provided. */
  99:../../../../dependencies/freertos/FreeRTOSv10.4.1/FreeRTOS/Source/event_groups.c ****         configASSERT( pxEventGroupBuffer );
 100:../../../../dependencies/freertos/FreeRTOSv10.4.1/FreeRTOS/Source/event_groups.c **** 
 101:../../../../dependencies/freertos/FreeRTOSv10.4.1/FreeRTOS/Source/event_groups.c ****         #if ( configASSERT_DEFINED == 1 )
 102:../../../../dependencies/freertos/FreeRTOSv10.4.1/FreeRTOS/Source/event_groups.c ****             {
 103:../../../../dependencies/freertos/FreeRTOSv10.4.1/FreeRTOS/Source/event_groups.c ****                 /* Sanity check that the size of the structure used to declare a
 104:../../../../dependencies/freertos/FreeRTOSv10.4.1/FreeRTOS/Source/event_groups.c ****                  * variable of type StaticEventGroup_t equals the size of the real
 105:../../../../dependencies/freertos/FreeRTOSv10.4.1/FreeRTOS/Source/event_groups.c ****                  * event group structure. */
 106:../../../../dependencies/freertos/FreeRTOSv10.4.1/FreeRTOS/Source/event_groups.c ****                 volatile size_t xSize = sizeof( StaticEventGroup_t );
 107:../../../../dependencies/freertos/FreeRTOSv10.4.1/FreeRTOS/Source/event_groups.c ****                 configASSERT( xSize == sizeof( EventGroup_t ) );
 108:../../../../dependencies/freertos/FreeRTOSv10.4.1/FreeRTOS/Source/event_groups.c ****             } /*lint !e529 xSize is referenced if configASSERT() is defined. */
 109:../../../../dependencies/freertos/FreeRTOSv10.4.1/FreeRTOS/Source/event_groups.c ****         #endif /* configASSERT_DEFINED */
 110:../../../../dependencies/freertos/FreeRTOSv10.4.1/FreeRTOS/Source/event_groups.c **** 
 111:../../../../dependencies/freertos/FreeRTOSv10.4.1/FreeRTOS/Source/event_groups.c ****         /* The user has provided a statically allocated event group - use it. */
 112:../../../../dependencies/freertos/FreeRTOSv10.4.1/FreeRTOS/Source/event_groups.c ****         pxEventBits = ( EventGroup_t * ) pxEventGroupBuffer; /*lint !e740 !e9087 EventGroup_t and S
 113:../../../../dependencies/freertos/FreeRTOSv10.4.1/FreeRTOS/Source/event_groups.c **** 
 114:../../../../dependencies/freertos/FreeRTOSv10.4.1/FreeRTOS/Source/event_groups.c ****         if( pxEventBits != NULL )
 115:../../../../dependencies/freertos/FreeRTOSv10.4.1/FreeRTOS/Source/event_groups.c ****         {
 116:../../../../dependencies/freertos/FreeRTOSv10.4.1/FreeRTOS/Source/event_groups.c ****             pxEventBits->uxEventBits = 0;
 117:../../../../dependencies/freertos/FreeRTOSv10.4.1/FreeRTOS/Source/event_groups.c ****             vListInitialise( &( pxEventBits->xTasksWaitingForBits ) );
 118:../../../../dependencies/freertos/FreeRTOSv10.4.1/FreeRTOS/Source/event_groups.c **** 
 119:../../../../dependencies/freertos/FreeRTOSv10.4.1/FreeRTOS/Source/event_groups.c ****             #if ( configSUPPORT_DYNAMIC_ALLOCATION == 1 )
 120:../../../../dependencies/freertos/FreeRTOSv10.4.1/FreeRTOS/Source/event_groups.c ****                 {
 121:../../../../dependencies/freertos/FreeRTOSv10.4.1/FreeRTOS/Source/event_groups.c ****                     /* Both static and dynamic allocation can be used, so note that
 122:../../../../dependencies/freertos/FreeRTOSv10.4.1/FreeRTOS/Source/event_groups.c ****                      * this event group was created statically in case the event group
 123:../../../../dependencies/freertos/FreeRTOSv10.4.1/FreeRTOS/Source/event_groups.c ****                      * is later deleted. */
 124:../../../../dependencies/freertos/FreeRTOSv10.4.1/FreeRTOS/Source/event_groups.c ****                     pxEventBits->ucStaticallyAllocated = pdTRUE;
 125:../../../../dependencies/freertos/FreeRTOSv10.4.1/FreeRTOS/Source/event_groups.c ****                 }
 126:../../../../dependencies/freertos/FreeRTOSv10.4.1/FreeRTOS/Source/event_groups.c ****             #endif /* configSUPPORT_DYNAMIC_ALLOCATION */
 127:../../../../dependencies/freertos/FreeRTOSv10.4.1/FreeRTOS/Source/event_groups.c **** 
 128:../../../../dependencies/freertos/FreeRTOSv10.4.1/FreeRTOS/Source/event_groups.c ****             traceEVENT_GROUP_CREATE( pxEventBits );
 129:../../../../dependencies/freertos/FreeRTOSv10.4.1/FreeRTOS/Source/event_groups.c ****         }
 130:../../../../dependencies/freertos/FreeRTOSv10.4.1/FreeRTOS/Source/event_groups.c ****         else
 131:../../../../dependencies/freertos/FreeRTOSv10.4.1/FreeRTOS/Source/event_groups.c ****         {
 132:../../../../dependencies/freertos/FreeRTOSv10.4.1/FreeRTOS/Source/event_groups.c ****             /* xEventGroupCreateStatic should only ever be called with
 133:../../../../dependencies/freertos/FreeRTOSv10.4.1/FreeRTOS/Source/event_groups.c ****              * pxEventGroupBuffer pointing to a pre-allocated (compile time
 134:../../../../dependencies/freertos/FreeRTOSv10.4.1/FreeRTOS/Source/event_groups.c ****              * allocated) StaticEventGroup_t variable. */
 135:../../../../dependencies/freertos/FreeRTOSv10.4.1/FreeRTOS/Source/event_groups.c ****             traceEVENT_GROUP_CREATE_FAILED();
 136:../../../../dependencies/freertos/FreeRTOSv10.4.1/FreeRTOS/Source/event_groups.c ****         }
 137:../../../../dependencies/freertos/FreeRTOSv10.4.1/FreeRTOS/Source/event_groups.c **** 
 138:../../../../dependencies/freertos/FreeRTOSv10.4.1/FreeRTOS/Source/event_groups.c ****         return pxEventBits;
 139:../../../../dependencies/freertos/FreeRTOSv10.4.1/FreeRTOS/Source/event_groups.c ****     }
 140:../../../../dependencies/freertos/FreeRTOSv10.4.1/FreeRTOS/Source/event_groups.c **** 
 141:../../../../dependencies/freertos/FreeRTOSv10.4.1/FreeRTOS/Source/event_groups.c **** #endif /* configSUPPORT_STATIC_ALLOCATION */
 142:../../../../dependencies/freertos/FreeRTOSv10.4.1/FreeRTOS/Source/event_groups.c **** /*-----------------------------------------------------------*/
 143:../../../../dependencies/freertos/FreeRTOSv10.4.1/FreeRTOS/Source/event_groups.c **** 
 144:../../../../dependencies/freertos/FreeRTOSv10.4.1/FreeRTOS/Source/event_groups.c **** #if ( configSUPPORT_DYNAMIC_ALLOCATION == 1 )
ARM GAS  /var/folders/kj/yzqgq53j3dg15vgwwwwgf5s00000gn/T//ccIz7yzx.s 			page 4


 145:../../../../dependencies/freertos/FreeRTOSv10.4.1/FreeRTOS/Source/event_groups.c **** 
 146:../../../../dependencies/freertos/FreeRTOSv10.4.1/FreeRTOS/Source/event_groups.c ****     EventGroupHandle_t xEventGroupCreate( void )
 147:../../../../dependencies/freertos/FreeRTOSv10.4.1/FreeRTOS/Source/event_groups.c ****     {
  29              		.loc 1 147 5
  30              		.cfi_startproc
  31              		@ args = 0, pretend = 0, frame = 8
  32              		@ frame_needed = 1, uses_anonymous_args = 0
  33 0000 80B5     		push	{r7, lr}
  34              	.LCFI0:
  35              		.cfi_def_cfa_offset 8
  36              		.cfi_offset 7, -8
  37              		.cfi_offset 14, -4
  38 0002 82B0     		sub	sp, sp, #8
  39              	.LCFI1:
  40              		.cfi_def_cfa_offset 16
  41 0004 00AF     		add	r7, sp, #0
  42              	.LCFI2:
  43              		.cfi_def_cfa_register 7
 148:../../../../dependencies/freertos/FreeRTOSv10.4.1/FreeRTOS/Source/event_groups.c ****         EventGroup_t * pxEventBits;
 149:../../../../dependencies/freertos/FreeRTOSv10.4.1/FreeRTOS/Source/event_groups.c **** 
 150:../../../../dependencies/freertos/FreeRTOSv10.4.1/FreeRTOS/Source/event_groups.c ****         /* Allocate the event group.  Justification for MISRA deviation as
 151:../../../../dependencies/freertos/FreeRTOSv10.4.1/FreeRTOS/Source/event_groups.c ****          * follows:  pvPortMalloc() always ensures returned memory blocks are
 152:../../../../dependencies/freertos/FreeRTOSv10.4.1/FreeRTOS/Source/event_groups.c ****          * aligned per the requirements of the MCU stack.  In this case
 153:../../../../dependencies/freertos/FreeRTOSv10.4.1/FreeRTOS/Source/event_groups.c ****          * pvPortMalloc() must return a pointer that is guaranteed to meet the
 154:../../../../dependencies/freertos/FreeRTOSv10.4.1/FreeRTOS/Source/event_groups.c ****          * alignment requirements of the EventGroup_t structure - which (if you
 155:../../../../dependencies/freertos/FreeRTOSv10.4.1/FreeRTOS/Source/event_groups.c ****          * follow it through) is the alignment requirements of the TickType_t type
 156:../../../../dependencies/freertos/FreeRTOSv10.4.1/FreeRTOS/Source/event_groups.c ****          * (EventBits_t being of TickType_t itself).  Therefore, whenever the
 157:../../../../dependencies/freertos/FreeRTOSv10.4.1/FreeRTOS/Source/event_groups.c ****          * stack alignment requirements are greater than or equal to the
 158:../../../../dependencies/freertos/FreeRTOSv10.4.1/FreeRTOS/Source/event_groups.c ****          * TickType_t alignment requirements the cast is safe.  In other cases,
 159:../../../../dependencies/freertos/FreeRTOSv10.4.1/FreeRTOS/Source/event_groups.c ****          * where the natural word size of the architecture is less than
 160:../../../../dependencies/freertos/FreeRTOSv10.4.1/FreeRTOS/Source/event_groups.c ****          * sizeof( TickType_t ), the TickType_t variables will be accessed in two
 161:../../../../dependencies/freertos/FreeRTOSv10.4.1/FreeRTOS/Source/event_groups.c ****          * or more reads operations, and the alignment requirements is only that
 162:../../../../dependencies/freertos/FreeRTOSv10.4.1/FreeRTOS/Source/event_groups.c ****          * of each individual read. */
 163:../../../../dependencies/freertos/FreeRTOSv10.4.1/FreeRTOS/Source/event_groups.c ****         pxEventBits = ( EventGroup_t * ) pvPortMalloc( sizeof( EventGroup_t ) ); /*lint !e9087 !e90
  44              		.loc 1 163 42
  45 0006 1C20     		movs	r0, #28
  46 0008 FFF7FEFF 		bl	pvPortMalloc
  47 000c 7860     		str	r0, [r7, #4]
 164:../../../../dependencies/freertos/FreeRTOSv10.4.1/FreeRTOS/Source/event_groups.c **** 
 165:../../../../dependencies/freertos/FreeRTOSv10.4.1/FreeRTOS/Source/event_groups.c ****         if( pxEventBits != NULL )
  48              		.loc 1 165 11
  49 000e 7B68     		ldr	r3, [r7, #4]
  50 0010 002B     		cmp	r3, #0
  51 0012 07D0     		beq	.L2
 166:../../../../dependencies/freertos/FreeRTOSv10.4.1/FreeRTOS/Source/event_groups.c ****         {
 167:../../../../dependencies/freertos/FreeRTOSv10.4.1/FreeRTOS/Source/event_groups.c ****             pxEventBits->uxEventBits = 0;
  52              		.loc 1 167 38
  53 0014 7B68     		ldr	r3, [r7, #4]
  54 0016 0022     		movs	r2, #0
  55 0018 1A60     		str	r2, [r3]
 168:../../../../dependencies/freertos/FreeRTOSv10.4.1/FreeRTOS/Source/event_groups.c ****             vListInitialise( &( pxEventBits->xTasksWaitingForBits ) );
  56              		.loc 1 168 13
  57 001a 7B68     		ldr	r3, [r7, #4]
  58 001c 0433     		adds	r3, r3, #4
  59 001e 1846     		mov	r0, r3
  60 0020 FFF7FEFF 		bl	vListInitialise
  61              	.L2:
ARM GAS  /var/folders/kj/yzqgq53j3dg15vgwwwwgf5s00000gn/T//ccIz7yzx.s 			page 5


 169:../../../../dependencies/freertos/FreeRTOSv10.4.1/FreeRTOS/Source/event_groups.c **** 
 170:../../../../dependencies/freertos/FreeRTOSv10.4.1/FreeRTOS/Source/event_groups.c ****             #if ( configSUPPORT_STATIC_ALLOCATION == 1 )
 171:../../../../dependencies/freertos/FreeRTOSv10.4.1/FreeRTOS/Source/event_groups.c ****                 {
 172:../../../../dependencies/freertos/FreeRTOSv10.4.1/FreeRTOS/Source/event_groups.c ****                     /* Both static and dynamic allocation can be used, so note this
 173:../../../../dependencies/freertos/FreeRTOSv10.4.1/FreeRTOS/Source/event_groups.c ****                      * event group was allocated statically in case the event group is
 174:../../../../dependencies/freertos/FreeRTOSv10.4.1/FreeRTOS/Source/event_groups.c ****                      * later deleted. */
 175:../../../../dependencies/freertos/FreeRTOSv10.4.1/FreeRTOS/Source/event_groups.c ****                     pxEventBits->ucStaticallyAllocated = pdFALSE;
 176:../../../../dependencies/freertos/FreeRTOSv10.4.1/FreeRTOS/Source/event_groups.c ****                 }
 177:../../../../dependencies/freertos/FreeRTOSv10.4.1/FreeRTOS/Source/event_groups.c ****             #endif /* configSUPPORT_STATIC_ALLOCATION */
 178:../../../../dependencies/freertos/FreeRTOSv10.4.1/FreeRTOS/Source/event_groups.c **** 
 179:../../../../dependencies/freertos/FreeRTOSv10.4.1/FreeRTOS/Source/event_groups.c ****             traceEVENT_GROUP_CREATE( pxEventBits );
 180:../../../../dependencies/freertos/FreeRTOSv10.4.1/FreeRTOS/Source/event_groups.c ****         }
 181:../../../../dependencies/freertos/FreeRTOSv10.4.1/FreeRTOS/Source/event_groups.c ****         else
 182:../../../../dependencies/freertos/FreeRTOSv10.4.1/FreeRTOS/Source/event_groups.c ****         {
 183:../../../../dependencies/freertos/FreeRTOSv10.4.1/FreeRTOS/Source/event_groups.c ****             traceEVENT_GROUP_CREATE_FAILED(); /*lint !e9063 Else branch only exists to allow tracin
 184:../../../../dependencies/freertos/FreeRTOSv10.4.1/FreeRTOS/Source/event_groups.c ****         }
 185:../../../../dependencies/freertos/FreeRTOSv10.4.1/FreeRTOS/Source/event_groups.c **** 
 186:../../../../dependencies/freertos/FreeRTOSv10.4.1/FreeRTOS/Source/event_groups.c ****         return pxEventBits;
  62              		.loc 1 186 16
  63 0024 7B68     		ldr	r3, [r7, #4]
 187:../../../../dependencies/freertos/FreeRTOSv10.4.1/FreeRTOS/Source/event_groups.c ****     }
  64              		.loc 1 187 5
  65 0026 1846     		mov	r0, r3
  66 0028 0837     		adds	r7, r7, #8
  67              	.LCFI3:
  68              		.cfi_def_cfa_offset 8
  69 002a BD46     		mov	sp, r7
  70              	.LCFI4:
  71              		.cfi_def_cfa_register 13
  72              		@ sp needed
  73 002c 80BD     		pop	{r7, pc}
  74              		.cfi_endproc
  75              	.LFE5:
  77              		.section	.text.xEventGroupSync,"ax",%progbits
  78              		.align	1
  79              		.global	xEventGroupSync
  80              		.syntax unified
  81              		.thumb
  82              		.thumb_func
  83              		.fpu fpv4-sp-d16
  85              	xEventGroupSync:
  86              	.LFB6:
 188:../../../../dependencies/freertos/FreeRTOSv10.4.1/FreeRTOS/Source/event_groups.c **** 
 189:../../../../dependencies/freertos/FreeRTOSv10.4.1/FreeRTOS/Source/event_groups.c **** #endif /* configSUPPORT_DYNAMIC_ALLOCATION */
 190:../../../../dependencies/freertos/FreeRTOSv10.4.1/FreeRTOS/Source/event_groups.c **** /*-----------------------------------------------------------*/
 191:../../../../dependencies/freertos/FreeRTOSv10.4.1/FreeRTOS/Source/event_groups.c **** 
 192:../../../../dependencies/freertos/FreeRTOSv10.4.1/FreeRTOS/Source/event_groups.c **** EventBits_t xEventGroupSync( EventGroupHandle_t xEventGroup,
 193:../../../../dependencies/freertos/FreeRTOSv10.4.1/FreeRTOS/Source/event_groups.c ****                              const EventBits_t uxBitsToSet,
 194:../../../../dependencies/freertos/FreeRTOSv10.4.1/FreeRTOS/Source/event_groups.c ****                              const EventBits_t uxBitsToWaitFor,
 195:../../../../dependencies/freertos/FreeRTOSv10.4.1/FreeRTOS/Source/event_groups.c ****                              TickType_t xTicksToWait )
 196:../../../../dependencies/freertos/FreeRTOSv10.4.1/FreeRTOS/Source/event_groups.c **** {
  87              		.loc 1 196 1
  88              		.cfi_startproc
  89              		@ args = 0, pretend = 0, frame = 48
  90              		@ frame_needed = 1, uses_anonymous_args = 0
  91 0000 80B5     		push	{r7, lr}
  92              	.LCFI5:
ARM GAS  /var/folders/kj/yzqgq53j3dg15vgwwwwgf5s00000gn/T//ccIz7yzx.s 			page 6


  93              		.cfi_def_cfa_offset 8
  94              		.cfi_offset 7, -8
  95              		.cfi_offset 14, -4
  96 0002 8CB0     		sub	sp, sp, #48
  97              	.LCFI6:
  98              		.cfi_def_cfa_offset 56
  99 0004 00AF     		add	r7, sp, #0
 100              	.LCFI7:
 101              		.cfi_def_cfa_register 7
 102 0006 F860     		str	r0, [r7, #12]
 103 0008 B960     		str	r1, [r7, #8]
 104 000a 7A60     		str	r2, [r7, #4]
 105 000c 3B60     		str	r3, [r7]
 197:../../../../dependencies/freertos/FreeRTOSv10.4.1/FreeRTOS/Source/event_groups.c ****     EventBits_t uxOriginalBitValue, uxReturn;
 198:../../../../dependencies/freertos/FreeRTOSv10.4.1/FreeRTOS/Source/event_groups.c ****     EventGroup_t * pxEventBits = xEventGroup;
 106              		.loc 1 198 20
 107 000e FB68     		ldr	r3, [r7, #12]
 108 0010 BB62     		str	r3, [r7, #40]
 199:../../../../dependencies/freertos/FreeRTOSv10.4.1/FreeRTOS/Source/event_groups.c ****     BaseType_t xAlreadyYielded;
 200:../../../../dependencies/freertos/FreeRTOSv10.4.1/FreeRTOS/Source/event_groups.c ****     BaseType_t xTimeoutOccurred = pdFALSE;
 109              		.loc 1 200 16
 110 0012 0023     		movs	r3, #0
 111 0014 7B62     		str	r3, [r7, #36]
 201:../../../../dependencies/freertos/FreeRTOSv10.4.1/FreeRTOS/Source/event_groups.c **** 
 202:../../../../dependencies/freertos/FreeRTOSv10.4.1/FreeRTOS/Source/event_groups.c ****     configASSERT( ( uxBitsToWaitFor & eventEVENT_BITS_CONTROL_BYTES ) == 0 );
 112              		.loc 1 202 5
 113 0016 7B68     		ldr	r3, [r7, #4]
 114 0018 03F07F43 		and	r3, r3, #-16777216
 115 001c 002B     		cmp	r3, #0
 116 001e 0AD0     		beq	.L5
 117              	.LBB31:
 118              	.LBB32:
 119              		.file 2 "../../../../dependencies/freertos/FreeRTOSv10.4.1/FreeRTOS/Source/portable/GCC/ARM_CM4F/p
   1:../../../../dependencies/freertos/FreeRTOSv10.4.1/FreeRTOS/Source/portable/GCC/ARM_CM4F/portmacro.h **** /*
   2:../../../../dependencies/freertos/FreeRTOSv10.4.1/FreeRTOS/Source/portable/GCC/ARM_CM4F/portmacro.h ****  * FreeRTOS Kernel V10.4.1
   3:../../../../dependencies/freertos/FreeRTOSv10.4.1/FreeRTOS/Source/portable/GCC/ARM_CM4F/portmacro.h ****  * Copyright (C) 2020 Amazon.com, Inc. or its affiliates.  All Rights Reserved.
   4:../../../../dependencies/freertos/FreeRTOSv10.4.1/FreeRTOS/Source/portable/GCC/ARM_CM4F/portmacro.h ****  *
   5:../../../../dependencies/freertos/FreeRTOSv10.4.1/FreeRTOS/Source/portable/GCC/ARM_CM4F/portmacro.h ****  * Permission is hereby granted, free of charge, to any person obtaining a copy of
   6:../../../../dependencies/freertos/FreeRTOSv10.4.1/FreeRTOS/Source/portable/GCC/ARM_CM4F/portmacro.h ****  * this software and associated documentation files (the "Software"), to deal in
   7:../../../../dependencies/freertos/FreeRTOSv10.4.1/FreeRTOS/Source/portable/GCC/ARM_CM4F/portmacro.h ****  * the Software without restriction, including without limitation the rights to
   8:../../../../dependencies/freertos/FreeRTOSv10.4.1/FreeRTOS/Source/portable/GCC/ARM_CM4F/portmacro.h ****  * use, copy, modify, merge, publish, distribute, sublicense, and/or sell copies of
   9:../../../../dependencies/freertos/FreeRTOSv10.4.1/FreeRTOS/Source/portable/GCC/ARM_CM4F/portmacro.h ****  * the Software, and to permit persons to whom the Software is furnished to do so,
  10:../../../../dependencies/freertos/FreeRTOSv10.4.1/FreeRTOS/Source/portable/GCC/ARM_CM4F/portmacro.h ****  * subject to the following conditions:
  11:../../../../dependencies/freertos/FreeRTOSv10.4.1/FreeRTOS/Source/portable/GCC/ARM_CM4F/portmacro.h ****  *
  12:../../../../dependencies/freertos/FreeRTOSv10.4.1/FreeRTOS/Source/portable/GCC/ARM_CM4F/portmacro.h ****  * The above copyright notice and this permission notice shall be included in all
  13:../../../../dependencies/freertos/FreeRTOSv10.4.1/FreeRTOS/Source/portable/GCC/ARM_CM4F/portmacro.h ****  * copies or substantial portions of the Software.
  14:../../../../dependencies/freertos/FreeRTOSv10.4.1/FreeRTOS/Source/portable/GCC/ARM_CM4F/portmacro.h ****  *
  15:../../../../dependencies/freertos/FreeRTOSv10.4.1/FreeRTOS/Source/portable/GCC/ARM_CM4F/portmacro.h ****  * THE SOFTWARE IS PROVIDED "AS IS", WITHOUT WARRANTY OF ANY KIND, EXPRESS OR
  16:../../../../dependencies/freertos/FreeRTOSv10.4.1/FreeRTOS/Source/portable/GCC/ARM_CM4F/portmacro.h ****  * IMPLIED, INCLUDING BUT NOT LIMITED TO THE WARRANTIES OF MERCHANTABILITY, FITNESS
  17:../../../../dependencies/freertos/FreeRTOSv10.4.1/FreeRTOS/Source/portable/GCC/ARM_CM4F/portmacro.h ****  * FOR A PARTICULAR PURPOSE AND NONINFRINGEMENT. IN NO EVENT SHALL THE AUTHORS OR
  18:../../../../dependencies/freertos/FreeRTOSv10.4.1/FreeRTOS/Source/portable/GCC/ARM_CM4F/portmacro.h ****  * COPYRIGHT HOLDERS BE LIABLE FOR ANY CLAIM, DAMAGES OR OTHER LIABILITY, WHETHER
  19:../../../../dependencies/freertos/FreeRTOSv10.4.1/FreeRTOS/Source/portable/GCC/ARM_CM4F/portmacro.h ****  * IN AN ACTION OF CONTRACT, TORT OR OTHERWISE, ARISING FROM, OUT OF OR IN
  20:../../../../dependencies/freertos/FreeRTOSv10.4.1/FreeRTOS/Source/portable/GCC/ARM_CM4F/portmacro.h ****  * CONNECTION WITH THE SOFTWARE OR THE USE OR OTHER DEALINGS IN THE SOFTWARE.
  21:../../../../dependencies/freertos/FreeRTOSv10.4.1/FreeRTOS/Source/portable/GCC/ARM_CM4F/portmacro.h ****  *
  22:../../../../dependencies/freertos/FreeRTOSv10.4.1/FreeRTOS/Source/portable/GCC/ARM_CM4F/portmacro.h ****  * https://www.FreeRTOS.org
  23:../../../../dependencies/freertos/FreeRTOSv10.4.1/FreeRTOS/Source/portable/GCC/ARM_CM4F/portmacro.h ****  * https://github.com/FreeRTOS
  24:../../../../dependencies/freertos/FreeRTOSv10.4.1/FreeRTOS/Source/portable/GCC/ARM_CM4F/portmacro.h ****  *
ARM GAS  /var/folders/kj/yzqgq53j3dg15vgwwwwgf5s00000gn/T//ccIz7yzx.s 			page 7


  25:../../../../dependencies/freertos/FreeRTOSv10.4.1/FreeRTOS/Source/portable/GCC/ARM_CM4F/portmacro.h ****  * 1 tab == 4 spaces!
  26:../../../../dependencies/freertos/FreeRTOSv10.4.1/FreeRTOS/Source/portable/GCC/ARM_CM4F/portmacro.h ****  */
  27:../../../../dependencies/freertos/FreeRTOSv10.4.1/FreeRTOS/Source/portable/GCC/ARM_CM4F/portmacro.h **** 
  28:../../../../dependencies/freertos/FreeRTOSv10.4.1/FreeRTOS/Source/portable/GCC/ARM_CM4F/portmacro.h **** 
  29:../../../../dependencies/freertos/FreeRTOSv10.4.1/FreeRTOS/Source/portable/GCC/ARM_CM4F/portmacro.h **** #ifndef PORTMACRO_H
  30:../../../../dependencies/freertos/FreeRTOSv10.4.1/FreeRTOS/Source/portable/GCC/ARM_CM4F/portmacro.h ****     #define PORTMACRO_H
  31:../../../../dependencies/freertos/FreeRTOSv10.4.1/FreeRTOS/Source/portable/GCC/ARM_CM4F/portmacro.h **** 
  32:../../../../dependencies/freertos/FreeRTOSv10.4.1/FreeRTOS/Source/portable/GCC/ARM_CM4F/portmacro.h ****     #ifdef __cplusplus
  33:../../../../dependencies/freertos/FreeRTOSv10.4.1/FreeRTOS/Source/portable/GCC/ARM_CM4F/portmacro.h ****         extern "C" {
  34:../../../../dependencies/freertos/FreeRTOSv10.4.1/FreeRTOS/Source/portable/GCC/ARM_CM4F/portmacro.h ****     #endif
  35:../../../../dependencies/freertos/FreeRTOSv10.4.1/FreeRTOS/Source/portable/GCC/ARM_CM4F/portmacro.h **** 
  36:../../../../dependencies/freertos/FreeRTOSv10.4.1/FreeRTOS/Source/portable/GCC/ARM_CM4F/portmacro.h **** /*-----------------------------------------------------------
  37:../../../../dependencies/freertos/FreeRTOSv10.4.1/FreeRTOS/Source/portable/GCC/ARM_CM4F/portmacro.h ****  * Port specific definitions.
  38:../../../../dependencies/freertos/FreeRTOSv10.4.1/FreeRTOS/Source/portable/GCC/ARM_CM4F/portmacro.h ****  *
  39:../../../../dependencies/freertos/FreeRTOSv10.4.1/FreeRTOS/Source/portable/GCC/ARM_CM4F/portmacro.h ****  * The settings in this file configure FreeRTOS correctly for the
  40:../../../../dependencies/freertos/FreeRTOSv10.4.1/FreeRTOS/Source/portable/GCC/ARM_CM4F/portmacro.h ****  * given hardware and compiler.
  41:../../../../dependencies/freertos/FreeRTOSv10.4.1/FreeRTOS/Source/portable/GCC/ARM_CM4F/portmacro.h ****  *
  42:../../../../dependencies/freertos/FreeRTOSv10.4.1/FreeRTOS/Source/portable/GCC/ARM_CM4F/portmacro.h ****  * These settings should not be altered.
  43:../../../../dependencies/freertos/FreeRTOSv10.4.1/FreeRTOS/Source/portable/GCC/ARM_CM4F/portmacro.h ****  *-----------------------------------------------------------
  44:../../../../dependencies/freertos/FreeRTOSv10.4.1/FreeRTOS/Source/portable/GCC/ARM_CM4F/portmacro.h ****  */
  45:../../../../dependencies/freertos/FreeRTOSv10.4.1/FreeRTOS/Source/portable/GCC/ARM_CM4F/portmacro.h **** 
  46:../../../../dependencies/freertos/FreeRTOSv10.4.1/FreeRTOS/Source/portable/GCC/ARM_CM4F/portmacro.h **** /* Type definitions. */
  47:../../../../dependencies/freertos/FreeRTOSv10.4.1/FreeRTOS/Source/portable/GCC/ARM_CM4F/portmacro.h ****     #define portCHAR          char
  48:../../../../dependencies/freertos/FreeRTOSv10.4.1/FreeRTOS/Source/portable/GCC/ARM_CM4F/portmacro.h ****     #define portFLOAT         float
  49:../../../../dependencies/freertos/FreeRTOSv10.4.1/FreeRTOS/Source/portable/GCC/ARM_CM4F/portmacro.h ****     #define portDOUBLE        double
  50:../../../../dependencies/freertos/FreeRTOSv10.4.1/FreeRTOS/Source/portable/GCC/ARM_CM4F/portmacro.h ****     #define portLONG          long
  51:../../../../dependencies/freertos/FreeRTOSv10.4.1/FreeRTOS/Source/portable/GCC/ARM_CM4F/portmacro.h ****     #define portSHORT         short
  52:../../../../dependencies/freertos/FreeRTOSv10.4.1/FreeRTOS/Source/portable/GCC/ARM_CM4F/portmacro.h ****     #define portSTACK_TYPE    uint32_t
  53:../../../../dependencies/freertos/FreeRTOSv10.4.1/FreeRTOS/Source/portable/GCC/ARM_CM4F/portmacro.h ****     #define portBASE_TYPE     long
  54:../../../../dependencies/freertos/FreeRTOSv10.4.1/FreeRTOS/Source/portable/GCC/ARM_CM4F/portmacro.h **** 
  55:../../../../dependencies/freertos/FreeRTOSv10.4.1/FreeRTOS/Source/portable/GCC/ARM_CM4F/portmacro.h ****     typedef portSTACK_TYPE   StackType_t;
  56:../../../../dependencies/freertos/FreeRTOSv10.4.1/FreeRTOS/Source/portable/GCC/ARM_CM4F/portmacro.h ****     typedef long             BaseType_t;
  57:../../../../dependencies/freertos/FreeRTOSv10.4.1/FreeRTOS/Source/portable/GCC/ARM_CM4F/portmacro.h ****     typedef unsigned long    UBaseType_t;
  58:../../../../dependencies/freertos/FreeRTOSv10.4.1/FreeRTOS/Source/portable/GCC/ARM_CM4F/portmacro.h **** 
  59:../../../../dependencies/freertos/FreeRTOSv10.4.1/FreeRTOS/Source/portable/GCC/ARM_CM4F/portmacro.h ****     #if ( configUSE_16_BIT_TICKS == 1 )
  60:../../../../dependencies/freertos/FreeRTOSv10.4.1/FreeRTOS/Source/portable/GCC/ARM_CM4F/portmacro.h ****         typedef uint16_t     TickType_t;
  61:../../../../dependencies/freertos/FreeRTOSv10.4.1/FreeRTOS/Source/portable/GCC/ARM_CM4F/portmacro.h ****         #define portMAX_DELAY              ( TickType_t ) 0xffff
  62:../../../../dependencies/freertos/FreeRTOSv10.4.1/FreeRTOS/Source/portable/GCC/ARM_CM4F/portmacro.h ****     #else
  63:../../../../dependencies/freertos/FreeRTOSv10.4.1/FreeRTOS/Source/portable/GCC/ARM_CM4F/portmacro.h ****         typedef uint32_t     TickType_t;
  64:../../../../dependencies/freertos/FreeRTOSv10.4.1/FreeRTOS/Source/portable/GCC/ARM_CM4F/portmacro.h ****         #define portMAX_DELAY              ( TickType_t ) 0xffffffffUL
  65:../../../../dependencies/freertos/FreeRTOSv10.4.1/FreeRTOS/Source/portable/GCC/ARM_CM4F/portmacro.h **** 
  66:../../../../dependencies/freertos/FreeRTOSv10.4.1/FreeRTOS/Source/portable/GCC/ARM_CM4F/portmacro.h **** /* 32-bit tick type on a 32-bit architecture, so reads of the tick count do
  67:../../../../dependencies/freertos/FreeRTOSv10.4.1/FreeRTOS/Source/portable/GCC/ARM_CM4F/portmacro.h ****  * not need to be guarded with a critical section. */
  68:../../../../dependencies/freertos/FreeRTOSv10.4.1/FreeRTOS/Source/portable/GCC/ARM_CM4F/portmacro.h ****         #define portTICK_TYPE_IS_ATOMIC    1
  69:../../../../dependencies/freertos/FreeRTOSv10.4.1/FreeRTOS/Source/portable/GCC/ARM_CM4F/portmacro.h ****     #endif
  70:../../../../dependencies/freertos/FreeRTOSv10.4.1/FreeRTOS/Source/portable/GCC/ARM_CM4F/portmacro.h **** /*-----------------------------------------------------------*/
  71:../../../../dependencies/freertos/FreeRTOSv10.4.1/FreeRTOS/Source/portable/GCC/ARM_CM4F/portmacro.h **** 
  72:../../../../dependencies/freertos/FreeRTOSv10.4.1/FreeRTOS/Source/portable/GCC/ARM_CM4F/portmacro.h **** /* Architecture specifics. */
  73:../../../../dependencies/freertos/FreeRTOSv10.4.1/FreeRTOS/Source/portable/GCC/ARM_CM4F/portmacro.h ****     #define portSTACK_GROWTH      ( -1 )
  74:../../../../dependencies/freertos/FreeRTOSv10.4.1/FreeRTOS/Source/portable/GCC/ARM_CM4F/portmacro.h ****     #define portTICK_PERIOD_MS    ( ( TickType_t ) 1000 / configTICK_RATE_HZ )
  75:../../../../dependencies/freertos/FreeRTOSv10.4.1/FreeRTOS/Source/portable/GCC/ARM_CM4F/portmacro.h ****     #define portBYTE_ALIGNMENT    8
  76:../../../../dependencies/freertos/FreeRTOSv10.4.1/FreeRTOS/Source/portable/GCC/ARM_CM4F/portmacro.h ****     #define portDONT_DISCARD      __attribute__( ( used ) )
  77:../../../../dependencies/freertos/FreeRTOSv10.4.1/FreeRTOS/Source/portable/GCC/ARM_CM4F/portmacro.h **** /*-----------------------------------------------------------*/
  78:../../../../dependencies/freertos/FreeRTOSv10.4.1/FreeRTOS/Source/portable/GCC/ARM_CM4F/portmacro.h **** 
  79:../../../../dependencies/freertos/FreeRTOSv10.4.1/FreeRTOS/Source/portable/GCC/ARM_CM4F/portmacro.h **** /* Scheduler utilities. */
  80:../../../../dependencies/freertos/FreeRTOSv10.4.1/FreeRTOS/Source/portable/GCC/ARM_CM4F/portmacro.h ****     #define portYIELD()                                 \
  81:../../../../dependencies/freertos/FreeRTOSv10.4.1/FreeRTOS/Source/portable/GCC/ARM_CM4F/portmacro.h ****     {                                                   \
ARM GAS  /var/folders/kj/yzqgq53j3dg15vgwwwwgf5s00000gn/T//ccIz7yzx.s 			page 8


  82:../../../../dependencies/freertos/FreeRTOSv10.4.1/FreeRTOS/Source/portable/GCC/ARM_CM4F/portmacro.h ****         /* Set a PendSV to request a context switch. */ \
  83:../../../../dependencies/freertos/FreeRTOSv10.4.1/FreeRTOS/Source/portable/GCC/ARM_CM4F/portmacro.h ****         portNVIC_INT_CTRL_REG = portNVIC_PENDSVSET_BIT; \
  84:../../../../dependencies/freertos/FreeRTOSv10.4.1/FreeRTOS/Source/portable/GCC/ARM_CM4F/portmacro.h ****                                                         \
  85:../../../../dependencies/freertos/FreeRTOSv10.4.1/FreeRTOS/Source/portable/GCC/ARM_CM4F/portmacro.h ****         /* Barriers are normally not required but do ensure the code is completely \
  86:../../../../dependencies/freertos/FreeRTOSv10.4.1/FreeRTOS/Source/portable/GCC/ARM_CM4F/portmacro.h ****          * within the specified behaviour for the architecture. */ \
  87:../../../../dependencies/freertos/FreeRTOSv10.4.1/FreeRTOS/Source/portable/GCC/ARM_CM4F/portmacro.h ****         __asm volatile ( "dsb" ::: "memory" );                     \
  88:../../../../dependencies/freertos/FreeRTOSv10.4.1/FreeRTOS/Source/portable/GCC/ARM_CM4F/portmacro.h ****         __asm volatile ( "isb" );                                  \
  89:../../../../dependencies/freertos/FreeRTOSv10.4.1/FreeRTOS/Source/portable/GCC/ARM_CM4F/portmacro.h ****     }
  90:../../../../dependencies/freertos/FreeRTOSv10.4.1/FreeRTOS/Source/portable/GCC/ARM_CM4F/portmacro.h **** 
  91:../../../../dependencies/freertos/FreeRTOSv10.4.1/FreeRTOS/Source/portable/GCC/ARM_CM4F/portmacro.h ****     #define portNVIC_INT_CTRL_REG     ( *( ( volatile uint32_t * ) 0xe000ed04 ) )
  92:../../../../dependencies/freertos/FreeRTOSv10.4.1/FreeRTOS/Source/portable/GCC/ARM_CM4F/portmacro.h ****     #define portNVIC_PENDSVSET_BIT    ( 1UL << 28UL )
  93:../../../../dependencies/freertos/FreeRTOSv10.4.1/FreeRTOS/Source/portable/GCC/ARM_CM4F/portmacro.h ****     #define portEND_SWITCHING_ISR( xSwitchRequired )    if( xSwitchRequired != pdFALSE ) portYIELD(
  94:../../../../dependencies/freertos/FreeRTOSv10.4.1/FreeRTOS/Source/portable/GCC/ARM_CM4F/portmacro.h ****     #define portYIELD_FROM_ISR( x )                     portEND_SWITCHING_ISR( x )
  95:../../../../dependencies/freertos/FreeRTOSv10.4.1/FreeRTOS/Source/portable/GCC/ARM_CM4F/portmacro.h **** /*-----------------------------------------------------------*/
  96:../../../../dependencies/freertos/FreeRTOSv10.4.1/FreeRTOS/Source/portable/GCC/ARM_CM4F/portmacro.h **** 
  97:../../../../dependencies/freertos/FreeRTOSv10.4.1/FreeRTOS/Source/portable/GCC/ARM_CM4F/portmacro.h **** /* Critical section management. */
  98:../../../../dependencies/freertos/FreeRTOSv10.4.1/FreeRTOS/Source/portable/GCC/ARM_CM4F/portmacro.h ****     extern void vPortEnterCritical( void );
  99:../../../../dependencies/freertos/FreeRTOSv10.4.1/FreeRTOS/Source/portable/GCC/ARM_CM4F/portmacro.h ****     extern void vPortExitCritical( void );
 100:../../../../dependencies/freertos/FreeRTOSv10.4.1/FreeRTOS/Source/portable/GCC/ARM_CM4F/portmacro.h ****     #define portSET_INTERRUPT_MASK_FROM_ISR()         ulPortRaiseBASEPRI()
 101:../../../../dependencies/freertos/FreeRTOSv10.4.1/FreeRTOS/Source/portable/GCC/ARM_CM4F/portmacro.h ****     #define portCLEAR_INTERRUPT_MASK_FROM_ISR( x )    vPortSetBASEPRI( x )
 102:../../../../dependencies/freertos/FreeRTOSv10.4.1/FreeRTOS/Source/portable/GCC/ARM_CM4F/portmacro.h ****     #define portDISABLE_INTERRUPTS()                  vPortRaiseBASEPRI()
 103:../../../../dependencies/freertos/FreeRTOSv10.4.1/FreeRTOS/Source/portable/GCC/ARM_CM4F/portmacro.h ****     #define portENABLE_INTERRUPTS()                   vPortSetBASEPRI( 0 )
 104:../../../../dependencies/freertos/FreeRTOSv10.4.1/FreeRTOS/Source/portable/GCC/ARM_CM4F/portmacro.h ****     #define portENTER_CRITICAL()                      vPortEnterCritical()
 105:../../../../dependencies/freertos/FreeRTOSv10.4.1/FreeRTOS/Source/portable/GCC/ARM_CM4F/portmacro.h ****     #define portEXIT_CRITICAL()                       vPortExitCritical()
 106:../../../../dependencies/freertos/FreeRTOSv10.4.1/FreeRTOS/Source/portable/GCC/ARM_CM4F/portmacro.h **** 
 107:../../../../dependencies/freertos/FreeRTOSv10.4.1/FreeRTOS/Source/portable/GCC/ARM_CM4F/portmacro.h **** /*-----------------------------------------------------------*/
 108:../../../../dependencies/freertos/FreeRTOSv10.4.1/FreeRTOS/Source/portable/GCC/ARM_CM4F/portmacro.h **** 
 109:../../../../dependencies/freertos/FreeRTOSv10.4.1/FreeRTOS/Source/portable/GCC/ARM_CM4F/portmacro.h **** /* Task function macros as described on the FreeRTOS.org WEB site.  These are
 110:../../../../dependencies/freertos/FreeRTOSv10.4.1/FreeRTOS/Source/portable/GCC/ARM_CM4F/portmacro.h ****  * not necessary for to use this port.  They are defined so the common demo files
 111:../../../../dependencies/freertos/FreeRTOSv10.4.1/FreeRTOS/Source/portable/GCC/ARM_CM4F/portmacro.h ****  * (which build with all the ports) will build. */
 112:../../../../dependencies/freertos/FreeRTOSv10.4.1/FreeRTOS/Source/portable/GCC/ARM_CM4F/portmacro.h ****     #define portTASK_FUNCTION_PROTO( vFunction, pvParameters )    void vFunction( void * pvParamete
 113:../../../../dependencies/freertos/FreeRTOSv10.4.1/FreeRTOS/Source/portable/GCC/ARM_CM4F/portmacro.h ****     #define portTASK_FUNCTION( vFunction, pvParameters )          void vFunction( void * pvParamete
 114:../../../../dependencies/freertos/FreeRTOSv10.4.1/FreeRTOS/Source/portable/GCC/ARM_CM4F/portmacro.h **** /*-----------------------------------------------------------*/
 115:../../../../dependencies/freertos/FreeRTOSv10.4.1/FreeRTOS/Source/portable/GCC/ARM_CM4F/portmacro.h **** 
 116:../../../../dependencies/freertos/FreeRTOSv10.4.1/FreeRTOS/Source/portable/GCC/ARM_CM4F/portmacro.h **** /* Tickless idle/low power functionality. */
 117:../../../../dependencies/freertos/FreeRTOSv10.4.1/FreeRTOS/Source/portable/GCC/ARM_CM4F/portmacro.h ****     #ifndef portSUPPRESS_TICKS_AND_SLEEP
 118:../../../../dependencies/freertos/FreeRTOSv10.4.1/FreeRTOS/Source/portable/GCC/ARM_CM4F/portmacro.h ****         extern void vPortSuppressTicksAndSleep( TickType_t xExpectedIdleTime );
 119:../../../../dependencies/freertos/FreeRTOSv10.4.1/FreeRTOS/Source/portable/GCC/ARM_CM4F/portmacro.h ****         #define portSUPPRESS_TICKS_AND_SLEEP( xExpectedIdleTime )    vPortSuppressTicksAndSleep( xE
 120:../../../../dependencies/freertos/FreeRTOSv10.4.1/FreeRTOS/Source/portable/GCC/ARM_CM4F/portmacro.h ****     #endif
 121:../../../../dependencies/freertos/FreeRTOSv10.4.1/FreeRTOS/Source/portable/GCC/ARM_CM4F/portmacro.h **** /*-----------------------------------------------------------*/
 122:../../../../dependencies/freertos/FreeRTOSv10.4.1/FreeRTOS/Source/portable/GCC/ARM_CM4F/portmacro.h **** 
 123:../../../../dependencies/freertos/FreeRTOSv10.4.1/FreeRTOS/Source/portable/GCC/ARM_CM4F/portmacro.h **** /* Architecture specific optimisations. */
 124:../../../../dependencies/freertos/FreeRTOSv10.4.1/FreeRTOS/Source/portable/GCC/ARM_CM4F/portmacro.h ****     #ifndef configUSE_PORT_OPTIMISED_TASK_SELECTION
 125:../../../../dependencies/freertos/FreeRTOSv10.4.1/FreeRTOS/Source/portable/GCC/ARM_CM4F/portmacro.h ****         #define configUSE_PORT_OPTIMISED_TASK_SELECTION    1
 126:../../../../dependencies/freertos/FreeRTOSv10.4.1/FreeRTOS/Source/portable/GCC/ARM_CM4F/portmacro.h ****     #endif
 127:../../../../dependencies/freertos/FreeRTOSv10.4.1/FreeRTOS/Source/portable/GCC/ARM_CM4F/portmacro.h **** 
 128:../../../../dependencies/freertos/FreeRTOSv10.4.1/FreeRTOS/Source/portable/GCC/ARM_CM4F/portmacro.h ****     #if configUSE_PORT_OPTIMISED_TASK_SELECTION == 1
 129:../../../../dependencies/freertos/FreeRTOSv10.4.1/FreeRTOS/Source/portable/GCC/ARM_CM4F/portmacro.h **** 
 130:../../../../dependencies/freertos/FreeRTOSv10.4.1/FreeRTOS/Source/portable/GCC/ARM_CM4F/portmacro.h **** /* Generic helper function. */
 131:../../../../dependencies/freertos/FreeRTOSv10.4.1/FreeRTOS/Source/portable/GCC/ARM_CM4F/portmacro.h ****         __attribute__( ( always_inline ) ) static inline uint8_t ucPortCountLeadingZeros( uint32_t 
 132:../../../../dependencies/freertos/FreeRTOSv10.4.1/FreeRTOS/Source/portable/GCC/ARM_CM4F/portmacro.h ****         {
 133:../../../../dependencies/freertos/FreeRTOSv10.4.1/FreeRTOS/Source/portable/GCC/ARM_CM4F/portmacro.h ****             uint8_t ucReturn;
 134:../../../../dependencies/freertos/FreeRTOSv10.4.1/FreeRTOS/Source/portable/GCC/ARM_CM4F/portmacro.h **** 
 135:../../../../dependencies/freertos/FreeRTOSv10.4.1/FreeRTOS/Source/portable/GCC/ARM_CM4F/portmacro.h ****             __asm volatile ( "clz %0, %1" : "=r" ( ucReturn ) : "r" ( ulBitmap ) : "memory" );
 136:../../../../dependencies/freertos/FreeRTOSv10.4.1/FreeRTOS/Source/portable/GCC/ARM_CM4F/portmacro.h **** 
 137:../../../../dependencies/freertos/FreeRTOSv10.4.1/FreeRTOS/Source/portable/GCC/ARM_CM4F/portmacro.h ****             return ucReturn;
 138:../../../../dependencies/freertos/FreeRTOSv10.4.1/FreeRTOS/Source/portable/GCC/ARM_CM4F/portmacro.h ****         }
ARM GAS  /var/folders/kj/yzqgq53j3dg15vgwwwwgf5s00000gn/T//ccIz7yzx.s 			page 9


 139:../../../../dependencies/freertos/FreeRTOSv10.4.1/FreeRTOS/Source/portable/GCC/ARM_CM4F/portmacro.h **** 
 140:../../../../dependencies/freertos/FreeRTOSv10.4.1/FreeRTOS/Source/portable/GCC/ARM_CM4F/portmacro.h **** /* Check the configuration. */
 141:../../../../dependencies/freertos/FreeRTOSv10.4.1/FreeRTOS/Source/portable/GCC/ARM_CM4F/portmacro.h ****         #if ( configMAX_PRIORITIES > 32 )
 142:../../../../dependencies/freertos/FreeRTOSv10.4.1/FreeRTOS/Source/portable/GCC/ARM_CM4F/portmacro.h ****             #error configUSE_PORT_OPTIMISED_TASK_SELECTION can only be set to 1 when configMAX_PRIO
 143:../../../../dependencies/freertos/FreeRTOSv10.4.1/FreeRTOS/Source/portable/GCC/ARM_CM4F/portmacro.h ****         #endif
 144:../../../../dependencies/freertos/FreeRTOSv10.4.1/FreeRTOS/Source/portable/GCC/ARM_CM4F/portmacro.h **** 
 145:../../../../dependencies/freertos/FreeRTOSv10.4.1/FreeRTOS/Source/portable/GCC/ARM_CM4F/portmacro.h **** /* Store/clear the ready priorities in a bit map. */
 146:../../../../dependencies/freertos/FreeRTOSv10.4.1/FreeRTOS/Source/portable/GCC/ARM_CM4F/portmacro.h ****         #define portRECORD_READY_PRIORITY( uxPriority, uxReadyPriorities )    ( uxReadyPriorities )
 147:../../../../dependencies/freertos/FreeRTOSv10.4.1/FreeRTOS/Source/portable/GCC/ARM_CM4F/portmacro.h ****         #define portRESET_READY_PRIORITY( uxPriority, uxReadyPriorities )     ( uxReadyPriorities )
 148:../../../../dependencies/freertos/FreeRTOSv10.4.1/FreeRTOS/Source/portable/GCC/ARM_CM4F/portmacro.h **** 
 149:../../../../dependencies/freertos/FreeRTOSv10.4.1/FreeRTOS/Source/portable/GCC/ARM_CM4F/portmacro.h **** /*-----------------------------------------------------------*/
 150:../../../../dependencies/freertos/FreeRTOSv10.4.1/FreeRTOS/Source/portable/GCC/ARM_CM4F/portmacro.h **** 
 151:../../../../dependencies/freertos/FreeRTOSv10.4.1/FreeRTOS/Source/portable/GCC/ARM_CM4F/portmacro.h ****         #define portGET_HIGHEST_PRIORITY( uxTopPriority, uxReadyPriorities )    uxTopPriority = ( 3
 152:../../../../dependencies/freertos/FreeRTOSv10.4.1/FreeRTOS/Source/portable/GCC/ARM_CM4F/portmacro.h **** 
 153:../../../../dependencies/freertos/FreeRTOSv10.4.1/FreeRTOS/Source/portable/GCC/ARM_CM4F/portmacro.h ****     #endif /* configUSE_PORT_OPTIMISED_TASK_SELECTION */
 154:../../../../dependencies/freertos/FreeRTOSv10.4.1/FreeRTOS/Source/portable/GCC/ARM_CM4F/portmacro.h **** 
 155:../../../../dependencies/freertos/FreeRTOSv10.4.1/FreeRTOS/Source/portable/GCC/ARM_CM4F/portmacro.h **** /*-----------------------------------------------------------*/
 156:../../../../dependencies/freertos/FreeRTOSv10.4.1/FreeRTOS/Source/portable/GCC/ARM_CM4F/portmacro.h **** 
 157:../../../../dependencies/freertos/FreeRTOSv10.4.1/FreeRTOS/Source/portable/GCC/ARM_CM4F/portmacro.h ****     #ifdef configASSERT
 158:../../../../dependencies/freertos/FreeRTOSv10.4.1/FreeRTOS/Source/portable/GCC/ARM_CM4F/portmacro.h ****         void vPortValidateInterruptPriority( void );
 159:../../../../dependencies/freertos/FreeRTOSv10.4.1/FreeRTOS/Source/portable/GCC/ARM_CM4F/portmacro.h ****         #define portASSERT_IF_INTERRUPT_PRIORITY_INVALID()    vPortValidateInterruptPriority()
 160:../../../../dependencies/freertos/FreeRTOSv10.4.1/FreeRTOS/Source/portable/GCC/ARM_CM4F/portmacro.h ****     #endif
 161:../../../../dependencies/freertos/FreeRTOSv10.4.1/FreeRTOS/Source/portable/GCC/ARM_CM4F/portmacro.h **** 
 162:../../../../dependencies/freertos/FreeRTOSv10.4.1/FreeRTOS/Source/portable/GCC/ARM_CM4F/portmacro.h **** /* portNOP() is not required by this port. */
 163:../../../../dependencies/freertos/FreeRTOSv10.4.1/FreeRTOS/Source/portable/GCC/ARM_CM4F/portmacro.h ****     #define portNOP()
 164:../../../../dependencies/freertos/FreeRTOSv10.4.1/FreeRTOS/Source/portable/GCC/ARM_CM4F/portmacro.h **** 
 165:../../../../dependencies/freertos/FreeRTOSv10.4.1/FreeRTOS/Source/portable/GCC/ARM_CM4F/portmacro.h ****     #define portINLINE              __inline
 166:../../../../dependencies/freertos/FreeRTOSv10.4.1/FreeRTOS/Source/portable/GCC/ARM_CM4F/portmacro.h **** 
 167:../../../../dependencies/freertos/FreeRTOSv10.4.1/FreeRTOS/Source/portable/GCC/ARM_CM4F/portmacro.h ****     #ifndef portFORCE_INLINE
 168:../../../../dependencies/freertos/FreeRTOSv10.4.1/FreeRTOS/Source/portable/GCC/ARM_CM4F/portmacro.h ****         #define portFORCE_INLINE    inline __attribute__( ( always_inline ) )
 169:../../../../dependencies/freertos/FreeRTOSv10.4.1/FreeRTOS/Source/portable/GCC/ARM_CM4F/portmacro.h ****     #endif
 170:../../../../dependencies/freertos/FreeRTOSv10.4.1/FreeRTOS/Source/portable/GCC/ARM_CM4F/portmacro.h **** 
 171:../../../../dependencies/freertos/FreeRTOSv10.4.1/FreeRTOS/Source/portable/GCC/ARM_CM4F/portmacro.h ****     portFORCE_INLINE static BaseType_t xPortIsInsideInterrupt( void )
 172:../../../../dependencies/freertos/FreeRTOSv10.4.1/FreeRTOS/Source/portable/GCC/ARM_CM4F/portmacro.h ****     {
 173:../../../../dependencies/freertos/FreeRTOSv10.4.1/FreeRTOS/Source/portable/GCC/ARM_CM4F/portmacro.h ****         uint32_t ulCurrentInterrupt;
 174:../../../../dependencies/freertos/FreeRTOSv10.4.1/FreeRTOS/Source/portable/GCC/ARM_CM4F/portmacro.h ****         BaseType_t xReturn;
 175:../../../../dependencies/freertos/FreeRTOSv10.4.1/FreeRTOS/Source/portable/GCC/ARM_CM4F/portmacro.h **** 
 176:../../../../dependencies/freertos/FreeRTOSv10.4.1/FreeRTOS/Source/portable/GCC/ARM_CM4F/portmacro.h ****         /* Obtain the number of the currently executing interrupt. */
 177:../../../../dependencies/freertos/FreeRTOSv10.4.1/FreeRTOS/Source/portable/GCC/ARM_CM4F/portmacro.h ****         __asm volatile ( "mrs %0, ipsr" : "=r" ( ulCurrentInterrupt )::"memory" );
 178:../../../../dependencies/freertos/FreeRTOSv10.4.1/FreeRTOS/Source/portable/GCC/ARM_CM4F/portmacro.h **** 
 179:../../../../dependencies/freertos/FreeRTOSv10.4.1/FreeRTOS/Source/portable/GCC/ARM_CM4F/portmacro.h ****         if( ulCurrentInterrupt == 0 )
 180:../../../../dependencies/freertos/FreeRTOSv10.4.1/FreeRTOS/Source/portable/GCC/ARM_CM4F/portmacro.h ****         {
 181:../../../../dependencies/freertos/FreeRTOSv10.4.1/FreeRTOS/Source/portable/GCC/ARM_CM4F/portmacro.h ****             xReturn = pdFALSE;
 182:../../../../dependencies/freertos/FreeRTOSv10.4.1/FreeRTOS/Source/portable/GCC/ARM_CM4F/portmacro.h ****         }
 183:../../../../dependencies/freertos/FreeRTOSv10.4.1/FreeRTOS/Source/portable/GCC/ARM_CM4F/portmacro.h ****         else
 184:../../../../dependencies/freertos/FreeRTOSv10.4.1/FreeRTOS/Source/portable/GCC/ARM_CM4F/portmacro.h ****         {
 185:../../../../dependencies/freertos/FreeRTOSv10.4.1/FreeRTOS/Source/portable/GCC/ARM_CM4F/portmacro.h ****             xReturn = pdTRUE;
 186:../../../../dependencies/freertos/FreeRTOSv10.4.1/FreeRTOS/Source/portable/GCC/ARM_CM4F/portmacro.h ****         }
 187:../../../../dependencies/freertos/FreeRTOSv10.4.1/FreeRTOS/Source/portable/GCC/ARM_CM4F/portmacro.h **** 
 188:../../../../dependencies/freertos/FreeRTOSv10.4.1/FreeRTOS/Source/portable/GCC/ARM_CM4F/portmacro.h ****         return xReturn;
 189:../../../../dependencies/freertos/FreeRTOSv10.4.1/FreeRTOS/Source/portable/GCC/ARM_CM4F/portmacro.h ****     }
 190:../../../../dependencies/freertos/FreeRTOSv10.4.1/FreeRTOS/Source/portable/GCC/ARM_CM4F/portmacro.h **** 
 191:../../../../dependencies/freertos/FreeRTOSv10.4.1/FreeRTOS/Source/portable/GCC/ARM_CM4F/portmacro.h **** /*-----------------------------------------------------------*/
 192:../../../../dependencies/freertos/FreeRTOSv10.4.1/FreeRTOS/Source/portable/GCC/ARM_CM4F/portmacro.h **** 
 193:../../../../dependencies/freertos/FreeRTOSv10.4.1/FreeRTOS/Source/portable/GCC/ARM_CM4F/portmacro.h ****     portFORCE_INLINE static void vPortRaiseBASEPRI( void )
 194:../../../../dependencies/freertos/FreeRTOSv10.4.1/FreeRTOS/Source/portable/GCC/ARM_CM4F/portmacro.h ****     {
 195:../../../../dependencies/freertos/FreeRTOSv10.4.1/FreeRTOS/Source/portable/GCC/ARM_CM4F/portmacro.h ****         uint32_t ulNewBASEPRI;
ARM GAS  /var/folders/kj/yzqgq53j3dg15vgwwwwgf5s00000gn/T//ccIz7yzx.s 			page 10


 196:../../../../dependencies/freertos/FreeRTOSv10.4.1/FreeRTOS/Source/portable/GCC/ARM_CM4F/portmacro.h **** 
 197:../../../../dependencies/freertos/FreeRTOSv10.4.1/FreeRTOS/Source/portable/GCC/ARM_CM4F/portmacro.h ****         __asm volatile
 120              		.loc 2 197 9
 121              		.syntax unified
 122              	@ 197 "../../../../dependencies/freertos/FreeRTOSv10.4.1/FreeRTOS/Source/portable/GCC/ARM_CM4F/port
 123 0020 4FF05003 			mov r3, #80												
 124 0024 83F31188 		msr basepri, r3											
 125 0028 BFF36F8F 		isb														
 126 002c BFF34F8F 		dsb														
 127              	
 128              	@ 0 "" 2
 129              		.thumb
 130              		.syntax unified
 131 0030 BB61     		str	r3, [r7, #24]
 198:../../../../dependencies/freertos/FreeRTOSv10.4.1/FreeRTOS/Source/portable/GCC/ARM_CM4F/portmacro.h ****         (
 199:../../../../dependencies/freertos/FreeRTOSv10.4.1/FreeRTOS/Source/portable/GCC/ARM_CM4F/portmacro.h ****             "	mov %0, %1												\n"\
 200:../../../../dependencies/freertos/FreeRTOSv10.4.1/FreeRTOS/Source/portable/GCC/ARM_CM4F/portmacro.h ****             "	msr basepri, %0											\n"\
 201:../../../../dependencies/freertos/FreeRTOSv10.4.1/FreeRTOS/Source/portable/GCC/ARM_CM4F/portmacro.h ****             "	isb														\n"\
 202:../../../../dependencies/freertos/FreeRTOSv10.4.1/FreeRTOS/Source/portable/GCC/ARM_CM4F/portmacro.h ****             "	dsb														\n"\
 203:../../../../dependencies/freertos/FreeRTOSv10.4.1/FreeRTOS/Source/portable/GCC/ARM_CM4F/portmacro.h ****             : "=r" ( ulNewBASEPRI ) : "i" ( configMAX_SYSCALL_INTERRUPT_PRIORITY ) : "memory"
 204:../../../../dependencies/freertos/FreeRTOSv10.4.1/FreeRTOS/Source/portable/GCC/ARM_CM4F/portmacro.h ****         );
 205:../../../../dependencies/freertos/FreeRTOSv10.4.1/FreeRTOS/Source/portable/GCC/ARM_CM4F/portmacro.h ****     }
 132              		.loc 2 205 5
 133 0032 00BF     		nop
 134              	.L6:
 135              	.LBE32:
 136              	.LBE31:
 137              		.loc 1 202 5 discriminator 1
 138 0034 FEE7     		b	.L6
 139              	.L5:
 203:../../../../dependencies/freertos/FreeRTOSv10.4.1/FreeRTOS/Source/event_groups.c ****     configASSERT( uxBitsToWaitFor != 0 );
 140              		.loc 1 203 5
 141 0036 7B68     		ldr	r3, [r7, #4]
 142 0038 002B     		cmp	r3, #0
 143 003a 0AD1     		bne	.L7
 144              	.LBB33:
 145              	.LBB34:
 197:../../../../dependencies/freertos/FreeRTOSv10.4.1/FreeRTOS/Source/portable/GCC/ARM_CM4F/portmacro.h ****         (
 146              		.loc 2 197 9
 147              		.syntax unified
 148              	@ 197 "../../../../dependencies/freertos/FreeRTOSv10.4.1/FreeRTOS/Source/portable/GCC/ARM_CM4F/port
 149 003c 4FF05003 			mov r3, #80												
 150 0040 83F31188 		msr basepri, r3											
 151 0044 BFF36F8F 		isb														
 152 0048 BFF34F8F 		dsb														
 153              	
 154              	@ 0 "" 2
 155              		.thumb
 156              		.syntax unified
 157 004c 7B61     		str	r3, [r7, #20]
 158              		.loc 2 205 5
 159 004e 00BF     		nop
 160              	.L8:
 161              	.LBE34:
 162              	.LBE33:
 163              		.loc 1 203 5 discriminator 2
 164 0050 FEE7     		b	.L8
ARM GAS  /var/folders/kj/yzqgq53j3dg15vgwwwwgf5s00000gn/T//ccIz7yzx.s 			page 11


 165              	.L7:
 204:../../../../dependencies/freertos/FreeRTOSv10.4.1/FreeRTOS/Source/event_groups.c ****     #if ( ( INCLUDE_xTaskGetSchedulerState == 1 ) || ( configUSE_TIMERS == 1 ) )
 205:../../../../dependencies/freertos/FreeRTOSv10.4.1/FreeRTOS/Source/event_groups.c ****         {
 206:../../../../dependencies/freertos/FreeRTOSv10.4.1/FreeRTOS/Source/event_groups.c ****             configASSERT( !( ( xTaskGetSchedulerState() == taskSCHEDULER_SUSPENDED ) && ( xTicksToW
 166              		.loc 1 206 13
 167 0052 FFF7FEFF 		bl	xTaskGetSchedulerState
 168 0056 0346     		mov	r3, r0
 169 0058 002B     		cmp	r3, #0
 170 005a 02D1     		bne	.L9
 171              		.loc 1 206 13 is_stmt 0 discriminator 2
 172 005c 3B68     		ldr	r3, [r7]
 173 005e 002B     		cmp	r3, #0
 174 0060 01D1     		bne	.L10
 175              	.L9:
 176              		.loc 1 206 13 discriminator 3
 177 0062 0123     		movs	r3, #1
 178 0064 00E0     		b	.L11
 179              	.L10:
 180              		.loc 1 206 13 discriminator 4
 181 0066 0023     		movs	r3, #0
 182              	.L11:
 183              		.loc 1 206 13 discriminator 6
 184 0068 002B     		cmp	r3, #0
 185 006a 0AD1     		bne	.L12
 186              	.LBB35:
 187              	.LBB36:
 197:../../../../dependencies/freertos/FreeRTOSv10.4.1/FreeRTOS/Source/portable/GCC/ARM_CM4F/portmacro.h ****         (
 188              		.loc 2 197 9 is_stmt 1
 189              		.syntax unified
 190              	@ 197 "../../../../dependencies/freertos/FreeRTOSv10.4.1/FreeRTOS/Source/portable/GCC/ARM_CM4F/port
 191 006c 4FF05003 			mov r3, #80												
 192 0070 83F31188 		msr basepri, r3											
 193 0074 BFF36F8F 		isb														
 194 0078 BFF34F8F 		dsb														
 195              	
 196              	@ 0 "" 2
 197              		.thumb
 198              		.syntax unified
 199 007c 3B61     		str	r3, [r7, #16]
 200              		.loc 2 205 5
 201 007e 00BF     		nop
 202              	.L13:
 203              	.LBE36:
 204              	.LBE35:
 205              		.loc 1 206 13 discriminator 3
 206 0080 FEE7     		b	.L13
 207              	.L12:
 207:../../../../dependencies/freertos/FreeRTOSv10.4.1/FreeRTOS/Source/event_groups.c ****         }
 208:../../../../dependencies/freertos/FreeRTOSv10.4.1/FreeRTOS/Source/event_groups.c ****     #endif
 209:../../../../dependencies/freertos/FreeRTOSv10.4.1/FreeRTOS/Source/event_groups.c **** 
 210:../../../../dependencies/freertos/FreeRTOSv10.4.1/FreeRTOS/Source/event_groups.c ****     vTaskSuspendAll();
 208              		.loc 1 210 5
 209 0082 FFF7FEFF 		bl	vTaskSuspendAll
 211:../../../../dependencies/freertos/FreeRTOSv10.4.1/FreeRTOS/Source/event_groups.c ****     {
 212:../../../../dependencies/freertos/FreeRTOSv10.4.1/FreeRTOS/Source/event_groups.c ****         uxOriginalBitValue = pxEventBits->uxEventBits;
 210              		.loc 1 212 28
 211 0086 BB6A     		ldr	r3, [r7, #40]
ARM GAS  /var/folders/kj/yzqgq53j3dg15vgwwwwgf5s00000gn/T//ccIz7yzx.s 			page 12


 212 0088 1B68     		ldr	r3, [r3]
 213 008a 3B62     		str	r3, [r7, #32]
 213:../../../../dependencies/freertos/FreeRTOSv10.4.1/FreeRTOS/Source/event_groups.c **** 
 214:../../../../dependencies/freertos/FreeRTOSv10.4.1/FreeRTOS/Source/event_groups.c ****         ( void ) xEventGroupSetBits( xEventGroup, uxBitsToSet );
 214              		.loc 1 214 18
 215 008c B968     		ldr	r1, [r7, #8]
 216 008e F868     		ldr	r0, [r7, #12]
 217 0090 FFF7FEFF 		bl	xEventGroupSetBits
 215:../../../../dependencies/freertos/FreeRTOSv10.4.1/FreeRTOS/Source/event_groups.c **** 
 216:../../../../dependencies/freertos/FreeRTOSv10.4.1/FreeRTOS/Source/event_groups.c ****         if( ( ( uxOriginalBitValue | uxBitsToSet ) & uxBitsToWaitFor ) == uxBitsToWaitFor )
 218              		.loc 1 216 36
 219 0094 3A6A     		ldr	r2, [r7, #32]
 220 0096 BB68     		ldr	r3, [r7, #8]
 221 0098 1A43     		orrs	r2, r2, r3
 222              		.loc 1 216 52
 223 009a 7B68     		ldr	r3, [r7, #4]
 224 009c 1340     		ands	r3, r3, r2
 225              		.loc 1 216 11
 226 009e 7A68     		ldr	r2, [r7, #4]
 227 00a0 9A42     		cmp	r2, r3
 228 00a2 0DD1     		bne	.L14
 217:../../../../dependencies/freertos/FreeRTOSv10.4.1/FreeRTOS/Source/event_groups.c ****         {
 218:../../../../dependencies/freertos/FreeRTOSv10.4.1/FreeRTOS/Source/event_groups.c ****             /* All the rendezvous bits are now set - no need to block. */
 219:../../../../dependencies/freertos/FreeRTOSv10.4.1/FreeRTOS/Source/event_groups.c ****             uxReturn = ( uxOriginalBitValue | uxBitsToSet );
 229              		.loc 1 219 22
 230 00a4 3A6A     		ldr	r2, [r7, #32]
 231 00a6 BB68     		ldr	r3, [r7, #8]
 232 00a8 1343     		orrs	r3, r3, r2
 233 00aa FB62     		str	r3, [r7, #44]
 220:../../../../dependencies/freertos/FreeRTOSv10.4.1/FreeRTOS/Source/event_groups.c **** 
 221:../../../../dependencies/freertos/FreeRTOSv10.4.1/FreeRTOS/Source/event_groups.c ****             /* Rendezvous always clear the bits.  They will have been cleared
 222:../../../../dependencies/freertos/FreeRTOSv10.4.1/FreeRTOS/Source/event_groups.c ****              * already unless this is the only task in the rendezvous. */
 223:../../../../dependencies/freertos/FreeRTOSv10.4.1/FreeRTOS/Source/event_groups.c ****             pxEventBits->uxEventBits &= ~uxBitsToWaitFor;
 234              		.loc 1 223 38
 235 00ac BB6A     		ldr	r3, [r7, #40]
 236 00ae 1A68     		ldr	r2, [r3]
 237              		.loc 1 223 41
 238 00b0 7B68     		ldr	r3, [r7, #4]
 239 00b2 DB43     		mvns	r3, r3
 240              		.loc 1 223 38
 241 00b4 1A40     		ands	r2, r2, r3
 242 00b6 BB6A     		ldr	r3, [r7, #40]
 243 00b8 1A60     		str	r2, [r3]
 224:../../../../dependencies/freertos/FreeRTOSv10.4.1/FreeRTOS/Source/event_groups.c **** 
 225:../../../../dependencies/freertos/FreeRTOSv10.4.1/FreeRTOS/Source/event_groups.c ****             xTicksToWait = 0;
 244              		.loc 1 225 26
 245 00ba 0023     		movs	r3, #0
 246 00bc 3B60     		str	r3, [r7]
 247 00be 13E0     		b	.L15
 248              	.L14:
 226:../../../../dependencies/freertos/FreeRTOSv10.4.1/FreeRTOS/Source/event_groups.c ****         }
 227:../../../../dependencies/freertos/FreeRTOSv10.4.1/FreeRTOS/Source/event_groups.c ****         else
 228:../../../../dependencies/freertos/FreeRTOSv10.4.1/FreeRTOS/Source/event_groups.c ****         {
 229:../../../../dependencies/freertos/FreeRTOSv10.4.1/FreeRTOS/Source/event_groups.c ****             if( xTicksToWait != ( TickType_t ) 0 )
 249              		.loc 1 229 15
 250 00c0 3B68     		ldr	r3, [r7]
 251 00c2 002B     		cmp	r3, #0
ARM GAS  /var/folders/kj/yzqgq53j3dg15vgwwwwgf5s00000gn/T//ccIz7yzx.s 			page 13


 252 00c4 0BD0     		beq	.L16
 230:../../../../dependencies/freertos/FreeRTOSv10.4.1/FreeRTOS/Source/event_groups.c ****             {
 231:../../../../dependencies/freertos/FreeRTOSv10.4.1/FreeRTOS/Source/event_groups.c ****                 traceEVENT_GROUP_SYNC_BLOCK( xEventGroup, uxBitsToSet, uxBitsToWaitFor );
 232:../../../../dependencies/freertos/FreeRTOSv10.4.1/FreeRTOS/Source/event_groups.c **** 
 233:../../../../dependencies/freertos/FreeRTOSv10.4.1/FreeRTOS/Source/event_groups.c ****                 /* Store the bits that the calling task is waiting for in the
 234:../../../../dependencies/freertos/FreeRTOSv10.4.1/FreeRTOS/Source/event_groups.c ****                  * task's event list item so the kernel knows when a match is
 235:../../../../dependencies/freertos/FreeRTOSv10.4.1/FreeRTOS/Source/event_groups.c ****                  * found.  Then enter the blocked state. */
 236:../../../../dependencies/freertos/FreeRTOSv10.4.1/FreeRTOS/Source/event_groups.c ****                 vTaskPlaceOnUnorderedEventList( &( pxEventBits->xTasksWaitingForBits ), ( uxBitsToW
 253              		.loc 1 236 17
 254 00c6 BB6A     		ldr	r3, [r7, #40]
 255 00c8 181D     		adds	r0, r3, #4
 256 00ca 7B68     		ldr	r3, [r7, #4]
 257 00cc 43F0A063 		orr	r3, r3, #83886080
 258 00d0 3A68     		ldr	r2, [r7]
 259 00d2 1946     		mov	r1, r3
 260 00d4 FFF7FEFF 		bl	vTaskPlaceOnUnorderedEventList
 237:../../../../dependencies/freertos/FreeRTOSv10.4.1/FreeRTOS/Source/event_groups.c **** 
 238:../../../../dependencies/freertos/FreeRTOSv10.4.1/FreeRTOS/Source/event_groups.c ****                 /* This assignment is obsolete as uxReturn will get set after
 239:../../../../dependencies/freertos/FreeRTOSv10.4.1/FreeRTOS/Source/event_groups.c ****                  * the task unblocks, but some compilers mistakenly generate a
 240:../../../../dependencies/freertos/FreeRTOSv10.4.1/FreeRTOS/Source/event_groups.c ****                  * warning about uxReturn being returned without being set if the
 241:../../../../dependencies/freertos/FreeRTOSv10.4.1/FreeRTOS/Source/event_groups.c ****                  * assignment is omitted. */
 242:../../../../dependencies/freertos/FreeRTOSv10.4.1/FreeRTOS/Source/event_groups.c ****                 uxReturn = 0;
 261              		.loc 1 242 26
 262 00d8 0023     		movs	r3, #0
 263 00da FB62     		str	r3, [r7, #44]
 264 00dc 04E0     		b	.L15
 265              	.L16:
 243:../../../../dependencies/freertos/FreeRTOSv10.4.1/FreeRTOS/Source/event_groups.c ****             }
 244:../../../../dependencies/freertos/FreeRTOSv10.4.1/FreeRTOS/Source/event_groups.c ****             else
 245:../../../../dependencies/freertos/FreeRTOSv10.4.1/FreeRTOS/Source/event_groups.c ****             {
 246:../../../../dependencies/freertos/FreeRTOSv10.4.1/FreeRTOS/Source/event_groups.c ****                 /* The rendezvous bits were not set, but no block time was
 247:../../../../dependencies/freertos/FreeRTOSv10.4.1/FreeRTOS/Source/event_groups.c ****                  * specified - just return the current event bit value. */
 248:../../../../dependencies/freertos/FreeRTOSv10.4.1/FreeRTOS/Source/event_groups.c ****                 uxReturn = pxEventBits->uxEventBits;
 266              		.loc 1 248 26
 267 00de BB6A     		ldr	r3, [r7, #40]
 268 00e0 1B68     		ldr	r3, [r3]
 269 00e2 FB62     		str	r3, [r7, #44]
 249:../../../../dependencies/freertos/FreeRTOSv10.4.1/FreeRTOS/Source/event_groups.c ****                 xTimeoutOccurred = pdTRUE;
 270              		.loc 1 249 34
 271 00e4 0123     		movs	r3, #1
 272 00e6 7B62     		str	r3, [r7, #36]
 273              	.L15:
 250:../../../../dependencies/freertos/FreeRTOSv10.4.1/FreeRTOS/Source/event_groups.c ****             }
 251:../../../../dependencies/freertos/FreeRTOSv10.4.1/FreeRTOS/Source/event_groups.c ****         }
 252:../../../../dependencies/freertos/FreeRTOSv10.4.1/FreeRTOS/Source/event_groups.c ****     }
 253:../../../../dependencies/freertos/FreeRTOSv10.4.1/FreeRTOS/Source/event_groups.c ****     xAlreadyYielded = xTaskResumeAll();
 274              		.loc 1 253 23
 275 00e8 FFF7FEFF 		bl	xTaskResumeAll
 276 00ec F861     		str	r0, [r7, #28]
 254:../../../../dependencies/freertos/FreeRTOSv10.4.1/FreeRTOS/Source/event_groups.c **** 
 255:../../../../dependencies/freertos/FreeRTOSv10.4.1/FreeRTOS/Source/event_groups.c ****     if( xTicksToWait != ( TickType_t ) 0 )
 277              		.loc 1 255 7
 278 00ee 3B68     		ldr	r3, [r7]
 279 00f0 002B     		cmp	r3, #0
 280 00f2 2CD0     		beq	.L17
 256:../../../../dependencies/freertos/FreeRTOSv10.4.1/FreeRTOS/Source/event_groups.c ****     {
 257:../../../../dependencies/freertos/FreeRTOSv10.4.1/FreeRTOS/Source/event_groups.c ****         if( xAlreadyYielded == pdFALSE )
ARM GAS  /var/folders/kj/yzqgq53j3dg15vgwwwwgf5s00000gn/T//ccIz7yzx.s 			page 14


 281              		.loc 1 257 11
 282 00f4 FB69     		ldr	r3, [r7, #28]
 283 00f6 002B     		cmp	r3, #0
 284 00f8 07D1     		bne	.L18
 258:../../../../dependencies/freertos/FreeRTOSv10.4.1/FreeRTOS/Source/event_groups.c ****         {
 259:../../../../dependencies/freertos/FreeRTOSv10.4.1/FreeRTOS/Source/event_groups.c ****             portYIELD_WITHIN_API();
 285              		.loc 1 259 13
 286 00fa 174B     		ldr	r3, .L22
 287 00fc 4FF08052 		mov	r2, #268435456
 288 0100 1A60     		str	r2, [r3]
 289              		.syntax unified
 290              	@ 259 "../../../../dependencies/freertos/FreeRTOSv10.4.1/FreeRTOS/Source/event_groups.c" 1
 291 0102 BFF34F8F 		dsb
 292              	@ 0 "" 2
 293              	@ 259 "../../../../dependencies/freertos/FreeRTOSv10.4.1/FreeRTOS/Source/event_groups.c" 1
 294 0106 BFF36F8F 		isb
 295              	@ 0 "" 2
 296              		.thumb
 297              		.syntax unified
 298              	.L18:
 260:../../../../dependencies/freertos/FreeRTOSv10.4.1/FreeRTOS/Source/event_groups.c ****         }
 261:../../../../dependencies/freertos/FreeRTOSv10.4.1/FreeRTOS/Source/event_groups.c ****         else
 262:../../../../dependencies/freertos/FreeRTOSv10.4.1/FreeRTOS/Source/event_groups.c ****         {
 263:../../../../dependencies/freertos/FreeRTOSv10.4.1/FreeRTOS/Source/event_groups.c ****             mtCOVERAGE_TEST_MARKER();
 264:../../../../dependencies/freertos/FreeRTOSv10.4.1/FreeRTOS/Source/event_groups.c ****         }
 265:../../../../dependencies/freertos/FreeRTOSv10.4.1/FreeRTOS/Source/event_groups.c **** 
 266:../../../../dependencies/freertos/FreeRTOSv10.4.1/FreeRTOS/Source/event_groups.c ****         /* The task blocked to wait for its required bits to be set - at this
 267:../../../../dependencies/freertos/FreeRTOSv10.4.1/FreeRTOS/Source/event_groups.c ****          * point either the required bits were set or the block time expired.  If
 268:../../../../dependencies/freertos/FreeRTOSv10.4.1/FreeRTOS/Source/event_groups.c ****          * the required bits were set they will have been stored in the task's
 269:../../../../dependencies/freertos/FreeRTOSv10.4.1/FreeRTOS/Source/event_groups.c ****          * event list item, and they should now be retrieved then cleared. */
 270:../../../../dependencies/freertos/FreeRTOSv10.4.1/FreeRTOS/Source/event_groups.c ****         uxReturn = uxTaskResetEventItemValue();
 299              		.loc 1 270 20
 300 010a FFF7FEFF 		bl	uxTaskResetEventItemValue
 301 010e F862     		str	r0, [r7, #44]
 271:../../../../dependencies/freertos/FreeRTOSv10.4.1/FreeRTOS/Source/event_groups.c **** 
 272:../../../../dependencies/freertos/FreeRTOSv10.4.1/FreeRTOS/Source/event_groups.c ****         if( ( uxReturn & eventUNBLOCKED_DUE_TO_BIT_SET ) == ( EventBits_t ) 0 )
 302              		.loc 1 272 24
 303 0110 FB6A     		ldr	r3, [r7, #44]
 304 0112 03F00073 		and	r3, r3, #33554432
 305              		.loc 1 272 11
 306 0116 002B     		cmp	r3, #0
 307 0118 15D1     		bne	.L19
 273:../../../../dependencies/freertos/FreeRTOSv10.4.1/FreeRTOS/Source/event_groups.c ****         {
 274:../../../../dependencies/freertos/FreeRTOSv10.4.1/FreeRTOS/Source/event_groups.c ****             /* The task timed out, just return the current event bit value. */
 275:../../../../dependencies/freertos/FreeRTOSv10.4.1/FreeRTOS/Source/event_groups.c ****             taskENTER_CRITICAL();
 308              		.loc 1 275 13
 309 011a FFF7FEFF 		bl	vPortEnterCritical
 276:../../../../dependencies/freertos/FreeRTOSv10.4.1/FreeRTOS/Source/event_groups.c ****             {
 277:../../../../dependencies/freertos/FreeRTOSv10.4.1/FreeRTOS/Source/event_groups.c ****                 uxReturn = pxEventBits->uxEventBits;
 310              		.loc 1 277 26
 311 011e BB6A     		ldr	r3, [r7, #40]
 312 0120 1B68     		ldr	r3, [r3]
 313 0122 FB62     		str	r3, [r7, #44]
 278:../../../../dependencies/freertos/FreeRTOSv10.4.1/FreeRTOS/Source/event_groups.c **** 
 279:../../../../dependencies/freertos/FreeRTOSv10.4.1/FreeRTOS/Source/event_groups.c ****                 /* Although the task got here because it timed out before the
 280:../../../../dependencies/freertos/FreeRTOSv10.4.1/FreeRTOS/Source/event_groups.c ****                  * bits it was waiting for were set, it is possible that since it
 281:../../../../dependencies/freertos/FreeRTOSv10.4.1/FreeRTOS/Source/event_groups.c ****                  * unblocked another task has set the bits.  If this is the case
ARM GAS  /var/folders/kj/yzqgq53j3dg15vgwwwwgf5s00000gn/T//ccIz7yzx.s 			page 15


 282:../../../../dependencies/freertos/FreeRTOSv10.4.1/FreeRTOS/Source/event_groups.c ****                  * then it needs to clear the bits before exiting. */
 283:../../../../dependencies/freertos/FreeRTOSv10.4.1/FreeRTOS/Source/event_groups.c ****                 if( ( uxReturn & uxBitsToWaitFor ) == uxBitsToWaitFor )
 314              		.loc 1 283 32
 315 0124 FA6A     		ldr	r2, [r7, #44]
 316 0126 7B68     		ldr	r3, [r7, #4]
 317 0128 1340     		ands	r3, r3, r2
 318              		.loc 1 283 19
 319 012a 7A68     		ldr	r2, [r7, #4]
 320 012c 9A42     		cmp	r2, r3
 321 012e 06D1     		bne	.L20
 284:../../../../dependencies/freertos/FreeRTOSv10.4.1/FreeRTOS/Source/event_groups.c ****                 {
 285:../../../../dependencies/freertos/FreeRTOSv10.4.1/FreeRTOS/Source/event_groups.c ****                     pxEventBits->uxEventBits &= ~uxBitsToWaitFor;
 322              		.loc 1 285 46
 323 0130 BB6A     		ldr	r3, [r7, #40]
 324 0132 1A68     		ldr	r2, [r3]
 325              		.loc 1 285 49
 326 0134 7B68     		ldr	r3, [r7, #4]
 327 0136 DB43     		mvns	r3, r3
 328              		.loc 1 285 46
 329 0138 1A40     		ands	r2, r2, r3
 330 013a BB6A     		ldr	r3, [r7, #40]
 331 013c 1A60     		str	r2, [r3]
 332              	.L20:
 286:../../../../dependencies/freertos/FreeRTOSv10.4.1/FreeRTOS/Source/event_groups.c ****                 }
 287:../../../../dependencies/freertos/FreeRTOSv10.4.1/FreeRTOS/Source/event_groups.c ****                 else
 288:../../../../dependencies/freertos/FreeRTOSv10.4.1/FreeRTOS/Source/event_groups.c ****                 {
 289:../../../../dependencies/freertos/FreeRTOSv10.4.1/FreeRTOS/Source/event_groups.c ****                     mtCOVERAGE_TEST_MARKER();
 290:../../../../dependencies/freertos/FreeRTOSv10.4.1/FreeRTOS/Source/event_groups.c ****                 }
 291:../../../../dependencies/freertos/FreeRTOSv10.4.1/FreeRTOS/Source/event_groups.c ****             }
 292:../../../../dependencies/freertos/FreeRTOSv10.4.1/FreeRTOS/Source/event_groups.c ****             taskEXIT_CRITICAL();
 333              		.loc 1 292 13
 334 013e FFF7FEFF 		bl	vPortExitCritical
 293:../../../../dependencies/freertos/FreeRTOSv10.4.1/FreeRTOS/Source/event_groups.c **** 
 294:../../../../dependencies/freertos/FreeRTOSv10.4.1/FreeRTOS/Source/event_groups.c ****             xTimeoutOccurred = pdTRUE;
 335              		.loc 1 294 30
 336 0142 0123     		movs	r3, #1
 337 0144 7B62     		str	r3, [r7, #36]
 338              	.L19:
 295:../../../../dependencies/freertos/FreeRTOSv10.4.1/FreeRTOS/Source/event_groups.c ****         }
 296:../../../../dependencies/freertos/FreeRTOSv10.4.1/FreeRTOS/Source/event_groups.c ****         else
 297:../../../../dependencies/freertos/FreeRTOSv10.4.1/FreeRTOS/Source/event_groups.c ****         {
 298:../../../../dependencies/freertos/FreeRTOSv10.4.1/FreeRTOS/Source/event_groups.c ****             /* The task unblocked because the bits were set. */
 299:../../../../dependencies/freertos/FreeRTOSv10.4.1/FreeRTOS/Source/event_groups.c ****         }
 300:../../../../dependencies/freertos/FreeRTOSv10.4.1/FreeRTOS/Source/event_groups.c **** 
 301:../../../../dependencies/freertos/FreeRTOSv10.4.1/FreeRTOS/Source/event_groups.c ****         /* Control bits might be set as the task had blocked should not be
 302:../../../../dependencies/freertos/FreeRTOSv10.4.1/FreeRTOS/Source/event_groups.c ****          * returned. */
 303:../../../../dependencies/freertos/FreeRTOSv10.4.1/FreeRTOS/Source/event_groups.c ****         uxReturn &= ~eventEVENT_BITS_CONTROL_BYTES;
 339              		.loc 1 303 18
 340 0146 FB6A     		ldr	r3, [r7, #44]
 341 0148 23F07F43 		bic	r3, r3, #-16777216
 342 014c FB62     		str	r3, [r7, #44]
 343              	.L17:
 304:../../../../dependencies/freertos/FreeRTOSv10.4.1/FreeRTOS/Source/event_groups.c ****     }
 305:../../../../dependencies/freertos/FreeRTOSv10.4.1/FreeRTOS/Source/event_groups.c **** 
 306:../../../../dependencies/freertos/FreeRTOSv10.4.1/FreeRTOS/Source/event_groups.c ****     traceEVENT_GROUP_SYNC_END( xEventGroup, uxBitsToSet, uxBitsToWaitFor, xTimeoutOccurred );
 307:../../../../dependencies/freertos/FreeRTOSv10.4.1/FreeRTOS/Source/event_groups.c **** 
 308:../../../../dependencies/freertos/FreeRTOSv10.4.1/FreeRTOS/Source/event_groups.c ****     /* Prevent compiler warnings when trace macros are not used. */
ARM GAS  /var/folders/kj/yzqgq53j3dg15vgwwwwgf5s00000gn/T//ccIz7yzx.s 			page 16


 309:../../../../dependencies/freertos/FreeRTOSv10.4.1/FreeRTOS/Source/event_groups.c ****     ( void ) xTimeoutOccurred;
 310:../../../../dependencies/freertos/FreeRTOSv10.4.1/FreeRTOS/Source/event_groups.c **** 
 311:../../../../dependencies/freertos/FreeRTOSv10.4.1/FreeRTOS/Source/event_groups.c ****     return uxReturn;
 344              		.loc 1 311 12
 345 014e FB6A     		ldr	r3, [r7, #44]
 312:../../../../dependencies/freertos/FreeRTOSv10.4.1/FreeRTOS/Source/event_groups.c **** }
 346              		.loc 1 312 1
 347 0150 1846     		mov	r0, r3
 348 0152 3037     		adds	r7, r7, #48
 349              	.LCFI8:
 350              		.cfi_def_cfa_offset 8
 351 0154 BD46     		mov	sp, r7
 352              	.LCFI9:
 353              		.cfi_def_cfa_register 13
 354              		@ sp needed
 355 0156 80BD     		pop	{r7, pc}
 356              	.L23:
 357              		.align	2
 358              	.L22:
 359 0158 04ED00E0 		.word	-536810236
 360              		.cfi_endproc
 361              	.LFE6:
 363              		.section	.text.xEventGroupWaitBits,"ax",%progbits
 364              		.align	1
 365              		.global	xEventGroupWaitBits
 366              		.syntax unified
 367              		.thumb
 368              		.thumb_func
 369              		.fpu fpv4-sp-d16
 371              	xEventGroupWaitBits:
 372              	.LFB7:
 313:../../../../dependencies/freertos/FreeRTOSv10.4.1/FreeRTOS/Source/event_groups.c **** /*-----------------------------------------------------------*/
 314:../../../../dependencies/freertos/FreeRTOSv10.4.1/FreeRTOS/Source/event_groups.c **** 
 315:../../../../dependencies/freertos/FreeRTOSv10.4.1/FreeRTOS/Source/event_groups.c **** EventBits_t xEventGroupWaitBits( EventGroupHandle_t xEventGroup,
 316:../../../../dependencies/freertos/FreeRTOSv10.4.1/FreeRTOS/Source/event_groups.c ****                                  const EventBits_t uxBitsToWaitFor,
 317:../../../../dependencies/freertos/FreeRTOSv10.4.1/FreeRTOS/Source/event_groups.c ****                                  const BaseType_t xClearOnExit,
 318:../../../../dependencies/freertos/FreeRTOSv10.4.1/FreeRTOS/Source/event_groups.c ****                                  const BaseType_t xWaitForAllBits,
 319:../../../../dependencies/freertos/FreeRTOSv10.4.1/FreeRTOS/Source/event_groups.c ****                                  TickType_t xTicksToWait )
 320:../../../../dependencies/freertos/FreeRTOSv10.4.1/FreeRTOS/Source/event_groups.c **** {
 373              		.loc 1 320 1
 374              		.cfi_startproc
 375              		@ args = 4, pretend = 0, frame = 64
 376              		@ frame_needed = 1, uses_anonymous_args = 0
 377 0000 80B5     		push	{r7, lr}
 378              	.LCFI10:
 379              		.cfi_def_cfa_offset 8
 380              		.cfi_offset 7, -8
 381              		.cfi_offset 14, -4
 382 0002 90B0     		sub	sp, sp, #64
 383              	.LCFI11:
 384              		.cfi_def_cfa_offset 72
 385 0004 00AF     		add	r7, sp, #0
 386              	.LCFI12:
 387              		.cfi_def_cfa_register 7
 388 0006 F860     		str	r0, [r7, #12]
 389 0008 B960     		str	r1, [r7, #8]
 390 000a 7A60     		str	r2, [r7, #4]
ARM GAS  /var/folders/kj/yzqgq53j3dg15vgwwwwgf5s00000gn/T//ccIz7yzx.s 			page 17


 391 000c 3B60     		str	r3, [r7]
 321:../../../../dependencies/freertos/FreeRTOSv10.4.1/FreeRTOS/Source/event_groups.c ****     EventGroup_t * pxEventBits = xEventGroup;
 392              		.loc 1 321 20
 393 000e FB68     		ldr	r3, [r7, #12]
 394 0010 7B63     		str	r3, [r7, #52]
 322:../../../../dependencies/freertos/FreeRTOSv10.4.1/FreeRTOS/Source/event_groups.c ****     EventBits_t uxReturn, uxControlBits = 0;
 395              		.loc 1 322 27
 396 0012 0023     		movs	r3, #0
 397 0014 BB63     		str	r3, [r7, #56]
 323:../../../../dependencies/freertos/FreeRTOSv10.4.1/FreeRTOS/Source/event_groups.c ****     BaseType_t xWaitConditionMet, xAlreadyYielded;
 324:../../../../dependencies/freertos/FreeRTOSv10.4.1/FreeRTOS/Source/event_groups.c ****     BaseType_t xTimeoutOccurred = pdFALSE;
 398              		.loc 1 324 16
 399 0016 0023     		movs	r3, #0
 400 0018 3B63     		str	r3, [r7, #48]
 325:../../../../dependencies/freertos/FreeRTOSv10.4.1/FreeRTOS/Source/event_groups.c **** 
 326:../../../../dependencies/freertos/FreeRTOSv10.4.1/FreeRTOS/Source/event_groups.c ****     /* Check the user is not attempting to wait on the bits used by the kernel
 327:../../../../dependencies/freertos/FreeRTOSv10.4.1/FreeRTOS/Source/event_groups.c ****      * itself, and that at least one bit is being requested. */
 328:../../../../dependencies/freertos/FreeRTOSv10.4.1/FreeRTOS/Source/event_groups.c ****     configASSERT( xEventGroup );
 401              		.loc 1 328 5
 402 001a FB68     		ldr	r3, [r7, #12]
 403 001c 002B     		cmp	r3, #0
 404 001e 0AD1     		bne	.L25
 405              	.LBB37:
 406              	.LBB38:
 197:../../../../dependencies/freertos/FreeRTOSv10.4.1/FreeRTOS/Source/portable/GCC/ARM_CM4F/portmacro.h ****         (
 407              		.loc 2 197 9
 408              		.syntax unified
 409              	@ 197 "../../../../dependencies/freertos/FreeRTOSv10.4.1/FreeRTOS/Source/portable/GCC/ARM_CM4F/port
 410 0020 4FF05003 			mov r3, #80												
 411 0024 83F31188 		msr basepri, r3											
 412 0028 BFF36F8F 		isb														
 413 002c BFF34F8F 		dsb														
 414              	
 415              	@ 0 "" 2
 416              		.thumb
 417              		.syntax unified
 418 0030 3B62     		str	r3, [r7, #32]
 419              		.loc 2 205 5
 420 0032 00BF     		nop
 421              	.L26:
 422              	.LBE38:
 423              	.LBE37:
 424              		.loc 1 328 5 discriminator 1
 425 0034 FEE7     		b	.L26
 426              	.L25:
 329:../../../../dependencies/freertos/FreeRTOSv10.4.1/FreeRTOS/Source/event_groups.c ****     configASSERT( ( uxBitsToWaitFor & eventEVENT_BITS_CONTROL_BYTES ) == 0 );
 427              		.loc 1 329 5
 428 0036 BB68     		ldr	r3, [r7, #8]
 429 0038 03F07F43 		and	r3, r3, #-16777216
 430 003c 002B     		cmp	r3, #0
 431 003e 0AD0     		beq	.L27
 432              	.LBB39:
 433              	.LBB40:
 197:../../../../dependencies/freertos/FreeRTOSv10.4.1/FreeRTOS/Source/portable/GCC/ARM_CM4F/portmacro.h ****         (
 434              		.loc 2 197 9
 435              		.syntax unified
 436              	@ 197 "../../../../dependencies/freertos/FreeRTOSv10.4.1/FreeRTOS/Source/portable/GCC/ARM_CM4F/port
ARM GAS  /var/folders/kj/yzqgq53j3dg15vgwwwwgf5s00000gn/T//ccIz7yzx.s 			page 18


 437 0040 4FF05003 			mov r3, #80												
 438 0044 83F31188 		msr basepri, r3											
 439 0048 BFF36F8F 		isb														
 440 004c BFF34F8F 		dsb														
 441              	
 442              	@ 0 "" 2
 443              		.thumb
 444              		.syntax unified
 445 0050 FB61     		str	r3, [r7, #28]
 446              		.loc 2 205 5
 447 0052 00BF     		nop
 448              	.L28:
 449              	.LBE40:
 450              	.LBE39:
 451              		.loc 1 329 5 discriminator 2
 452 0054 FEE7     		b	.L28
 453              	.L27:
 330:../../../../dependencies/freertos/FreeRTOSv10.4.1/FreeRTOS/Source/event_groups.c ****     configASSERT( uxBitsToWaitFor != 0 );
 454              		.loc 1 330 5
 455 0056 BB68     		ldr	r3, [r7, #8]
 456 0058 002B     		cmp	r3, #0
 457 005a 0AD1     		bne	.L29
 458              	.LBB41:
 459              	.LBB42:
 197:../../../../dependencies/freertos/FreeRTOSv10.4.1/FreeRTOS/Source/portable/GCC/ARM_CM4F/portmacro.h ****         (
 460              		.loc 2 197 9
 461              		.syntax unified
 462              	@ 197 "../../../../dependencies/freertos/FreeRTOSv10.4.1/FreeRTOS/Source/portable/GCC/ARM_CM4F/port
 463 005c 4FF05003 			mov r3, #80												
 464 0060 83F31188 		msr basepri, r3											
 465 0064 BFF36F8F 		isb														
 466 0068 BFF34F8F 		dsb														
 467              	
 468              	@ 0 "" 2
 469              		.thumb
 470              		.syntax unified
 471 006c BB61     		str	r3, [r7, #24]
 472              		.loc 2 205 5
 473 006e 00BF     		nop
 474              	.L30:
 475              	.LBE42:
 476              	.LBE41:
 477              		.loc 1 330 5 discriminator 3
 478 0070 FEE7     		b	.L30
 479              	.L29:
 331:../../../../dependencies/freertos/FreeRTOSv10.4.1/FreeRTOS/Source/event_groups.c ****     #if ( ( INCLUDE_xTaskGetSchedulerState == 1 ) || ( configUSE_TIMERS == 1 ) )
 332:../../../../dependencies/freertos/FreeRTOSv10.4.1/FreeRTOS/Source/event_groups.c ****         {
 333:../../../../dependencies/freertos/FreeRTOSv10.4.1/FreeRTOS/Source/event_groups.c ****             configASSERT( !( ( xTaskGetSchedulerState() == taskSCHEDULER_SUSPENDED ) && ( xTicksToW
 480              		.loc 1 333 13
 481 0072 FFF7FEFF 		bl	xTaskGetSchedulerState
 482 0076 0346     		mov	r3, r0
 483 0078 002B     		cmp	r3, #0
 484 007a 02D1     		bne	.L31
 485              		.loc 1 333 13 is_stmt 0 discriminator 2
 486 007c BB6C     		ldr	r3, [r7, #72]
 487 007e 002B     		cmp	r3, #0
 488 0080 01D1     		bne	.L32
ARM GAS  /var/folders/kj/yzqgq53j3dg15vgwwwwgf5s00000gn/T//ccIz7yzx.s 			page 19


 489              	.L31:
 490              		.loc 1 333 13 discriminator 3
 491 0082 0123     		movs	r3, #1
 492 0084 00E0     		b	.L33
 493              	.L32:
 494              		.loc 1 333 13 discriminator 4
 495 0086 0023     		movs	r3, #0
 496              	.L33:
 497              		.loc 1 333 13 discriminator 6
 498 0088 002B     		cmp	r3, #0
 499 008a 0AD1     		bne	.L34
 500              	.LBB43:
 501              	.LBB44:
 197:../../../../dependencies/freertos/FreeRTOSv10.4.1/FreeRTOS/Source/portable/GCC/ARM_CM4F/portmacro.h ****         (
 502              		.loc 2 197 9 is_stmt 1
 503              		.syntax unified
 504              	@ 197 "../../../../dependencies/freertos/FreeRTOSv10.4.1/FreeRTOS/Source/portable/GCC/ARM_CM4F/port
 505 008c 4FF05003 			mov r3, #80												
 506 0090 83F31188 		msr basepri, r3											
 507 0094 BFF36F8F 		isb														
 508 0098 BFF34F8F 		dsb														
 509              	
 510              	@ 0 "" 2
 511              		.thumb
 512              		.syntax unified
 513 009c 7B61     		str	r3, [r7, #20]
 514              		.loc 2 205 5
 515 009e 00BF     		nop
 516              	.L35:
 517              	.LBE44:
 518              	.LBE43:
 519              		.loc 1 333 13 discriminator 4
 520 00a0 FEE7     		b	.L35
 521              	.L34:
 334:../../../../dependencies/freertos/FreeRTOSv10.4.1/FreeRTOS/Source/event_groups.c ****         }
 335:../../../../dependencies/freertos/FreeRTOSv10.4.1/FreeRTOS/Source/event_groups.c ****     #endif
 336:../../../../dependencies/freertos/FreeRTOSv10.4.1/FreeRTOS/Source/event_groups.c **** 
 337:../../../../dependencies/freertos/FreeRTOSv10.4.1/FreeRTOS/Source/event_groups.c ****     vTaskSuspendAll();
 522              		.loc 1 337 5
 523 00a2 FFF7FEFF 		bl	vTaskSuspendAll
 524              	.LBB45:
 338:../../../../dependencies/freertos/FreeRTOSv10.4.1/FreeRTOS/Source/event_groups.c ****     {
 339:../../../../dependencies/freertos/FreeRTOSv10.4.1/FreeRTOS/Source/event_groups.c ****         const EventBits_t uxCurrentEventBits = pxEventBits->uxEventBits;
 525              		.loc 1 339 27
 526 00a6 7B6B     		ldr	r3, [r7, #52]
 527 00a8 1B68     		ldr	r3, [r3]
 528 00aa FB62     		str	r3, [r7, #44]
 340:../../../../dependencies/freertos/FreeRTOSv10.4.1/FreeRTOS/Source/event_groups.c **** 
 341:../../../../dependencies/freertos/FreeRTOSv10.4.1/FreeRTOS/Source/event_groups.c ****         /* Check to see if the wait condition is already met or not. */
 342:../../../../dependencies/freertos/FreeRTOSv10.4.1/FreeRTOS/Source/event_groups.c ****         xWaitConditionMet = prvTestWaitCondition( uxCurrentEventBits, uxBitsToWaitFor, xWaitForAllB
 529              		.loc 1 342 29
 530 00ac 3A68     		ldr	r2, [r7]
 531 00ae B968     		ldr	r1, [r7, #8]
 532 00b0 F86A     		ldr	r0, [r7, #44]
 533 00b2 FFF7FEFF 		bl	prvTestWaitCondition
 534 00b6 B862     		str	r0, [r7, #40]
 343:../../../../dependencies/freertos/FreeRTOSv10.4.1/FreeRTOS/Source/event_groups.c **** 
ARM GAS  /var/folders/kj/yzqgq53j3dg15vgwwwwgf5s00000gn/T//ccIz7yzx.s 			page 20


 344:../../../../dependencies/freertos/FreeRTOSv10.4.1/FreeRTOS/Source/event_groups.c ****         if( xWaitConditionMet != pdFALSE )
 535              		.loc 1 344 11
 536 00b8 BB6A     		ldr	r3, [r7, #40]
 537 00ba 002B     		cmp	r3, #0
 538 00bc 0ED0     		beq	.L36
 345:../../../../dependencies/freertos/FreeRTOSv10.4.1/FreeRTOS/Source/event_groups.c ****         {
 346:../../../../dependencies/freertos/FreeRTOSv10.4.1/FreeRTOS/Source/event_groups.c ****             /* The wait condition has already been met so there is no need to
 347:../../../../dependencies/freertos/FreeRTOSv10.4.1/FreeRTOS/Source/event_groups.c ****              * block. */
 348:../../../../dependencies/freertos/FreeRTOSv10.4.1/FreeRTOS/Source/event_groups.c ****             uxReturn = uxCurrentEventBits;
 539              		.loc 1 348 22
 540 00be FB6A     		ldr	r3, [r7, #44]
 541 00c0 FB63     		str	r3, [r7, #60]
 349:../../../../dependencies/freertos/FreeRTOSv10.4.1/FreeRTOS/Source/event_groups.c ****             xTicksToWait = ( TickType_t ) 0;
 542              		.loc 1 349 26
 543 00c2 0023     		movs	r3, #0
 544 00c4 BB64     		str	r3, [r7, #72]
 350:../../../../dependencies/freertos/FreeRTOSv10.4.1/FreeRTOS/Source/event_groups.c **** 
 351:../../../../dependencies/freertos/FreeRTOSv10.4.1/FreeRTOS/Source/event_groups.c ****             /* Clear the wait bits if requested to do so. */
 352:../../../../dependencies/freertos/FreeRTOSv10.4.1/FreeRTOS/Source/event_groups.c ****             if( xClearOnExit != pdFALSE )
 545              		.loc 1 352 15
 546 00c6 7B68     		ldr	r3, [r7, #4]
 547 00c8 002B     		cmp	r3, #0
 548 00ca 28D0     		beq	.L37
 353:../../../../dependencies/freertos/FreeRTOSv10.4.1/FreeRTOS/Source/event_groups.c ****             {
 354:../../../../dependencies/freertos/FreeRTOSv10.4.1/FreeRTOS/Source/event_groups.c ****                 pxEventBits->uxEventBits &= ~uxBitsToWaitFor;
 549              		.loc 1 354 42
 550 00cc 7B6B     		ldr	r3, [r7, #52]
 551 00ce 1A68     		ldr	r2, [r3]
 552              		.loc 1 354 45
 553 00d0 BB68     		ldr	r3, [r7, #8]
 554 00d2 DB43     		mvns	r3, r3
 555              		.loc 1 354 42
 556 00d4 1A40     		ands	r2, r2, r3
 557 00d6 7B6B     		ldr	r3, [r7, #52]
 558 00d8 1A60     		str	r2, [r3]
 559 00da 20E0     		b	.L37
 560              	.L36:
 355:../../../../dependencies/freertos/FreeRTOSv10.4.1/FreeRTOS/Source/event_groups.c ****             }
 356:../../../../dependencies/freertos/FreeRTOSv10.4.1/FreeRTOS/Source/event_groups.c ****             else
 357:../../../../dependencies/freertos/FreeRTOSv10.4.1/FreeRTOS/Source/event_groups.c ****             {
 358:../../../../dependencies/freertos/FreeRTOSv10.4.1/FreeRTOS/Source/event_groups.c ****                 mtCOVERAGE_TEST_MARKER();
 359:../../../../dependencies/freertos/FreeRTOSv10.4.1/FreeRTOS/Source/event_groups.c ****             }
 360:../../../../dependencies/freertos/FreeRTOSv10.4.1/FreeRTOS/Source/event_groups.c ****         }
 361:../../../../dependencies/freertos/FreeRTOSv10.4.1/FreeRTOS/Source/event_groups.c ****         else if( xTicksToWait == ( TickType_t ) 0 )
 561              		.loc 1 361 16
 562 00dc BB6C     		ldr	r3, [r7, #72]
 563 00de 002B     		cmp	r3, #0
 564 00e0 04D1     		bne	.L38
 362:../../../../dependencies/freertos/FreeRTOSv10.4.1/FreeRTOS/Source/event_groups.c ****         {
 363:../../../../dependencies/freertos/FreeRTOSv10.4.1/FreeRTOS/Source/event_groups.c ****             /* The wait condition has not been met, but no block time was
 364:../../../../dependencies/freertos/FreeRTOSv10.4.1/FreeRTOS/Source/event_groups.c ****              * specified, so just return the current value. */
 365:../../../../dependencies/freertos/FreeRTOSv10.4.1/FreeRTOS/Source/event_groups.c ****             uxReturn = uxCurrentEventBits;
 565              		.loc 1 365 22
 566 00e2 FB6A     		ldr	r3, [r7, #44]
 567 00e4 FB63     		str	r3, [r7, #60]
 366:../../../../dependencies/freertos/FreeRTOSv10.4.1/FreeRTOS/Source/event_groups.c ****             xTimeoutOccurred = pdTRUE;
 568              		.loc 1 366 30
ARM GAS  /var/folders/kj/yzqgq53j3dg15vgwwwwgf5s00000gn/T//ccIz7yzx.s 			page 21


 569 00e6 0123     		movs	r3, #1
 570 00e8 3B63     		str	r3, [r7, #48]
 571 00ea 18E0     		b	.L37
 572              	.L38:
 367:../../../../dependencies/freertos/FreeRTOSv10.4.1/FreeRTOS/Source/event_groups.c ****         }
 368:../../../../dependencies/freertos/FreeRTOSv10.4.1/FreeRTOS/Source/event_groups.c ****         else
 369:../../../../dependencies/freertos/FreeRTOSv10.4.1/FreeRTOS/Source/event_groups.c ****         {
 370:../../../../dependencies/freertos/FreeRTOSv10.4.1/FreeRTOS/Source/event_groups.c ****             /* The task is going to block to wait for its required bits to be
 371:../../../../dependencies/freertos/FreeRTOSv10.4.1/FreeRTOS/Source/event_groups.c ****              * set.  uxControlBits are used to remember the specified behaviour of
 372:../../../../dependencies/freertos/FreeRTOSv10.4.1/FreeRTOS/Source/event_groups.c ****              * this call to xEventGroupWaitBits() - for use when the event bits
 373:../../../../dependencies/freertos/FreeRTOSv10.4.1/FreeRTOS/Source/event_groups.c ****              * unblock the task. */
 374:../../../../dependencies/freertos/FreeRTOSv10.4.1/FreeRTOS/Source/event_groups.c ****             if( xClearOnExit != pdFALSE )
 573              		.loc 1 374 15
 574 00ec 7B68     		ldr	r3, [r7, #4]
 575 00ee 002B     		cmp	r3, #0
 576 00f0 03D0     		beq	.L39
 375:../../../../dependencies/freertos/FreeRTOSv10.4.1/FreeRTOS/Source/event_groups.c ****             {
 376:../../../../dependencies/freertos/FreeRTOSv10.4.1/FreeRTOS/Source/event_groups.c ****                 uxControlBits |= eventCLEAR_EVENTS_ON_EXIT_BIT;
 577              		.loc 1 376 31
 578 00f2 BB6B     		ldr	r3, [r7, #56]
 579 00f4 43F08073 		orr	r3, r3, #16777216
 580 00f8 BB63     		str	r3, [r7, #56]
 581              	.L39:
 377:../../../../dependencies/freertos/FreeRTOSv10.4.1/FreeRTOS/Source/event_groups.c ****             }
 378:../../../../dependencies/freertos/FreeRTOSv10.4.1/FreeRTOS/Source/event_groups.c ****             else
 379:../../../../dependencies/freertos/FreeRTOSv10.4.1/FreeRTOS/Source/event_groups.c ****             {
 380:../../../../dependencies/freertos/FreeRTOSv10.4.1/FreeRTOS/Source/event_groups.c ****                 mtCOVERAGE_TEST_MARKER();
 381:../../../../dependencies/freertos/FreeRTOSv10.4.1/FreeRTOS/Source/event_groups.c ****             }
 382:../../../../dependencies/freertos/FreeRTOSv10.4.1/FreeRTOS/Source/event_groups.c **** 
 383:../../../../dependencies/freertos/FreeRTOSv10.4.1/FreeRTOS/Source/event_groups.c ****             if( xWaitForAllBits != pdFALSE )
 582              		.loc 1 383 15
 583 00fa 3B68     		ldr	r3, [r7]
 584 00fc 002B     		cmp	r3, #0
 585 00fe 03D0     		beq	.L40
 384:../../../../dependencies/freertos/FreeRTOSv10.4.1/FreeRTOS/Source/event_groups.c ****             {
 385:../../../../dependencies/freertos/FreeRTOSv10.4.1/FreeRTOS/Source/event_groups.c ****                 uxControlBits |= eventWAIT_FOR_ALL_BITS;
 586              		.loc 1 385 31
 587 0100 BB6B     		ldr	r3, [r7, #56]
 588 0102 43F08063 		orr	r3, r3, #67108864
 589 0106 BB63     		str	r3, [r7, #56]
 590              	.L40:
 386:../../../../dependencies/freertos/FreeRTOSv10.4.1/FreeRTOS/Source/event_groups.c ****             }
 387:../../../../dependencies/freertos/FreeRTOSv10.4.1/FreeRTOS/Source/event_groups.c ****             else
 388:../../../../dependencies/freertos/FreeRTOSv10.4.1/FreeRTOS/Source/event_groups.c ****             {
 389:../../../../dependencies/freertos/FreeRTOSv10.4.1/FreeRTOS/Source/event_groups.c ****                 mtCOVERAGE_TEST_MARKER();
 390:../../../../dependencies/freertos/FreeRTOSv10.4.1/FreeRTOS/Source/event_groups.c ****             }
 391:../../../../dependencies/freertos/FreeRTOSv10.4.1/FreeRTOS/Source/event_groups.c **** 
 392:../../../../dependencies/freertos/FreeRTOSv10.4.1/FreeRTOS/Source/event_groups.c ****             /* Store the bits that the calling task is waiting for in the
 393:../../../../dependencies/freertos/FreeRTOSv10.4.1/FreeRTOS/Source/event_groups.c ****              * task's event list item so the kernel knows when a match is
 394:../../../../dependencies/freertos/FreeRTOSv10.4.1/FreeRTOS/Source/event_groups.c ****              * found.  Then enter the blocked state. */
 395:../../../../dependencies/freertos/FreeRTOSv10.4.1/FreeRTOS/Source/event_groups.c ****             vTaskPlaceOnUnorderedEventList( &( pxEventBits->xTasksWaitingForBits ), ( uxBitsToWaitF
 591              		.loc 1 395 13
 592 0108 7B6B     		ldr	r3, [r7, #52]
 593 010a 181D     		adds	r0, r3, #4
 594 010c BA68     		ldr	r2, [r7, #8]
 595 010e BB6B     		ldr	r3, [r7, #56]
 596 0110 1343     		orrs	r3, r3, r2
ARM GAS  /var/folders/kj/yzqgq53j3dg15vgwwwwgf5s00000gn/T//ccIz7yzx.s 			page 22


 597 0112 BA6C     		ldr	r2, [r7, #72]
 598 0114 1946     		mov	r1, r3
 599 0116 FFF7FEFF 		bl	vTaskPlaceOnUnorderedEventList
 396:../../../../dependencies/freertos/FreeRTOSv10.4.1/FreeRTOS/Source/event_groups.c **** 
 397:../../../../dependencies/freertos/FreeRTOSv10.4.1/FreeRTOS/Source/event_groups.c ****             /* This is obsolete as it will get set after the task unblocks, but
 398:../../../../dependencies/freertos/FreeRTOSv10.4.1/FreeRTOS/Source/event_groups.c ****              * some compilers mistakenly generate a warning about the variable
 399:../../../../dependencies/freertos/FreeRTOSv10.4.1/FreeRTOS/Source/event_groups.c ****              * being returned without being set if it is not done. */
 400:../../../../dependencies/freertos/FreeRTOSv10.4.1/FreeRTOS/Source/event_groups.c ****             uxReturn = 0;
 600              		.loc 1 400 22
 601 011a 0023     		movs	r3, #0
 602 011c FB63     		str	r3, [r7, #60]
 603              	.L37:
 604              	.LBE45:
 401:../../../../dependencies/freertos/FreeRTOSv10.4.1/FreeRTOS/Source/event_groups.c **** 
 402:../../../../dependencies/freertos/FreeRTOSv10.4.1/FreeRTOS/Source/event_groups.c ****             traceEVENT_GROUP_WAIT_BITS_BLOCK( xEventGroup, uxBitsToWaitFor );
 403:../../../../dependencies/freertos/FreeRTOSv10.4.1/FreeRTOS/Source/event_groups.c ****         }
 404:../../../../dependencies/freertos/FreeRTOSv10.4.1/FreeRTOS/Source/event_groups.c ****     }
 405:../../../../dependencies/freertos/FreeRTOSv10.4.1/FreeRTOS/Source/event_groups.c ****     xAlreadyYielded = xTaskResumeAll();
 605              		.loc 1 405 23
 606 011e FFF7FEFF 		bl	xTaskResumeAll
 607 0122 7862     		str	r0, [r7, #36]
 406:../../../../dependencies/freertos/FreeRTOSv10.4.1/FreeRTOS/Source/event_groups.c **** 
 407:../../../../dependencies/freertos/FreeRTOSv10.4.1/FreeRTOS/Source/event_groups.c ****     if( xTicksToWait != ( TickType_t ) 0 )
 608              		.loc 1 407 7
 609 0124 BB6C     		ldr	r3, [r7, #72]
 610 0126 002B     		cmp	r3, #0
 611 0128 31D0     		beq	.L41
 408:../../../../dependencies/freertos/FreeRTOSv10.4.1/FreeRTOS/Source/event_groups.c ****     {
 409:../../../../dependencies/freertos/FreeRTOSv10.4.1/FreeRTOS/Source/event_groups.c ****         if( xAlreadyYielded == pdFALSE )
 612              		.loc 1 409 11
 613 012a 7B6A     		ldr	r3, [r7, #36]
 614 012c 002B     		cmp	r3, #0
 615 012e 07D1     		bne	.L42
 410:../../../../dependencies/freertos/FreeRTOSv10.4.1/FreeRTOS/Source/event_groups.c ****         {
 411:../../../../dependencies/freertos/FreeRTOSv10.4.1/FreeRTOS/Source/event_groups.c ****             portYIELD_WITHIN_API();
 616              		.loc 1 411 13
 617 0130 194B     		ldr	r3, .L46
 618 0132 4FF08052 		mov	r2, #268435456
 619 0136 1A60     		str	r2, [r3]
 620              		.syntax unified
 621              	@ 411 "../../../../dependencies/freertos/FreeRTOSv10.4.1/FreeRTOS/Source/event_groups.c" 1
 622 0138 BFF34F8F 		dsb
 623              	@ 0 "" 2
 624              	@ 411 "../../../../dependencies/freertos/FreeRTOSv10.4.1/FreeRTOS/Source/event_groups.c" 1
 625 013c BFF36F8F 		isb
 626              	@ 0 "" 2
 627              		.thumb
 628              		.syntax unified
 629              	.L42:
 412:../../../../dependencies/freertos/FreeRTOSv10.4.1/FreeRTOS/Source/event_groups.c ****         }
 413:../../../../dependencies/freertos/FreeRTOSv10.4.1/FreeRTOS/Source/event_groups.c ****         else
 414:../../../../dependencies/freertos/FreeRTOSv10.4.1/FreeRTOS/Source/event_groups.c ****         {
 415:../../../../dependencies/freertos/FreeRTOSv10.4.1/FreeRTOS/Source/event_groups.c ****             mtCOVERAGE_TEST_MARKER();
 416:../../../../dependencies/freertos/FreeRTOSv10.4.1/FreeRTOS/Source/event_groups.c ****         }
 417:../../../../dependencies/freertos/FreeRTOSv10.4.1/FreeRTOS/Source/event_groups.c **** 
 418:../../../../dependencies/freertos/FreeRTOSv10.4.1/FreeRTOS/Source/event_groups.c ****         /* The task blocked to wait for its required bits to be set - at this
 419:../../../../dependencies/freertos/FreeRTOSv10.4.1/FreeRTOS/Source/event_groups.c ****          * point either the required bits were set or the block time expired.  If
ARM GAS  /var/folders/kj/yzqgq53j3dg15vgwwwwgf5s00000gn/T//ccIz7yzx.s 			page 23


 420:../../../../dependencies/freertos/FreeRTOSv10.4.1/FreeRTOS/Source/event_groups.c ****          * the required bits were set they will have been stored in the task's
 421:../../../../dependencies/freertos/FreeRTOSv10.4.1/FreeRTOS/Source/event_groups.c ****          * event list item, and they should now be retrieved then cleared. */
 422:../../../../dependencies/freertos/FreeRTOSv10.4.1/FreeRTOS/Source/event_groups.c ****         uxReturn = uxTaskResetEventItemValue();
 630              		.loc 1 422 20
 631 0140 FFF7FEFF 		bl	uxTaskResetEventItemValue
 632 0144 F863     		str	r0, [r7, #60]
 423:../../../../dependencies/freertos/FreeRTOSv10.4.1/FreeRTOS/Source/event_groups.c **** 
 424:../../../../dependencies/freertos/FreeRTOSv10.4.1/FreeRTOS/Source/event_groups.c ****         if( ( uxReturn & eventUNBLOCKED_DUE_TO_BIT_SET ) == ( EventBits_t ) 0 )
 633              		.loc 1 424 24
 634 0146 FB6B     		ldr	r3, [r7, #60]
 635 0148 03F00073 		and	r3, r3, #33554432
 636              		.loc 1 424 11
 637 014c 002B     		cmp	r3, #0
 638 014e 1AD1     		bne	.L43
 425:../../../../dependencies/freertos/FreeRTOSv10.4.1/FreeRTOS/Source/event_groups.c ****         {
 426:../../../../dependencies/freertos/FreeRTOSv10.4.1/FreeRTOS/Source/event_groups.c ****             taskENTER_CRITICAL();
 639              		.loc 1 426 13
 640 0150 FFF7FEFF 		bl	vPortEnterCritical
 427:../../../../dependencies/freertos/FreeRTOSv10.4.1/FreeRTOS/Source/event_groups.c ****             {
 428:../../../../dependencies/freertos/FreeRTOSv10.4.1/FreeRTOS/Source/event_groups.c ****                 /* The task timed out, just return the current event bit value. */
 429:../../../../dependencies/freertos/FreeRTOSv10.4.1/FreeRTOS/Source/event_groups.c ****                 uxReturn = pxEventBits->uxEventBits;
 641              		.loc 1 429 26
 642 0154 7B6B     		ldr	r3, [r7, #52]
 643 0156 1B68     		ldr	r3, [r3]
 644 0158 FB63     		str	r3, [r7, #60]
 430:../../../../dependencies/freertos/FreeRTOSv10.4.1/FreeRTOS/Source/event_groups.c **** 
 431:../../../../dependencies/freertos/FreeRTOSv10.4.1/FreeRTOS/Source/event_groups.c ****                 /* It is possible that the event bits were updated between this
 432:../../../../dependencies/freertos/FreeRTOSv10.4.1/FreeRTOS/Source/event_groups.c ****                  * task leaving the Blocked state and running again. */
 433:../../../../dependencies/freertos/FreeRTOSv10.4.1/FreeRTOS/Source/event_groups.c ****                 if( prvTestWaitCondition( uxReturn, uxBitsToWaitFor, xWaitForAllBits ) != pdFALSE )
 645              		.loc 1 433 21
 646 015a 3A68     		ldr	r2, [r7]
 647 015c B968     		ldr	r1, [r7, #8]
 648 015e F86B     		ldr	r0, [r7, #60]
 649 0160 FFF7FEFF 		bl	prvTestWaitCondition
 650 0164 0346     		mov	r3, r0
 651              		.loc 1 433 19
 652 0166 002B     		cmp	r3, #0
 653 0168 09D0     		beq	.L44
 434:../../../../dependencies/freertos/FreeRTOSv10.4.1/FreeRTOS/Source/event_groups.c ****                 {
 435:../../../../dependencies/freertos/FreeRTOSv10.4.1/FreeRTOS/Source/event_groups.c ****                     if( xClearOnExit != pdFALSE )
 654              		.loc 1 435 23
 655 016a 7B68     		ldr	r3, [r7, #4]
 656 016c 002B     		cmp	r3, #0
 657 016e 06D0     		beq	.L44
 436:../../../../dependencies/freertos/FreeRTOSv10.4.1/FreeRTOS/Source/event_groups.c ****                     {
 437:../../../../dependencies/freertos/FreeRTOSv10.4.1/FreeRTOS/Source/event_groups.c ****                         pxEventBits->uxEventBits &= ~uxBitsToWaitFor;
 658              		.loc 1 437 50
 659 0170 7B6B     		ldr	r3, [r7, #52]
 660 0172 1A68     		ldr	r2, [r3]
 661              		.loc 1 437 53
 662 0174 BB68     		ldr	r3, [r7, #8]
 663 0176 DB43     		mvns	r3, r3
 664              		.loc 1 437 50
 665 0178 1A40     		ands	r2, r2, r3
 666 017a 7B6B     		ldr	r3, [r7, #52]
 667 017c 1A60     		str	r2, [r3]
 668              	.L44:
ARM GAS  /var/folders/kj/yzqgq53j3dg15vgwwwwgf5s00000gn/T//ccIz7yzx.s 			page 24


 438:../../../../dependencies/freertos/FreeRTOSv10.4.1/FreeRTOS/Source/event_groups.c ****                     }
 439:../../../../dependencies/freertos/FreeRTOSv10.4.1/FreeRTOS/Source/event_groups.c ****                     else
 440:../../../../dependencies/freertos/FreeRTOSv10.4.1/FreeRTOS/Source/event_groups.c ****                     {
 441:../../../../dependencies/freertos/FreeRTOSv10.4.1/FreeRTOS/Source/event_groups.c ****                         mtCOVERAGE_TEST_MARKER();
 442:../../../../dependencies/freertos/FreeRTOSv10.4.1/FreeRTOS/Source/event_groups.c ****                     }
 443:../../../../dependencies/freertos/FreeRTOSv10.4.1/FreeRTOS/Source/event_groups.c ****                 }
 444:../../../../dependencies/freertos/FreeRTOSv10.4.1/FreeRTOS/Source/event_groups.c ****                 else
 445:../../../../dependencies/freertos/FreeRTOSv10.4.1/FreeRTOS/Source/event_groups.c ****                 {
 446:../../../../dependencies/freertos/FreeRTOSv10.4.1/FreeRTOS/Source/event_groups.c ****                     mtCOVERAGE_TEST_MARKER();
 447:../../../../dependencies/freertos/FreeRTOSv10.4.1/FreeRTOS/Source/event_groups.c ****                 }
 448:../../../../dependencies/freertos/FreeRTOSv10.4.1/FreeRTOS/Source/event_groups.c **** 
 449:../../../../dependencies/freertos/FreeRTOSv10.4.1/FreeRTOS/Source/event_groups.c ****                 xTimeoutOccurred = pdTRUE;
 669              		.loc 1 449 34
 670 017e 0123     		movs	r3, #1
 671 0180 3B63     		str	r3, [r7, #48]
 450:../../../../dependencies/freertos/FreeRTOSv10.4.1/FreeRTOS/Source/event_groups.c ****             }
 451:../../../../dependencies/freertos/FreeRTOSv10.4.1/FreeRTOS/Source/event_groups.c ****             taskEXIT_CRITICAL();
 672              		.loc 1 451 13
 673 0182 FFF7FEFF 		bl	vPortExitCritical
 674              	.L43:
 452:../../../../dependencies/freertos/FreeRTOSv10.4.1/FreeRTOS/Source/event_groups.c ****         }
 453:../../../../dependencies/freertos/FreeRTOSv10.4.1/FreeRTOS/Source/event_groups.c ****         else
 454:../../../../dependencies/freertos/FreeRTOSv10.4.1/FreeRTOS/Source/event_groups.c ****         {
 455:../../../../dependencies/freertos/FreeRTOSv10.4.1/FreeRTOS/Source/event_groups.c ****             /* The task unblocked because the bits were set. */
 456:../../../../dependencies/freertos/FreeRTOSv10.4.1/FreeRTOS/Source/event_groups.c ****         }
 457:../../../../dependencies/freertos/FreeRTOSv10.4.1/FreeRTOS/Source/event_groups.c **** 
 458:../../../../dependencies/freertos/FreeRTOSv10.4.1/FreeRTOS/Source/event_groups.c ****         /* The task blocked so control bits may have been set. */
 459:../../../../dependencies/freertos/FreeRTOSv10.4.1/FreeRTOS/Source/event_groups.c ****         uxReturn &= ~eventEVENT_BITS_CONTROL_BYTES;
 675              		.loc 1 459 18
 676 0186 FB6B     		ldr	r3, [r7, #60]
 677 0188 23F07F43 		bic	r3, r3, #-16777216
 678 018c FB63     		str	r3, [r7, #60]
 679              	.L41:
 460:../../../../dependencies/freertos/FreeRTOSv10.4.1/FreeRTOS/Source/event_groups.c ****     }
 461:../../../../dependencies/freertos/FreeRTOSv10.4.1/FreeRTOS/Source/event_groups.c **** 
 462:../../../../dependencies/freertos/FreeRTOSv10.4.1/FreeRTOS/Source/event_groups.c ****     traceEVENT_GROUP_WAIT_BITS_END( xEventGroup, uxBitsToWaitFor, xTimeoutOccurred );
 463:../../../../dependencies/freertos/FreeRTOSv10.4.1/FreeRTOS/Source/event_groups.c **** 
 464:../../../../dependencies/freertos/FreeRTOSv10.4.1/FreeRTOS/Source/event_groups.c ****     /* Prevent compiler warnings when trace macros are not used. */
 465:../../../../dependencies/freertos/FreeRTOSv10.4.1/FreeRTOS/Source/event_groups.c ****     ( void ) xTimeoutOccurred;
 466:../../../../dependencies/freertos/FreeRTOSv10.4.1/FreeRTOS/Source/event_groups.c **** 
 467:../../../../dependencies/freertos/FreeRTOSv10.4.1/FreeRTOS/Source/event_groups.c ****     return uxReturn;
 680              		.loc 1 467 12
 681 018e FB6B     		ldr	r3, [r7, #60]
 468:../../../../dependencies/freertos/FreeRTOSv10.4.1/FreeRTOS/Source/event_groups.c **** }
 682              		.loc 1 468 1
 683 0190 1846     		mov	r0, r3
 684 0192 4037     		adds	r7, r7, #64
 685              	.LCFI13:
 686              		.cfi_def_cfa_offset 8
 687 0194 BD46     		mov	sp, r7
 688              	.LCFI14:
 689              		.cfi_def_cfa_register 13
 690              		@ sp needed
 691 0196 80BD     		pop	{r7, pc}
 692              	.L47:
 693              		.align	2
 694              	.L46:
ARM GAS  /var/folders/kj/yzqgq53j3dg15vgwwwwgf5s00000gn/T//ccIz7yzx.s 			page 25


 695 0198 04ED00E0 		.word	-536810236
 696              		.cfi_endproc
 697              	.LFE7:
 699              		.section	.text.xEventGroupClearBits,"ax",%progbits
 700              		.align	1
 701              		.global	xEventGroupClearBits
 702              		.syntax unified
 703              		.thumb
 704              		.thumb_func
 705              		.fpu fpv4-sp-d16
 707              	xEventGroupClearBits:
 708              	.LFB8:
 469:../../../../dependencies/freertos/FreeRTOSv10.4.1/FreeRTOS/Source/event_groups.c **** /*-----------------------------------------------------------*/
 470:../../../../dependencies/freertos/FreeRTOSv10.4.1/FreeRTOS/Source/event_groups.c **** 
 471:../../../../dependencies/freertos/FreeRTOSv10.4.1/FreeRTOS/Source/event_groups.c **** EventBits_t xEventGroupClearBits( EventGroupHandle_t xEventGroup,
 472:../../../../dependencies/freertos/FreeRTOSv10.4.1/FreeRTOS/Source/event_groups.c ****                                   const EventBits_t uxBitsToClear )
 473:../../../../dependencies/freertos/FreeRTOSv10.4.1/FreeRTOS/Source/event_groups.c **** {
 709              		.loc 1 473 1
 710              		.cfi_startproc
 711              		@ args = 0, pretend = 0, frame = 24
 712              		@ frame_needed = 1, uses_anonymous_args = 0
 713 0000 80B5     		push	{r7, lr}
 714              	.LCFI15:
 715              		.cfi_def_cfa_offset 8
 716              		.cfi_offset 7, -8
 717              		.cfi_offset 14, -4
 718 0002 86B0     		sub	sp, sp, #24
 719              	.LCFI16:
 720              		.cfi_def_cfa_offset 32
 721 0004 00AF     		add	r7, sp, #0
 722              	.LCFI17:
 723              		.cfi_def_cfa_register 7
 724 0006 7860     		str	r0, [r7, #4]
 725 0008 3960     		str	r1, [r7]
 474:../../../../dependencies/freertos/FreeRTOSv10.4.1/FreeRTOS/Source/event_groups.c ****     EventGroup_t * pxEventBits = xEventGroup;
 726              		.loc 1 474 20
 727 000a 7B68     		ldr	r3, [r7, #4]
 728 000c 7B61     		str	r3, [r7, #20]
 475:../../../../dependencies/freertos/FreeRTOSv10.4.1/FreeRTOS/Source/event_groups.c ****     EventBits_t uxReturn;
 476:../../../../dependencies/freertos/FreeRTOSv10.4.1/FreeRTOS/Source/event_groups.c **** 
 477:../../../../dependencies/freertos/FreeRTOSv10.4.1/FreeRTOS/Source/event_groups.c ****     /* Check the user is not attempting to clear the bits used by the kernel
 478:../../../../dependencies/freertos/FreeRTOSv10.4.1/FreeRTOS/Source/event_groups.c ****      * itself. */
 479:../../../../dependencies/freertos/FreeRTOSv10.4.1/FreeRTOS/Source/event_groups.c ****     configASSERT( xEventGroup );
 729              		.loc 1 479 5
 730 000e 7B68     		ldr	r3, [r7, #4]
 731 0010 002B     		cmp	r3, #0
 732 0012 0AD1     		bne	.L49
 733              	.LBB46:
 734              	.LBB47:
 197:../../../../dependencies/freertos/FreeRTOSv10.4.1/FreeRTOS/Source/portable/GCC/ARM_CM4F/portmacro.h ****         (
 735              		.loc 2 197 9
 736              		.syntax unified
 737              	@ 197 "../../../../dependencies/freertos/FreeRTOSv10.4.1/FreeRTOS/Source/portable/GCC/ARM_CM4F/port
 738 0014 4FF05003 			mov r3, #80												
 739 0018 83F31188 		msr basepri, r3											
 740 001c BFF36F8F 		isb														
 741 0020 BFF34F8F 		dsb														
ARM GAS  /var/folders/kj/yzqgq53j3dg15vgwwwwgf5s00000gn/T//ccIz7yzx.s 			page 26


 742              	
 743              	@ 0 "" 2
 744              		.thumb
 745              		.syntax unified
 746 0024 FB60     		str	r3, [r7, #12]
 747              		.loc 2 205 5
 748 0026 00BF     		nop
 749              	.L50:
 750              	.LBE47:
 751              	.LBE46:
 752              		.loc 1 479 5 discriminator 1
 753 0028 FEE7     		b	.L50
 754              	.L49:
 480:../../../../dependencies/freertos/FreeRTOSv10.4.1/FreeRTOS/Source/event_groups.c ****     configASSERT( ( uxBitsToClear & eventEVENT_BITS_CONTROL_BYTES ) == 0 );
 755              		.loc 1 480 5
 756 002a 3B68     		ldr	r3, [r7]
 757 002c 03F07F43 		and	r3, r3, #-16777216
 758 0030 002B     		cmp	r3, #0
 759 0032 0AD0     		beq	.L51
 760              	.LBB48:
 761              	.LBB49:
 197:../../../../dependencies/freertos/FreeRTOSv10.4.1/FreeRTOS/Source/portable/GCC/ARM_CM4F/portmacro.h ****         (
 762              		.loc 2 197 9
 763              		.syntax unified
 764              	@ 197 "../../../../dependencies/freertos/FreeRTOSv10.4.1/FreeRTOS/Source/portable/GCC/ARM_CM4F/port
 765 0034 4FF05003 			mov r3, #80												
 766 0038 83F31188 		msr basepri, r3											
 767 003c BFF36F8F 		isb														
 768 0040 BFF34F8F 		dsb														
 769              	
 770              	@ 0 "" 2
 771              		.thumb
 772              		.syntax unified
 773 0044 BB60     		str	r3, [r7, #8]
 774              		.loc 2 205 5
 775 0046 00BF     		nop
 776              	.L52:
 777              	.LBE49:
 778              	.LBE48:
 779              		.loc 1 480 5 discriminator 2
 780 0048 FEE7     		b	.L52
 781              	.L51:
 481:../../../../dependencies/freertos/FreeRTOSv10.4.1/FreeRTOS/Source/event_groups.c **** 
 482:../../../../dependencies/freertos/FreeRTOSv10.4.1/FreeRTOS/Source/event_groups.c ****     taskENTER_CRITICAL();
 782              		.loc 1 482 5
 783 004a FFF7FEFF 		bl	vPortEnterCritical
 483:../../../../dependencies/freertos/FreeRTOSv10.4.1/FreeRTOS/Source/event_groups.c ****     {
 484:../../../../dependencies/freertos/FreeRTOSv10.4.1/FreeRTOS/Source/event_groups.c ****         traceEVENT_GROUP_CLEAR_BITS( xEventGroup, uxBitsToClear );
 485:../../../../dependencies/freertos/FreeRTOSv10.4.1/FreeRTOS/Source/event_groups.c **** 
 486:../../../../dependencies/freertos/FreeRTOSv10.4.1/FreeRTOS/Source/event_groups.c ****         /* The value returned is the event group value prior to the bits being
 487:../../../../dependencies/freertos/FreeRTOSv10.4.1/FreeRTOS/Source/event_groups.c ****          * cleared. */
 488:../../../../dependencies/freertos/FreeRTOSv10.4.1/FreeRTOS/Source/event_groups.c ****         uxReturn = pxEventBits->uxEventBits;
 784              		.loc 1 488 18
 785 004e 7B69     		ldr	r3, [r7, #20]
 786 0050 1B68     		ldr	r3, [r3]
 787 0052 3B61     		str	r3, [r7, #16]
 489:../../../../dependencies/freertos/FreeRTOSv10.4.1/FreeRTOS/Source/event_groups.c **** 
ARM GAS  /var/folders/kj/yzqgq53j3dg15vgwwwwgf5s00000gn/T//ccIz7yzx.s 			page 27


 490:../../../../dependencies/freertos/FreeRTOSv10.4.1/FreeRTOS/Source/event_groups.c ****         /* Clear the bits. */
 491:../../../../dependencies/freertos/FreeRTOSv10.4.1/FreeRTOS/Source/event_groups.c ****         pxEventBits->uxEventBits &= ~uxBitsToClear;
 788              		.loc 1 491 34
 789 0054 7B69     		ldr	r3, [r7, #20]
 790 0056 1A68     		ldr	r2, [r3]
 791              		.loc 1 491 37
 792 0058 3B68     		ldr	r3, [r7]
 793 005a DB43     		mvns	r3, r3
 794              		.loc 1 491 34
 795 005c 1A40     		ands	r2, r2, r3
 796 005e 7B69     		ldr	r3, [r7, #20]
 797 0060 1A60     		str	r2, [r3]
 492:../../../../dependencies/freertos/FreeRTOSv10.4.1/FreeRTOS/Source/event_groups.c ****     }
 493:../../../../dependencies/freertos/FreeRTOSv10.4.1/FreeRTOS/Source/event_groups.c ****     taskEXIT_CRITICAL();
 798              		.loc 1 493 5
 799 0062 FFF7FEFF 		bl	vPortExitCritical
 494:../../../../dependencies/freertos/FreeRTOSv10.4.1/FreeRTOS/Source/event_groups.c **** 
 495:../../../../dependencies/freertos/FreeRTOSv10.4.1/FreeRTOS/Source/event_groups.c ****     return uxReturn;
 800              		.loc 1 495 12
 801 0066 3B69     		ldr	r3, [r7, #16]
 496:../../../../dependencies/freertos/FreeRTOSv10.4.1/FreeRTOS/Source/event_groups.c **** }
 802              		.loc 1 496 1
 803 0068 1846     		mov	r0, r3
 804 006a 1837     		adds	r7, r7, #24
 805              	.LCFI18:
 806              		.cfi_def_cfa_offset 8
 807 006c BD46     		mov	sp, r7
 808              	.LCFI19:
 809              		.cfi_def_cfa_register 13
 810              		@ sp needed
 811 006e 80BD     		pop	{r7, pc}
 812              		.cfi_endproc
 813              	.LFE8:
 815              		.section	.text.xEventGroupGetBitsFromISR,"ax",%progbits
 816              		.align	1
 817              		.global	xEventGroupGetBitsFromISR
 818              		.syntax unified
 819              		.thumb
 820              		.thumb_func
 821              		.fpu fpv4-sp-d16
 823              	xEventGroupGetBitsFromISR:
 824              	.LFB9:
 497:../../../../dependencies/freertos/FreeRTOSv10.4.1/FreeRTOS/Source/event_groups.c **** /*-----------------------------------------------------------*/
 498:../../../../dependencies/freertos/FreeRTOSv10.4.1/FreeRTOS/Source/event_groups.c **** 
 499:../../../../dependencies/freertos/FreeRTOSv10.4.1/FreeRTOS/Source/event_groups.c **** #if ( ( configUSE_TRACE_FACILITY == 1 ) && ( INCLUDE_xTimerPendFunctionCall == 1 ) && ( configUSE_T
 500:../../../../dependencies/freertos/FreeRTOSv10.4.1/FreeRTOS/Source/event_groups.c **** 
 501:../../../../dependencies/freertos/FreeRTOSv10.4.1/FreeRTOS/Source/event_groups.c ****     BaseType_t xEventGroupClearBitsFromISR( EventGroupHandle_t xEventGroup,
 502:../../../../dependencies/freertos/FreeRTOSv10.4.1/FreeRTOS/Source/event_groups.c ****                                             const EventBits_t uxBitsToClear )
 503:../../../../dependencies/freertos/FreeRTOSv10.4.1/FreeRTOS/Source/event_groups.c ****     {
 504:../../../../dependencies/freertos/FreeRTOSv10.4.1/FreeRTOS/Source/event_groups.c ****         BaseType_t xReturn;
 505:../../../../dependencies/freertos/FreeRTOSv10.4.1/FreeRTOS/Source/event_groups.c **** 
 506:../../../../dependencies/freertos/FreeRTOSv10.4.1/FreeRTOS/Source/event_groups.c ****         traceEVENT_GROUP_CLEAR_BITS_FROM_ISR( xEventGroup, uxBitsToClear );
 507:../../../../dependencies/freertos/FreeRTOSv10.4.1/FreeRTOS/Source/event_groups.c ****         xReturn = xTimerPendFunctionCallFromISR( vEventGroupClearBitsCallback, ( void * ) xEventGro
 508:../../../../dependencies/freertos/FreeRTOSv10.4.1/FreeRTOS/Source/event_groups.c **** 
 509:../../../../dependencies/freertos/FreeRTOSv10.4.1/FreeRTOS/Source/event_groups.c ****         return xReturn;
 510:../../../../dependencies/freertos/FreeRTOSv10.4.1/FreeRTOS/Source/event_groups.c ****     }
 511:../../../../dependencies/freertos/FreeRTOSv10.4.1/FreeRTOS/Source/event_groups.c **** 
ARM GAS  /var/folders/kj/yzqgq53j3dg15vgwwwwgf5s00000gn/T//ccIz7yzx.s 			page 28


 512:../../../../dependencies/freertos/FreeRTOSv10.4.1/FreeRTOS/Source/event_groups.c **** #endif /* if ( ( configUSE_TRACE_FACILITY == 1 ) && ( INCLUDE_xTimerPendFunctionCall == 1 ) && ( co
 513:../../../../dependencies/freertos/FreeRTOSv10.4.1/FreeRTOS/Source/event_groups.c **** /*-----------------------------------------------------------*/
 514:../../../../dependencies/freertos/FreeRTOSv10.4.1/FreeRTOS/Source/event_groups.c **** 
 515:../../../../dependencies/freertos/FreeRTOSv10.4.1/FreeRTOS/Source/event_groups.c **** EventBits_t xEventGroupGetBitsFromISR( EventGroupHandle_t xEventGroup )
 516:../../../../dependencies/freertos/FreeRTOSv10.4.1/FreeRTOS/Source/event_groups.c **** {
 825              		.loc 1 516 1
 826              		.cfi_startproc
 827              		@ args = 0, pretend = 0, frame = 32
 828              		@ frame_needed = 1, uses_anonymous_args = 0
 829              		@ link register save eliminated.
 830 0000 80B4     		push	{r7}
 831              	.LCFI20:
 832              		.cfi_def_cfa_offset 4
 833              		.cfi_offset 7, -4
 834 0002 89B0     		sub	sp, sp, #36
 835              	.LCFI21:
 836              		.cfi_def_cfa_offset 40
 837 0004 00AF     		add	r7, sp, #0
 838              	.LCFI22:
 839              		.cfi_def_cfa_register 7
 840 0006 7860     		str	r0, [r7, #4]
 517:../../../../dependencies/freertos/FreeRTOSv10.4.1/FreeRTOS/Source/event_groups.c ****     UBaseType_t uxSavedInterruptStatus;
 518:../../../../dependencies/freertos/FreeRTOSv10.4.1/FreeRTOS/Source/event_groups.c ****     EventGroup_t const * const pxEventBits = xEventGroup;
 841              		.loc 1 518 32
 842 0008 7B68     		ldr	r3, [r7, #4]
 843 000a FB61     		str	r3, [r7, #28]
 844              	.LBB50:
 845              	.LBB51:
 206:../../../../dependencies/freertos/FreeRTOSv10.4.1/FreeRTOS/Source/portable/GCC/ARM_CM4F/portmacro.h **** 
 207:../../../../dependencies/freertos/FreeRTOSv10.4.1/FreeRTOS/Source/portable/GCC/ARM_CM4F/portmacro.h **** /*-----------------------------------------------------------*/
 208:../../../../dependencies/freertos/FreeRTOSv10.4.1/FreeRTOS/Source/portable/GCC/ARM_CM4F/portmacro.h **** 
 209:../../../../dependencies/freertos/FreeRTOSv10.4.1/FreeRTOS/Source/portable/GCC/ARM_CM4F/portmacro.h ****     portFORCE_INLINE static uint32_t ulPortRaiseBASEPRI( void )
 210:../../../../dependencies/freertos/FreeRTOSv10.4.1/FreeRTOS/Source/portable/GCC/ARM_CM4F/portmacro.h ****     {
 211:../../../../dependencies/freertos/FreeRTOSv10.4.1/FreeRTOS/Source/portable/GCC/ARM_CM4F/portmacro.h ****         uint32_t ulOriginalBASEPRI, ulNewBASEPRI;
 212:../../../../dependencies/freertos/FreeRTOSv10.4.1/FreeRTOS/Source/portable/GCC/ARM_CM4F/portmacro.h **** 
 213:../../../../dependencies/freertos/FreeRTOSv10.4.1/FreeRTOS/Source/portable/GCC/ARM_CM4F/portmacro.h ****         __asm volatile
 846              		.loc 2 213 9
 847              		.syntax unified
 848              	@ 213 "../../../../dependencies/freertos/FreeRTOSv10.4.1/FreeRTOS/Source/portable/GCC/ARM_CM4F/port
 849 000c EFF31182 			mrs r2, basepri											
 850 0010 4FF05003 		mov r3, #80												
 851 0014 83F31188 		msr basepri, r3											
 852 0018 BFF36F8F 		isb														
 853 001c BFF34F8F 		dsb														
 854              	
 855              	@ 0 "" 2
 856              		.thumb
 857              		.syntax unified
 858 0020 FA60     		str	r2, [r7, #12]
 859 0022 BB60     		str	r3, [r7, #8]
 214:../../../../dependencies/freertos/FreeRTOSv10.4.1/FreeRTOS/Source/portable/GCC/ARM_CM4F/portmacro.h ****         (
 215:../../../../dependencies/freertos/FreeRTOSv10.4.1/FreeRTOS/Source/portable/GCC/ARM_CM4F/portmacro.h ****             "	mrs %0, basepri											\n"\
 216:../../../../dependencies/freertos/FreeRTOSv10.4.1/FreeRTOS/Source/portable/GCC/ARM_CM4F/portmacro.h ****             "	mov %1, %2												\n"\
 217:../../../../dependencies/freertos/FreeRTOSv10.4.1/FreeRTOS/Source/portable/GCC/ARM_CM4F/portmacro.h ****             "	msr basepri, %1											\n"\
 218:../../../../dependencies/freertos/FreeRTOSv10.4.1/FreeRTOS/Source/portable/GCC/ARM_CM4F/portmacro.h ****             "	isb														\n"\
 219:../../../../dependencies/freertos/FreeRTOSv10.4.1/FreeRTOS/Source/portable/GCC/ARM_CM4F/portmacro.h ****             "	dsb														\n"\
 220:../../../../dependencies/freertos/FreeRTOSv10.4.1/FreeRTOS/Source/portable/GCC/ARM_CM4F/portmacro.h ****             : "=r" ( ulOriginalBASEPRI ), "=r" ( ulNewBASEPRI ) : "i" ( configMAX_SYSCALL_INTERRUPT
ARM GAS  /var/folders/kj/yzqgq53j3dg15vgwwwwgf5s00000gn/T//ccIz7yzx.s 			page 29


 221:../../../../dependencies/freertos/FreeRTOSv10.4.1/FreeRTOS/Source/portable/GCC/ARM_CM4F/portmacro.h ****         );
 222:../../../../dependencies/freertos/FreeRTOSv10.4.1/FreeRTOS/Source/portable/GCC/ARM_CM4F/portmacro.h **** 
 223:../../../../dependencies/freertos/FreeRTOSv10.4.1/FreeRTOS/Source/portable/GCC/ARM_CM4F/portmacro.h ****         /* This return will not be reached but is necessary to prevent compiler
 224:../../../../dependencies/freertos/FreeRTOSv10.4.1/FreeRTOS/Source/portable/GCC/ARM_CM4F/portmacro.h ****          * warnings. */
 225:../../../../dependencies/freertos/FreeRTOSv10.4.1/FreeRTOS/Source/portable/GCC/ARM_CM4F/portmacro.h ****         return ulOriginalBASEPRI;
 860              		.loc 2 225 16
 861 0024 FB68     		ldr	r3, [r7, #12]
 862              	.LBE51:
 863              	.LBE50:
 519:../../../../dependencies/freertos/FreeRTOSv10.4.1/FreeRTOS/Source/event_groups.c ****     EventBits_t uxReturn;
 520:../../../../dependencies/freertos/FreeRTOSv10.4.1/FreeRTOS/Source/event_groups.c **** 
 521:../../../../dependencies/freertos/FreeRTOSv10.4.1/FreeRTOS/Source/event_groups.c ****     uxSavedInterruptStatus = portSET_INTERRUPT_MASK_FROM_ISR();
 864              		.loc 1 521 30
 865 0026 BB61     		str	r3, [r7, #24]
 522:../../../../dependencies/freertos/FreeRTOSv10.4.1/FreeRTOS/Source/event_groups.c ****     {
 523:../../../../dependencies/freertos/FreeRTOSv10.4.1/FreeRTOS/Source/event_groups.c ****         uxReturn = pxEventBits->uxEventBits;
 866              		.loc 1 523 18
 867 0028 FB69     		ldr	r3, [r7, #28]
 868 002a 1B68     		ldr	r3, [r3]
 869 002c 7B61     		str	r3, [r7, #20]
 870 002e BB69     		ldr	r3, [r7, #24]
 871 0030 3B61     		str	r3, [r7, #16]
 872              	.LBB52:
 873              	.LBB53:
 226:../../../../dependencies/freertos/FreeRTOSv10.4.1/FreeRTOS/Source/portable/GCC/ARM_CM4F/portmacro.h ****     }
 227:../../../../dependencies/freertos/FreeRTOSv10.4.1/FreeRTOS/Source/portable/GCC/ARM_CM4F/portmacro.h **** /*-----------------------------------------------------------*/
 228:../../../../dependencies/freertos/FreeRTOSv10.4.1/FreeRTOS/Source/portable/GCC/ARM_CM4F/portmacro.h **** 
 229:../../../../dependencies/freertos/FreeRTOSv10.4.1/FreeRTOS/Source/portable/GCC/ARM_CM4F/portmacro.h ****     portFORCE_INLINE static void vPortSetBASEPRI( uint32_t ulNewMaskValue )
 230:../../../../dependencies/freertos/FreeRTOSv10.4.1/FreeRTOS/Source/portable/GCC/ARM_CM4F/portmacro.h ****     {
 231:../../../../dependencies/freertos/FreeRTOSv10.4.1/FreeRTOS/Source/portable/GCC/ARM_CM4F/portmacro.h ****         __asm volatile
 874              		.loc 2 231 9
 875 0032 3B69     		ldr	r3, [r7, #16]
 876              		.syntax unified
 877              	@ 231 "../../../../dependencies/freertos/FreeRTOSv10.4.1/FreeRTOS/Source/portable/GCC/ARM_CM4F/port
 878 0034 83F31188 			msr basepri, r3	
 879              	@ 0 "" 2
 232:../../../../dependencies/freertos/FreeRTOSv10.4.1/FreeRTOS/Source/portable/GCC/ARM_CM4F/portmacro.h ****         (
 233:../../../../dependencies/freertos/FreeRTOSv10.4.1/FreeRTOS/Source/portable/GCC/ARM_CM4F/portmacro.h ****             "	msr basepri, %0	"::"r" ( ulNewMaskValue ) : "memory"
 234:../../../../dependencies/freertos/FreeRTOSv10.4.1/FreeRTOS/Source/portable/GCC/ARM_CM4F/portmacro.h ****         );
 235:../../../../dependencies/freertos/FreeRTOSv10.4.1/FreeRTOS/Source/portable/GCC/ARM_CM4F/portmacro.h ****     }
 880              		.loc 2 235 5
 881              		.thumb
 882              		.syntax unified
 883 0038 00BF     		nop
 884              	.LBE53:
 885              	.LBE52:
 524:../../../../dependencies/freertos/FreeRTOSv10.4.1/FreeRTOS/Source/event_groups.c ****     }
 525:../../../../dependencies/freertos/FreeRTOSv10.4.1/FreeRTOS/Source/event_groups.c ****     portCLEAR_INTERRUPT_MASK_FROM_ISR( uxSavedInterruptStatus );
 526:../../../../dependencies/freertos/FreeRTOSv10.4.1/FreeRTOS/Source/event_groups.c **** 
 527:../../../../dependencies/freertos/FreeRTOSv10.4.1/FreeRTOS/Source/event_groups.c ****     return uxReturn;
 886              		.loc 1 527 12
 887 003a 7B69     		ldr	r3, [r7, #20]
 528:../../../../dependencies/freertos/FreeRTOSv10.4.1/FreeRTOS/Source/event_groups.c **** } /*lint !e818 EventGroupHandle_t is a typedef used in other functions to so can't be pointer to co
 888              		.loc 1 528 1
 889 003c 1846     		mov	r0, r3
 890 003e 2437     		adds	r7, r7, #36
 891              	.LCFI23:
ARM GAS  /var/folders/kj/yzqgq53j3dg15vgwwwwgf5s00000gn/T//ccIz7yzx.s 			page 30


 892              		.cfi_def_cfa_offset 4
 893 0040 BD46     		mov	sp, r7
 894              	.LCFI24:
 895              		.cfi_def_cfa_register 13
 896              		@ sp needed
 897 0042 5DF8047B 		ldr	r7, [sp], #4
 898              	.LCFI25:
 899              		.cfi_restore 7
 900              		.cfi_def_cfa_offset 0
 901 0046 7047     		bx	lr
 902              		.cfi_endproc
 903              	.LFE9:
 905              		.section	.text.xEventGroupSetBits,"ax",%progbits
 906              		.align	1
 907              		.global	xEventGroupSetBits
 908              		.syntax unified
 909              		.thumb
 910              		.thumb_func
 911              		.fpu fpv4-sp-d16
 913              	xEventGroupSetBits:
 914              	.LFB10:
 529:../../../../dependencies/freertos/FreeRTOSv10.4.1/FreeRTOS/Source/event_groups.c **** /*-----------------------------------------------------------*/
 530:../../../../dependencies/freertos/FreeRTOSv10.4.1/FreeRTOS/Source/event_groups.c **** 
 531:../../../../dependencies/freertos/FreeRTOSv10.4.1/FreeRTOS/Source/event_groups.c **** EventBits_t xEventGroupSetBits( EventGroupHandle_t xEventGroup,
 532:../../../../dependencies/freertos/FreeRTOSv10.4.1/FreeRTOS/Source/event_groups.c ****                                 const EventBits_t uxBitsToSet )
 533:../../../../dependencies/freertos/FreeRTOSv10.4.1/FreeRTOS/Source/event_groups.c **** {
 915              		.loc 1 533 1
 916              		.cfi_startproc
 917              		@ args = 0, pretend = 0, frame = 56
 918              		@ frame_needed = 1, uses_anonymous_args = 0
 919 0000 80B5     		push	{r7, lr}
 920              	.LCFI26:
 921              		.cfi_def_cfa_offset 8
 922              		.cfi_offset 7, -8
 923              		.cfi_offset 14, -4
 924 0002 8EB0     		sub	sp, sp, #56
 925              	.LCFI27:
 926              		.cfi_def_cfa_offset 64
 927 0004 00AF     		add	r7, sp, #0
 928              	.LCFI28:
 929              		.cfi_def_cfa_register 7
 930 0006 7860     		str	r0, [r7, #4]
 931 0008 3960     		str	r1, [r7]
 534:../../../../dependencies/freertos/FreeRTOSv10.4.1/FreeRTOS/Source/event_groups.c ****     ListItem_t * pxListItem, * pxNext;
 535:../../../../dependencies/freertos/FreeRTOSv10.4.1/FreeRTOS/Source/event_groups.c ****     ListItem_t const * pxListEnd;
 536:../../../../dependencies/freertos/FreeRTOSv10.4.1/FreeRTOS/Source/event_groups.c ****     List_t const * pxList;
 537:../../../../dependencies/freertos/FreeRTOSv10.4.1/FreeRTOS/Source/event_groups.c ****     EventBits_t uxBitsToClear = 0, uxBitsWaitedFor, uxControlBits;
 932              		.loc 1 537 17
 933 000a 0023     		movs	r3, #0
 934 000c 3B63     		str	r3, [r7, #48]
 538:../../../../dependencies/freertos/FreeRTOSv10.4.1/FreeRTOS/Source/event_groups.c ****     EventGroup_t * pxEventBits = xEventGroup;
 935              		.loc 1 538 20
 936 000e 7B68     		ldr	r3, [r7, #4]
 937 0010 BB62     		str	r3, [r7, #40]
 539:../../../../dependencies/freertos/FreeRTOSv10.4.1/FreeRTOS/Source/event_groups.c ****     BaseType_t xMatchFound = pdFALSE;
 938              		.loc 1 539 16
 939 0012 0023     		movs	r3, #0
ARM GAS  /var/folders/kj/yzqgq53j3dg15vgwwwwgf5s00000gn/T//ccIz7yzx.s 			page 31


 940 0014 FB62     		str	r3, [r7, #44]
 540:../../../../dependencies/freertos/FreeRTOSv10.4.1/FreeRTOS/Source/event_groups.c **** 
 541:../../../../dependencies/freertos/FreeRTOSv10.4.1/FreeRTOS/Source/event_groups.c ****     /* Check the user is not attempting to set the bits used by the kernel
 542:../../../../dependencies/freertos/FreeRTOSv10.4.1/FreeRTOS/Source/event_groups.c ****      * itself. */
 543:../../../../dependencies/freertos/FreeRTOSv10.4.1/FreeRTOS/Source/event_groups.c ****     configASSERT( xEventGroup );
 941              		.loc 1 543 5
 942 0016 7B68     		ldr	r3, [r7, #4]
 943 0018 002B     		cmp	r3, #0
 944 001a 0AD1     		bne	.L58
 945              	.LBB54:
 946              	.LBB55:
 197:../../../../dependencies/freertos/FreeRTOSv10.4.1/FreeRTOS/Source/portable/GCC/ARM_CM4F/portmacro.h ****         (
 947              		.loc 2 197 9
 948              		.syntax unified
 949              	@ 197 "../../../../dependencies/freertos/FreeRTOSv10.4.1/FreeRTOS/Source/portable/GCC/ARM_CM4F/port
 950 001c 4FF05003 			mov r3, #80												
 951 0020 83F31188 		msr basepri, r3											
 952 0024 BFF36F8F 		isb														
 953 0028 BFF34F8F 		dsb														
 954              	
 955              	@ 0 "" 2
 956              		.thumb
 957              		.syntax unified
 958 002c 3B61     		str	r3, [r7, #16]
 205:../../../../dependencies/freertos/FreeRTOSv10.4.1/FreeRTOS/Source/portable/GCC/ARM_CM4F/portmacro.h **** 
 959              		.loc 2 205 5
 960 002e 00BF     		nop
 961              	.L59:
 962              	.LBE55:
 963              	.LBE54:
 964              		.loc 1 543 5 discriminator 1
 965 0030 FEE7     		b	.L59
 966              	.L58:
 544:../../../../dependencies/freertos/FreeRTOSv10.4.1/FreeRTOS/Source/event_groups.c ****     configASSERT( ( uxBitsToSet & eventEVENT_BITS_CONTROL_BYTES ) == 0 );
 967              		.loc 1 544 5
 968 0032 3B68     		ldr	r3, [r7]
 969 0034 03F07F43 		and	r3, r3, #-16777216
 970 0038 002B     		cmp	r3, #0
 971 003a 0AD0     		beq	.L60
 972              	.LBB56:
 973              	.LBB57:
 197:../../../../dependencies/freertos/FreeRTOSv10.4.1/FreeRTOS/Source/portable/GCC/ARM_CM4F/portmacro.h ****         (
 974              		.loc 2 197 9
 975              		.syntax unified
 976              	@ 197 "../../../../dependencies/freertos/FreeRTOSv10.4.1/FreeRTOS/Source/portable/GCC/ARM_CM4F/port
 977 003c 4FF05003 			mov r3, #80												
 978 0040 83F31188 		msr basepri, r3											
 979 0044 BFF36F8F 		isb														
 980 0048 BFF34F8F 		dsb														
 981              	
 982              	@ 0 "" 2
 983              		.thumb
 984              		.syntax unified
 985 004c FB60     		str	r3, [r7, #12]
 205:../../../../dependencies/freertos/FreeRTOSv10.4.1/FreeRTOS/Source/portable/GCC/ARM_CM4F/portmacro.h **** 
 986              		.loc 2 205 5
 987 004e 00BF     		nop
ARM GAS  /var/folders/kj/yzqgq53j3dg15vgwwwwgf5s00000gn/T//ccIz7yzx.s 			page 32


 988              	.L61:
 989              	.LBE57:
 990              	.LBE56:
 991              		.loc 1 544 5 discriminator 2
 992 0050 FEE7     		b	.L61
 993              	.L60:
 545:../../../../dependencies/freertos/FreeRTOSv10.4.1/FreeRTOS/Source/event_groups.c **** 
 546:../../../../dependencies/freertos/FreeRTOSv10.4.1/FreeRTOS/Source/event_groups.c ****     pxList = &( pxEventBits->xTasksWaitingForBits );
 994              		.loc 1 546 12
 995 0052 BB6A     		ldr	r3, [r7, #40]
 996 0054 0433     		adds	r3, r3, #4
 997 0056 7B62     		str	r3, [r7, #36]
 547:../../../../dependencies/freertos/FreeRTOSv10.4.1/FreeRTOS/Source/event_groups.c ****     pxListEnd = listGET_END_MARKER( pxList ); /*lint !e826 !e740 !e9087 The mini list structure is 
 998              		.loc 1 547 15
 999 0058 7B6A     		ldr	r3, [r7, #36]
 1000 005a 0833     		adds	r3, r3, #8
 1001 005c 3B62     		str	r3, [r7, #32]
 548:../../../../dependencies/freertos/FreeRTOSv10.4.1/FreeRTOS/Source/event_groups.c ****     vTaskSuspendAll();
 1002              		.loc 1 548 5
 1003 005e FFF7FEFF 		bl	vTaskSuspendAll
 549:../../../../dependencies/freertos/FreeRTOSv10.4.1/FreeRTOS/Source/event_groups.c ****     {
 550:../../../../dependencies/freertos/FreeRTOSv10.4.1/FreeRTOS/Source/event_groups.c ****         traceEVENT_GROUP_SET_BITS( xEventGroup, uxBitsToSet );
 551:../../../../dependencies/freertos/FreeRTOSv10.4.1/FreeRTOS/Source/event_groups.c **** 
 552:../../../../dependencies/freertos/FreeRTOSv10.4.1/FreeRTOS/Source/event_groups.c ****         pxListItem = listGET_HEAD_ENTRY( pxList );
 1004              		.loc 1 552 20
 1005 0062 7B6A     		ldr	r3, [r7, #36]
 1006 0064 DB68     		ldr	r3, [r3, #12]
 1007 0066 7B63     		str	r3, [r7, #52]
 553:../../../../dependencies/freertos/FreeRTOSv10.4.1/FreeRTOS/Source/event_groups.c **** 
 554:../../../../dependencies/freertos/FreeRTOSv10.4.1/FreeRTOS/Source/event_groups.c ****         /* Set the bits. */
 555:../../../../dependencies/freertos/FreeRTOSv10.4.1/FreeRTOS/Source/event_groups.c ****         pxEventBits->uxEventBits |= uxBitsToSet;
 1008              		.loc 1 555 34
 1009 0068 BB6A     		ldr	r3, [r7, #40]
 1010 006a 1A68     		ldr	r2, [r3]
 1011 006c 3B68     		ldr	r3, [r7]
 1012 006e 1A43     		orrs	r2, r2, r3
 1013 0070 BB6A     		ldr	r3, [r7, #40]
 1014 0072 1A60     		str	r2, [r3]
 556:../../../../dependencies/freertos/FreeRTOSv10.4.1/FreeRTOS/Source/event_groups.c **** 
 557:../../../../dependencies/freertos/FreeRTOSv10.4.1/FreeRTOS/Source/event_groups.c ****         /* See if the new bit value should unblock any tasks. */
 558:../../../../dependencies/freertos/FreeRTOSv10.4.1/FreeRTOS/Source/event_groups.c ****         while( pxListItem != pxListEnd )
 1015              		.loc 1 558 14
 1016 0074 3CE0     		b	.L62
 1017              	.L67:
 559:../../../../dependencies/freertos/FreeRTOSv10.4.1/FreeRTOS/Source/event_groups.c ****         {
 560:../../../../dependencies/freertos/FreeRTOSv10.4.1/FreeRTOS/Source/event_groups.c ****             pxNext = listGET_NEXT( pxListItem );
 1018              		.loc 1 560 20
 1019 0076 7B6B     		ldr	r3, [r7, #52]
 1020 0078 5B68     		ldr	r3, [r3, #4]
 1021 007a FB61     		str	r3, [r7, #28]
 561:../../../../dependencies/freertos/FreeRTOSv10.4.1/FreeRTOS/Source/event_groups.c ****             uxBitsWaitedFor = listGET_LIST_ITEM_VALUE( pxListItem );
 1022              		.loc 1 561 29
 1023 007c 7B6B     		ldr	r3, [r7, #52]
 1024 007e 1B68     		ldr	r3, [r3]
 1025 0080 BB61     		str	r3, [r7, #24]
 562:../../../../dependencies/freertos/FreeRTOSv10.4.1/FreeRTOS/Source/event_groups.c ****             xMatchFound = pdFALSE;
 1026              		.loc 1 562 25
ARM GAS  /var/folders/kj/yzqgq53j3dg15vgwwwwgf5s00000gn/T//ccIz7yzx.s 			page 33


 1027 0082 0023     		movs	r3, #0
 1028 0084 FB62     		str	r3, [r7, #44]
 563:../../../../dependencies/freertos/FreeRTOSv10.4.1/FreeRTOS/Source/event_groups.c **** 
 564:../../../../dependencies/freertos/FreeRTOSv10.4.1/FreeRTOS/Source/event_groups.c ****             /* Split the bits waited for from the control bits. */
 565:../../../../dependencies/freertos/FreeRTOSv10.4.1/FreeRTOS/Source/event_groups.c ****             uxControlBits = uxBitsWaitedFor & eventEVENT_BITS_CONTROL_BYTES;
 1029              		.loc 1 565 27
 1030 0086 BB69     		ldr	r3, [r7, #24]
 1031 0088 03F07F43 		and	r3, r3, #-16777216
 1032 008c 7B61     		str	r3, [r7, #20]
 566:../../../../dependencies/freertos/FreeRTOSv10.4.1/FreeRTOS/Source/event_groups.c ****             uxBitsWaitedFor &= ~eventEVENT_BITS_CONTROL_BYTES;
 1033              		.loc 1 566 29
 1034 008e BB69     		ldr	r3, [r7, #24]
 1035 0090 23F07F43 		bic	r3, r3, #-16777216
 1036 0094 BB61     		str	r3, [r7, #24]
 567:../../../../dependencies/freertos/FreeRTOSv10.4.1/FreeRTOS/Source/event_groups.c **** 
 568:../../../../dependencies/freertos/FreeRTOSv10.4.1/FreeRTOS/Source/event_groups.c ****             if( ( uxControlBits & eventWAIT_FOR_ALL_BITS ) == ( EventBits_t ) 0 )
 1037              		.loc 1 568 33
 1038 0096 7B69     		ldr	r3, [r7, #20]
 1039 0098 03F08063 		and	r3, r3, #67108864
 1040              		.loc 1 568 15
 1041 009c 002B     		cmp	r3, #0
 1042 009e 08D1     		bne	.L63
 569:../../../../dependencies/freertos/FreeRTOSv10.4.1/FreeRTOS/Source/event_groups.c ****             {
 570:../../../../dependencies/freertos/FreeRTOSv10.4.1/FreeRTOS/Source/event_groups.c ****                 /* Just looking for single bit being set. */
 571:../../../../dependencies/freertos/FreeRTOSv10.4.1/FreeRTOS/Source/event_groups.c ****                 if( ( uxBitsWaitedFor & pxEventBits->uxEventBits ) != ( EventBits_t ) 0 )
 1043              		.loc 1 571 52
 1044 00a0 BB6A     		ldr	r3, [r7, #40]
 1045 00a2 1A68     		ldr	r2, [r3]
 1046              		.loc 1 571 39
 1047 00a4 BB69     		ldr	r3, [r7, #24]
 1048 00a6 1340     		ands	r3, r3, r2
 1049              		.loc 1 571 19
 1050 00a8 002B     		cmp	r3, #0
 1051 00aa 0BD0     		beq	.L64
 572:../../../../dependencies/freertos/FreeRTOSv10.4.1/FreeRTOS/Source/event_groups.c ****                 {
 573:../../../../dependencies/freertos/FreeRTOSv10.4.1/FreeRTOS/Source/event_groups.c ****                     xMatchFound = pdTRUE;
 1052              		.loc 1 573 33
 1053 00ac 0123     		movs	r3, #1
 1054 00ae FB62     		str	r3, [r7, #44]
 1055 00b0 08E0     		b	.L64
 1056              	.L63:
 574:../../../../dependencies/freertos/FreeRTOSv10.4.1/FreeRTOS/Source/event_groups.c ****                 }
 575:../../../../dependencies/freertos/FreeRTOSv10.4.1/FreeRTOS/Source/event_groups.c ****                 else
 576:../../../../dependencies/freertos/FreeRTOSv10.4.1/FreeRTOS/Source/event_groups.c ****                 {
 577:../../../../dependencies/freertos/FreeRTOSv10.4.1/FreeRTOS/Source/event_groups.c ****                     mtCOVERAGE_TEST_MARKER();
 578:../../../../dependencies/freertos/FreeRTOSv10.4.1/FreeRTOS/Source/event_groups.c ****                 }
 579:../../../../dependencies/freertos/FreeRTOSv10.4.1/FreeRTOS/Source/event_groups.c ****             }
 580:../../../../dependencies/freertos/FreeRTOSv10.4.1/FreeRTOS/Source/event_groups.c ****             else if( ( uxBitsWaitedFor & pxEventBits->uxEventBits ) == uxBitsWaitedFor )
 1057              		.loc 1 580 53
 1058 00b2 BB6A     		ldr	r3, [r7, #40]
 1059 00b4 1A68     		ldr	r2, [r3]
 1060              		.loc 1 580 40
 1061 00b6 BB69     		ldr	r3, [r7, #24]
 1062 00b8 1340     		ands	r3, r3, r2
 1063              		.loc 1 580 20
 1064 00ba BA69     		ldr	r2, [r7, #24]
 1065 00bc 9A42     		cmp	r2, r3
ARM GAS  /var/folders/kj/yzqgq53j3dg15vgwwwwgf5s00000gn/T//ccIz7yzx.s 			page 34


 1066 00be 01D1     		bne	.L64
 581:../../../../dependencies/freertos/FreeRTOSv10.4.1/FreeRTOS/Source/event_groups.c ****             {
 582:../../../../dependencies/freertos/FreeRTOSv10.4.1/FreeRTOS/Source/event_groups.c ****                 /* All bits are set. */
 583:../../../../dependencies/freertos/FreeRTOSv10.4.1/FreeRTOS/Source/event_groups.c ****                 xMatchFound = pdTRUE;
 1067              		.loc 1 583 29
 1068 00c0 0123     		movs	r3, #1
 1069 00c2 FB62     		str	r3, [r7, #44]
 1070              	.L64:
 584:../../../../dependencies/freertos/FreeRTOSv10.4.1/FreeRTOS/Source/event_groups.c ****             }
 585:../../../../dependencies/freertos/FreeRTOSv10.4.1/FreeRTOS/Source/event_groups.c ****             else
 586:../../../../dependencies/freertos/FreeRTOSv10.4.1/FreeRTOS/Source/event_groups.c ****             {
 587:../../../../dependencies/freertos/FreeRTOSv10.4.1/FreeRTOS/Source/event_groups.c ****                 /* Need all bits to be set, but not all the bits were set. */
 588:../../../../dependencies/freertos/FreeRTOSv10.4.1/FreeRTOS/Source/event_groups.c ****             }
 589:../../../../dependencies/freertos/FreeRTOSv10.4.1/FreeRTOS/Source/event_groups.c **** 
 590:../../../../dependencies/freertos/FreeRTOSv10.4.1/FreeRTOS/Source/event_groups.c ****             if( xMatchFound != pdFALSE )
 1071              		.loc 1 590 15
 1072 00c4 FB6A     		ldr	r3, [r7, #44]
 1073 00c6 002B     		cmp	r3, #0
 1074 00c8 10D0     		beq	.L65
 591:../../../../dependencies/freertos/FreeRTOSv10.4.1/FreeRTOS/Source/event_groups.c ****             {
 592:../../../../dependencies/freertos/FreeRTOSv10.4.1/FreeRTOS/Source/event_groups.c ****                 /* The bits match.  Should the bits be cleared on exit? */
 593:../../../../dependencies/freertos/FreeRTOSv10.4.1/FreeRTOS/Source/event_groups.c ****                 if( ( uxControlBits & eventCLEAR_EVENTS_ON_EXIT_BIT ) != ( EventBits_t ) 0 )
 1075              		.loc 1 593 37
 1076 00ca 7B69     		ldr	r3, [r7, #20]
 1077 00cc 03F08073 		and	r3, r3, #16777216
 1078              		.loc 1 593 19
 1079 00d0 002B     		cmp	r3, #0
 1080 00d2 03D0     		beq	.L66
 594:../../../../dependencies/freertos/FreeRTOSv10.4.1/FreeRTOS/Source/event_groups.c ****                 {
 595:../../../../dependencies/freertos/FreeRTOSv10.4.1/FreeRTOS/Source/event_groups.c ****                     uxBitsToClear |= uxBitsWaitedFor;
 1081              		.loc 1 595 35
 1082 00d4 3A6B     		ldr	r2, [r7, #48]
 1083 00d6 BB69     		ldr	r3, [r7, #24]
 1084 00d8 1343     		orrs	r3, r3, r2
 1085 00da 3B63     		str	r3, [r7, #48]
 1086              	.L66:
 596:../../../../dependencies/freertos/FreeRTOSv10.4.1/FreeRTOS/Source/event_groups.c ****                 }
 597:../../../../dependencies/freertos/FreeRTOSv10.4.1/FreeRTOS/Source/event_groups.c ****                 else
 598:../../../../dependencies/freertos/FreeRTOSv10.4.1/FreeRTOS/Source/event_groups.c ****                 {
 599:../../../../dependencies/freertos/FreeRTOSv10.4.1/FreeRTOS/Source/event_groups.c ****                     mtCOVERAGE_TEST_MARKER();
 600:../../../../dependencies/freertos/FreeRTOSv10.4.1/FreeRTOS/Source/event_groups.c ****                 }
 601:../../../../dependencies/freertos/FreeRTOSv10.4.1/FreeRTOS/Source/event_groups.c **** 
 602:../../../../dependencies/freertos/FreeRTOSv10.4.1/FreeRTOS/Source/event_groups.c ****                 /* Store the actual event flag value in the task's event list
 603:../../../../dependencies/freertos/FreeRTOSv10.4.1/FreeRTOS/Source/event_groups.c ****                  * item before removing the task from the event list.  The
 604:../../../../dependencies/freertos/FreeRTOSv10.4.1/FreeRTOS/Source/event_groups.c ****                  * eventUNBLOCKED_DUE_TO_BIT_SET bit is set so the task knows
 605:../../../../dependencies/freertos/FreeRTOSv10.4.1/FreeRTOS/Source/event_groups.c ****                  * that is was unblocked due to its required bits matching, rather
 606:../../../../dependencies/freertos/FreeRTOSv10.4.1/FreeRTOS/Source/event_groups.c ****                  * than because it timed out. */
 607:../../../../dependencies/freertos/FreeRTOSv10.4.1/FreeRTOS/Source/event_groups.c ****                 vTaskRemoveFromUnorderedEventList( pxListItem, pxEventBits->uxEventBits | eventUNBL
 1087              		.loc 1 607 75
 1088 00dc BB6A     		ldr	r3, [r7, #40]
 1089 00de 1B68     		ldr	r3, [r3]
 1090              		.loc 1 607 17
 1091 00e0 43F00073 		orr	r3, r3, #33554432
 1092 00e4 1946     		mov	r1, r3
 1093 00e6 786B     		ldr	r0, [r7, #52]
 1094 00e8 FFF7FEFF 		bl	vTaskRemoveFromUnorderedEventList
 1095              	.L65:
ARM GAS  /var/folders/kj/yzqgq53j3dg15vgwwwwgf5s00000gn/T//ccIz7yzx.s 			page 35


 608:../../../../dependencies/freertos/FreeRTOSv10.4.1/FreeRTOS/Source/event_groups.c ****             }
 609:../../../../dependencies/freertos/FreeRTOSv10.4.1/FreeRTOS/Source/event_groups.c **** 
 610:../../../../dependencies/freertos/FreeRTOSv10.4.1/FreeRTOS/Source/event_groups.c ****             /* Move onto the next list item.  Note pxListItem->pxNext is not
 611:../../../../dependencies/freertos/FreeRTOSv10.4.1/FreeRTOS/Source/event_groups.c ****              * used here as the list item may have been removed from the event list
 612:../../../../dependencies/freertos/FreeRTOSv10.4.1/FreeRTOS/Source/event_groups.c ****              * and inserted into the ready/pending reading list. */
 613:../../../../dependencies/freertos/FreeRTOSv10.4.1/FreeRTOS/Source/event_groups.c ****             pxListItem = pxNext;
 1096              		.loc 1 613 24
 1097 00ec FB69     		ldr	r3, [r7, #28]
 1098 00ee 7B63     		str	r3, [r7, #52]
 1099              	.L62:
 558:../../../../dependencies/freertos/FreeRTOSv10.4.1/FreeRTOS/Source/event_groups.c ****         {
 1100              		.loc 1 558 14
 1101 00f0 7A6B     		ldr	r2, [r7, #52]
 1102 00f2 3B6A     		ldr	r3, [r7, #32]
 1103 00f4 9A42     		cmp	r2, r3
 1104 00f6 BED1     		bne	.L67
 614:../../../../dependencies/freertos/FreeRTOSv10.4.1/FreeRTOS/Source/event_groups.c ****         }
 615:../../../../dependencies/freertos/FreeRTOSv10.4.1/FreeRTOS/Source/event_groups.c **** 
 616:../../../../dependencies/freertos/FreeRTOSv10.4.1/FreeRTOS/Source/event_groups.c ****         /* Clear any bits that matched when the eventCLEAR_EVENTS_ON_EXIT_BIT
 617:../../../../dependencies/freertos/FreeRTOSv10.4.1/FreeRTOS/Source/event_groups.c ****          * bit was set in the control word. */
 618:../../../../dependencies/freertos/FreeRTOSv10.4.1/FreeRTOS/Source/event_groups.c ****         pxEventBits->uxEventBits &= ~uxBitsToClear;
 1105              		.loc 1 618 34
 1106 00f8 BB6A     		ldr	r3, [r7, #40]
 1107 00fa 1A68     		ldr	r2, [r3]
 1108              		.loc 1 618 37
 1109 00fc 3B6B     		ldr	r3, [r7, #48]
 1110 00fe DB43     		mvns	r3, r3
 1111              		.loc 1 618 34
 1112 0100 1A40     		ands	r2, r2, r3
 1113 0102 BB6A     		ldr	r3, [r7, #40]
 1114 0104 1A60     		str	r2, [r3]
 619:../../../../dependencies/freertos/FreeRTOSv10.4.1/FreeRTOS/Source/event_groups.c ****     }
 620:../../../../dependencies/freertos/FreeRTOSv10.4.1/FreeRTOS/Source/event_groups.c ****     ( void ) xTaskResumeAll();
 1115              		.loc 1 620 14
 1116 0106 FFF7FEFF 		bl	xTaskResumeAll
 621:../../../../dependencies/freertos/FreeRTOSv10.4.1/FreeRTOS/Source/event_groups.c **** 
 622:../../../../dependencies/freertos/FreeRTOSv10.4.1/FreeRTOS/Source/event_groups.c ****     return pxEventBits->uxEventBits;
 1117              		.loc 1 622 23
 1118 010a BB6A     		ldr	r3, [r7, #40]
 1119 010c 1B68     		ldr	r3, [r3]
 623:../../../../dependencies/freertos/FreeRTOSv10.4.1/FreeRTOS/Source/event_groups.c **** }
 1120              		.loc 1 623 1
 1121 010e 1846     		mov	r0, r3
 1122 0110 3837     		adds	r7, r7, #56
 1123              	.LCFI29:
 1124              		.cfi_def_cfa_offset 8
 1125 0112 BD46     		mov	sp, r7
 1126              	.LCFI30:
 1127              		.cfi_def_cfa_register 13
 1128              		@ sp needed
 1129 0114 80BD     		pop	{r7, pc}
 1130              		.cfi_endproc
 1131              	.LFE10:
 1133              		.section	.text.vEventGroupDelete,"ax",%progbits
 1134              		.align	1
 1135              		.global	vEventGroupDelete
 1136              		.syntax unified
ARM GAS  /var/folders/kj/yzqgq53j3dg15vgwwwwgf5s00000gn/T//ccIz7yzx.s 			page 36


 1137              		.thumb
 1138              		.thumb_func
 1139              		.fpu fpv4-sp-d16
 1141              	vEventGroupDelete:
 1142              	.LFB11:
 624:../../../../dependencies/freertos/FreeRTOSv10.4.1/FreeRTOS/Source/event_groups.c **** /*-----------------------------------------------------------*/
 625:../../../../dependencies/freertos/FreeRTOSv10.4.1/FreeRTOS/Source/event_groups.c **** 
 626:../../../../dependencies/freertos/FreeRTOSv10.4.1/FreeRTOS/Source/event_groups.c **** void vEventGroupDelete( EventGroupHandle_t xEventGroup )
 627:../../../../dependencies/freertos/FreeRTOSv10.4.1/FreeRTOS/Source/event_groups.c **** {
 1143              		.loc 1 627 1
 1144              		.cfi_startproc
 1145              		@ args = 0, pretend = 0, frame = 24
 1146              		@ frame_needed = 1, uses_anonymous_args = 0
 1147 0000 80B5     		push	{r7, lr}
 1148              	.LCFI31:
 1149              		.cfi_def_cfa_offset 8
 1150              		.cfi_offset 7, -8
 1151              		.cfi_offset 14, -4
 1152 0002 86B0     		sub	sp, sp, #24
 1153              	.LCFI32:
 1154              		.cfi_def_cfa_offset 32
 1155 0004 00AF     		add	r7, sp, #0
 1156              	.LCFI33:
 1157              		.cfi_def_cfa_register 7
 1158 0006 7860     		str	r0, [r7, #4]
 628:../../../../dependencies/freertos/FreeRTOSv10.4.1/FreeRTOS/Source/event_groups.c ****     EventGroup_t * pxEventBits = xEventGroup;
 1159              		.loc 1 628 20
 1160 0008 7B68     		ldr	r3, [r7, #4]
 1161 000a 7B61     		str	r3, [r7, #20]
 629:../../../../dependencies/freertos/FreeRTOSv10.4.1/FreeRTOS/Source/event_groups.c ****     const List_t * pxTasksWaitingForBits = &( pxEventBits->xTasksWaitingForBits );
 1162              		.loc 1 629 20
 1163 000c 7B69     		ldr	r3, [r7, #20]
 1164 000e 0433     		adds	r3, r3, #4
 1165 0010 3B61     		str	r3, [r7, #16]
 630:../../../../dependencies/freertos/FreeRTOSv10.4.1/FreeRTOS/Source/event_groups.c **** 
 631:../../../../dependencies/freertos/FreeRTOSv10.4.1/FreeRTOS/Source/event_groups.c ****     vTaskSuspendAll();
 1166              		.loc 1 631 5
 1167 0012 FFF7FEFF 		bl	vTaskSuspendAll
 632:../../../../dependencies/freertos/FreeRTOSv10.4.1/FreeRTOS/Source/event_groups.c ****     {
 633:../../../../dependencies/freertos/FreeRTOSv10.4.1/FreeRTOS/Source/event_groups.c ****         traceEVENT_GROUP_DELETE( xEventGroup );
 634:../../../../dependencies/freertos/FreeRTOSv10.4.1/FreeRTOS/Source/event_groups.c **** 
 635:../../../../dependencies/freertos/FreeRTOSv10.4.1/FreeRTOS/Source/event_groups.c ****         while( listCURRENT_LIST_LENGTH( pxTasksWaitingForBits ) > ( UBaseType_t ) 0 )
 1168              		.loc 1 635 14
 1169 0016 17E0     		b	.L70
 1170              	.L73:
 636:../../../../dependencies/freertos/FreeRTOSv10.4.1/FreeRTOS/Source/event_groups.c ****         {
 637:../../../../dependencies/freertos/FreeRTOSv10.4.1/FreeRTOS/Source/event_groups.c ****             /* Unblock the task, returning 0 as the event list is being deleted
 638:../../../../dependencies/freertos/FreeRTOSv10.4.1/FreeRTOS/Source/event_groups.c ****              * and cannot therefore have any bits set. */
 639:../../../../dependencies/freertos/FreeRTOSv10.4.1/FreeRTOS/Source/event_groups.c ****             configASSERT( pxTasksWaitingForBits->xListEnd.pxNext != ( const ListItem_t * ) &( pxTas
 1171              		.loc 1 639 13
 1172 0018 3B69     		ldr	r3, [r7, #16]
 1173 001a DA68     		ldr	r2, [r3, #12]
 1174 001c 3B69     		ldr	r3, [r7, #16]
 1175 001e 0833     		adds	r3, r3, #8
 1176 0020 9A42     		cmp	r2, r3
 1177 0022 0AD1     		bne	.L71
 1178              	.LBB58:
ARM GAS  /var/folders/kj/yzqgq53j3dg15vgwwwwgf5s00000gn/T//ccIz7yzx.s 			page 37


 1179              	.LBB59:
 197:../../../../dependencies/freertos/FreeRTOSv10.4.1/FreeRTOS/Source/portable/GCC/ARM_CM4F/portmacro.h ****         (
 1180              		.loc 2 197 9
 1181              		.syntax unified
 1182              	@ 197 "../../../../dependencies/freertos/FreeRTOSv10.4.1/FreeRTOS/Source/portable/GCC/ARM_CM4F/port
 1183 0024 4FF05003 			mov r3, #80												
 1184 0028 83F31188 		msr basepri, r3											
 1185 002c BFF36F8F 		isb														
 1186 0030 BFF34F8F 		dsb														
 1187              	
 1188              	@ 0 "" 2
 1189              		.thumb
 1190              		.syntax unified
 1191 0034 FB60     		str	r3, [r7, #12]
 205:../../../../dependencies/freertos/FreeRTOSv10.4.1/FreeRTOS/Source/portable/GCC/ARM_CM4F/portmacro.h **** 
 1192              		.loc 2 205 5
 1193 0036 00BF     		nop
 1194              	.L72:
 1195              	.LBE59:
 1196              	.LBE58:
 1197              		.loc 1 639 13 discriminator 1
 1198 0038 FEE7     		b	.L72
 1199              	.L71:
 640:../../../../dependencies/freertos/FreeRTOSv10.4.1/FreeRTOS/Source/event_groups.c ****             vTaskRemoveFromUnorderedEventList( pxTasksWaitingForBits->xListEnd.pxNext, eventUNBLOCK
 1200              		.loc 1 640 79
 1201 003a 3B69     		ldr	r3, [r7, #16]
 1202 003c DB68     		ldr	r3, [r3, #12]
 1203              		.loc 1 640 13
 1204 003e 4FF00071 		mov	r1, #33554432
 1205 0042 1846     		mov	r0, r3
 1206 0044 FFF7FEFF 		bl	vTaskRemoveFromUnorderedEventList
 1207              	.L70:
 635:../../../../dependencies/freertos/FreeRTOSv10.4.1/FreeRTOS/Source/event_groups.c ****         {
 1208              		.loc 1 635 16
 1209 0048 3B69     		ldr	r3, [r7, #16]
 1210 004a 1B68     		ldr	r3, [r3]
 635:../../../../dependencies/freertos/FreeRTOSv10.4.1/FreeRTOS/Source/event_groups.c ****         {
 1211              		.loc 1 635 14
 1212 004c 002B     		cmp	r3, #0
 1213 004e E3D1     		bne	.L73
 641:../../../../dependencies/freertos/FreeRTOSv10.4.1/FreeRTOS/Source/event_groups.c ****         }
 642:../../../../dependencies/freertos/FreeRTOSv10.4.1/FreeRTOS/Source/event_groups.c **** 
 643:../../../../dependencies/freertos/FreeRTOSv10.4.1/FreeRTOS/Source/event_groups.c ****         #if ( ( configSUPPORT_DYNAMIC_ALLOCATION == 1 ) && ( configSUPPORT_STATIC_ALLOCATION == 0 )
 644:../../../../dependencies/freertos/FreeRTOSv10.4.1/FreeRTOS/Source/event_groups.c ****             {
 645:../../../../dependencies/freertos/FreeRTOSv10.4.1/FreeRTOS/Source/event_groups.c ****                 /* The event group can only have been allocated dynamically - free
 646:../../../../dependencies/freertos/FreeRTOSv10.4.1/FreeRTOS/Source/event_groups.c ****                  * it again. */
 647:../../../../dependencies/freertos/FreeRTOSv10.4.1/FreeRTOS/Source/event_groups.c ****                 vPortFree( pxEventBits );
 1214              		.loc 1 647 17
 1215 0050 7869     		ldr	r0, [r7, #20]
 1216 0052 FFF7FEFF 		bl	vPortFree
 648:../../../../dependencies/freertos/FreeRTOSv10.4.1/FreeRTOS/Source/event_groups.c ****             }
 649:../../../../dependencies/freertos/FreeRTOSv10.4.1/FreeRTOS/Source/event_groups.c ****         #elif ( ( configSUPPORT_DYNAMIC_ALLOCATION == 1 ) && ( configSUPPORT_STATIC_ALLOCATION == 1
 650:../../../../dependencies/freertos/FreeRTOSv10.4.1/FreeRTOS/Source/event_groups.c ****             {
 651:../../../../dependencies/freertos/FreeRTOSv10.4.1/FreeRTOS/Source/event_groups.c ****                 /* The event group could have been allocated statically or
 652:../../../../dependencies/freertos/FreeRTOSv10.4.1/FreeRTOS/Source/event_groups.c ****                  * dynamically, so check before attempting to free the memory. */
 653:../../../../dependencies/freertos/FreeRTOSv10.4.1/FreeRTOS/Source/event_groups.c ****                 if( pxEventBits->ucStaticallyAllocated == ( uint8_t ) pdFALSE )
 654:../../../../dependencies/freertos/FreeRTOSv10.4.1/FreeRTOS/Source/event_groups.c ****                 {
ARM GAS  /var/folders/kj/yzqgq53j3dg15vgwwwwgf5s00000gn/T//ccIz7yzx.s 			page 38


 655:../../../../dependencies/freertos/FreeRTOSv10.4.1/FreeRTOS/Source/event_groups.c ****                     vPortFree( pxEventBits );
 656:../../../../dependencies/freertos/FreeRTOSv10.4.1/FreeRTOS/Source/event_groups.c ****                 }
 657:../../../../dependencies/freertos/FreeRTOSv10.4.1/FreeRTOS/Source/event_groups.c ****                 else
 658:../../../../dependencies/freertos/FreeRTOSv10.4.1/FreeRTOS/Source/event_groups.c ****                 {
 659:../../../../dependencies/freertos/FreeRTOSv10.4.1/FreeRTOS/Source/event_groups.c ****                     mtCOVERAGE_TEST_MARKER();
 660:../../../../dependencies/freertos/FreeRTOSv10.4.1/FreeRTOS/Source/event_groups.c ****                 }
 661:../../../../dependencies/freertos/FreeRTOSv10.4.1/FreeRTOS/Source/event_groups.c ****             }
 662:../../../../dependencies/freertos/FreeRTOSv10.4.1/FreeRTOS/Source/event_groups.c ****         #endif /* configSUPPORT_DYNAMIC_ALLOCATION */
 663:../../../../dependencies/freertos/FreeRTOSv10.4.1/FreeRTOS/Source/event_groups.c ****     }
 664:../../../../dependencies/freertos/FreeRTOSv10.4.1/FreeRTOS/Source/event_groups.c ****     ( void ) xTaskResumeAll();
 1217              		.loc 1 664 14
 1218 0056 FFF7FEFF 		bl	xTaskResumeAll
 665:../../../../dependencies/freertos/FreeRTOSv10.4.1/FreeRTOS/Source/event_groups.c **** }
 1219              		.loc 1 665 1
 1220 005a 00BF     		nop
 1221 005c 1837     		adds	r7, r7, #24
 1222              	.LCFI34:
 1223              		.cfi_def_cfa_offset 8
 1224 005e BD46     		mov	sp, r7
 1225              	.LCFI35:
 1226              		.cfi_def_cfa_register 13
 1227              		@ sp needed
 1228 0060 80BD     		pop	{r7, pc}
 1229              		.cfi_endproc
 1230              	.LFE11:
 1232              		.section	.text.vEventGroupSetBitsCallback,"ax",%progbits
 1233              		.align	1
 1234              		.global	vEventGroupSetBitsCallback
 1235              		.syntax unified
 1236              		.thumb
 1237              		.thumb_func
 1238              		.fpu fpv4-sp-d16
 1240              	vEventGroupSetBitsCallback:
 1241              	.LFB12:
 666:../../../../dependencies/freertos/FreeRTOSv10.4.1/FreeRTOS/Source/event_groups.c **** /*-----------------------------------------------------------*/
 667:../../../../dependencies/freertos/FreeRTOSv10.4.1/FreeRTOS/Source/event_groups.c **** 
 668:../../../../dependencies/freertos/FreeRTOSv10.4.1/FreeRTOS/Source/event_groups.c **** /* For internal use only - execute a 'set bits' command that was pended from
 669:../../../../dependencies/freertos/FreeRTOSv10.4.1/FreeRTOS/Source/event_groups.c ****  * an interrupt. */
 670:../../../../dependencies/freertos/FreeRTOSv10.4.1/FreeRTOS/Source/event_groups.c **** void vEventGroupSetBitsCallback( void * pvEventGroup,
 671:../../../../dependencies/freertos/FreeRTOSv10.4.1/FreeRTOS/Source/event_groups.c ****                                  const uint32_t ulBitsToSet )
 672:../../../../dependencies/freertos/FreeRTOSv10.4.1/FreeRTOS/Source/event_groups.c **** {
 1242              		.loc 1 672 1
 1243              		.cfi_startproc
 1244              		@ args = 0, pretend = 0, frame = 8
 1245              		@ frame_needed = 1, uses_anonymous_args = 0
 1246 0000 80B5     		push	{r7, lr}
 1247              	.LCFI36:
 1248              		.cfi_def_cfa_offset 8
 1249              		.cfi_offset 7, -8
 1250              		.cfi_offset 14, -4
 1251 0002 82B0     		sub	sp, sp, #8
 1252              	.LCFI37:
 1253              		.cfi_def_cfa_offset 16
 1254 0004 00AF     		add	r7, sp, #0
 1255              	.LCFI38:
 1256              		.cfi_def_cfa_register 7
 1257 0006 7860     		str	r0, [r7, #4]
ARM GAS  /var/folders/kj/yzqgq53j3dg15vgwwwwgf5s00000gn/T//ccIz7yzx.s 			page 39


 1258 0008 3960     		str	r1, [r7]
 673:../../../../dependencies/freertos/FreeRTOSv10.4.1/FreeRTOS/Source/event_groups.c ****     ( void ) xEventGroupSetBits( pvEventGroup, ( EventBits_t ) ulBitsToSet ); /*lint !e9079 Can't a
 1259              		.loc 1 673 14
 1260 000a 3968     		ldr	r1, [r7]
 1261 000c 7868     		ldr	r0, [r7, #4]
 1262 000e FFF7FEFF 		bl	xEventGroupSetBits
 674:../../../../dependencies/freertos/FreeRTOSv10.4.1/FreeRTOS/Source/event_groups.c **** }
 1263              		.loc 1 674 1
 1264 0012 00BF     		nop
 1265 0014 0837     		adds	r7, r7, #8
 1266              	.LCFI39:
 1267              		.cfi_def_cfa_offset 8
 1268 0016 BD46     		mov	sp, r7
 1269              	.LCFI40:
 1270              		.cfi_def_cfa_register 13
 1271              		@ sp needed
 1272 0018 80BD     		pop	{r7, pc}
 1273              		.cfi_endproc
 1274              	.LFE12:
 1276              		.section	.text.vEventGroupClearBitsCallback,"ax",%progbits
 1277              		.align	1
 1278              		.global	vEventGroupClearBitsCallback
 1279              		.syntax unified
 1280              		.thumb
 1281              		.thumb_func
 1282              		.fpu fpv4-sp-d16
 1284              	vEventGroupClearBitsCallback:
 1285              	.LFB13:
 675:../../../../dependencies/freertos/FreeRTOSv10.4.1/FreeRTOS/Source/event_groups.c **** /*-----------------------------------------------------------*/
 676:../../../../dependencies/freertos/FreeRTOSv10.4.1/FreeRTOS/Source/event_groups.c **** 
 677:../../../../dependencies/freertos/FreeRTOSv10.4.1/FreeRTOS/Source/event_groups.c **** /* For internal use only - execute a 'clear bits' command that was pended from
 678:../../../../dependencies/freertos/FreeRTOSv10.4.1/FreeRTOS/Source/event_groups.c ****  * an interrupt. */
 679:../../../../dependencies/freertos/FreeRTOSv10.4.1/FreeRTOS/Source/event_groups.c **** void vEventGroupClearBitsCallback( void * pvEventGroup,
 680:../../../../dependencies/freertos/FreeRTOSv10.4.1/FreeRTOS/Source/event_groups.c ****                                    const uint32_t ulBitsToClear )
 681:../../../../dependencies/freertos/FreeRTOSv10.4.1/FreeRTOS/Source/event_groups.c **** {
 1286              		.loc 1 681 1
 1287              		.cfi_startproc
 1288              		@ args = 0, pretend = 0, frame = 8
 1289              		@ frame_needed = 1, uses_anonymous_args = 0
 1290 0000 80B5     		push	{r7, lr}
 1291              	.LCFI41:
 1292              		.cfi_def_cfa_offset 8
 1293              		.cfi_offset 7, -8
 1294              		.cfi_offset 14, -4
 1295 0002 82B0     		sub	sp, sp, #8
 1296              	.LCFI42:
 1297              		.cfi_def_cfa_offset 16
 1298 0004 00AF     		add	r7, sp, #0
 1299              	.LCFI43:
 1300              		.cfi_def_cfa_register 7
 1301 0006 7860     		str	r0, [r7, #4]
 1302 0008 3960     		str	r1, [r7]
 682:../../../../dependencies/freertos/FreeRTOSv10.4.1/FreeRTOS/Source/event_groups.c ****     ( void ) xEventGroupClearBits( pvEventGroup, ( EventBits_t ) ulBitsToClear ); /*lint !e9079 Can
 1303              		.loc 1 682 14
 1304 000a 3968     		ldr	r1, [r7]
 1305 000c 7868     		ldr	r0, [r7, #4]
 1306 000e FFF7FEFF 		bl	xEventGroupClearBits
ARM GAS  /var/folders/kj/yzqgq53j3dg15vgwwwwgf5s00000gn/T//ccIz7yzx.s 			page 40


 683:../../../../dependencies/freertos/FreeRTOSv10.4.1/FreeRTOS/Source/event_groups.c **** }
 1307              		.loc 1 683 1
 1308 0012 00BF     		nop
 1309 0014 0837     		adds	r7, r7, #8
 1310              	.LCFI44:
 1311              		.cfi_def_cfa_offset 8
 1312 0016 BD46     		mov	sp, r7
 1313              	.LCFI45:
 1314              		.cfi_def_cfa_register 13
 1315              		@ sp needed
 1316 0018 80BD     		pop	{r7, pc}
 1317              		.cfi_endproc
 1318              	.LFE13:
 1320              		.section	.text.prvTestWaitCondition,"ax",%progbits
 1321              		.align	1
 1322              		.syntax unified
 1323              		.thumb
 1324              		.thumb_func
 1325              		.fpu fpv4-sp-d16
 1327              	prvTestWaitCondition:
 1328              	.LFB14:
 684:../../../../dependencies/freertos/FreeRTOSv10.4.1/FreeRTOS/Source/event_groups.c **** /*-----------------------------------------------------------*/
 685:../../../../dependencies/freertos/FreeRTOSv10.4.1/FreeRTOS/Source/event_groups.c **** 
 686:../../../../dependencies/freertos/FreeRTOSv10.4.1/FreeRTOS/Source/event_groups.c **** static BaseType_t prvTestWaitCondition( const EventBits_t uxCurrentEventBits,
 687:../../../../dependencies/freertos/FreeRTOSv10.4.1/FreeRTOS/Source/event_groups.c ****                                         const EventBits_t uxBitsToWaitFor,
 688:../../../../dependencies/freertos/FreeRTOSv10.4.1/FreeRTOS/Source/event_groups.c ****                                         const BaseType_t xWaitForAllBits )
 689:../../../../dependencies/freertos/FreeRTOSv10.4.1/FreeRTOS/Source/event_groups.c **** {
 1329              		.loc 1 689 1
 1330              		.cfi_startproc
 1331              		@ args = 0, pretend = 0, frame = 24
 1332              		@ frame_needed = 1, uses_anonymous_args = 0
 1333              		@ link register save eliminated.
 1334 0000 80B4     		push	{r7}
 1335              	.LCFI46:
 1336              		.cfi_def_cfa_offset 4
 1337              		.cfi_offset 7, -4
 1338 0002 87B0     		sub	sp, sp, #28
 1339              	.LCFI47:
 1340              		.cfi_def_cfa_offset 32
 1341 0004 00AF     		add	r7, sp, #0
 1342              	.LCFI48:
 1343              		.cfi_def_cfa_register 7
 1344 0006 F860     		str	r0, [r7, #12]
 1345 0008 B960     		str	r1, [r7, #8]
 1346 000a 7A60     		str	r2, [r7, #4]
 690:../../../../dependencies/freertos/FreeRTOSv10.4.1/FreeRTOS/Source/event_groups.c ****     BaseType_t xWaitConditionMet = pdFALSE;
 1347              		.loc 1 690 16
 1348 000c 0023     		movs	r3, #0
 1349 000e 7B61     		str	r3, [r7, #20]
 691:../../../../dependencies/freertos/FreeRTOSv10.4.1/FreeRTOS/Source/event_groups.c **** 
 692:../../../../dependencies/freertos/FreeRTOSv10.4.1/FreeRTOS/Source/event_groups.c ****     if( xWaitForAllBits == pdFALSE )
 1350              		.loc 1 692 7
 1351 0010 7B68     		ldr	r3, [r7, #4]
 1352 0012 002B     		cmp	r3, #0
 1353 0014 07D1     		bne	.L77
 693:../../../../dependencies/freertos/FreeRTOSv10.4.1/FreeRTOS/Source/event_groups.c ****     {
 694:../../../../dependencies/freertos/FreeRTOSv10.4.1/FreeRTOS/Source/event_groups.c ****         /* Task only has to wait for one bit within uxBitsToWaitFor to be
ARM GAS  /var/folders/kj/yzqgq53j3dg15vgwwwwgf5s00000gn/T//ccIz7yzx.s 			page 41


 695:../../../../dependencies/freertos/FreeRTOSv10.4.1/FreeRTOS/Source/event_groups.c ****          * set.  Is one already set? */
 696:../../../../dependencies/freertos/FreeRTOSv10.4.1/FreeRTOS/Source/event_groups.c ****         if( ( uxCurrentEventBits & uxBitsToWaitFor ) != ( EventBits_t ) 0 )
 1354              		.loc 1 696 34
 1355 0016 FA68     		ldr	r2, [r7, #12]
 1356 0018 BB68     		ldr	r3, [r7, #8]
 1357 001a 1340     		ands	r3, r3, r2
 1358              		.loc 1 696 11
 1359 001c 002B     		cmp	r3, #0
 1360 001e 0AD0     		beq	.L78
 697:../../../../dependencies/freertos/FreeRTOSv10.4.1/FreeRTOS/Source/event_groups.c ****         {
 698:../../../../dependencies/freertos/FreeRTOSv10.4.1/FreeRTOS/Source/event_groups.c ****             xWaitConditionMet = pdTRUE;
 1361              		.loc 1 698 31
 1362 0020 0123     		movs	r3, #1
 1363 0022 7B61     		str	r3, [r7, #20]
 1364 0024 07E0     		b	.L78
 1365              	.L77:
 699:../../../../dependencies/freertos/FreeRTOSv10.4.1/FreeRTOS/Source/event_groups.c ****         }
 700:../../../../dependencies/freertos/FreeRTOSv10.4.1/FreeRTOS/Source/event_groups.c ****         else
 701:../../../../dependencies/freertos/FreeRTOSv10.4.1/FreeRTOS/Source/event_groups.c ****         {
 702:../../../../dependencies/freertos/FreeRTOSv10.4.1/FreeRTOS/Source/event_groups.c ****             mtCOVERAGE_TEST_MARKER();
 703:../../../../dependencies/freertos/FreeRTOSv10.4.1/FreeRTOS/Source/event_groups.c ****         }
 704:../../../../dependencies/freertos/FreeRTOSv10.4.1/FreeRTOS/Source/event_groups.c ****     }
 705:../../../../dependencies/freertos/FreeRTOSv10.4.1/FreeRTOS/Source/event_groups.c ****     else
 706:../../../../dependencies/freertos/FreeRTOSv10.4.1/FreeRTOS/Source/event_groups.c ****     {
 707:../../../../dependencies/freertos/FreeRTOSv10.4.1/FreeRTOS/Source/event_groups.c ****         /* Task has to wait for all the bits in uxBitsToWaitFor to be set.
 708:../../../../dependencies/freertos/FreeRTOSv10.4.1/FreeRTOS/Source/event_groups.c ****          * Are they set already? */
 709:../../../../dependencies/freertos/FreeRTOSv10.4.1/FreeRTOS/Source/event_groups.c ****         if( ( uxCurrentEventBits & uxBitsToWaitFor ) == uxBitsToWaitFor )
 1366              		.loc 1 709 34
 1367 0026 FA68     		ldr	r2, [r7, #12]
 1368 0028 BB68     		ldr	r3, [r7, #8]
 1369 002a 1340     		ands	r3, r3, r2
 1370              		.loc 1 709 11
 1371 002c BA68     		ldr	r2, [r7, #8]
 1372 002e 9A42     		cmp	r2, r3
 1373 0030 01D1     		bne	.L78
 710:../../../../dependencies/freertos/FreeRTOSv10.4.1/FreeRTOS/Source/event_groups.c ****         {
 711:../../../../dependencies/freertos/FreeRTOSv10.4.1/FreeRTOS/Source/event_groups.c ****             xWaitConditionMet = pdTRUE;
 1374              		.loc 1 711 31
 1375 0032 0123     		movs	r3, #1
 1376 0034 7B61     		str	r3, [r7, #20]
 1377              	.L78:
 712:../../../../dependencies/freertos/FreeRTOSv10.4.1/FreeRTOS/Source/event_groups.c ****         }
 713:../../../../dependencies/freertos/FreeRTOSv10.4.1/FreeRTOS/Source/event_groups.c ****         else
 714:../../../../dependencies/freertos/FreeRTOSv10.4.1/FreeRTOS/Source/event_groups.c ****         {
 715:../../../../dependencies/freertos/FreeRTOSv10.4.1/FreeRTOS/Source/event_groups.c ****             mtCOVERAGE_TEST_MARKER();
 716:../../../../dependencies/freertos/FreeRTOSv10.4.1/FreeRTOS/Source/event_groups.c ****         }
 717:../../../../dependencies/freertos/FreeRTOSv10.4.1/FreeRTOS/Source/event_groups.c ****     }
 718:../../../../dependencies/freertos/FreeRTOSv10.4.1/FreeRTOS/Source/event_groups.c **** 
 719:../../../../dependencies/freertos/FreeRTOSv10.4.1/FreeRTOS/Source/event_groups.c ****     return xWaitConditionMet;
 1378              		.loc 1 719 12
 1379 0036 7B69     		ldr	r3, [r7, #20]
 720:../../../../dependencies/freertos/FreeRTOSv10.4.1/FreeRTOS/Source/event_groups.c **** }
 1380              		.loc 1 720 1
 1381 0038 1846     		mov	r0, r3
 1382 003a 1C37     		adds	r7, r7, #28
 1383              	.LCFI49:
 1384              		.cfi_def_cfa_offset 4
ARM GAS  /var/folders/kj/yzqgq53j3dg15vgwwwwgf5s00000gn/T//ccIz7yzx.s 			page 42


 1385 003c BD46     		mov	sp, r7
 1386              	.LCFI50:
 1387              		.cfi_def_cfa_register 13
 1388              		@ sp needed
 1389 003e 5DF8047B 		ldr	r7, [sp], #4
 1390              	.LCFI51:
 1391              		.cfi_restore 7
 1392              		.cfi_def_cfa_offset 0
 1393 0042 7047     		bx	lr
 1394              		.cfi_endproc
 1395              	.LFE14:
 1397              		.section	.text.uxEventGroupGetNumber,"ax",%progbits
 1398              		.align	1
 1399              		.global	uxEventGroupGetNumber
 1400              		.syntax unified
 1401              		.thumb
 1402              		.thumb_func
 1403              		.fpu fpv4-sp-d16
 1405              	uxEventGroupGetNumber:
 1406              	.LFB15:
 721:../../../../dependencies/freertos/FreeRTOSv10.4.1/FreeRTOS/Source/event_groups.c **** /*-----------------------------------------------------------*/
 722:../../../../dependencies/freertos/FreeRTOSv10.4.1/FreeRTOS/Source/event_groups.c **** 
 723:../../../../dependencies/freertos/FreeRTOSv10.4.1/FreeRTOS/Source/event_groups.c **** #if ( ( configUSE_TRACE_FACILITY == 1 ) && ( INCLUDE_xTimerPendFunctionCall == 1 ) && ( configUSE_T
 724:../../../../dependencies/freertos/FreeRTOSv10.4.1/FreeRTOS/Source/event_groups.c **** 
 725:../../../../dependencies/freertos/FreeRTOSv10.4.1/FreeRTOS/Source/event_groups.c ****     BaseType_t xEventGroupSetBitsFromISR( EventGroupHandle_t xEventGroup,
 726:../../../../dependencies/freertos/FreeRTOSv10.4.1/FreeRTOS/Source/event_groups.c ****                                           const EventBits_t uxBitsToSet,
 727:../../../../dependencies/freertos/FreeRTOSv10.4.1/FreeRTOS/Source/event_groups.c ****                                           BaseType_t * pxHigherPriorityTaskWoken )
 728:../../../../dependencies/freertos/FreeRTOSv10.4.1/FreeRTOS/Source/event_groups.c ****     {
 729:../../../../dependencies/freertos/FreeRTOSv10.4.1/FreeRTOS/Source/event_groups.c ****         BaseType_t xReturn;
 730:../../../../dependencies/freertos/FreeRTOSv10.4.1/FreeRTOS/Source/event_groups.c **** 
 731:../../../../dependencies/freertos/FreeRTOSv10.4.1/FreeRTOS/Source/event_groups.c ****         traceEVENT_GROUP_SET_BITS_FROM_ISR( xEventGroup, uxBitsToSet );
 732:../../../../dependencies/freertos/FreeRTOSv10.4.1/FreeRTOS/Source/event_groups.c ****         xReturn = xTimerPendFunctionCallFromISR( vEventGroupSetBitsCallback, ( void * ) xEventGroup
 733:../../../../dependencies/freertos/FreeRTOSv10.4.1/FreeRTOS/Source/event_groups.c **** 
 734:../../../../dependencies/freertos/FreeRTOSv10.4.1/FreeRTOS/Source/event_groups.c ****         return xReturn;
 735:../../../../dependencies/freertos/FreeRTOSv10.4.1/FreeRTOS/Source/event_groups.c ****     }
 736:../../../../dependencies/freertos/FreeRTOSv10.4.1/FreeRTOS/Source/event_groups.c **** 
 737:../../../../dependencies/freertos/FreeRTOSv10.4.1/FreeRTOS/Source/event_groups.c **** #endif /* if ( ( configUSE_TRACE_FACILITY == 1 ) && ( INCLUDE_xTimerPendFunctionCall == 1 ) && ( co
 738:../../../../dependencies/freertos/FreeRTOSv10.4.1/FreeRTOS/Source/event_groups.c **** /*-----------------------------------------------------------*/
 739:../../../../dependencies/freertos/FreeRTOSv10.4.1/FreeRTOS/Source/event_groups.c **** 
 740:../../../../dependencies/freertos/FreeRTOSv10.4.1/FreeRTOS/Source/event_groups.c **** #if ( configUSE_TRACE_FACILITY == 1 )
 741:../../../../dependencies/freertos/FreeRTOSv10.4.1/FreeRTOS/Source/event_groups.c **** 
 742:../../../../dependencies/freertos/FreeRTOSv10.4.1/FreeRTOS/Source/event_groups.c ****     UBaseType_t uxEventGroupGetNumber( void * xEventGroup )
 743:../../../../dependencies/freertos/FreeRTOSv10.4.1/FreeRTOS/Source/event_groups.c ****     {
 1407              		.loc 1 743 5
 1408              		.cfi_startproc
 1409              		@ args = 0, pretend = 0, frame = 16
 1410              		@ frame_needed = 1, uses_anonymous_args = 0
 1411              		@ link register save eliminated.
 1412 0000 80B4     		push	{r7}
 1413              	.LCFI52:
 1414              		.cfi_def_cfa_offset 4
 1415              		.cfi_offset 7, -4
 1416 0002 85B0     		sub	sp, sp, #20
 1417              	.LCFI53:
 1418              		.cfi_def_cfa_offset 24
 1419 0004 00AF     		add	r7, sp, #0
 1420              	.LCFI54:
ARM GAS  /var/folders/kj/yzqgq53j3dg15vgwwwwgf5s00000gn/T//ccIz7yzx.s 			page 43


 1421              		.cfi_def_cfa_register 7
 1422 0006 7860     		str	r0, [r7, #4]
 744:../../../../dependencies/freertos/FreeRTOSv10.4.1/FreeRTOS/Source/event_groups.c ****         UBaseType_t xReturn;
 745:../../../../dependencies/freertos/FreeRTOSv10.4.1/FreeRTOS/Source/event_groups.c ****         EventGroup_t const * pxEventBits = ( EventGroup_t * ) xEventGroup; /*lint !e9087 !e9079 Eve
 1423              		.loc 1 745 30
 1424 0008 7B68     		ldr	r3, [r7, #4]
 1425 000a BB60     		str	r3, [r7, #8]
 746:../../../../dependencies/freertos/FreeRTOSv10.4.1/FreeRTOS/Source/event_groups.c **** 
 747:../../../../dependencies/freertos/FreeRTOSv10.4.1/FreeRTOS/Source/event_groups.c ****         if( xEventGroup == NULL )
 1426              		.loc 1 747 11
 1427 000c 7B68     		ldr	r3, [r7, #4]
 1428 000e 002B     		cmp	r3, #0
 1429 0010 02D1     		bne	.L81
 748:../../../../dependencies/freertos/FreeRTOSv10.4.1/FreeRTOS/Source/event_groups.c ****         {
 749:../../../../dependencies/freertos/FreeRTOSv10.4.1/FreeRTOS/Source/event_groups.c ****             xReturn = 0;
 1430              		.loc 1 749 21
 1431 0012 0023     		movs	r3, #0
 1432 0014 FB60     		str	r3, [r7, #12]
 1433 0016 02E0     		b	.L82
 1434              	.L81:
 750:../../../../dependencies/freertos/FreeRTOSv10.4.1/FreeRTOS/Source/event_groups.c ****         }
 751:../../../../dependencies/freertos/FreeRTOSv10.4.1/FreeRTOS/Source/event_groups.c ****         else
 752:../../../../dependencies/freertos/FreeRTOSv10.4.1/FreeRTOS/Source/event_groups.c ****         {
 753:../../../../dependencies/freertos/FreeRTOSv10.4.1/FreeRTOS/Source/event_groups.c ****             xReturn = pxEventBits->uxEventGroupNumber;
 1435              		.loc 1 753 21
 1436 0018 BB68     		ldr	r3, [r7, #8]
 1437 001a 9B69     		ldr	r3, [r3, #24]
 1438 001c FB60     		str	r3, [r7, #12]
 1439              	.L82:
 754:../../../../dependencies/freertos/FreeRTOSv10.4.1/FreeRTOS/Source/event_groups.c ****         }
 755:../../../../dependencies/freertos/FreeRTOSv10.4.1/FreeRTOS/Source/event_groups.c **** 
 756:../../../../dependencies/freertos/FreeRTOSv10.4.1/FreeRTOS/Source/event_groups.c ****         return xReturn;
 1440              		.loc 1 756 16
 1441 001e FB68     		ldr	r3, [r7, #12]
 757:../../../../dependencies/freertos/FreeRTOSv10.4.1/FreeRTOS/Source/event_groups.c ****     }
 1442              		.loc 1 757 5
 1443 0020 1846     		mov	r0, r3
 1444 0022 1437     		adds	r7, r7, #20
 1445              	.LCFI55:
 1446              		.cfi_def_cfa_offset 4
 1447 0024 BD46     		mov	sp, r7
 1448              	.LCFI56:
 1449              		.cfi_def_cfa_register 13
 1450              		@ sp needed
 1451 0026 5DF8047B 		ldr	r7, [sp], #4
 1452              	.LCFI57:
 1453              		.cfi_restore 7
 1454              		.cfi_def_cfa_offset 0
 1455 002a 7047     		bx	lr
 1456              		.cfi_endproc
 1457              	.LFE15:
 1459              		.section	.text.vEventGroupSetNumber,"ax",%progbits
 1460              		.align	1
 1461              		.global	vEventGroupSetNumber
 1462              		.syntax unified
 1463              		.thumb
 1464              		.thumb_func
ARM GAS  /var/folders/kj/yzqgq53j3dg15vgwwwwgf5s00000gn/T//ccIz7yzx.s 			page 44


 1465              		.fpu fpv4-sp-d16
 1467              	vEventGroupSetNumber:
 1468              	.LFB16:
 758:../../../../dependencies/freertos/FreeRTOSv10.4.1/FreeRTOS/Source/event_groups.c **** 
 759:../../../../dependencies/freertos/FreeRTOSv10.4.1/FreeRTOS/Source/event_groups.c **** #endif /* configUSE_TRACE_FACILITY */
 760:../../../../dependencies/freertos/FreeRTOSv10.4.1/FreeRTOS/Source/event_groups.c **** /*-----------------------------------------------------------*/
 761:../../../../dependencies/freertos/FreeRTOSv10.4.1/FreeRTOS/Source/event_groups.c **** 
 762:../../../../dependencies/freertos/FreeRTOSv10.4.1/FreeRTOS/Source/event_groups.c **** #if ( configUSE_TRACE_FACILITY == 1 )
 763:../../../../dependencies/freertos/FreeRTOSv10.4.1/FreeRTOS/Source/event_groups.c **** 
 764:../../../../dependencies/freertos/FreeRTOSv10.4.1/FreeRTOS/Source/event_groups.c ****     void vEventGroupSetNumber( void * xEventGroup,
 765:../../../../dependencies/freertos/FreeRTOSv10.4.1/FreeRTOS/Source/event_groups.c ****                                UBaseType_t uxEventGroupNumber )
 766:../../../../dependencies/freertos/FreeRTOSv10.4.1/FreeRTOS/Source/event_groups.c ****     {
 1469              		.loc 1 766 5
 1470              		.cfi_startproc
 1471              		@ args = 0, pretend = 0, frame = 8
 1472              		@ frame_needed = 1, uses_anonymous_args = 0
 1473              		@ link register save eliminated.
 1474 0000 80B4     		push	{r7}
 1475              	.LCFI58:
 1476              		.cfi_def_cfa_offset 4
 1477              		.cfi_offset 7, -4
 1478 0002 83B0     		sub	sp, sp, #12
 1479              	.LCFI59:
 1480              		.cfi_def_cfa_offset 16
 1481 0004 00AF     		add	r7, sp, #0
 1482              	.LCFI60:
 1483              		.cfi_def_cfa_register 7
 1484 0006 7860     		str	r0, [r7, #4]
 1485 0008 3960     		str	r1, [r7]
 767:../../../../dependencies/freertos/FreeRTOSv10.4.1/FreeRTOS/Source/event_groups.c ****         ( ( EventGroup_t * ) xEventGroup )->uxEventGroupNumber = uxEventGroupNumber; /*lint !e9087 
 1486              		.loc 1 767 64
 1487 000a 7B68     		ldr	r3, [r7, #4]
 1488 000c 3A68     		ldr	r2, [r7]
 1489 000e 9A61     		str	r2, [r3, #24]
 768:../../../../dependencies/freertos/FreeRTOSv10.4.1/FreeRTOS/Source/event_groups.c ****     }
 1490              		.loc 1 768 5
 1491 0010 00BF     		nop
 1492 0012 0C37     		adds	r7, r7, #12
 1493              	.LCFI61:
 1494              		.cfi_def_cfa_offset 4
 1495 0014 BD46     		mov	sp, r7
 1496              	.LCFI62:
 1497              		.cfi_def_cfa_register 13
 1498              		@ sp needed
 1499 0016 5DF8047B 		ldr	r7, [sp], #4
 1500              	.LCFI63:
 1501              		.cfi_restore 7
 1502              		.cfi_def_cfa_offset 0
 1503 001a 7047     		bx	lr
 1504              		.cfi_endproc
 1505              	.LFE16:
 1507              		.text
 1508              	.Letext0:
 1509              		.file 3 "/usr/local/Caskroom/gcc-arm-embedded/9-2020-q2-update/gcc-arm-none-eabi-9-2020-q2-update/
 1510              		.file 4 "/usr/local/Caskroom/gcc-arm-embedded/9-2020-q2-update/gcc-arm-none-eabi-9-2020-q2-update/
 1511              		.file 5 "/usr/local/Caskroom/gcc-arm-embedded/9-2020-q2-update/gcc-arm-none-eabi-9-2020-q2-update/
 1512              		.file 6 "/usr/local/Caskroom/gcc-arm-embedded/9-2020-q2-update/gcc-arm-none-eabi-9-2020-q2-update/
ARM GAS  /var/folders/kj/yzqgq53j3dg15vgwwwwgf5s00000gn/T//ccIz7yzx.s 			page 45


 1513              		.file 7 "/usr/local/Caskroom/gcc-arm-embedded/9-2020-q2-update/gcc-arm-none-eabi-9-2020-q2-update/
 1514              		.file 8 "/usr/local/Caskroom/gcc-arm-embedded/9-2020-q2-update/gcc-arm-none-eabi-9-2020-q2-update/
 1515              		.file 9 "/usr/local/Caskroom/gcc-arm-embedded/9-2020-q2-update/gcc-arm-none-eabi-9-2020-q2-update/
 1516              		.file 10 "../include/FreeRTOSConfig.h"
 1517              		.file 11 "../../../../dependencies/freertos/FreeRTOSv10.4.1/FreeRTOS/Source/include/list.h"
 1518              		.file 12 "../../../../dependencies/freertos/FreeRTOSv10.4.1/FreeRTOS/Source/include/event_groups.h
ARM GAS  /var/folders/kj/yzqgq53j3dg15vgwwwwgf5s00000gn/T//ccIz7yzx.s 			page 46

