ARM GAS  /var/folders/kj/yzqgq53j3dg15vgwwwwgf5s00000gn/T//cctYA1sU.s 			page 1


   1              		.cpu cortex-m4
   2              		.eabi_attribute 27, 1
   3              		.eabi_attribute 28, 1
   4              		.eabi_attribute 20, 1
   5              		.eabi_attribute 21, 1
   6              		.eabi_attribute 23, 3
   7              		.eabi_attribute 24, 1
   8              		.eabi_attribute 25, 1
   9              		.eabi_attribute 26, 1
  10              		.eabi_attribute 30, 6
  11              		.eabi_attribute 34, 1
  12              		.eabi_attribute 18, 4
  13              		.file	"i2c.c"
  14              		.text
  15              	.Ltext0:
  16              		.cfi_sections	.debug_frame
  17              		.section	.bss.handle,"aw",%nobits
  18              		.align	2
  21              	handle:
  22 0000 00000000 		.space	84
  22      00000000 
  22      00000000 
  22      00000000 
  22      00000000 
  23              		.section	.text.i2c_init,"ax",%progbits
  24              		.align	1
  25              		.global	i2c_init
  26              		.arch armv7e-m
  27              		.syntax unified
  28              		.thumb
  29              		.thumb_func
  30              		.fpu fpv4-sp-d16
  32              	i2c_init:
  33              	.LFB138:
  34              		.file 1 "../src/i2c.c"
   1:../src/i2c.c  **** #include "i2c.h"
   2:../src/i2c.c  **** #include "bsp.h"
   3:../src/i2c.c  **** 
   4:../src/i2c.c  **** static wst_i2c_handle_t handle;
   5:../src/i2c.c  **** 
   6:../src/i2c.c  **** void i2c_init(void)
   7:../src/i2c.c  **** {
  35              		.loc 1 7 1
  36              		.cfi_startproc
  37              		@ args = 0, pretend = 0, frame = 8
  38              		@ frame_needed = 1, uses_anonymous_args = 0
  39 0000 80B5     		push	{r7, lr}
  40              	.LCFI0:
  41              		.cfi_def_cfa_offset 8
  42              		.cfi_offset 7, -8
  43              		.cfi_offset 14, -4
  44 0002 82B0     		sub	sp, sp, #8
  45              	.LCFI1:
  46              		.cfi_def_cfa_offset 16
  47 0004 00AF     		add	r7, sp, #0
  48              	.LCFI2:
  49              		.cfi_def_cfa_register 7
ARM GAS  /var/folders/kj/yzqgq53j3dg15vgwwwwgf5s00000gn/T//cctYA1sU.s 			page 2


  50              	.LBB2:
   8:../src/i2c.c  ****   WST_ERR_CHECK(bsp_i2c_init(&handle));
  51              		.loc 1 8 3
  52 0006 0648     		ldr	r0, .L4
  53 0008 FFF7FEFF 		bl	bsp_i2c_init
  54 000c 7860     		str	r0, [r7, #4]
  55 000e 7B68     		ldr	r3, [r7, #4]
  56 0010 002B     		cmp	r3, #0
  57 0012 01D0     		beq	.L3
  58              		.loc 1 8 3 is_stmt 0 discriminator 1
  59 0014 FFF7FEFF 		bl	error_handler
  60              	.L3:
  61              	.LBE2:
   9:../src/i2c.c  **** }
  62              		.loc 1 9 1 is_stmt 1
  63 0018 00BF     		nop
  64 001a 0837     		adds	r7, r7, #8
  65              	.LCFI3:
  66              		.cfi_def_cfa_offset 8
  67 001c BD46     		mov	sp, r7
  68              	.LCFI4:
  69              		.cfi_def_cfa_register 13
  70              		@ sp needed
  71 001e 80BD     		pop	{r7, pc}
  72              	.L5:
  73              		.align	2
  74              	.L4:
  75 0020 00000000 		.word	handle
  76              		.cfi_endproc
  77              	.LFE138:
  79              		.section	.text.i2c_write,"ax",%progbits
  80              		.align	1
  81              		.global	i2c_write
  82              		.syntax unified
  83              		.thumb
  84              		.thumb_func
  85              		.fpu fpv4-sp-d16
  87              	i2c_write:
  88              	.LFB139:
  10:../src/i2c.c  **** 
  11:../src/i2c.c  **** void i2c_write(uint8_t slave_addr,
  12:../src/i2c.c  ****                uint8_t reg_addr,
  13:../src/i2c.c  ****                uint16_t length,
  14:../src/i2c.c  ****                uint8_t *tx_buf)
  15:../src/i2c.c  **** {
  89              		.loc 1 15 1
  90              		.cfi_startproc
  91              		@ args = 0, pretend = 0, frame = 16
  92              		@ frame_needed = 1, uses_anonymous_args = 0
  93 0000 80B5     		push	{r7, lr}
  94              	.LCFI5:
  95              		.cfi_def_cfa_offset 8
  96              		.cfi_offset 7, -8
  97              		.cfi_offset 14, -4
  98 0002 86B0     		sub	sp, sp, #24
  99              	.LCFI6:
 100              		.cfi_def_cfa_offset 32
ARM GAS  /var/folders/kj/yzqgq53j3dg15vgwwwwgf5s00000gn/T//cctYA1sU.s 			page 3


 101 0004 02AF     		add	r7, sp, #8
 102              	.LCFI7:
 103              		.cfi_def_cfa 7, 24
 104 0006 3B60     		str	r3, [r7]
 105 0008 0346     		mov	r3, r0
 106 000a FB71     		strb	r3, [r7, #7]
 107 000c 0B46     		mov	r3, r1
 108 000e BB71     		strb	r3, [r7, #6]
 109 0010 1346     		mov	r3, r2	@ movhi
 110 0012 BB80     		strh	r3, [r7, #4]	@ movhi
 111              	.LBB3:
  16:../src/i2c.c  ****   WST_ERR_CHECK(bsp_i2c_write(&handle, slave_addr, reg_addr, length, tx_buf));
 112              		.loc 1 16 3
 113 0014 B888     		ldrh	r0, [r7, #4]
 114 0016 BA79     		ldrb	r2, [r7, #6]	@ zero_extendqisi2
 115 0018 F979     		ldrb	r1, [r7, #7]	@ zero_extendqisi2
 116 001a 3B68     		ldr	r3, [r7]
 117 001c 0093     		str	r3, [sp]
 118 001e 0346     		mov	r3, r0
 119 0020 0648     		ldr	r0, .L9
 120 0022 FFF7FEFF 		bl	bsp_i2c_write
 121 0026 F860     		str	r0, [r7, #12]
 122 0028 FB68     		ldr	r3, [r7, #12]
 123 002a 002B     		cmp	r3, #0
 124 002c 01D0     		beq	.L8
 125              		.loc 1 16 3 is_stmt 0 discriminator 1
 126 002e FFF7FEFF 		bl	error_handler
 127              	.L8:
 128              	.LBE3:
  17:../src/i2c.c  **** }
 129              		.loc 1 17 1 is_stmt 1
 130 0032 00BF     		nop
 131 0034 1037     		adds	r7, r7, #16
 132              	.LCFI8:
 133              		.cfi_def_cfa_offset 8
 134 0036 BD46     		mov	sp, r7
 135              	.LCFI9:
 136              		.cfi_def_cfa_register 13
 137              		@ sp needed
 138 0038 80BD     		pop	{r7, pc}
 139              	.L10:
 140 003a 00BF     		.align	2
 141              	.L9:
 142 003c 00000000 		.word	handle
 143              		.cfi_endproc
 144              	.LFE139:
 146              		.section	.text.i2c_read,"ax",%progbits
 147              		.align	1
 148              		.global	i2c_read
 149              		.syntax unified
 150              		.thumb
 151              		.thumb_func
 152              		.fpu fpv4-sp-d16
 154              	i2c_read:
 155              	.LFB140:
  18:../src/i2c.c  **** 
  19:../src/i2c.c  **** void i2c_read(uint8_t slave_addr,
ARM GAS  /var/folders/kj/yzqgq53j3dg15vgwwwwgf5s00000gn/T//cctYA1sU.s 			page 4


  20:../src/i2c.c  ****                uint8_t reg_addr,
  21:../src/i2c.c  ****                uint16_t length,
  22:../src/i2c.c  ****                uint8_t *rx_buf)
  23:../src/i2c.c  **** {
 156              		.loc 1 23 1
 157              		.cfi_startproc
 158              		@ args = 0, pretend = 0, frame = 16
 159              		@ frame_needed = 1, uses_anonymous_args = 0
 160 0000 80B5     		push	{r7, lr}
 161              	.LCFI10:
 162              		.cfi_def_cfa_offset 8
 163              		.cfi_offset 7, -8
 164              		.cfi_offset 14, -4
 165 0002 86B0     		sub	sp, sp, #24
 166              	.LCFI11:
 167              		.cfi_def_cfa_offset 32
 168 0004 02AF     		add	r7, sp, #8
 169              	.LCFI12:
 170              		.cfi_def_cfa 7, 24
 171 0006 3B60     		str	r3, [r7]
 172 0008 0346     		mov	r3, r0
 173 000a FB71     		strb	r3, [r7, #7]
 174 000c 0B46     		mov	r3, r1
 175 000e BB71     		strb	r3, [r7, #6]
 176 0010 1346     		mov	r3, r2	@ movhi
 177 0012 BB80     		strh	r3, [r7, #4]	@ movhi
 178              	.LBB4:
  24:../src/i2c.c  ****   WST_ERR_CHECK(bsp_i2c_read(&handle, slave_addr, reg_addr, length, rx_buf));
 179              		.loc 1 24 3
 180 0014 B888     		ldrh	r0, [r7, #4]
 181 0016 BA79     		ldrb	r2, [r7, #6]	@ zero_extendqisi2
 182 0018 F979     		ldrb	r1, [r7, #7]	@ zero_extendqisi2
 183 001a 3B68     		ldr	r3, [r7]
 184 001c 0093     		str	r3, [sp]
 185 001e 0346     		mov	r3, r0
 186 0020 0648     		ldr	r0, .L14
 187 0022 FFF7FEFF 		bl	bsp_i2c_read
 188 0026 F860     		str	r0, [r7, #12]
 189 0028 FB68     		ldr	r3, [r7, #12]
 190 002a 002B     		cmp	r3, #0
 191 002c 01D0     		beq	.L13
 192              		.loc 1 24 3 is_stmt 0 discriminator 1
 193 002e FFF7FEFF 		bl	error_handler
 194              	.L13:
 195              	.LBE4:
  25:../src/i2c.c  **** }...
 196              		.loc 1 25 1 is_stmt 1
 197 0032 00BF     		nop
 198 0034 1037     		adds	r7, r7, #16
 199              	.LCFI13:
 200              		.cfi_def_cfa_offset 8
 201 0036 BD46     		mov	sp, r7
 202              	.LCFI14:
 203              		.cfi_def_cfa_register 13
 204              		@ sp needed
 205 0038 80BD     		pop	{r7, pc}
 206              	.L15:
ARM GAS  /var/folders/kj/yzqgq53j3dg15vgwwwwgf5s00000gn/T//cctYA1sU.s 			page 5


 207 003a 00BF     		.align	2
 208              	.L14:
 209 003c 00000000 		.word	handle
 210              		.cfi_endproc
 211              	.LFE140:
 213              		.text
 214              	.Letext0:
 215              		.file 2 "/usr/local/Caskroom/gcc-arm-embedded/9-2020-q2-update/gcc-arm-none-eabi-9-2020-q2-update/
 216              		.file 3 "/usr/local/Caskroom/gcc-arm-embedded/9-2020-q2-update/gcc-arm-none-eabi-9-2020-q2-update/
 217              		.file 4 "/usr/local/Caskroom/gcc-arm-embedded/9-2020-q2-update/gcc-arm-none-eabi-9-2020-q2-update/
 218              		.file 5 "/usr/local/Caskroom/gcc-arm-embedded/9-2020-q2-update/gcc-arm-none-eabi-9-2020-q2-update/
 219              		.file 6 "/usr/local/Caskroom/gcc-arm-embedded/9-2020-q2-update/gcc-arm-none-eabi-9-2020-q2-update/
 220              		.file 7 "/usr/local/Caskroom/gcc-arm-embedded/9-2020-q2-update/gcc-arm-none-eabi-9-2020-q2-update/
 221              		.file 8 "../include/FreeRTOSConfig.h"
 222              		.file 9 "../../../../dependencies/stm/STM32F4_Cube/Drivers/CMSIS/Include/core_cm4.h"
 223              		.file 10 "../../../../dependencies/stm/STM32F4_Cube/Drivers/CMSIS/Device/ST/STM32F4xx/Include/syst
 224              		.file 11 "../../../../dependencies/stm/STM32F4_Cube/Drivers/CMSIS/Device/ST/STM32F4xx/Include/stm3
 225              		.file 12 "../../../../dependencies/stm/STM32F4_Cube/Drivers/STM32F4xx_HAL_Driver/Inc/stm32f4xx_hal
 226              		.file 13 "../../../../dependencies/stm/STM32F4_Cube/Drivers/STM32F4xx_HAL_Driver/Inc/stm32f4xx_hal
 227              		.file 14 "../../../../dependencies/stm/STM32F4_Cube/Drivers/STM32F4xx_HAL_Driver/Inc/stm32f4xx_hal
 228              		.file 15 "../../../../dependencies/stm/STM32F4_Cube/Drivers/STM32F4xx_HAL_Driver/Inc/stm32f4xx_hal
 229              		.file 16 "../../../../development/system/boards/stm_dev_bsp/bsp.h"
ARM GAS  /var/folders/kj/yzqgq53j3dg15vgwwwwgf5s00000gn/T//cctYA1sU.s 			page 6

