ARM GAS  /var/folders/kj/yzqgq53j3dg15vgwwwwgf5s00000gn/T//cctYA1sU.s 			page 1


   1              		.cpu cortex-m4
   2              		.eabi_attribute 27, 1
   3              		.eabi_attribute 28, 1
   4              		.eabi_attribute 20, 1
   5              		.eabi_attribute 21, 1
   6              		.eabi_attribute 23, 3
   7              		.eabi_attribute 24, 1
   8              		.eabi_attribute 25, 1
   9              		.eabi_attribute 26, 1
  10              		.eabi_attribute 30, 6
  11              		.eabi_attribute 34, 1
  12              		.eabi_attribute 18, 4
  13              		.file	"i2c.c"
  14              		.text
  15              	.Ltext0:
  16              		.cfi_sections	.debug_frame
  17              		.section	.bss.handle,"aw",%nobits
  18              		.align	2
  21              	handle:
  22 0000 00000000 		.space	84
  22      00000000 
  22      00000000 
  22      00000000 
  22      00000000 
  23              		.section	.text.i2c_init,"ax",%progbits
  24              		.align	1
  25              		.global	i2c_init
  26              		.arch armv7e-m
  27              		.syntax unified
  28              		.thumb
  29              		.thumb_func
  30              		.fpu fpv4-sp-d16
  32              	i2c_init:
  33              	.LFB138:
  34              		.file 1 "../src/i2c.c"
   1:../src/i2c.c  **** #include "i2c.h"
   2:../src/i2c.c  **** #include "bsp.h"
   3:../src/i2c.c  **** 
   4:../src/i2c.c  **** static wst_i2c_handle_t handle;
   5:../src/i2c.c  **** 
   6:../src/i2c.c  **** void i2c_init(void)
   7:../src/i2c.c  **** {
  35              		.loc 1 7 1
  36              		.cfi_startproc
  37              		@ args = 0, pretend = 0, frame = 8
  38              		@ frame_needed = 1, uses_anonymous_args = 0
  39 0000 80B5     		push	{r7, lr}
  40              	.LCFI0:
  41              		.cfi_def_cfa_offset 8
  42              		.cfi_offset 7, -8
  43              		.cfi_offset 14, -4
  44 0002 82B0     		sub	sp, sp, #8
  45              	.LCFI1:
  46              		.cfi_def_cfa_offset 16
  47 0004 00AF     		add	r7, sp, #0
  48              	.LCFI2:
  49              		.cfi_def_cfa_register 7
ARM GAS  /var/folders/kj/yzqgq53j3dg15vgwwwwgf5s00000gn/T//cctYA1sU.s 			page 2


  50              	.LBB2:
   8:../src/i2c.c  ****   WST_ERR_CHECK(bsp_i2c_init(&handle));
  51              		.loc 1 8 3
  52 0006 0648     		ldr	r0, .L4
  53 0008 FFF7FEFF 		bl	bsp_i2c_init
  54 000c 7860     		str	r0, [r7, #4]
  55 000e 7B68     		ldr	r3, [r7, #4]
  56 0010 002B     		cmp	r3, #0
  57 0012 01D0     		beq	.L3
  58              		.loc 1 8 3 is_stmt 0 discriminator 1
  59 0014 FFF7FEFF 		bl	error_handler
  60              	.L3:
  61              	.LBE2:
   9:../src/i2c.c  **** }
  62              		.loc 1 9 1 is_stmt 1
  63 0018 00BF     		nop
  64 001a 0837     		adds	r7, r7, #8
  65              	.LCFI3:
  66              		.cfi_def_cfa_offset 8
  67 001c BD46     		mov	sp, r7
  68              	.LCFI4:
  69              		.cfi_def_cfa_register 13
  70              		@ sp needed
  71 001e 80BD     		pop	{r7, pc}
  72              	.L5:
  73              		.align	2
  74              	.L4:
  75 0020 00000000 		.word	handle
  76              		.cfi_endproc
  77              	.LFE138:
  79              		.section	.text.i2c_write,"ax",%progbits
  80              		.align	1
  81              		.global	i2c_write
  82              		.syntax unified
  83              		.thumb
  84              		.thumb_func
  85              		.fpu fpv4-sp-d16
  87              	i2c_write:
  88              	.LFB139:
  10:../src/i2c.c  **** 
  11:../src/i2c.c  **** void i2c_write(uint8_t slave_addr,
  12:../src/i2c.c  ****                uint8_t reg_addr,
  13:../src/i2c.c  ****                uint16_t length,
  14:../src/i2c.c  ****                uint8_t *tx_buf)
  15:../src/i2c.c  **** {
  89              		.loc 1 15 1
  90              		.cfi_startproc
  91              		@ args = 0, pretend = 0, frame = 16
  92              		@ frame_needed = 1, uses_anonymous_args = 0
  93 0000 80B5     		push	{r7, lr}
  94              	.LCFI5:
  95              		.cfi_def_cfa_offset 8
  96              		.cfi_offset 7, -8
  97              		.cfi_offset 14, -4
  98 0002 86B0     		sub	sp, sp, #24
  99              	.LCFI6:
 100              		.cfi_def_cfa_offset 32
ARM GAS  /var/folders/kj/yzqgq53j3dg15vgwwwwgf5s00000gn/T//cctYA1sU.s 			page 3


 101 0004 02AF     		add	r7, sp, #8
 102              	.LCFI7:
 103              		.cfi_def_cfa 7, 24
 104 0006 3B60     		str	r3, [r7]
 105 0008 0346     		mov	r3, r0
 106 000a FB71     		strb	r3, [r7, #7]
 107 000c 0B46     		mov	r3, r1
 108 000e BB71     		strb	r3, [r7, #6]
 109 0010 1346     		mov	r3, r2	@ movhi
 110 0012 BB80     		strh	r3, [r7, #4]	@ movhi
 111              	.LBB3:
  16:../src/i2c.c  ****   WST_ERR_CHECK(bsp_i2c_write(&handle, slave_addr, reg_addr, length, tx_buf));
 112              		.loc 1 16 3
 113 0014 B888     		ldrh	r0, [r7, #4]
 114 0016 BA79     		ldrb	r2, [r7, #6]	@ zero_extendqisi2
 115 0018 F979     		ldrb	r1, [r7, #7]	@ zero_extendqisi2
 116 001a 3B68     		ldr	r3, [r7]
 117 001c 0093     		str	r3, [sp]
 118 001e 0346     		mov	r3, r0
 119 0020 0648     		ldr	r0, .L9
 120 0022 FFF7FEFF 		bl	bsp_i2c_write
 121 0026 F860     		str	r0, [r7, #12]
 122 0028 FB68     		ldr	r3, [r7, #12]
 123 002a 002B     		cmp	r3, #0
 124 002c 01D0     		beq	.L8
 125              		.loc 1 16 3 is_stmt 0 discriminator 1
 126 002e FFF7FEFF 		bl	error_handler
 127              	.L8:
 128              	.LBE3:
  17:../src/i2c.c  **** }
 129              		.loc 1 17 1 is_stmt 1
 130 0032 00BF     		nop
 131 0034 1037     		adds	r7, r7, #16
 132              	.LCFI8:
 133              		.cfi_def_cfa_offset 8
 134 0036 BD46     		mov	sp, r7
 135              	.LCFI9:
 136              		.cfi_def_cfa_register 13
 137              		@ sp needed
 138 0038 80BD     		pop	{r7, pc}
 139              	.L10:
 140 003a 00BF     		.align	2
 141              	.L9:
 142 003c 00000000 		.word	handle
 143              		.cfi_endproc
 144              	.LFE139:
 146              		.section	.text.i2c_read,"ax",%progbits
 147              		.align	1
 148              		.global	i2c_read
 149              		.syntax unified
 150              		.thumb
 151              		.thumb_func
 152              		.fpu fpv4-sp-d16
 154              	i2c_read:
 155              	.LFB140:
  18:../src/i2c.c  **** 
  19:../src/i2c.c  **** void i2c_read(uint8_t slave_addr,
ARM GAS  /var/folders/kj/yzqgq53j3dg15vgwwwwgf5s00000gn/T//cctYA1sU.s 			page 4


  20:../src/i2c.c  ****                uint8_t reg_addr,
  21:../src/i2c.c  ****                uint16_t length,
  22:../src/i2c.c  ****                uint8_t *rx_buf)
  23:../src/i2c.c  **** {
 156              		.loc 1 23 1
 157              		.cfi_startproc
 158              		@ args = 0, pretend = 0, frame = 16
 159              		@ frame_needed = 1, uses_anonymous_args = 0
 160 0000 80B5     		push	{r7, lr}
 161              	.LCFI10:
 162              		.cfi_def_cfa_offset 8
 163              		.cfi_offset 7, -8
 164              		.cfi_offset 14, -4
 165 0002 86B0     		sub	sp, sp, #24
 166              	.LCFI11:
 167              		.cfi_def_cfa_offset 32
 168 0004 02AF     		add	r7, sp, #8
 169              	.LCFI12:
 170              		.cfi_def_cfa 7, 24
 171 0006 3B60     		str	r3, [r7]
 172 0008 0346     		mov	r3, r0
 173 000a FB71     		strb	r3, [r7, #7]
 174 000c 0B46     		mov	r3, r1
 175 000e BB71     		strb	r3, [r7, #6]
 176 0010 1346     		mov	r3, r2	@ movhi
 177 0012 BB80     		strh	r3, [r7, #4]	@ movhi
 178              	.LBB4:
  24:../src/i2c.c  ****   WST_ERR_CHECK(bsp_i2c_read(&handle, slave_addr, reg_addr, length, rx_buf));
 179              		.loc 1 24 3
 180 0014 B888     		ldrh	r0, [r7, #4]
 181 0016 BA79     		ldrb	r2, [r7, #6]	@ zero_extendqisi2
 182 0018 F979     		ldrb	r1, [r7, #7]	@ zero_extendqisi2
 183 001a 3B68     		ldr	r3, [r7]
 184 001c 0093     		str	r3, [sp]
 185 001e 0346     		mov	r3, r0
 186 0020 0648     		ldr	r0, .L14
 187 0022 FFF7FEFF 		bl	bsp_i2c_read
 188 0026 F860     		str	r0, [r7, #12]
 189 0028 FB68     		ldr	r3, [r7, #12]
 190 002a 002B     		cmp	r3, #0
 191 002c 01D0     		beq	.L13
 192              		.loc 1 24 3 is_stmt 0 discriminator 1
 193 002e FFF7FEFF 		bl	error_handler
 194              	.L13:
 195              	.LBE4:
  25:../src/i2c.c  **** }...
 196              		.loc 1 25 1 is_stmt 1
 197 0032 00BF     		nop
 198 0034 1037     		adds	r7, r7, #16
 199              	.LCFI13:
 200              		.cfi_def_cfa_offset 8
 201 0036 BD46     		mov	sp, r7
 202              	.LCFI14:
 203              		.cfi_def_cfa_register 13
 204              		@ sp needed
 205 0038 80BD     		pop	{r7, pc}
 206              	.L15:
ARM GAS  /var/folders/kj/yzqgq53j3dg15vgwwwwgf5s00000gn/T//cctYA1sU.s 			page 5


 207 003a 00BF     		.align	2
 208              	.L14:
 209 003c 00000000 		.word	handle
 210              		.cfi_endproc
 211              	.LFE140:
 213              		.text
 214              	.Letext0:
 215              		.file 2 "/usr/local/Caskroom/gcc-arm-embedded/9-2020-q2-update/gcc-arm-none-eabi-9-2020-q2-update/
 216              		.file 3 "/usr/local/Caskroom/gcc-arm-embedded/9-2020-q2-update/gcc-arm-none-eabi-9-2020-q2-update/
 217              		.file 4 "/usr/local/Caskroom/gcc-arm-embedded/9-2020-q2-update/gcc-arm-none-eabi-9-2020-q2-update/
 218              		.file 5 "/usr/local/Caskroom/gcc-arm-embedded/9-2020-q2-update/gcc-arm-none-eabi-9-2020-q2-update/
 219              		.file 6 "/usr/local/Caskroom/gcc-arm-embedded/9-2020-q2-update/gcc-arm-none-eabi-9-2020-q2-update/
 220              		.file 7 "/usr/local/Caskroom/gcc-arm-embedded/9-2020-q2-update/gcc-arm-none-eabi-9-2020-q2-update/
 221              		.file 8 "../include/FreeRTOSConfig.h"
 222              		.file 9 "../../../../dependencies/stm/STM32F4_Cube/Drivers/CMSIS/Include/core_cm4.h"
 223              		.file 10 "../../../../dependencies/stm/STM32F4_Cube/Drivers/CMSIS/Device/ST/STM32F4xx/Include/syst
 224              		.file 11 "../../../../dependencies/stm/STM32F4_Cube/Drivers/CMSIS/Device/ST/STM32F4xx/Include/stm3
 225              		.file 12 "../../../../dependencies/stm/STM32F4_Cube/Drivers/STM32F4xx_HAL_Driver/Inc/stm32f4xx_hal
 226              		.file 13 "../../../../dependencies/stm/STM32F4_Cube/Drivers/STM32F4xx_HAL_Driver/Inc/stm32f4xx_hal
 227              		.file 14 "../../../../dependencies/stm/STM32F4_Cube/Drivers/STM32F4xx_HAL_Driver/Inc/stm32f4xx_hal
 228              		.file 15 "../../../../dependencies/stm/STM32F4_Cube/Drivers/STM32F4xx_HAL_Driver/Inc/stm32f4xx_hal
 229              		.file 16 "../../../../development/system/boards/stm_dev_bsp/bsp.h"
ARM GAS  /var/folders/kj/yzqgq53j3dg15vgwwwwgf5s00000gn/T//cctYA1sU.s 			page 6


DEFINED SYMBOLS
                            *ABS*:0000000000000000 i2c.c
/var/folders/kj/yzqgq53j3dg15vgwwwwgf5s00000gn/T//cctYA1sU.s:18     .bss.handle:0000000000000000 $d
/var/folders/kj/yzqgq53j3dg15vgwwwwgf5s00000gn/T//cctYA1sU.s:21     .bss.handle:0000000000000000 handle
/var/folders/kj/yzqgq53j3dg15vgwwwwgf5s00000gn/T//cctYA1sU.s:24     .text.i2c_init:0000000000000000 $t
/var/folders/kj/yzqgq53j3dg15vgwwwwgf5s00000gn/T//cctYA1sU.s:32     .text.i2c_init:0000000000000000 i2c_init
/var/folders/kj/yzqgq53j3dg15vgwwwwgf5s00000gn/T//cctYA1sU.s:75     .text.i2c_init:0000000000000020 $d
/var/folders/kj/yzqgq53j3dg15vgwwwwgf5s00000gn/T//cctYA1sU.s:80     .text.i2c_write:0000000000000000 $t
/var/folders/kj/yzqgq53j3dg15vgwwwwgf5s00000gn/T//cctYA1sU.s:87     .text.i2c_write:0000000000000000 i2c_write
/var/folders/kj/yzqgq53j3dg15vgwwwwgf5s00000gn/T//cctYA1sU.s:142    .text.i2c_write:000000000000003c $d
/var/folders/kj/yzqgq53j3dg15vgwwwwgf5s00000gn/T//cctYA1sU.s:147    .text.i2c_read:0000000000000000 $t
/var/folders/kj/yzqgq53j3dg15vgwwwwgf5s00000gn/T//cctYA1sU.s:154    .text.i2c_read:0000000000000000 i2c_read
/var/folders/kj/yzqgq53j3dg15vgwwwwgf5s00000gn/T//cctYA1sU.s:209    .text.i2c_read:000000000000003c $d
                           .group:0000000000000000 wm4.0.ec2406cbd31d56f71e0243dbf4ad4862
                           .group:0000000000000000 wm4.stddef.h.39.144cf5ddcd53cbfdac30259dc1a6c87f
                           .group:0000000000000000 wm4._newlib_version.h.4.1ef4e12f167f8b69d7c30054be56050d
                           .group:0000000000000000 wm4.features.h.33.318b64d71e0957639cfb30f1db1f7ec8
                           .group:0000000000000000 wm4._default_types.h.15.247e5cd201eca3442cbf5404108c4935
                           .group:0000000000000000 wm4._intsup.h.10.48bafbb683905c4daa4565a85aeeb264
                           .group:0000000000000000 wm4._stdint.h.10.c24fa3af3bc1706662bb5593a907e841
                           .group:0000000000000000 wm4.stdint.h.23.d53047a68f4a85177f80b422d52785ed
                           .group:0000000000000000 wm4.FreeRTOSConfig.h.2.23623fc0cad83877f62ccd9ca9b417c2
                           .group:0000000000000000 wm4.projdefs.h.28.d6a7c9061b707820f2fcf4c2ff5d9f24
                           .group:0000000000000000 wm4.portmacro.h.30.0285ed3864ca8fd2e12d2b9aedd88dfd
                           .group:0000000000000000 wm4.portable.h.63.e9cc508c3850f44ce542149380c67812
                           .group:0000000000000000 wm4.mpu_wrappers.h.28.163fb40577cf8d1578015ea3f2ff4cdb
                           .group:0000000000000000 wm4.FreeRTOS.h.67.b174ccccfb8001b827e8ddeee1ca37a2
                           .group:0000000000000000 wm4.list.h.57.02ec67e07eacffe5ca7cfb7326896236
                           .group:0000000000000000 wm4.task.h.47.2d3fe49a094b8ec1e3e6aac441e8db21
                           .group:0000000000000000 wm4.queue.h.66.45d4a3cf5de24cde7e732f8dad25383c
                           .group:0000000000000000 wm4.timers.h.29.025d268d6baf57298309e7b498ee1cc7
                           .group:0000000000000000 wm4.semphr.h.38.96f44691bfa19eb833944d3a35b81e54
                           .group:0000000000000000 wm4.newlib.h.8.7cb3972cd43265932d4782d5eb589854
                           .group:0000000000000000 wm4.ieeefp.h.77.f33a4dce62116f6f5175ff8bae57a54c
                           .group:0000000000000000 wm4.config.h.224.c701144a7b0518c6ee9b9b5465b79f81
                           .group:0000000000000000 wm4._ansi.h.31.de524f58584151836e90d8620a16f8e8
                           .group:0000000000000000 wm4._types.h.20.dd0d04dca3800a0d2a6129b87f3adbb2
                           .group:0000000000000000 wm4.stddef.h.155.3588ebfdd1e8c7ede80509bb9c3b8009
                           .group:0000000000000000 wm4._types.h.127.34941de1b2539d59d5cac00e0dd27a45
                           .group:0000000000000000 wm4.reent.h.17.e292bf8b0bec6c96e131a54347145a30
                           .group:0000000000000000 wm4.lock.h.2.1461d1fff82dffe8bfddc23307f6484f
                           .group:0000000000000000 wm4.reent.h.77.dcd6129ff07fe81bd5636db29abe53b2
                           .group:0000000000000000 wm4.cdefs.h.49.6260d97adb8d27534cbdc0f868b8ea87
                           .group:0000000000000000 wm4.string.h.15.dab3980bf35408a4c507182805e2de3a
                           .group:0000000000000000 wm4.stddef.h.155.ba788add86a0e365f264484f110c3c29
                           .group:0000000000000000 wm4.stdio.h.27.3fc80220048df77954e38daec3bb9670
                           .group:0000000000000000 wm4.stdarg.h.34.3a23a216c0c293b3d2ea2e89281481e6
                           .group:0000000000000000 wm4.types.h.40.8b6acba56cefbb11746718204edc8f5e
                           .group:0000000000000000 wm4._endian.h.31.65a10590763c3dde1ac4a7f66d7d4891
                           .group:0000000000000000 wm4.endian.h.9.49f3a4695c1b61e8a0808de3c4a106cb
                           .group:0000000000000000 wm4._timeval.h.32.bec3221fa7a9bb0bdde696c9c57e47d2
                           .group:0000000000000000 wm4.timespec.h.41.d855182eb0e690443ab8651bcedca6e1
                           .group:0000000000000000 wm4.select.h.19.97ca6fd0c752a0f3b6719fd314d361e6
                           .group:0000000000000000 wm4.types.h.51.5571ec98f267d17d3c670b7a3ba33afa
                           .group:0000000000000000 wm4.sched.h.22.c60982713a5c428609783c78f9c78d95
                           .group:0000000000000000 wm4._pthreadtypes.h.36.fcee9961c35163dde6267ef772ad1972
                           .group:0000000000000000 wm4.stdio.h.2.4aa87247282eca6c8f36f9de33d8df1a
ARM GAS  /var/folders/kj/yzqgq53j3dg15vgwwwwgf5s00000gn/T//cctYA1sU.s 			page 7


                           .group:0000000000000000 wm4.stdio.h.81.932d0c162786b883f622b8d05c120c78
                           .group:0000000000000000 wm4.wst_common.h.9.8860a77277a68c3cc83109e96e83c7fb
                           .group:0000000000000000 wm4.com.h.15.68f97ab2f34c884c6815e65d0dd90bb3
                           .group:0000000000000000 wm4.stm32f4xx_hal_conf.h.2.af8b2ca6b03807d43d9ddf9698d1361c
                           .group:0000000000000000 wm4.stm32f4xx.h.39.1b09cc4be5834e402f47d342f5416be4
                           .group:0000000000000000 wm4.stm32f412zx.h.35.d9913ab15c3cc42510cd85c75dd3c4eb
                           .group:0000000000000000 wm4.cmsis_version.h.32.4d5822004c01a829a975260e854b5f8e
                           .group:0000000000000000 wm4.core_cm4.h.66.e4ff136c4a17abc46741866f64f8e729
                           .group:0000000000000000 wm4.cmsis_gcc.h.26.6774fe91202d65f4d5ffcff60e00da34
                           .group:0000000000000000 wm4.core_cm4.h.174.059a5e001a9e729091d1407208e93224
                           .group:0000000000000000 wm4.mpu_armv7.h.32.27b4593cb2f8d3152ca5d97a9d72b321
                           .group:0000000000000000 wm4.stm32f412zx.h.838.7f7dacbfe2e2c88ca5202f260290d6c1
                           .group:0000000000000000 wm4.stm32f4xx.h.196.23c4e4a5d465a121178374b8f4182f7c
                           .group:0000000000000000 wm4.stm32_hal_legacy.h.23.394d12941f5a0482dbe3c36ee9e57b2b
                           .group:0000000000000000 wm4.stm32f4xx_hal_def.h.58.d992c22c61c6949157bba427297782ea
                           .group:0000000000000000 wm4.stm32f4xx_hal_rcc_ex.h.22.fe15f7aa872c0ff0051d1df0fdd88661
                           .group:0000000000000000 wm4.stm32f4xx_hal_rcc.h.108.0c18a3cfc2dd91bdf92470b4bd0ea1b5
                           .group:0000000000000000 wm4.stm32f4xx_hal_exti.h.22.b6735b42221f61fdbfd800fa51550a85
                           .group:0000000000000000 wm4.stm32f4xx_hal_gpio.h.22.be2c6bcf9722096ea8f49a41bf6aa50c
                           .group:0000000000000000 wm4.stm32f4xx_hal_gpio_ex.h.22.5fac61f4372beb17c6941adb263493e1
                           .group:0000000000000000 wm4.stm32f4xx_hal_gpio.h.264.978ac12eab1d3b3400b35b8c427e2c33
                           .group:0000000000000000 wm4.stm32f4xx_hal_dma.h.22.fffce20ac9119c50557659c75e75ab1c
                           .group:0000000000000000 wm4.stm32f4xx_hal_dma.h.721.a1e57ffbc615f926e6509c5acc65e492
                           .group:0000000000000000 wm4.stm32f4xx_hal_cortex.h.22.e6aa3b847b5388be63c32d1f9e696ef7
                           .group:0000000000000000 wm4.stm32f4xx_hal_flash.h.22.31b301be2655c3eb8583e51c8231544a
                           .group:0000000000000000 wm4.stm32f4xx_hal_flash_ex.h.22.5016bda819f6a480c96be63516c36ab2
                           .group:0000000000000000 wm4.stm32f4xx_hal_flash.h.363.51efdf0f6c88f683efb89d7cc95cc1be
                           .group:0000000000000000 wm4.stm32f4xx_ll_fsmc.h.22.ed2b494a9a7d206deda6c53e626a4601
                           .group:0000000000000000 wm4.stm32f4xx_hal_i2c.h.22.7a518225417837eb3d0550cc95fa0a57
                           .group:0000000000000000 wm4.stm32f4xx_hal_i2c_ex.h.22.a90c9435159b7eaef7dc679da6295e14
                           .group:0000000000000000 wm4.stm32f4xx_hal_i2c.h.644.9d0aaa0659558fa97b5b5ac32630da6a
                           .group:0000000000000000 wm4.stm32f4xx_hal_pwr.h.22.2c27d93ae187efe3a73816f03a329970
                           .group:0000000000000000 wm4.stm32f4xx_hal_pwr_ex.h.22.a735ba4f49c5b2574a98d58f3b7ae925
                           .group:0000000000000000 wm4.stm32f4xx_hal_pwr.h.337.60b43975c84527a23cb6994b23165a5e
                           .group:0000000000000000 wm4.stm32f4xx_hal_spi.h.22.bc4a13b7a7ee3429db720a8d37eb1e5e
                           .group:0000000000000000 wm4.stm32f4xx_hal_tim.h.22.9c16860ec2cc7f3d941608a8f521bc4a
                           .group:0000000000000000 wm4.stm32f4xx_hal_tim_ex.h.22.2fde471485fd197eebc7c86251149c11
                           .group:0000000000000000 wm4.stm32f4xx_hal_uart.h.22.1edfd0da9670bd23245390d2a3da576d
                           .group:0000000000000000 wm4.stm32f4xx_hal.h.72.a5a58188aa461a0614f1e58e159c7840
                           .group:0000000000000000 wm4.stm32f4xx_nucleo_144.h.54.f0d042017bc81221aa085a20cf55c671
                           .group:0000000000000000 wm4.bsp.h.21.9e5c882e28336308e70ed2ea2ef4c431

UNDEFINED SYMBOLS
bsp_i2c_init
error_handler
bsp_i2c_write
bsp_i2c_read
