ARM GAS  /var/folders/kj/yzqgq53j3dg15vgwwwwgf5s00000gn/T//ccj6Xeu2.s 			page 1


   1              		.cpu cortex-m4
   2              		.eabi_attribute 27, 1
   3              		.eabi_attribute 28, 1
   4              		.eabi_attribute 20, 1
   5              		.eabi_attribute 21, 1
   6              		.eabi_attribute 23, 3
   7              		.eabi_attribute 24, 1
   8              		.eabi_attribute 25, 1
   9              		.eabi_attribute 26, 1
  10              		.eabi_attribute 30, 6
  11              		.eabi_attribute 34, 1
  12              		.eabi_attribute 18, 4
  13              		.file	"list.c"
  14              		.text
  15              	.Ltext0:
  16              		.cfi_sections	.debug_frame
  17              		.section	.text.vListInitialise,"ax",%progbits
  18              		.align	1
  19              		.global	vListInitialise
  20              		.arch armv7e-m
  21              		.syntax unified
  22              		.thumb
  23              		.thumb_func
  24              		.fpu fpv4-sp-d16
  26              	vListInitialise:
  27              	.LFB5:
  28              		.file 1 "../../../../dependencies/freertos/FreeRTOSv10.4.1/FreeRTOS/Source/list.c"
   1:../../../../dependencies/freertos/FreeRTOSv10.4.1/FreeRTOS/Source/list.c **** /*
   2:../../../../dependencies/freertos/FreeRTOSv10.4.1/FreeRTOS/Source/list.c ****  * FreeRTOS Kernel V10.4.1
   3:../../../../dependencies/freertos/FreeRTOSv10.4.1/FreeRTOS/Source/list.c ****  * Copyright (C) 2020 Amazon.com, Inc. or its affiliates.  All Rights Reserved.
   4:../../../../dependencies/freertos/FreeRTOSv10.4.1/FreeRTOS/Source/list.c ****  *
   5:../../../../dependencies/freertos/FreeRTOSv10.4.1/FreeRTOS/Source/list.c ****  * Permission is hereby granted, free of charge, to any person obtaining a copy of
   6:../../../../dependencies/freertos/FreeRTOSv10.4.1/FreeRTOS/Source/list.c ****  * this software and associated documentation files (the "Software"), to deal in
   7:../../../../dependencies/freertos/FreeRTOSv10.4.1/FreeRTOS/Source/list.c ****  * the Software without restriction, including without limitation the rights to
   8:../../../../dependencies/freertos/FreeRTOSv10.4.1/FreeRTOS/Source/list.c ****  * use, copy, modify, merge, publish, distribute, sublicense, and/or sell copies of
   9:../../../../dependencies/freertos/FreeRTOSv10.4.1/FreeRTOS/Source/list.c ****  * the Software, and to permit persons to whom the Software is furnished to do so,
  10:../../../../dependencies/freertos/FreeRTOSv10.4.1/FreeRTOS/Source/list.c ****  * subject to the following conditions:
  11:../../../../dependencies/freertos/FreeRTOSv10.4.1/FreeRTOS/Source/list.c ****  *
  12:../../../../dependencies/freertos/FreeRTOSv10.4.1/FreeRTOS/Source/list.c ****  * The above copyright notice and this permission notice shall be included in all
  13:../../../../dependencies/freertos/FreeRTOSv10.4.1/FreeRTOS/Source/list.c ****  * copies or substantial portions of the Software.
  14:../../../../dependencies/freertos/FreeRTOSv10.4.1/FreeRTOS/Source/list.c ****  *
  15:../../../../dependencies/freertos/FreeRTOSv10.4.1/FreeRTOS/Source/list.c ****  * THE SOFTWARE IS PROVIDED "AS IS", WITHOUT WARRANTY OF ANY KIND, EXPRESS OR
  16:../../../../dependencies/freertos/FreeRTOSv10.4.1/FreeRTOS/Source/list.c ****  * IMPLIED, INCLUDING BUT NOT LIMITED TO THE WARRANTIES OF MERCHANTABILITY, FITNESS
  17:../../../../dependencies/freertos/FreeRTOSv10.4.1/FreeRTOS/Source/list.c ****  * FOR A PARTICULAR PURPOSE AND NONINFRINGEMENT. IN NO EVENT SHALL THE AUTHORS OR
  18:../../../../dependencies/freertos/FreeRTOSv10.4.1/FreeRTOS/Source/list.c ****  * COPYRIGHT HOLDERS BE LIABLE FOR ANY CLAIM, DAMAGES OR OTHER LIABILITY, WHETHER
  19:../../../../dependencies/freertos/FreeRTOSv10.4.1/FreeRTOS/Source/list.c ****  * IN AN ACTION OF CONTRACT, TORT OR OTHERWISE, ARISING FROM, OUT OF OR IN
  20:../../../../dependencies/freertos/FreeRTOSv10.4.1/FreeRTOS/Source/list.c ****  * CONNECTION WITH THE SOFTWARE OR THE USE OR OTHER DEALINGS IN THE SOFTWARE.
  21:../../../../dependencies/freertos/FreeRTOSv10.4.1/FreeRTOS/Source/list.c ****  *
  22:../../../../dependencies/freertos/FreeRTOSv10.4.1/FreeRTOS/Source/list.c ****  * https://www.FreeRTOS.org
  23:../../../../dependencies/freertos/FreeRTOSv10.4.1/FreeRTOS/Source/list.c ****  * https://github.com/FreeRTOS
  24:../../../../dependencies/freertos/FreeRTOSv10.4.1/FreeRTOS/Source/list.c ****  *
  25:../../../../dependencies/freertos/FreeRTOSv10.4.1/FreeRTOS/Source/list.c ****  */
  26:../../../../dependencies/freertos/FreeRTOSv10.4.1/FreeRTOS/Source/list.c **** 
  27:../../../../dependencies/freertos/FreeRTOSv10.4.1/FreeRTOS/Source/list.c **** 
  28:../../../../dependencies/freertos/FreeRTOSv10.4.1/FreeRTOS/Source/list.c **** #include <stdlib.h>
  29:../../../../dependencies/freertos/FreeRTOSv10.4.1/FreeRTOS/Source/list.c **** 
  30:../../../../dependencies/freertos/FreeRTOSv10.4.1/FreeRTOS/Source/list.c **** /* Defining MPU_WRAPPERS_INCLUDED_FROM_API_FILE prevents task.h from redefining
ARM GAS  /var/folders/kj/yzqgq53j3dg15vgwwwwgf5s00000gn/T//ccj6Xeu2.s 			page 2


  31:../../../../dependencies/freertos/FreeRTOSv10.4.1/FreeRTOS/Source/list.c ****  * all the API functions to use the MPU wrappers.  That should only be done when
  32:../../../../dependencies/freertos/FreeRTOSv10.4.1/FreeRTOS/Source/list.c ****  * task.h is included from an application file. */
  33:../../../../dependencies/freertos/FreeRTOSv10.4.1/FreeRTOS/Source/list.c **** #define MPU_WRAPPERS_INCLUDED_FROM_API_FILE
  34:../../../../dependencies/freertos/FreeRTOSv10.4.1/FreeRTOS/Source/list.c **** 
  35:../../../../dependencies/freertos/FreeRTOSv10.4.1/FreeRTOS/Source/list.c **** #include "FreeRTOS.h"
  36:../../../../dependencies/freertos/FreeRTOSv10.4.1/FreeRTOS/Source/list.c **** #include "list.h"
  37:../../../../dependencies/freertos/FreeRTOSv10.4.1/FreeRTOS/Source/list.c **** 
  38:../../../../dependencies/freertos/FreeRTOSv10.4.1/FreeRTOS/Source/list.c **** /* Lint e9021, e961 and e750 are suppressed as a MISRA exception justified
  39:../../../../dependencies/freertos/FreeRTOSv10.4.1/FreeRTOS/Source/list.c ****  * because the MPU ports require MPU_WRAPPERS_INCLUDED_FROM_API_FILE to be
  40:../../../../dependencies/freertos/FreeRTOSv10.4.1/FreeRTOS/Source/list.c ****  * defined for the header files above, but not in this file, in order to
  41:../../../../dependencies/freertos/FreeRTOSv10.4.1/FreeRTOS/Source/list.c ****  * generate the correct privileged Vs unprivileged linkage and placement. */
  42:../../../../dependencies/freertos/FreeRTOSv10.4.1/FreeRTOS/Source/list.c **** #undef MPU_WRAPPERS_INCLUDED_FROM_API_FILE /*lint !e961 !e750 !e9021. */
  43:../../../../dependencies/freertos/FreeRTOSv10.4.1/FreeRTOS/Source/list.c **** 
  44:../../../../dependencies/freertos/FreeRTOSv10.4.1/FreeRTOS/Source/list.c **** /*-----------------------------------------------------------
  45:../../../../dependencies/freertos/FreeRTOSv10.4.1/FreeRTOS/Source/list.c **** * PUBLIC LIST API documented in list.h
  46:../../../../dependencies/freertos/FreeRTOSv10.4.1/FreeRTOS/Source/list.c **** *----------------------------------------------------------*/
  47:../../../../dependencies/freertos/FreeRTOSv10.4.1/FreeRTOS/Source/list.c **** 
  48:../../../../dependencies/freertos/FreeRTOSv10.4.1/FreeRTOS/Source/list.c **** void vListInitialise( List_t * const pxList )
  49:../../../../dependencies/freertos/FreeRTOSv10.4.1/FreeRTOS/Source/list.c **** {
  29              		.loc 1 49 1
  30              		.cfi_startproc
  31              		@ args = 0, pretend = 0, frame = 8
  32              		@ frame_needed = 1, uses_anonymous_args = 0
  33              		@ link register save eliminated.
  34 0000 80B4     		push	{r7}
  35              	.LCFI0:
  36              		.cfi_def_cfa_offset 4
  37              		.cfi_offset 7, -4
  38 0002 83B0     		sub	sp, sp, #12
  39              	.LCFI1:
  40              		.cfi_def_cfa_offset 16
  41 0004 00AF     		add	r7, sp, #0
  42              	.LCFI2:
  43              		.cfi_def_cfa_register 7
  44 0006 7860     		str	r0, [r7, #4]
  50:../../../../dependencies/freertos/FreeRTOSv10.4.1/FreeRTOS/Source/list.c ****     /* The list structure contains a list item which is used to mark the
  51:../../../../dependencies/freertos/FreeRTOSv10.4.1/FreeRTOS/Source/list.c ****      * end of the list.  To initialise the list the list end is inserted
  52:../../../../dependencies/freertos/FreeRTOSv10.4.1/FreeRTOS/Source/list.c ****      * as the only list entry. */
  53:../../../../dependencies/freertos/FreeRTOSv10.4.1/FreeRTOS/Source/list.c ****     pxList->pxIndex = ( ListItem_t * ) &( pxList->xListEnd ); /*lint !e826 !e740 !e9087 The mini li
  45              		.loc 1 53 40
  46 0008 7B68     		ldr	r3, [r7, #4]
  47 000a 03F10802 		add	r2, r3, #8
  48              		.loc 1 53 21
  49 000e 7B68     		ldr	r3, [r7, #4]
  50 0010 5A60     		str	r2, [r3, #4]
  54:../../../../dependencies/freertos/FreeRTOSv10.4.1/FreeRTOS/Source/list.c **** 
  55:../../../../dependencies/freertos/FreeRTOSv10.4.1/FreeRTOS/Source/list.c ****     /* The list end value is the highest possible value in the list to
  56:../../../../dependencies/freertos/FreeRTOSv10.4.1/FreeRTOS/Source/list.c ****      * ensure it remains at the end of the list. */
  57:../../../../dependencies/freertos/FreeRTOSv10.4.1/FreeRTOS/Source/list.c ****     pxList->xListEnd.xItemValue = portMAX_DELAY;
  51              		.loc 1 57 33
  52 0012 7B68     		ldr	r3, [r7, #4]
  53 0014 4FF0FF32 		mov	r2, #-1
  54 0018 9A60     		str	r2, [r3, #8]
  58:../../../../dependencies/freertos/FreeRTOSv10.4.1/FreeRTOS/Source/list.c **** 
  59:../../../../dependencies/freertos/FreeRTOSv10.4.1/FreeRTOS/Source/list.c ****     /* The list end next and previous pointers point to itself so we know
  60:../../../../dependencies/freertos/FreeRTOSv10.4.1/FreeRTOS/Source/list.c ****      * when the list is empty. */
  61:../../../../dependencies/freertos/FreeRTOSv10.4.1/FreeRTOS/Source/list.c ****     pxList->xListEnd.pxNext = ( ListItem_t * ) &( pxList->xListEnd );     /*lint !e826 !e740 !e9087
ARM GAS  /var/folders/kj/yzqgq53j3dg15vgwwwwgf5s00000gn/T//ccj6Xeu2.s 			page 3


  55              		.loc 1 61 48
  56 001a 7B68     		ldr	r3, [r7, #4]
  57 001c 03F10802 		add	r2, r3, #8
  58              		.loc 1 61 29
  59 0020 7B68     		ldr	r3, [r7, #4]
  60 0022 DA60     		str	r2, [r3, #12]
  62:../../../../dependencies/freertos/FreeRTOSv10.4.1/FreeRTOS/Source/list.c ****     pxList->xListEnd.pxPrevious = ( ListItem_t * ) &( pxList->xListEnd ); /*lint !e826 !e740 !e9087
  61              		.loc 1 62 52
  62 0024 7B68     		ldr	r3, [r7, #4]
  63 0026 03F10802 		add	r2, r3, #8
  64              		.loc 1 62 33
  65 002a 7B68     		ldr	r3, [r7, #4]
  66 002c 1A61     		str	r2, [r3, #16]
  63:../../../../dependencies/freertos/FreeRTOSv10.4.1/FreeRTOS/Source/list.c **** 
  64:../../../../dependencies/freertos/FreeRTOSv10.4.1/FreeRTOS/Source/list.c ****     pxList->uxNumberOfItems = ( UBaseType_t ) 0U;
  67              		.loc 1 64 29
  68 002e 7B68     		ldr	r3, [r7, #4]
  69 0030 0022     		movs	r2, #0
  70 0032 1A60     		str	r2, [r3]
  65:../../../../dependencies/freertos/FreeRTOSv10.4.1/FreeRTOS/Source/list.c **** 
  66:../../../../dependencies/freertos/FreeRTOSv10.4.1/FreeRTOS/Source/list.c ****     /* Write known values into the list if
  67:../../../../dependencies/freertos/FreeRTOSv10.4.1/FreeRTOS/Source/list.c ****      * configUSE_LIST_DATA_INTEGRITY_CHECK_BYTES is set to 1. */
  68:../../../../dependencies/freertos/FreeRTOSv10.4.1/FreeRTOS/Source/list.c ****     listSET_LIST_INTEGRITY_CHECK_1_VALUE( pxList );
  69:../../../../dependencies/freertos/FreeRTOSv10.4.1/FreeRTOS/Source/list.c ****     listSET_LIST_INTEGRITY_CHECK_2_VALUE( pxList );
  70:../../../../dependencies/freertos/FreeRTOSv10.4.1/FreeRTOS/Source/list.c **** }
  71              		.loc 1 70 1
  72 0034 00BF     		nop
  73 0036 0C37     		adds	r7, r7, #12
  74              	.LCFI3:
  75              		.cfi_def_cfa_offset 4
  76 0038 BD46     		mov	sp, r7
  77              	.LCFI4:
  78              		.cfi_def_cfa_register 13
  79              		@ sp needed
  80 003a 5DF8047B 		ldr	r7, [sp], #4
  81              	.LCFI5:
  82              		.cfi_restore 7
  83              		.cfi_def_cfa_offset 0
  84 003e 7047     		bx	lr
  85              		.cfi_endproc
  86              	.LFE5:
  88              		.section	.text.vListInitialiseItem,"ax",%progbits
  89              		.align	1
  90              		.global	vListInitialiseItem
  91              		.syntax unified
  92              		.thumb
  93              		.thumb_func
  94              		.fpu fpv4-sp-d16
  96              	vListInitialiseItem:
  97              	.LFB6:
  71:../../../../dependencies/freertos/FreeRTOSv10.4.1/FreeRTOS/Source/list.c **** /*-----------------------------------------------------------*/
  72:../../../../dependencies/freertos/FreeRTOSv10.4.1/FreeRTOS/Source/list.c **** 
  73:../../../../dependencies/freertos/FreeRTOSv10.4.1/FreeRTOS/Source/list.c **** void vListInitialiseItem( ListItem_t * const pxItem )
  74:../../../../dependencies/freertos/FreeRTOSv10.4.1/FreeRTOS/Source/list.c **** {
  98              		.loc 1 74 1
  99              		.cfi_startproc
 100              		@ args = 0, pretend = 0, frame = 8
ARM GAS  /var/folders/kj/yzqgq53j3dg15vgwwwwgf5s00000gn/T//ccj6Xeu2.s 			page 4


 101              		@ frame_needed = 1, uses_anonymous_args = 0
 102              		@ link register save eliminated.
 103 0000 80B4     		push	{r7}
 104              	.LCFI6:
 105              		.cfi_def_cfa_offset 4
 106              		.cfi_offset 7, -4
 107 0002 83B0     		sub	sp, sp, #12
 108              	.LCFI7:
 109              		.cfi_def_cfa_offset 16
 110 0004 00AF     		add	r7, sp, #0
 111              	.LCFI8:
 112              		.cfi_def_cfa_register 7
 113 0006 7860     		str	r0, [r7, #4]
  75:../../../../dependencies/freertos/FreeRTOSv10.4.1/FreeRTOS/Source/list.c ****     /* Make sure the list item is not recorded as being on a list. */
  76:../../../../dependencies/freertos/FreeRTOSv10.4.1/FreeRTOS/Source/list.c ****     pxItem->pxContainer = NULL;
 114              		.loc 1 76 25
 115 0008 7B68     		ldr	r3, [r7, #4]
 116 000a 0022     		movs	r2, #0
 117 000c 1A61     		str	r2, [r3, #16]
  77:../../../../dependencies/freertos/FreeRTOSv10.4.1/FreeRTOS/Source/list.c **** 
  78:../../../../dependencies/freertos/FreeRTOSv10.4.1/FreeRTOS/Source/list.c ****     /* Write known values into the list item if
  79:../../../../dependencies/freertos/FreeRTOSv10.4.1/FreeRTOS/Source/list.c ****      * configUSE_LIST_DATA_INTEGRITY_CHECK_BYTES is set to 1. */
  80:../../../../dependencies/freertos/FreeRTOSv10.4.1/FreeRTOS/Source/list.c ****     listSET_FIRST_LIST_ITEM_INTEGRITY_CHECK_VALUE( pxItem );
  81:../../../../dependencies/freertos/FreeRTOSv10.4.1/FreeRTOS/Source/list.c ****     listSET_SECOND_LIST_ITEM_INTEGRITY_CHECK_VALUE( pxItem );
  82:../../../../dependencies/freertos/FreeRTOSv10.4.1/FreeRTOS/Source/list.c **** }
 118              		.loc 1 82 1
 119 000e 00BF     		nop
 120 0010 0C37     		adds	r7, r7, #12
 121              	.LCFI9:
 122              		.cfi_def_cfa_offset 4
 123 0012 BD46     		mov	sp, r7
 124              	.LCFI10:
 125              		.cfi_def_cfa_register 13
 126              		@ sp needed
 127 0014 5DF8047B 		ldr	r7, [sp], #4
 128              	.LCFI11:
 129              		.cfi_restore 7
 130              		.cfi_def_cfa_offset 0
 131 0018 7047     		bx	lr
 132              		.cfi_endproc
 133              	.LFE6:
 135              		.section	.text.vListInsertEnd,"ax",%progbits
 136              		.align	1
 137              		.global	vListInsertEnd
 138              		.syntax unified
 139              		.thumb
 140              		.thumb_func
 141              		.fpu fpv4-sp-d16
 143              	vListInsertEnd:
 144              	.LFB7:
  83:../../../../dependencies/freertos/FreeRTOSv10.4.1/FreeRTOS/Source/list.c **** /*-----------------------------------------------------------*/
  84:../../../../dependencies/freertos/FreeRTOSv10.4.1/FreeRTOS/Source/list.c **** 
  85:../../../../dependencies/freertos/FreeRTOSv10.4.1/FreeRTOS/Source/list.c **** void vListInsertEnd( List_t * const pxList,
  86:../../../../dependencies/freertos/FreeRTOSv10.4.1/FreeRTOS/Source/list.c ****                      ListItem_t * const pxNewListItem )
  87:../../../../dependencies/freertos/FreeRTOSv10.4.1/FreeRTOS/Source/list.c **** {
 145              		.loc 1 87 1
 146              		.cfi_startproc
ARM GAS  /var/folders/kj/yzqgq53j3dg15vgwwwwgf5s00000gn/T//ccj6Xeu2.s 			page 5


 147              		@ args = 0, pretend = 0, frame = 16
 148              		@ frame_needed = 1, uses_anonymous_args = 0
 149              		@ link register save eliminated.
 150 0000 80B4     		push	{r7}
 151              	.LCFI12:
 152              		.cfi_def_cfa_offset 4
 153              		.cfi_offset 7, -4
 154 0002 85B0     		sub	sp, sp, #20
 155              	.LCFI13:
 156              		.cfi_def_cfa_offset 24
 157 0004 00AF     		add	r7, sp, #0
 158              	.LCFI14:
 159              		.cfi_def_cfa_register 7
 160 0006 7860     		str	r0, [r7, #4]
 161 0008 3960     		str	r1, [r7]
  88:../../../../dependencies/freertos/FreeRTOSv10.4.1/FreeRTOS/Source/list.c ****     ListItem_t * const pxIndex = pxList->pxIndex;
 162              		.loc 1 88 24
 163 000a 7B68     		ldr	r3, [r7, #4]
 164 000c 5B68     		ldr	r3, [r3, #4]
 165 000e FB60     		str	r3, [r7, #12]
  89:../../../../dependencies/freertos/FreeRTOSv10.4.1/FreeRTOS/Source/list.c **** 
  90:../../../../dependencies/freertos/FreeRTOSv10.4.1/FreeRTOS/Source/list.c ****     /* Only effective when configASSERT() is also defined, these tests may catch
  91:../../../../dependencies/freertos/FreeRTOSv10.4.1/FreeRTOS/Source/list.c ****      * the list data structures being overwritten in memory.  They will not catch
  92:../../../../dependencies/freertos/FreeRTOSv10.4.1/FreeRTOS/Source/list.c ****      * data errors caused by incorrect configuration or use of FreeRTOS. */
  93:../../../../dependencies/freertos/FreeRTOSv10.4.1/FreeRTOS/Source/list.c ****     listTEST_LIST_INTEGRITY( pxList );
  94:../../../../dependencies/freertos/FreeRTOSv10.4.1/FreeRTOS/Source/list.c ****     listTEST_LIST_ITEM_INTEGRITY( pxNewListItem );
  95:../../../../dependencies/freertos/FreeRTOSv10.4.1/FreeRTOS/Source/list.c **** 
  96:../../../../dependencies/freertos/FreeRTOSv10.4.1/FreeRTOS/Source/list.c ****     /* Insert a new list item into pxList, but rather than sort the list,
  97:../../../../dependencies/freertos/FreeRTOSv10.4.1/FreeRTOS/Source/list.c ****      * makes the new list item the last item to be removed by a call to
  98:../../../../dependencies/freertos/FreeRTOSv10.4.1/FreeRTOS/Source/list.c ****      * listGET_OWNER_OF_NEXT_ENTRY(). */
  99:../../../../dependencies/freertos/FreeRTOSv10.4.1/FreeRTOS/Source/list.c ****     pxNewListItem->pxNext = pxIndex;
 166              		.loc 1 99 27
 167 0010 3B68     		ldr	r3, [r7]
 168 0012 FA68     		ldr	r2, [r7, #12]
 169 0014 5A60     		str	r2, [r3, #4]
 100:../../../../dependencies/freertos/FreeRTOSv10.4.1/FreeRTOS/Source/list.c ****     pxNewListItem->pxPrevious = pxIndex->pxPrevious;
 170              		.loc 1 100 40
 171 0016 FB68     		ldr	r3, [r7, #12]
 172 0018 9A68     		ldr	r2, [r3, #8]
 173              		.loc 1 100 31
 174 001a 3B68     		ldr	r3, [r7]
 175 001c 9A60     		str	r2, [r3, #8]
 101:../../../../dependencies/freertos/FreeRTOSv10.4.1/FreeRTOS/Source/list.c **** 
 102:../../../../dependencies/freertos/FreeRTOSv10.4.1/FreeRTOS/Source/list.c ****     /* Only used during decision coverage testing. */
 103:../../../../dependencies/freertos/FreeRTOSv10.4.1/FreeRTOS/Source/list.c ****     mtCOVERAGE_TEST_DELAY();
 104:../../../../dependencies/freertos/FreeRTOSv10.4.1/FreeRTOS/Source/list.c **** 
 105:../../../../dependencies/freertos/FreeRTOSv10.4.1/FreeRTOS/Source/list.c ****     pxIndex->pxPrevious->pxNext = pxNewListItem;
 176              		.loc 1 105 12
 177 001e FB68     		ldr	r3, [r7, #12]
 178 0020 9B68     		ldr	r3, [r3, #8]
 179              		.loc 1 105 33
 180 0022 3A68     		ldr	r2, [r7]
 181 0024 5A60     		str	r2, [r3, #4]
 106:../../../../dependencies/freertos/FreeRTOSv10.4.1/FreeRTOS/Source/list.c ****     pxIndex->pxPrevious = pxNewListItem;
 182              		.loc 1 106 25
 183 0026 FB68     		ldr	r3, [r7, #12]
 184 0028 3A68     		ldr	r2, [r7]
ARM GAS  /var/folders/kj/yzqgq53j3dg15vgwwwwgf5s00000gn/T//ccj6Xeu2.s 			page 6


 185 002a 9A60     		str	r2, [r3, #8]
 107:../../../../dependencies/freertos/FreeRTOSv10.4.1/FreeRTOS/Source/list.c **** 
 108:../../../../dependencies/freertos/FreeRTOSv10.4.1/FreeRTOS/Source/list.c ****     /* Remember which list the item is in. */
 109:../../../../dependencies/freertos/FreeRTOSv10.4.1/FreeRTOS/Source/list.c ****     pxNewListItem->pxContainer = pxList;
 186              		.loc 1 109 32
 187 002c 3B68     		ldr	r3, [r7]
 188 002e 7A68     		ldr	r2, [r7, #4]
 189 0030 1A61     		str	r2, [r3, #16]
 110:../../../../dependencies/freertos/FreeRTOSv10.4.1/FreeRTOS/Source/list.c **** 
 111:../../../../dependencies/freertos/FreeRTOSv10.4.1/FreeRTOS/Source/list.c ****     ( pxList->uxNumberOfItems )++;
 190              		.loc 1 111 13
 191 0032 7B68     		ldr	r3, [r7, #4]
 192 0034 1B68     		ldr	r3, [r3]
 193              		.loc 1 111 32
 194 0036 5A1C     		adds	r2, r3, #1
 195 0038 7B68     		ldr	r3, [r7, #4]
 196 003a 1A60     		str	r2, [r3]
 112:../../../../dependencies/freertos/FreeRTOSv10.4.1/FreeRTOS/Source/list.c **** }
 197              		.loc 1 112 1
 198 003c 00BF     		nop
 199 003e 1437     		adds	r7, r7, #20
 200              	.LCFI15:
 201              		.cfi_def_cfa_offset 4
 202 0040 BD46     		mov	sp, r7
 203              	.LCFI16:
 204              		.cfi_def_cfa_register 13
 205              		@ sp needed
 206 0042 5DF8047B 		ldr	r7, [sp], #4
 207              	.LCFI17:
 208              		.cfi_restore 7
 209              		.cfi_def_cfa_offset 0
 210 0046 7047     		bx	lr
 211              		.cfi_endproc
 212              	.LFE7:
 214              		.section	.text.vListInsert,"ax",%progbits
 215              		.align	1
 216              		.global	vListInsert
 217              		.syntax unified
 218              		.thumb
 219              		.thumb_func
 220              		.fpu fpv4-sp-d16
 222              	vListInsert:
 223              	.LFB8:
 113:../../../../dependencies/freertos/FreeRTOSv10.4.1/FreeRTOS/Source/list.c **** /*-----------------------------------------------------------*/
 114:../../../../dependencies/freertos/FreeRTOSv10.4.1/FreeRTOS/Source/list.c **** 
 115:../../../../dependencies/freertos/FreeRTOSv10.4.1/FreeRTOS/Source/list.c **** void vListInsert( List_t * const pxList,
 116:../../../../dependencies/freertos/FreeRTOSv10.4.1/FreeRTOS/Source/list.c ****                   ListItem_t * const pxNewListItem )
 117:../../../../dependencies/freertos/FreeRTOSv10.4.1/FreeRTOS/Source/list.c **** {
 224              		.loc 1 117 1
 225              		.cfi_startproc
 226              		@ args = 0, pretend = 0, frame = 16
 227              		@ frame_needed = 1, uses_anonymous_args = 0
 228              		@ link register save eliminated.
 229 0000 80B4     		push	{r7}
 230              	.LCFI18:
 231              		.cfi_def_cfa_offset 4
 232              		.cfi_offset 7, -4
ARM GAS  /var/folders/kj/yzqgq53j3dg15vgwwwwgf5s00000gn/T//ccj6Xeu2.s 			page 7


 233 0002 85B0     		sub	sp, sp, #20
 234              	.LCFI19:
 235              		.cfi_def_cfa_offset 24
 236 0004 00AF     		add	r7, sp, #0
 237              	.LCFI20:
 238              		.cfi_def_cfa_register 7
 239 0006 7860     		str	r0, [r7, #4]
 240 0008 3960     		str	r1, [r7]
 118:../../../../dependencies/freertos/FreeRTOSv10.4.1/FreeRTOS/Source/list.c ****     ListItem_t * pxIterator;
 119:../../../../dependencies/freertos/FreeRTOSv10.4.1/FreeRTOS/Source/list.c ****     const TickType_t xValueOfInsertion = pxNewListItem->xItemValue;
 241              		.loc 1 119 22
 242 000a 3B68     		ldr	r3, [r7]
 243 000c 1B68     		ldr	r3, [r3]
 244 000e BB60     		str	r3, [r7, #8]
 120:../../../../dependencies/freertos/FreeRTOSv10.4.1/FreeRTOS/Source/list.c **** 
 121:../../../../dependencies/freertos/FreeRTOSv10.4.1/FreeRTOS/Source/list.c ****     /* Only effective when configASSERT() is also defined, these tests may catch
 122:../../../../dependencies/freertos/FreeRTOSv10.4.1/FreeRTOS/Source/list.c ****      * the list data structures being overwritten in memory.  They will not catch
 123:../../../../dependencies/freertos/FreeRTOSv10.4.1/FreeRTOS/Source/list.c ****      * data errors caused by incorrect configuration or use of FreeRTOS. */
 124:../../../../dependencies/freertos/FreeRTOSv10.4.1/FreeRTOS/Source/list.c ****     listTEST_LIST_INTEGRITY( pxList );
 125:../../../../dependencies/freertos/FreeRTOSv10.4.1/FreeRTOS/Source/list.c ****     listTEST_LIST_ITEM_INTEGRITY( pxNewListItem );
 126:../../../../dependencies/freertos/FreeRTOSv10.4.1/FreeRTOS/Source/list.c **** 
 127:../../../../dependencies/freertos/FreeRTOSv10.4.1/FreeRTOS/Source/list.c ****     /* Insert the new list item into the list, sorted in xItemValue order.
 128:../../../../dependencies/freertos/FreeRTOSv10.4.1/FreeRTOS/Source/list.c ****      *
 129:../../../../dependencies/freertos/FreeRTOSv10.4.1/FreeRTOS/Source/list.c ****      * If the list already contains a list item with the same item value then the
 130:../../../../dependencies/freertos/FreeRTOSv10.4.1/FreeRTOS/Source/list.c ****      * new list item should be placed after it.  This ensures that TCBs which are
 131:../../../../dependencies/freertos/FreeRTOSv10.4.1/FreeRTOS/Source/list.c ****      * stored in ready lists (all of which have the same xItemValue value) get a
 132:../../../../dependencies/freertos/FreeRTOSv10.4.1/FreeRTOS/Source/list.c ****      * share of the CPU.  However, if the xItemValue is the same as the back marker
 133:../../../../dependencies/freertos/FreeRTOSv10.4.1/FreeRTOS/Source/list.c ****      * the iteration loop below will not end.  Therefore the value is checked
 134:../../../../dependencies/freertos/FreeRTOSv10.4.1/FreeRTOS/Source/list.c ****      * first, and the algorithm slightly modified if necessary. */
 135:../../../../dependencies/freertos/FreeRTOSv10.4.1/FreeRTOS/Source/list.c ****     if( xValueOfInsertion == portMAX_DELAY )
 245              		.loc 1 135 7
 246 0010 BB68     		ldr	r3, [r7, #8]
 247 0012 B3F1FF3F 		cmp	r3, #-1
 248 0016 03D1     		bne	.L5
 136:../../../../dependencies/freertos/FreeRTOSv10.4.1/FreeRTOS/Source/list.c ****     {
 137:../../../../dependencies/freertos/FreeRTOSv10.4.1/FreeRTOS/Source/list.c ****         pxIterator = pxList->xListEnd.pxPrevious;
 249              		.loc 1 137 20
 250 0018 7B68     		ldr	r3, [r7, #4]
 251 001a 1B69     		ldr	r3, [r3, #16]
 252 001c FB60     		str	r3, [r7, #12]
 253 001e 0CE0     		b	.L6
 254              	.L5:
 138:../../../../dependencies/freertos/FreeRTOSv10.4.1/FreeRTOS/Source/list.c ****     }
 139:../../../../dependencies/freertos/FreeRTOSv10.4.1/FreeRTOS/Source/list.c ****     else
 140:../../../../dependencies/freertos/FreeRTOSv10.4.1/FreeRTOS/Source/list.c ****     {
 141:../../../../dependencies/freertos/FreeRTOSv10.4.1/FreeRTOS/Source/list.c ****         /* *** NOTE ***********************************************************
 142:../../../../dependencies/freertos/FreeRTOSv10.4.1/FreeRTOS/Source/list.c ****         *  If you find your application is crashing here then likely causes are
 143:../../../../dependencies/freertos/FreeRTOSv10.4.1/FreeRTOS/Source/list.c ****         *  listed below.  In addition see https://www.FreeRTOS.org/FAQHelp.html for
 144:../../../../dependencies/freertos/FreeRTOSv10.4.1/FreeRTOS/Source/list.c ****         *  more tips, and ensure configASSERT() is defined!
 145:../../../../dependencies/freertos/FreeRTOSv10.4.1/FreeRTOS/Source/list.c ****         *  https://www.FreeRTOS.org/a00110.html#configASSERT
 146:../../../../dependencies/freertos/FreeRTOSv10.4.1/FreeRTOS/Source/list.c ****         *
 147:../../../../dependencies/freertos/FreeRTOSv10.4.1/FreeRTOS/Source/list.c ****         *   1) Stack overflow -
 148:../../../../dependencies/freertos/FreeRTOSv10.4.1/FreeRTOS/Source/list.c ****         *      see https://www.FreeRTOS.org/Stacks-and-stack-overflow-checking.html
 149:../../../../dependencies/freertos/FreeRTOSv10.4.1/FreeRTOS/Source/list.c ****         *   2) Incorrect interrupt priority assignment, especially on Cortex-M
 150:../../../../dependencies/freertos/FreeRTOSv10.4.1/FreeRTOS/Source/list.c ****         *      parts where numerically high priority values denote low actual
 151:../../../../dependencies/freertos/FreeRTOSv10.4.1/FreeRTOS/Source/list.c ****         *      interrupt priorities, which can seem counter intuitive.  See
 152:../../../../dependencies/freertos/FreeRTOSv10.4.1/FreeRTOS/Source/list.c ****         *      https://www.FreeRTOS.org/RTOS-Cortex-M3-M4.html and the definition
ARM GAS  /var/folders/kj/yzqgq53j3dg15vgwwwwgf5s00000gn/T//ccj6Xeu2.s 			page 8


 153:../../../../dependencies/freertos/FreeRTOSv10.4.1/FreeRTOS/Source/list.c ****         *      of configMAX_SYSCALL_INTERRUPT_PRIORITY on
 154:../../../../dependencies/freertos/FreeRTOSv10.4.1/FreeRTOS/Source/list.c ****         *      https://www.FreeRTOS.org/a00110.html
 155:../../../../dependencies/freertos/FreeRTOSv10.4.1/FreeRTOS/Source/list.c ****         *   3) Calling an API function from within a critical section or when
 156:../../../../dependencies/freertos/FreeRTOSv10.4.1/FreeRTOS/Source/list.c ****         *      the scheduler is suspended, or calling an API function that does
 157:../../../../dependencies/freertos/FreeRTOSv10.4.1/FreeRTOS/Source/list.c ****         *      not end in "FromISR" from an interrupt.
 158:../../../../dependencies/freertos/FreeRTOSv10.4.1/FreeRTOS/Source/list.c ****         *   4) Using a queue or semaphore before it has been initialised or
 159:../../../../dependencies/freertos/FreeRTOSv10.4.1/FreeRTOS/Source/list.c ****         *      before the scheduler has been started (are interrupts firing
 160:../../../../dependencies/freertos/FreeRTOSv10.4.1/FreeRTOS/Source/list.c ****         *      before vTaskStartScheduler() has been called?).
 161:../../../../dependencies/freertos/FreeRTOSv10.4.1/FreeRTOS/Source/list.c ****         **********************************************************************/
 162:../../../../dependencies/freertos/FreeRTOSv10.4.1/FreeRTOS/Source/list.c **** 
 163:../../../../dependencies/freertos/FreeRTOSv10.4.1/FreeRTOS/Source/list.c ****         for( pxIterator = ( ListItem_t * ) &( pxList->xListEnd ); pxIterator->pxNext->xItemValue <=
 255              		.loc 1 163 25
 256 0020 7B68     		ldr	r3, [r7, #4]
 257 0022 0833     		adds	r3, r3, #8
 258 0024 FB60     		str	r3, [r7, #12]
 259              		.loc 1 163 9
 260 0026 02E0     		b	.L7
 261              	.L8:
 262              		.loc 1 163 131 discriminator 3
 263 0028 FB68     		ldr	r3, [r7, #12]
 264 002a 5B68     		ldr	r3, [r3, #4]
 265 002c FB60     		str	r3, [r7, #12]
 266              	.L7:
 267              		.loc 1 163 77 discriminator 1
 268 002e FB68     		ldr	r3, [r7, #12]
 269 0030 5B68     		ldr	r3, [r3, #4]
 270              		.loc 1 163 85 discriminator 1
 271 0032 1B68     		ldr	r3, [r3]
 272              		.loc 1 163 9 discriminator 1
 273 0034 BA68     		ldr	r2, [r7, #8]
 274 0036 9A42     		cmp	r2, r3
 275 0038 F6D2     		bcs	.L8
 276              	.L6:
 164:../../../../dependencies/freertos/FreeRTOSv10.4.1/FreeRTOS/Source/list.c ****         {
 165:../../../../dependencies/freertos/FreeRTOSv10.4.1/FreeRTOS/Source/list.c ****             /* There is nothing to do here, just iterating to the wanted
 166:../../../../dependencies/freertos/FreeRTOSv10.4.1/FreeRTOS/Source/list.c ****              * insertion position. */
 167:../../../../dependencies/freertos/FreeRTOSv10.4.1/FreeRTOS/Source/list.c ****         }
 168:../../../../dependencies/freertos/FreeRTOSv10.4.1/FreeRTOS/Source/list.c ****     }
 169:../../../../dependencies/freertos/FreeRTOSv10.4.1/FreeRTOS/Source/list.c **** 
 170:../../../../dependencies/freertos/FreeRTOSv10.4.1/FreeRTOS/Source/list.c ****     pxNewListItem->pxNext = pxIterator->pxNext;
 277              		.loc 1 170 39
 278 003a FB68     		ldr	r3, [r7, #12]
 279 003c 5A68     		ldr	r2, [r3, #4]
 280              		.loc 1 170 27
 281 003e 3B68     		ldr	r3, [r7]
 282 0040 5A60     		str	r2, [r3, #4]
 171:../../../../dependencies/freertos/FreeRTOSv10.4.1/FreeRTOS/Source/list.c ****     pxNewListItem->pxNext->pxPrevious = pxNewListItem;
 283              		.loc 1 171 18
 284 0042 3B68     		ldr	r3, [r7]
 285 0044 5B68     		ldr	r3, [r3, #4]
 286              		.loc 1 171 39
 287 0046 3A68     		ldr	r2, [r7]
 288 0048 9A60     		str	r2, [r3, #8]
 172:../../../../dependencies/freertos/FreeRTOSv10.4.1/FreeRTOS/Source/list.c ****     pxNewListItem->pxPrevious = pxIterator;
 289              		.loc 1 172 31
 290 004a 3B68     		ldr	r3, [r7]
 291 004c FA68     		ldr	r2, [r7, #12]
ARM GAS  /var/folders/kj/yzqgq53j3dg15vgwwwwgf5s00000gn/T//ccj6Xeu2.s 			page 9


 292 004e 9A60     		str	r2, [r3, #8]
 173:../../../../dependencies/freertos/FreeRTOSv10.4.1/FreeRTOS/Source/list.c ****     pxIterator->pxNext = pxNewListItem;
 293              		.loc 1 173 24
 294 0050 FB68     		ldr	r3, [r7, #12]
 295 0052 3A68     		ldr	r2, [r7]
 296 0054 5A60     		str	r2, [r3, #4]
 174:../../../../dependencies/freertos/FreeRTOSv10.4.1/FreeRTOS/Source/list.c **** 
 175:../../../../dependencies/freertos/FreeRTOSv10.4.1/FreeRTOS/Source/list.c ****     /* Remember which list the item is in.  This allows fast removal of the
 176:../../../../dependencies/freertos/FreeRTOSv10.4.1/FreeRTOS/Source/list.c ****      * item later. */
 177:../../../../dependencies/freertos/FreeRTOSv10.4.1/FreeRTOS/Source/list.c ****     pxNewListItem->pxContainer = pxList;
 297              		.loc 1 177 32
 298 0056 3B68     		ldr	r3, [r7]
 299 0058 7A68     		ldr	r2, [r7, #4]
 300 005a 1A61     		str	r2, [r3, #16]
 178:../../../../dependencies/freertos/FreeRTOSv10.4.1/FreeRTOS/Source/list.c **** 
 179:../../../../dependencies/freertos/FreeRTOSv10.4.1/FreeRTOS/Source/list.c ****     ( pxList->uxNumberOfItems )++;
 301              		.loc 1 179 13
 302 005c 7B68     		ldr	r3, [r7, #4]
 303 005e 1B68     		ldr	r3, [r3]
 304              		.loc 1 179 32
 305 0060 5A1C     		adds	r2, r3, #1
 306 0062 7B68     		ldr	r3, [r7, #4]
 307 0064 1A60     		str	r2, [r3]
 180:../../../../dependencies/freertos/FreeRTOSv10.4.1/FreeRTOS/Source/list.c **** }
 308              		.loc 1 180 1
 309 0066 00BF     		nop
 310 0068 1437     		adds	r7, r7, #20
 311              	.LCFI21:
 312              		.cfi_def_cfa_offset 4
 313 006a BD46     		mov	sp, r7
 314              	.LCFI22:
 315              		.cfi_def_cfa_register 13
 316              		@ sp needed
 317 006c 5DF8047B 		ldr	r7, [sp], #4
 318              	.LCFI23:
 319              		.cfi_restore 7
 320              		.cfi_def_cfa_offset 0
 321 0070 7047     		bx	lr
 322              		.cfi_endproc
 323              	.LFE8:
 325              		.section	.text.uxListRemove,"ax",%progbits
 326              		.align	1
 327              		.global	uxListRemove
 328              		.syntax unified
 329              		.thumb
 330              		.thumb_func
 331              		.fpu fpv4-sp-d16
 333              	uxListRemove:
 334              	.LFB9:
 181:../../../../dependencies/freertos/FreeRTOSv10.4.1/FreeRTOS/Source/list.c **** /*-----------------------------------------------------------*/
 182:../../../../dependencies/freertos/FreeRTOSv10.4.1/FreeRTOS/Source/list.c **** 
 183:../../../../dependencies/freertos/FreeRTOSv10.4.1/FreeRTOS/Source/list.c **** UBaseType_t uxListRemove( ListItem_t * const pxItemToRemove )
 184:../../../../dependencies/freertos/FreeRTOSv10.4.1/FreeRTOS/Source/list.c **** {
 335              		.loc 1 184 1
 336              		.cfi_startproc
 337              		@ args = 0, pretend = 0, frame = 16
 338              		@ frame_needed = 1, uses_anonymous_args = 0
ARM GAS  /var/folders/kj/yzqgq53j3dg15vgwwwwgf5s00000gn/T//ccj6Xeu2.s 			page 10


 339              		@ link register save eliminated.
 340 0000 80B4     		push	{r7}
 341              	.LCFI24:
 342              		.cfi_def_cfa_offset 4
 343              		.cfi_offset 7, -4
 344 0002 85B0     		sub	sp, sp, #20
 345              	.LCFI25:
 346              		.cfi_def_cfa_offset 24
 347 0004 00AF     		add	r7, sp, #0
 348              	.LCFI26:
 349              		.cfi_def_cfa_register 7
 350 0006 7860     		str	r0, [r7, #4]
 185:../../../../dependencies/freertos/FreeRTOSv10.4.1/FreeRTOS/Source/list.c **** /* The list item knows which list it is in.  Obtain the list from the list
 186:../../../../dependencies/freertos/FreeRTOSv10.4.1/FreeRTOS/Source/list.c ****  * item. */
 187:../../../../dependencies/freertos/FreeRTOSv10.4.1/FreeRTOS/Source/list.c ****     List_t * const pxList = pxItemToRemove->pxContainer;
 351              		.loc 1 187 20
 352 0008 7B68     		ldr	r3, [r7, #4]
 353 000a 1B69     		ldr	r3, [r3, #16]
 354 000c FB60     		str	r3, [r7, #12]
 188:../../../../dependencies/freertos/FreeRTOSv10.4.1/FreeRTOS/Source/list.c **** 
 189:../../../../dependencies/freertos/FreeRTOSv10.4.1/FreeRTOS/Source/list.c ****     pxItemToRemove->pxNext->pxPrevious = pxItemToRemove->pxPrevious;
 355              		.loc 1 189 19
 356 000e 7B68     		ldr	r3, [r7, #4]
 357 0010 5B68     		ldr	r3, [r3, #4]
 358              		.loc 1 189 56
 359 0012 7A68     		ldr	r2, [r7, #4]
 360 0014 9268     		ldr	r2, [r2, #8]
 361              		.loc 1 189 40
 362 0016 9A60     		str	r2, [r3, #8]
 190:../../../../dependencies/freertos/FreeRTOSv10.4.1/FreeRTOS/Source/list.c ****     pxItemToRemove->pxPrevious->pxNext = pxItemToRemove->pxNext;
 363              		.loc 1 190 19
 364 0018 7B68     		ldr	r3, [r7, #4]
 365 001a 9B68     		ldr	r3, [r3, #8]
 366              		.loc 1 190 56
 367 001c 7A68     		ldr	r2, [r7, #4]
 368 001e 5268     		ldr	r2, [r2, #4]
 369              		.loc 1 190 40
 370 0020 5A60     		str	r2, [r3, #4]
 191:../../../../dependencies/freertos/FreeRTOSv10.4.1/FreeRTOS/Source/list.c **** 
 192:../../../../dependencies/freertos/FreeRTOSv10.4.1/FreeRTOS/Source/list.c ****     /* Only used during decision coverage testing. */
 193:../../../../dependencies/freertos/FreeRTOSv10.4.1/FreeRTOS/Source/list.c ****     mtCOVERAGE_TEST_DELAY();
 194:../../../../dependencies/freertos/FreeRTOSv10.4.1/FreeRTOS/Source/list.c **** 
 195:../../../../dependencies/freertos/FreeRTOSv10.4.1/FreeRTOS/Source/list.c ****     /* Make sure the index is left pointing to a valid item. */
 196:../../../../dependencies/freertos/FreeRTOSv10.4.1/FreeRTOS/Source/list.c ****     if( pxList->pxIndex == pxItemToRemove )
 371              		.loc 1 196 15
 372 0022 FB68     		ldr	r3, [r7, #12]
 373 0024 5B68     		ldr	r3, [r3, #4]
 374              		.loc 1 196 7
 375 0026 7A68     		ldr	r2, [r7, #4]
 376 0028 9A42     		cmp	r2, r3
 377 002a 03D1     		bne	.L10
 197:../../../../dependencies/freertos/FreeRTOSv10.4.1/FreeRTOS/Source/list.c ****     {
 198:../../../../dependencies/freertos/FreeRTOSv10.4.1/FreeRTOS/Source/list.c ****         pxList->pxIndex = pxItemToRemove->pxPrevious;
 378              		.loc 1 198 41
 379 002c 7B68     		ldr	r3, [r7, #4]
 380 002e 9A68     		ldr	r2, [r3, #8]
 381              		.loc 1 198 25
ARM GAS  /var/folders/kj/yzqgq53j3dg15vgwwwwgf5s00000gn/T//ccj6Xeu2.s 			page 11


 382 0030 FB68     		ldr	r3, [r7, #12]
 383 0032 5A60     		str	r2, [r3, #4]
 384              	.L10:
 199:../../../../dependencies/freertos/FreeRTOSv10.4.1/FreeRTOS/Source/list.c ****     }
 200:../../../../dependencies/freertos/FreeRTOSv10.4.1/FreeRTOS/Source/list.c ****     else
 201:../../../../dependencies/freertos/FreeRTOSv10.4.1/FreeRTOS/Source/list.c ****     {
 202:../../../../dependencies/freertos/FreeRTOSv10.4.1/FreeRTOS/Source/list.c ****         mtCOVERAGE_TEST_MARKER();
 203:../../../../dependencies/freertos/FreeRTOSv10.4.1/FreeRTOS/Source/list.c ****     }
 204:../../../../dependencies/freertos/FreeRTOSv10.4.1/FreeRTOS/Source/list.c **** 
 205:../../../../dependencies/freertos/FreeRTOSv10.4.1/FreeRTOS/Source/list.c ****     pxItemToRemove->pxContainer = NULL;
 385              		.loc 1 205 33
 386 0034 7B68     		ldr	r3, [r7, #4]
 387 0036 0022     		movs	r2, #0
 388 0038 1A61     		str	r2, [r3, #16]
 206:../../../../dependencies/freertos/FreeRTOSv10.4.1/FreeRTOS/Source/list.c ****     ( pxList->uxNumberOfItems )--;
 389              		.loc 1 206 13
 390 003a FB68     		ldr	r3, [r7, #12]
 391 003c 1B68     		ldr	r3, [r3]
 392              		.loc 1 206 32
 393 003e 5A1E     		subs	r2, r3, #1
 394 0040 FB68     		ldr	r3, [r7, #12]
 395 0042 1A60     		str	r2, [r3]
 207:../../../../dependencies/freertos/FreeRTOSv10.4.1/FreeRTOS/Source/list.c **** 
 208:../../../../dependencies/freertos/FreeRTOSv10.4.1/FreeRTOS/Source/list.c ****     return pxList->uxNumberOfItems;
 396              		.loc 1 208 18
 397 0044 FB68     		ldr	r3, [r7, #12]
 398 0046 1B68     		ldr	r3, [r3]
 209:../../../../dependencies/freertos/FreeRTOSv10.4.1/FreeRTOS/Source/list.c **** }
 399              		.loc 1 209 1
 400 0048 1846     		mov	r0, r3
 401 004a 1437     		adds	r7, r7, #20
 402              	.LCFI27:
 403              		.cfi_def_cfa_offset 4
 404 004c BD46     		mov	sp, r7
 405              	.LCFI28:
 406              		.cfi_def_cfa_register 13
 407              		@ sp needed
 408 004e 5DF8047B 		ldr	r7, [sp], #4
 409              	.LCFI29:
 410              		.cfi_restore 7
 411              		.cfi_def_cfa_offset 0
 412 0052 7047     		bx	lr
 413              		.cfi_endproc
 414              	.LFE9:
 416              		.text
 417              	.Letext0:
 418              		.file 2 "/usr/local/Caskroom/gcc-arm-embedded/9-2020-q2-update/gcc-arm-none-eabi-9-2020-q2-update/
 419              		.file 3 "/usr/local/Caskroom/gcc-arm-embedded/9-2020-q2-update/gcc-arm-none-eabi-9-2020-q2-update/
 420              		.file 4 "/usr/local/Caskroom/gcc-arm-embedded/9-2020-q2-update/gcc-arm-none-eabi-9-2020-q2-update/
 421              		.file 5 "/usr/local/Caskroom/gcc-arm-embedded/9-2020-q2-update/gcc-arm-none-eabi-9-2020-q2-update/
 422              		.file 6 "/usr/local/Caskroom/gcc-arm-embedded/9-2020-q2-update/gcc-arm-none-eabi-9-2020-q2-update/
 423              		.file 7 "/usr/local/Caskroom/gcc-arm-embedded/9-2020-q2-update/gcc-arm-none-eabi-9-2020-q2-update/
 424              		.file 8 "/usr/local/Caskroom/gcc-arm-embedded/9-2020-q2-update/gcc-arm-none-eabi-9-2020-q2-update/
 425              		.file 9 "../include/FreeRTOSConfig.h"
 426              		.file 10 "../../../../dependencies/freertos/FreeRTOSv10.4.1/FreeRTOS/Source/portable/GCC/ARM_CM4F/
 427              		.file 11 "../../../../dependencies/freertos/FreeRTOSv10.4.1/FreeRTOS/Source/include/list.h"
ARM GAS  /var/folders/kj/yzqgq53j3dg15vgwwwwgf5s00000gn/T//ccj6Xeu2.s 			page 12

