ARM GAS  /var/folders/kj/yzqgq53j3dg15vgwwwwgf5s00000gn/T//ccHQwhSJ.s 			page 1


   1              		.cpu cortex-m4
   2              		.eabi_attribute 27, 1
   3              		.eabi_attribute 28, 1
   4              		.eabi_attribute 20, 1
   5              		.eabi_attribute 21, 1
   6              		.eabi_attribute 23, 3
   7              		.eabi_attribute 24, 1
   8              		.eabi_attribute 25, 1
   9              		.eabi_attribute 26, 1
  10              		.eabi_attribute 30, 6
  11              		.eabi_attribute 34, 1
  12              		.eabi_attribute 18, 4
  13              		.file	"main.c"
  14              		.text
  15              	.Ltext0:
  16              		.cfi_sections	.debug_frame
  17              		.section	.data.tx_data,"aw"
  18              		.align	2
  21              	tx_data:
  22 0000 6932635F 		.ascii	"i2c_test\012\000"
  22      74657374 
  22      0A00
  23              		.section	.rodata
  24              		.align	2
  25              	.LC0:
  26 0000 53656E74 		.ascii	"Sent\015\012\000"
  26      0D0A00
  27              		.section	.text.main_task,"ax",%progbits
  28              		.align	1
  29              		.global	main_task
  30              		.arch armv7e-m
  31              		.syntax unified
  32              		.thumb
  33              		.thumb_func
  34              		.fpu fpv4-sp-d16
  36              	main_task:
  37              	.LFB138:
  38              		.file 1 "../src/main.c"
   1:../src/main.c **** #include "bsp.h"
   2:../src/main.c **** #include "com.h"
   3:../src/main.c **** #include "stm32f4xx_it.h"
   4:../src/main.c **** 
   5:../src/main.c **** #include "logger.h"
   6:../src/main.c **** #include "i2c.h"
   7:../src/main.c **** 
   8:../src/main.c **** #include <stdint.h>
   9:../src/main.c **** 
  10:../src/main.c **** #define mainTASK_PRIORITY    (tskIDLE_PRIORITY + 1)
  11:../src/main.c **** 
  12:../src/main.c **** #define TEST_SLAVE_ADDR      0x12
  13:../src/main.c **** #define TEST_SLAVE_REG_ADDR  0x13
  14:../src/main.c **** 
  15:../src/main.c **** static char tx_data[10] = "i2c_test\n";
  16:../src/main.c **** 
  17:../src/main.c **** void main_task(void *arg)
  18:../src/main.c **** {
  39              		.loc 1 18 1
ARM GAS  /var/folders/kj/yzqgq53j3dg15vgwwwwgf5s00000gn/T//ccHQwhSJ.s 			page 2


  40              		.cfi_startproc
  41              		@ args = 0, pretend = 0, frame = 136
  42              		@ frame_needed = 1, uses_anonymous_args = 0
  43 0000 80B5     		push	{r7, lr}
  44              	.LCFI0:
  45              		.cfi_def_cfa_offset 8
  46              		.cfi_offset 7, -8
  47              		.cfi_offset 14, -4
  48 0002 A2B0     		sub	sp, sp, #136
  49              	.LCFI1:
  50              		.cfi_def_cfa_offset 144
  51 0004 00AF     		add	r7, sp, #0
  52              	.LCFI2:
  53              		.cfi_def_cfa_register 7
  54 0006 7860     		str	r0, [r7, #4]
  55              	.L2:
  19:../src/main.c ****   while(1) {
  20:../src/main.c ****     i2c_write(TEST_SLAVE_ADDR, TEST_SLAVE_REG_ADDR, 9, (uint8_t*)tx_data);
  56              		.loc 1 20 5 discriminator 1
  57 0008 0A4B     		ldr	r3, .L3
  58 000a 0922     		movs	r2, #9
  59 000c 1321     		movs	r1, #19
  60 000e 1220     		movs	r0, #18
  61 0010 FFF7FEFF 		bl	i2c_write
  62              	.LBB2:
  21:../src/main.c ****     DEBUG_LOG("Sent\r\n");
  63              		.loc 1 21 5 discriminator 1
  64 0014 07F10803 		add	r3, r7, #8
  65 0018 0749     		ldr	r1, .L3+4
  66 001a 1846     		mov	r0, r3
  67 001c FFF7FEFF 		bl	sprintf
  68 0020 07F10803 		add	r3, r7, #8
  69 0024 1846     		mov	r0, r3
  70 0026 FFF7FEFF 		bl	logger_write
  71              	.LBE2:
  22:../src/main.c ****     vTaskDelay(100);
  72              		.loc 1 22 5 discriminator 1
  73 002a 6420     		movs	r0, #100
  74 002c FFF7FEFF 		bl	vTaskDelay
  20:../src/main.c ****     DEBUG_LOG("Sent\r\n");
  75              		.loc 1 20 5 discriminator 1
  76 0030 EAE7     		b	.L2
  77              	.L4:
  78 0032 00BF     		.align	2
  79              	.L3:
  80 0034 00000000 		.word	tx_data
  81 0038 00000000 		.word	.LC0
  82              		.cfi_endproc
  83              	.LFE138:
  85              		.section	.rodata
  86 0007 00       		.align	2
  87              	.LC1:
  88 0008 434F4D20 		.ascii	"COM Started \015\012\000"
  88      53746172 
  88      74656420 
  88      0D0A00
  89 0017 00       		.align	2
ARM GAS  /var/folders/kj/yzqgq53j3dg15vgwwwwgf5s00000gn/T//ccHQwhSJ.s 			page 3


  90              	.LC2:
  91 0018 6D61696E 		.ascii	"main_task\000"
  91      5F746173 
  91      6B00
  92              		.section	.text.main,"ax",%progbits
  93              		.align	1
  94              		.global	main
  95              		.syntax unified
  96              		.thumb
  97              		.thumb_func
  98              		.fpu fpv4-sp-d16
 100              	main:
 101              	.LFB139:
  23:../src/main.c ****   }
  24:../src/main.c **** }
  25:../src/main.c **** 
  26:../src/main.c **** int main(void)
  27:../src/main.c **** {
 102              		.loc 1 27 1
 103              		.cfi_startproc
 104              		@ args = 0, pretend = 0, frame = 136
 105              		@ frame_needed = 1, uses_anonymous_args = 0
 106 0000 80B5     		push	{r7, lr}
 107              	.LCFI3:
 108              		.cfi_def_cfa_offset 8
 109              		.cfi_offset 7, -8
 110              		.cfi_offset 14, -4
 111 0002 A4B0     		sub	sp, sp, #144
 112              	.LCFI4:
 113              		.cfi_def_cfa_offset 152
 114 0004 02AF     		add	r7, sp, #8
 115              	.LCFI5:
 116              		.cfi_def_cfa 7, 144
  28:../src/main.c ****   int32_t taskStatus;
  29:../src/main.c ****   bsp_board_bringup();
 117              		.loc 1 29 3
 118 0006 FFF7FEFF 		bl	bsp_board_bringup
  30:../src/main.c ****   logger_init();
 119              		.loc 1 30 3
 120 000a FFF7FEFF 		bl	logger_init
  31:../src/main.c ****   i2c_init();
 121              		.loc 1 31 3
 122 000e FFF7FEFF 		bl	i2c_init
 123              	.LBB3:
  32:../src/main.c **** 
  33:../src/main.c ****   DEBUG_LOG("COM Started \r\n");
 124              		.loc 1 33 3
 125 0012 3B46     		mov	r3, r7
 126 0014 1149     		ldr	r1, .L8
 127 0016 1846     		mov	r0, r3
 128 0018 FFF7FEFF 		bl	sprintf
 129 001c 3B46     		mov	r3, r7
 130 001e 1846     		mov	r0, r3
 131 0020 FFF7FEFF 		bl	logger_write
 132              	.LBE3:
  34:../src/main.c **** 
  35:../src/main.c ****   taskStatus = xTaskCreate(main_task,
ARM GAS  /var/folders/kj/yzqgq53j3dg15vgwwwwgf5s00000gn/T//ccHQwhSJ.s 			page 4


 133              		.loc 1 35 16
 134 0024 0023     		movs	r3, #0
 135 0026 0193     		str	r3, [sp, #4]
 136 0028 0123     		movs	r3, #1
 137 002a 0093     		str	r3, [sp]
 138 002c 0023     		movs	r3, #0
 139 002e 8022     		movs	r2, #128
 140 0030 0B49     		ldr	r1, .L8+4
 141 0032 0C48     		ldr	r0, .L8+8
 142 0034 FFF7FEFF 		bl	xTaskCreate
 143 0038 C7F88400 		str	r0, [r7, #132]
 144              	.LBB4:
  36:../src/main.c ****                           "main_task",
  37:../src/main.c ****                           128,
  38:../src/main.c ****                           NULL,
  39:../src/main.c ****                           mainTASK_PRIORITY,
  40:../src/main.c ****                           NULL);
  41:../src/main.c **** 
  42:../src/main.c ****   RTOS_ERR_CHECK(taskStatus);
 145              		.loc 1 42 3
 146 003c D7F88430 		ldr	r3, [r7, #132]
 147 0040 C7F88030 		str	r3, [r7, #128]
 148 0044 D7F88030 		ldr	r3, [r7, #128]
 149 0048 012B     		cmp	r3, #1
 150 004a 01D0     		beq	.L6
 151              		.loc 1 42 3 is_stmt 0 discriminator 1
 152 004c FFF7FEFF 		bl	error_handler
 153              	.L6:
 154              	.LBE4:
  43:../src/main.c **** 
  44:../src/main.c ****   OSStarted();
 155              		.loc 1 44 3 is_stmt 1
 156 0050 FFF7FEFF 		bl	OSStarted
  45:../src/main.c **** 
  46:../src/main.c ****   vTaskStartScheduler();
 157              		.loc 1 46 3
 158 0054 FFF7FEFF 		bl	vTaskStartScheduler
 159              	.L7:
  47:../src/main.c **** 
  48:../src/main.c ****   /* Should never reach here */
  49:../src/main.c ****   while (1);
 160              		.loc 1 49 9 discriminator 1
 161 0058 FEE7     		b	.L7
 162              	.L9:
 163 005a 00BF     		.align	2
 164              	.L8:
 165 005c 08000000 		.word	.LC1
 166 0060 18000000 		.word	.LC2
 167 0064 00000000 		.word	main_task
 168              		.cfi_endproc
 169              	.LFE139:
 171              		.text
 172              	.Letext0:
 173              		.file 2 "/usr/local/Caskroom/gcc-arm-embedded/9-2020-q2-update/gcc-arm-none-eabi-9-2020-q2-update/
 174              		.file 3 "/usr/local/Caskroom/gcc-arm-embedded/9-2020-q2-update/gcc-arm-none-eabi-9-2020-q2-update/
 175              		.file 4 "../../../../dependencies/stm/STM32F4_Cube/Drivers/CMSIS/Include/core_cm4.h"
 176              		.file 5 "../../../../dependencies/stm/STM32F4_Cube/Drivers/CMSIS/Device/ST/STM32F4xx/Include/syste
ARM GAS  /var/folders/kj/yzqgq53j3dg15vgwwwwgf5s00000gn/T//ccHQwhSJ.s 			page 5


 177              		.file 6 "../../../../dependencies/stm/STM32F4_Cube/Drivers/STM32F4xx_HAL_Driver/Inc/stm32f4xx_hal.
 178              		.file 7 "/usr/local/Caskroom/gcc-arm-embedded/9-2020-q2-update/gcc-arm-none-eabi-9-2020-q2-update/
 179              		.file 8 "/usr/local/Caskroom/gcc-arm-embedded/9-2020-q2-update/gcc-arm-none-eabi-9-2020-q2-update/
 180              		.file 9 "/usr/local/Caskroom/gcc-arm-embedded/9-2020-q2-update/gcc-arm-none-eabi-9-2020-q2-update/
 181              		.file 10 "/usr/local/Caskroom/gcc-arm-embedded/9-2020-q2-update/gcc-arm-none-eabi-9-2020-q2-update
 182              		.file 11 "../../../../dependencies/freertos/FreeRTOSv10.4.1/FreeRTOS/Source/portable/GCC/ARM_CM4F/
ARM GAS  /var/folders/kj/yzqgq53j3dg15vgwwwwgf5s00000gn/T//ccHQwhSJ.s 			page 6

