ARM GAS  /var/folders/kj/yzqgq53j3dg15vgwwwwgf5s00000gn/T//ccGgwidk.s 			page 1


   1              		.cpu cortex-m4
   2              		.eabi_attribute 27, 1
   3              		.eabi_attribute 28, 1
   4              		.eabi_attribute 20, 1
   5              		.eabi_attribute 21, 1
   6              		.eabi_attribute 23, 3
   7              		.eabi_attribute 24, 1
   8              		.eabi_attribute 25, 1
   9              		.eabi_attribute 26, 1
  10              		.eabi_attribute 30, 6
  11              		.eabi_attribute 34, 1
  12              		.eabi_attribute 18, 4
  13              		.file	"queue.c"
  14              		.text
  15              	.Ltext0:
  16              		.cfi_sections	.debug_frame
  17              		.comm	xQueueRegistry,64,4
  18              		.section	.text.xQueueGenericReset,"ax",%progbits
  19              		.align	1
  20              		.global	xQueueGenericReset
  21              		.arch armv7e-m
  22              		.syntax unified
  23              		.thumb
  24              		.thumb_func
  25              		.fpu fpv4-sp-d16
  27              	xQueueGenericReset:
  28              	.LFB5:
  29              		.file 1 "../../../../dependencies/freertos/FreeRTOSv10.4.1/FreeRTOS/Source/queue.c"
   1:../../../../dependencies/freertos/FreeRTOSv10.4.1/FreeRTOS/Source/queue.c **** /*
   2:../../../../dependencies/freertos/FreeRTOSv10.4.1/FreeRTOS/Source/queue.c ****  * FreeRTOS Kernel V10.4.1
   3:../../../../dependencies/freertos/FreeRTOSv10.4.1/FreeRTOS/Source/queue.c ****  * Copyright (C) 2020 Amazon.com, Inc. or its affiliates.  All Rights Reserved.
   4:../../../../dependencies/freertos/FreeRTOSv10.4.1/FreeRTOS/Source/queue.c ****  *
   5:../../../../dependencies/freertos/FreeRTOSv10.4.1/FreeRTOS/Source/queue.c ****  * Permission is hereby granted, free of charge, to any person obtaining a copy of
   6:../../../../dependencies/freertos/FreeRTOSv10.4.1/FreeRTOS/Source/queue.c ****  * this software and associated documentation files (the "Software"), to deal in
   7:../../../../dependencies/freertos/FreeRTOSv10.4.1/FreeRTOS/Source/queue.c ****  * the Software without restriction, including without limitation the rights to
   8:../../../../dependencies/freertos/FreeRTOSv10.4.1/FreeRTOS/Source/queue.c ****  * use, copy, modify, merge, publish, distribute, sublicense, and/or sell copies of
   9:../../../../dependencies/freertos/FreeRTOSv10.4.1/FreeRTOS/Source/queue.c ****  * the Software, and to permit persons to whom the Software is furnished to do so,
  10:../../../../dependencies/freertos/FreeRTOSv10.4.1/FreeRTOS/Source/queue.c ****  * subject to the following conditions:
  11:../../../../dependencies/freertos/FreeRTOSv10.4.1/FreeRTOS/Source/queue.c ****  *
  12:../../../../dependencies/freertos/FreeRTOSv10.4.1/FreeRTOS/Source/queue.c ****  * The above copyright notice and this permission notice shall be included in all
  13:../../../../dependencies/freertos/FreeRTOSv10.4.1/FreeRTOS/Source/queue.c ****  * copies or substantial portions of the Software.
  14:../../../../dependencies/freertos/FreeRTOSv10.4.1/FreeRTOS/Source/queue.c ****  *
  15:../../../../dependencies/freertos/FreeRTOSv10.4.1/FreeRTOS/Source/queue.c ****  * THE SOFTWARE IS PROVIDED "AS IS", WITHOUT WARRANTY OF ANY KIND, EXPRESS OR
  16:../../../../dependencies/freertos/FreeRTOSv10.4.1/FreeRTOS/Source/queue.c ****  * IMPLIED, INCLUDING BUT NOT LIMITED TO THE WARRANTIES OF MERCHANTABILITY, FITNESS
  17:../../../../dependencies/freertos/FreeRTOSv10.4.1/FreeRTOS/Source/queue.c ****  * FOR A PARTICULAR PURPOSE AND NONINFRINGEMENT. IN NO EVENT SHALL THE AUTHORS OR
  18:../../../../dependencies/freertos/FreeRTOSv10.4.1/FreeRTOS/Source/queue.c ****  * COPYRIGHT HOLDERS BE LIABLE FOR ANY CLAIM, DAMAGES OR OTHER LIABILITY, WHETHER
  19:../../../../dependencies/freertos/FreeRTOSv10.4.1/FreeRTOS/Source/queue.c ****  * IN AN ACTION OF CONTRACT, TORT OR OTHERWISE, ARISING FROM, OUT OF OR IN
  20:../../../../dependencies/freertos/FreeRTOSv10.4.1/FreeRTOS/Source/queue.c ****  * CONNECTION WITH THE SOFTWARE OR THE USE OR OTHER DEALINGS IN THE SOFTWARE.
  21:../../../../dependencies/freertos/FreeRTOSv10.4.1/FreeRTOS/Source/queue.c ****  *
  22:../../../../dependencies/freertos/FreeRTOSv10.4.1/FreeRTOS/Source/queue.c ****  * https://www.FreeRTOS.org
  23:../../../../dependencies/freertos/FreeRTOSv10.4.1/FreeRTOS/Source/queue.c ****  * https://github.com/FreeRTOS
  24:../../../../dependencies/freertos/FreeRTOSv10.4.1/FreeRTOS/Source/queue.c ****  *
  25:../../../../dependencies/freertos/FreeRTOSv10.4.1/FreeRTOS/Source/queue.c ****  */
  26:../../../../dependencies/freertos/FreeRTOSv10.4.1/FreeRTOS/Source/queue.c **** 
  27:../../../../dependencies/freertos/FreeRTOSv10.4.1/FreeRTOS/Source/queue.c **** #include <stdlib.h>
  28:../../../../dependencies/freertos/FreeRTOSv10.4.1/FreeRTOS/Source/queue.c **** #include <string.h>
  29:../../../../dependencies/freertos/FreeRTOSv10.4.1/FreeRTOS/Source/queue.c **** 
ARM GAS  /var/folders/kj/yzqgq53j3dg15vgwwwwgf5s00000gn/T//ccGgwidk.s 			page 2


  30:../../../../dependencies/freertos/FreeRTOSv10.4.1/FreeRTOS/Source/queue.c **** /* Defining MPU_WRAPPERS_INCLUDED_FROM_API_FILE prevents task.h from redefining
  31:../../../../dependencies/freertos/FreeRTOSv10.4.1/FreeRTOS/Source/queue.c ****  * all the API functions to use the MPU wrappers.  That should only be done when
  32:../../../../dependencies/freertos/FreeRTOSv10.4.1/FreeRTOS/Source/queue.c ****  * task.h is included from an application file. */
  33:../../../../dependencies/freertos/FreeRTOSv10.4.1/FreeRTOS/Source/queue.c **** #define MPU_WRAPPERS_INCLUDED_FROM_API_FILE
  34:../../../../dependencies/freertos/FreeRTOSv10.4.1/FreeRTOS/Source/queue.c **** 
  35:../../../../dependencies/freertos/FreeRTOSv10.4.1/FreeRTOS/Source/queue.c **** #include "FreeRTOS.h"
  36:../../../../dependencies/freertos/FreeRTOSv10.4.1/FreeRTOS/Source/queue.c **** #include "task.h"
  37:../../../../dependencies/freertos/FreeRTOSv10.4.1/FreeRTOS/Source/queue.c **** #include "queue.h"
  38:../../../../dependencies/freertos/FreeRTOSv10.4.1/FreeRTOS/Source/queue.c **** 
  39:../../../../dependencies/freertos/FreeRTOSv10.4.1/FreeRTOS/Source/queue.c **** #if ( configUSE_CO_ROUTINES == 1 )
  40:../../../../dependencies/freertos/FreeRTOSv10.4.1/FreeRTOS/Source/queue.c ****     #include "croutine.h"
  41:../../../../dependencies/freertos/FreeRTOSv10.4.1/FreeRTOS/Source/queue.c **** #endif
  42:../../../../dependencies/freertos/FreeRTOSv10.4.1/FreeRTOS/Source/queue.c **** 
  43:../../../../dependencies/freertos/FreeRTOSv10.4.1/FreeRTOS/Source/queue.c **** /* Lint e9021, e961 and e750 are suppressed as a MISRA exception justified
  44:../../../../dependencies/freertos/FreeRTOSv10.4.1/FreeRTOS/Source/queue.c ****  * because the MPU ports require MPU_WRAPPERS_INCLUDED_FROM_API_FILE to be defined
  45:../../../../dependencies/freertos/FreeRTOSv10.4.1/FreeRTOS/Source/queue.c ****  * for the header files above, but not in this file, in order to generate the
  46:../../../../dependencies/freertos/FreeRTOSv10.4.1/FreeRTOS/Source/queue.c ****  * correct privileged Vs unprivileged linkage and placement. */
  47:../../../../dependencies/freertos/FreeRTOSv10.4.1/FreeRTOS/Source/queue.c **** #undef MPU_WRAPPERS_INCLUDED_FROM_API_FILE /*lint !e961 !e750 !e9021. */
  48:../../../../dependencies/freertos/FreeRTOSv10.4.1/FreeRTOS/Source/queue.c **** 
  49:../../../../dependencies/freertos/FreeRTOSv10.4.1/FreeRTOS/Source/queue.c **** 
  50:../../../../dependencies/freertos/FreeRTOSv10.4.1/FreeRTOS/Source/queue.c **** /* Constants used with the cRxLock and cTxLock structure members. */
  51:../../../../dependencies/freertos/FreeRTOSv10.4.1/FreeRTOS/Source/queue.c **** #define queueUNLOCKED             ( ( int8_t ) -1 )
  52:../../../../dependencies/freertos/FreeRTOSv10.4.1/FreeRTOS/Source/queue.c **** #define queueLOCKED_UNMODIFIED    ( ( int8_t ) 0 )
  53:../../../../dependencies/freertos/FreeRTOSv10.4.1/FreeRTOS/Source/queue.c **** #define queueINT8_MAX             ( ( int8_t ) 127 )
  54:../../../../dependencies/freertos/FreeRTOSv10.4.1/FreeRTOS/Source/queue.c **** 
  55:../../../../dependencies/freertos/FreeRTOSv10.4.1/FreeRTOS/Source/queue.c **** /* When the Queue_t structure is used to represent a base queue its pcHead and
  56:../../../../dependencies/freertos/FreeRTOSv10.4.1/FreeRTOS/Source/queue.c ****  * pcTail members are used as pointers into the queue storage area.  When the
  57:../../../../dependencies/freertos/FreeRTOSv10.4.1/FreeRTOS/Source/queue.c ****  * Queue_t structure is used to represent a mutex pcHead and pcTail pointers are
  58:../../../../dependencies/freertos/FreeRTOSv10.4.1/FreeRTOS/Source/queue.c ****  * not necessary, and the pcHead pointer is set to NULL to indicate that the
  59:../../../../dependencies/freertos/FreeRTOSv10.4.1/FreeRTOS/Source/queue.c ****  * structure instead holds a pointer to the mutex holder (if any).  Map alternative
  60:../../../../dependencies/freertos/FreeRTOSv10.4.1/FreeRTOS/Source/queue.c ****  * names to the pcHead and structure member to ensure the readability of the code
  61:../../../../dependencies/freertos/FreeRTOSv10.4.1/FreeRTOS/Source/queue.c ****  * is maintained.  The QueuePointers_t and SemaphoreData_t types are used to form
  62:../../../../dependencies/freertos/FreeRTOSv10.4.1/FreeRTOS/Source/queue.c ****  * a union as their usage is mutually exclusive dependent on what the queue is
  63:../../../../dependencies/freertos/FreeRTOSv10.4.1/FreeRTOS/Source/queue.c ****  * being used for. */
  64:../../../../dependencies/freertos/FreeRTOSv10.4.1/FreeRTOS/Source/queue.c **** #define uxQueueType               pcHead
  65:../../../../dependencies/freertos/FreeRTOSv10.4.1/FreeRTOS/Source/queue.c **** #define queueQUEUE_IS_MUTEX       NULL
  66:../../../../dependencies/freertos/FreeRTOSv10.4.1/FreeRTOS/Source/queue.c **** 
  67:../../../../dependencies/freertos/FreeRTOSv10.4.1/FreeRTOS/Source/queue.c **** typedef struct QueuePointers
  68:../../../../dependencies/freertos/FreeRTOSv10.4.1/FreeRTOS/Source/queue.c **** {
  69:../../../../dependencies/freertos/FreeRTOSv10.4.1/FreeRTOS/Source/queue.c ****     int8_t * pcTail;     /*< Points to the byte at the end of the queue storage area.  Once more by
  70:../../../../dependencies/freertos/FreeRTOSv10.4.1/FreeRTOS/Source/queue.c ****     int8_t * pcReadFrom; /*< Points to the last place that a queued item was read from when the str
  71:../../../../dependencies/freertos/FreeRTOSv10.4.1/FreeRTOS/Source/queue.c **** } QueuePointers_t;
  72:../../../../dependencies/freertos/FreeRTOSv10.4.1/FreeRTOS/Source/queue.c **** 
  73:../../../../dependencies/freertos/FreeRTOSv10.4.1/FreeRTOS/Source/queue.c **** typedef struct SemaphoreData
  74:../../../../dependencies/freertos/FreeRTOSv10.4.1/FreeRTOS/Source/queue.c **** {
  75:../../../../dependencies/freertos/FreeRTOSv10.4.1/FreeRTOS/Source/queue.c ****     TaskHandle_t xMutexHolder;        /*< The handle of the task that holds the mutex. */
  76:../../../../dependencies/freertos/FreeRTOSv10.4.1/FreeRTOS/Source/queue.c ****     UBaseType_t uxRecursiveCallCount; /*< Maintains a count of the number of times a recursive mute
  77:../../../../dependencies/freertos/FreeRTOSv10.4.1/FreeRTOS/Source/queue.c **** } SemaphoreData_t;
  78:../../../../dependencies/freertos/FreeRTOSv10.4.1/FreeRTOS/Source/queue.c **** 
  79:../../../../dependencies/freertos/FreeRTOSv10.4.1/FreeRTOS/Source/queue.c **** /* Semaphores do not actually store or copy data, so have an item size of
  80:../../../../dependencies/freertos/FreeRTOSv10.4.1/FreeRTOS/Source/queue.c ****  * zero. */
  81:../../../../dependencies/freertos/FreeRTOSv10.4.1/FreeRTOS/Source/queue.c **** #define queueSEMAPHORE_QUEUE_ITEM_LENGTH    ( ( UBaseType_t ) 0 )
  82:../../../../dependencies/freertos/FreeRTOSv10.4.1/FreeRTOS/Source/queue.c **** #define queueMUTEX_GIVE_BLOCK_TIME          ( ( TickType_t ) 0U )
  83:../../../../dependencies/freertos/FreeRTOSv10.4.1/FreeRTOS/Source/queue.c **** 
  84:../../../../dependencies/freertos/FreeRTOSv10.4.1/FreeRTOS/Source/queue.c **** #if ( configUSE_PREEMPTION == 0 )
  85:../../../../dependencies/freertos/FreeRTOSv10.4.1/FreeRTOS/Source/queue.c **** 
  86:../../../../dependencies/freertos/FreeRTOSv10.4.1/FreeRTOS/Source/queue.c **** /* If the cooperative scheduler is being used then a yield should not be
ARM GAS  /var/folders/kj/yzqgq53j3dg15vgwwwwgf5s00000gn/T//ccGgwidk.s 			page 3


  87:../../../../dependencies/freertos/FreeRTOSv10.4.1/FreeRTOS/Source/queue.c ****  * performed just because a higher priority task has been woken. */
  88:../../../../dependencies/freertos/FreeRTOSv10.4.1/FreeRTOS/Source/queue.c ****     #define queueYIELD_IF_USING_PREEMPTION()
  89:../../../../dependencies/freertos/FreeRTOSv10.4.1/FreeRTOS/Source/queue.c **** #else
  90:../../../../dependencies/freertos/FreeRTOSv10.4.1/FreeRTOS/Source/queue.c ****     #define queueYIELD_IF_USING_PREEMPTION()    portYIELD_WITHIN_API()
  91:../../../../dependencies/freertos/FreeRTOSv10.4.1/FreeRTOS/Source/queue.c **** #endif
  92:../../../../dependencies/freertos/FreeRTOSv10.4.1/FreeRTOS/Source/queue.c **** 
  93:../../../../dependencies/freertos/FreeRTOSv10.4.1/FreeRTOS/Source/queue.c **** /*
  94:../../../../dependencies/freertos/FreeRTOSv10.4.1/FreeRTOS/Source/queue.c ****  * Definition of the queue used by the scheduler.
  95:../../../../dependencies/freertos/FreeRTOSv10.4.1/FreeRTOS/Source/queue.c ****  * Items are queued by copy, not reference.  See the following link for the
  96:../../../../dependencies/freertos/FreeRTOSv10.4.1/FreeRTOS/Source/queue.c ****  * rationale: https://www.FreeRTOS.org/Embedded-RTOS-Queues.html
  97:../../../../dependencies/freertos/FreeRTOSv10.4.1/FreeRTOS/Source/queue.c ****  */
  98:../../../../dependencies/freertos/FreeRTOSv10.4.1/FreeRTOS/Source/queue.c **** typedef struct QueueDefinition /* The old naming convention is used to prevent breaking kernel awar
  99:../../../../dependencies/freertos/FreeRTOSv10.4.1/FreeRTOS/Source/queue.c **** {
 100:../../../../dependencies/freertos/FreeRTOSv10.4.1/FreeRTOS/Source/queue.c ****     int8_t * pcHead;           /*< Points to the beginning of the queue storage area. */
 101:../../../../dependencies/freertos/FreeRTOSv10.4.1/FreeRTOS/Source/queue.c ****     int8_t * pcWriteTo;        /*< Points to the free next place in the storage area. */
 102:../../../../dependencies/freertos/FreeRTOSv10.4.1/FreeRTOS/Source/queue.c **** 
 103:../../../../dependencies/freertos/FreeRTOSv10.4.1/FreeRTOS/Source/queue.c ****     union
 104:../../../../dependencies/freertos/FreeRTOSv10.4.1/FreeRTOS/Source/queue.c ****     {
 105:../../../../dependencies/freertos/FreeRTOSv10.4.1/FreeRTOS/Source/queue.c ****         QueuePointers_t xQueue;     /*< Data required exclusively when this structure is used as a 
 106:../../../../dependencies/freertos/FreeRTOSv10.4.1/FreeRTOS/Source/queue.c ****         SemaphoreData_t xSemaphore; /*< Data required exclusively when this structure is used as a 
 107:../../../../dependencies/freertos/FreeRTOSv10.4.1/FreeRTOS/Source/queue.c ****     } u;
 108:../../../../dependencies/freertos/FreeRTOSv10.4.1/FreeRTOS/Source/queue.c **** 
 109:../../../../dependencies/freertos/FreeRTOSv10.4.1/FreeRTOS/Source/queue.c ****     List_t xTasksWaitingToSend;             /*< List of tasks that are blocked waiting to post onto
 110:../../../../dependencies/freertos/FreeRTOSv10.4.1/FreeRTOS/Source/queue.c ****     List_t xTasksWaitingToReceive;          /*< List of tasks that are blocked waiting to read from
 111:../../../../dependencies/freertos/FreeRTOSv10.4.1/FreeRTOS/Source/queue.c **** 
 112:../../../../dependencies/freertos/FreeRTOSv10.4.1/FreeRTOS/Source/queue.c ****     volatile UBaseType_t uxMessagesWaiting; /*< The number of items currently in the queue. */
 113:../../../../dependencies/freertos/FreeRTOSv10.4.1/FreeRTOS/Source/queue.c ****     UBaseType_t uxLength;                   /*< The length of the queue defined as the number of it
 114:../../../../dependencies/freertos/FreeRTOSv10.4.1/FreeRTOS/Source/queue.c ****     UBaseType_t uxItemSize;                 /*< The size of each items that the queue will hold. */
 115:../../../../dependencies/freertos/FreeRTOSv10.4.1/FreeRTOS/Source/queue.c **** 
 116:../../../../dependencies/freertos/FreeRTOSv10.4.1/FreeRTOS/Source/queue.c ****     volatile int8_t cRxLock;                /*< Stores the number of items received from the queue 
 117:../../../../dependencies/freertos/FreeRTOSv10.4.1/FreeRTOS/Source/queue.c ****     volatile int8_t cTxLock;                /*< Stores the number of items transmitted to the queue
 118:../../../../dependencies/freertos/FreeRTOSv10.4.1/FreeRTOS/Source/queue.c **** 
 119:../../../../dependencies/freertos/FreeRTOSv10.4.1/FreeRTOS/Source/queue.c ****     #if ( ( configSUPPORT_STATIC_ALLOCATION == 1 ) && ( configSUPPORT_DYNAMIC_ALLOCATION == 1 ) )
 120:../../../../dependencies/freertos/FreeRTOSv10.4.1/FreeRTOS/Source/queue.c ****         uint8_t ucStaticallyAllocated; /*< Set to pdTRUE if the memory used by the queue was static
 121:../../../../dependencies/freertos/FreeRTOSv10.4.1/FreeRTOS/Source/queue.c ****     #endif
 122:../../../../dependencies/freertos/FreeRTOSv10.4.1/FreeRTOS/Source/queue.c **** 
 123:../../../../dependencies/freertos/FreeRTOSv10.4.1/FreeRTOS/Source/queue.c ****     #if ( configUSE_QUEUE_SETS == 1 )
 124:../../../../dependencies/freertos/FreeRTOSv10.4.1/FreeRTOS/Source/queue.c ****         struct QueueDefinition * pxQueueSetContainer;
 125:../../../../dependencies/freertos/FreeRTOSv10.4.1/FreeRTOS/Source/queue.c ****     #endif
 126:../../../../dependencies/freertos/FreeRTOSv10.4.1/FreeRTOS/Source/queue.c **** 
 127:../../../../dependencies/freertos/FreeRTOSv10.4.1/FreeRTOS/Source/queue.c ****     #if ( configUSE_TRACE_FACILITY == 1 )
 128:../../../../dependencies/freertos/FreeRTOSv10.4.1/FreeRTOS/Source/queue.c ****         UBaseType_t uxQueueNumber;
 129:../../../../dependencies/freertos/FreeRTOSv10.4.1/FreeRTOS/Source/queue.c ****         uint8_t ucQueueType;
 130:../../../../dependencies/freertos/FreeRTOSv10.4.1/FreeRTOS/Source/queue.c ****     #endif
 131:../../../../dependencies/freertos/FreeRTOSv10.4.1/FreeRTOS/Source/queue.c **** } xQUEUE;
 132:../../../../dependencies/freertos/FreeRTOSv10.4.1/FreeRTOS/Source/queue.c **** 
 133:../../../../dependencies/freertos/FreeRTOSv10.4.1/FreeRTOS/Source/queue.c **** /* The old xQUEUE name is maintained above then typedefed to the new Queue_t
 134:../../../../dependencies/freertos/FreeRTOSv10.4.1/FreeRTOS/Source/queue.c ****  * name below to enable the use of older kernel aware debuggers. */
 135:../../../../dependencies/freertos/FreeRTOSv10.4.1/FreeRTOS/Source/queue.c **** typedef xQUEUE Queue_t;
 136:../../../../dependencies/freertos/FreeRTOSv10.4.1/FreeRTOS/Source/queue.c **** 
 137:../../../../dependencies/freertos/FreeRTOSv10.4.1/FreeRTOS/Source/queue.c **** /*-----------------------------------------------------------*/
 138:../../../../dependencies/freertos/FreeRTOSv10.4.1/FreeRTOS/Source/queue.c **** 
 139:../../../../dependencies/freertos/FreeRTOSv10.4.1/FreeRTOS/Source/queue.c **** /*
 140:../../../../dependencies/freertos/FreeRTOSv10.4.1/FreeRTOS/Source/queue.c ****  * The queue registry is just a means for kernel aware debuggers to locate
 141:../../../../dependencies/freertos/FreeRTOSv10.4.1/FreeRTOS/Source/queue.c ****  * queue structures.  It has no other purpose so is an optional component.
 142:../../../../dependencies/freertos/FreeRTOSv10.4.1/FreeRTOS/Source/queue.c ****  */
 143:../../../../dependencies/freertos/FreeRTOSv10.4.1/FreeRTOS/Source/queue.c **** #if ( configQUEUE_REGISTRY_SIZE > 0 )
ARM GAS  /var/folders/kj/yzqgq53j3dg15vgwwwwgf5s00000gn/T//ccGgwidk.s 			page 4


 144:../../../../dependencies/freertos/FreeRTOSv10.4.1/FreeRTOS/Source/queue.c **** 
 145:../../../../dependencies/freertos/FreeRTOSv10.4.1/FreeRTOS/Source/queue.c **** /* The type stored within the queue registry array.  This allows a name
 146:../../../../dependencies/freertos/FreeRTOSv10.4.1/FreeRTOS/Source/queue.c ****  * to be assigned to each queue making kernel aware debugging a little
 147:../../../../dependencies/freertos/FreeRTOSv10.4.1/FreeRTOS/Source/queue.c ****  * more user friendly. */
 148:../../../../dependencies/freertos/FreeRTOSv10.4.1/FreeRTOS/Source/queue.c ****     typedef struct QUEUE_REGISTRY_ITEM
 149:../../../../dependencies/freertos/FreeRTOSv10.4.1/FreeRTOS/Source/queue.c ****     {
 150:../../../../dependencies/freertos/FreeRTOSv10.4.1/FreeRTOS/Source/queue.c ****         const char * pcQueueName; /*lint !e971 Unqualified char types are allowed for strings and s
 151:../../../../dependencies/freertos/FreeRTOSv10.4.1/FreeRTOS/Source/queue.c ****         QueueHandle_t xHandle;
 152:../../../../dependencies/freertos/FreeRTOSv10.4.1/FreeRTOS/Source/queue.c ****     } xQueueRegistryItem;
 153:../../../../dependencies/freertos/FreeRTOSv10.4.1/FreeRTOS/Source/queue.c **** 
 154:../../../../dependencies/freertos/FreeRTOSv10.4.1/FreeRTOS/Source/queue.c **** /* The old xQueueRegistryItem name is maintained above then typedefed to the
 155:../../../../dependencies/freertos/FreeRTOSv10.4.1/FreeRTOS/Source/queue.c ****  * new xQueueRegistryItem name below to enable the use of older kernel aware
 156:../../../../dependencies/freertos/FreeRTOSv10.4.1/FreeRTOS/Source/queue.c ****  * debuggers. */
 157:../../../../dependencies/freertos/FreeRTOSv10.4.1/FreeRTOS/Source/queue.c ****     typedef xQueueRegistryItem QueueRegistryItem_t;
 158:../../../../dependencies/freertos/FreeRTOSv10.4.1/FreeRTOS/Source/queue.c **** 
 159:../../../../dependencies/freertos/FreeRTOSv10.4.1/FreeRTOS/Source/queue.c **** /* The queue registry is simply an array of QueueRegistryItem_t structures.
 160:../../../../dependencies/freertos/FreeRTOSv10.4.1/FreeRTOS/Source/queue.c ****  * The pcQueueName member of a structure being NULL is indicative of the
 161:../../../../dependencies/freertos/FreeRTOSv10.4.1/FreeRTOS/Source/queue.c ****  * array position being vacant. */
 162:../../../../dependencies/freertos/FreeRTOSv10.4.1/FreeRTOS/Source/queue.c ****     PRIVILEGED_DATA QueueRegistryItem_t xQueueRegistry[ configQUEUE_REGISTRY_SIZE ];
 163:../../../../dependencies/freertos/FreeRTOSv10.4.1/FreeRTOS/Source/queue.c **** 
 164:../../../../dependencies/freertos/FreeRTOSv10.4.1/FreeRTOS/Source/queue.c **** #endif /* configQUEUE_REGISTRY_SIZE */
 165:../../../../dependencies/freertos/FreeRTOSv10.4.1/FreeRTOS/Source/queue.c **** 
 166:../../../../dependencies/freertos/FreeRTOSv10.4.1/FreeRTOS/Source/queue.c **** /*
 167:../../../../dependencies/freertos/FreeRTOSv10.4.1/FreeRTOS/Source/queue.c ****  * Unlocks a queue locked by a call to prvLockQueue.  Locking a queue does not
 168:../../../../dependencies/freertos/FreeRTOSv10.4.1/FreeRTOS/Source/queue.c ****  * prevent an ISR from adding or removing items to the queue, but does prevent
 169:../../../../dependencies/freertos/FreeRTOSv10.4.1/FreeRTOS/Source/queue.c ****  * an ISR from removing tasks from the queue event lists.  If an ISR finds a
 170:../../../../dependencies/freertos/FreeRTOSv10.4.1/FreeRTOS/Source/queue.c ****  * queue is locked it will instead increment the appropriate queue lock count
 171:../../../../dependencies/freertos/FreeRTOSv10.4.1/FreeRTOS/Source/queue.c ****  * to indicate that a task may require unblocking.  When the queue in unlocked
 172:../../../../dependencies/freertos/FreeRTOSv10.4.1/FreeRTOS/Source/queue.c ****  * these lock counts are inspected, and the appropriate action taken.
 173:../../../../dependencies/freertos/FreeRTOSv10.4.1/FreeRTOS/Source/queue.c ****  */
 174:../../../../dependencies/freertos/FreeRTOSv10.4.1/FreeRTOS/Source/queue.c **** static void prvUnlockQueue( Queue_t * const pxQueue ) PRIVILEGED_FUNCTION;
 175:../../../../dependencies/freertos/FreeRTOSv10.4.1/FreeRTOS/Source/queue.c **** 
 176:../../../../dependencies/freertos/FreeRTOSv10.4.1/FreeRTOS/Source/queue.c **** /*
 177:../../../../dependencies/freertos/FreeRTOSv10.4.1/FreeRTOS/Source/queue.c ****  * Uses a critical section to determine if there is any data in a queue.
 178:../../../../dependencies/freertos/FreeRTOSv10.4.1/FreeRTOS/Source/queue.c ****  *
 179:../../../../dependencies/freertos/FreeRTOSv10.4.1/FreeRTOS/Source/queue.c ****  * @return pdTRUE if the queue contains no items, otherwise pdFALSE.
 180:../../../../dependencies/freertos/FreeRTOSv10.4.1/FreeRTOS/Source/queue.c ****  */
 181:../../../../dependencies/freertos/FreeRTOSv10.4.1/FreeRTOS/Source/queue.c **** static BaseType_t prvIsQueueEmpty( const Queue_t * pxQueue ) PRIVILEGED_FUNCTION;
 182:../../../../dependencies/freertos/FreeRTOSv10.4.1/FreeRTOS/Source/queue.c **** 
 183:../../../../dependencies/freertos/FreeRTOSv10.4.1/FreeRTOS/Source/queue.c **** /*
 184:../../../../dependencies/freertos/FreeRTOSv10.4.1/FreeRTOS/Source/queue.c ****  * Uses a critical section to determine if there is any space in a queue.
 185:../../../../dependencies/freertos/FreeRTOSv10.4.1/FreeRTOS/Source/queue.c ****  *
 186:../../../../dependencies/freertos/FreeRTOSv10.4.1/FreeRTOS/Source/queue.c ****  * @return pdTRUE if there is no space, otherwise pdFALSE;
 187:../../../../dependencies/freertos/FreeRTOSv10.4.1/FreeRTOS/Source/queue.c ****  */
 188:../../../../dependencies/freertos/FreeRTOSv10.4.1/FreeRTOS/Source/queue.c **** static BaseType_t prvIsQueueFull( const Queue_t * pxQueue ) PRIVILEGED_FUNCTION;
 189:../../../../dependencies/freertos/FreeRTOSv10.4.1/FreeRTOS/Source/queue.c **** 
 190:../../../../dependencies/freertos/FreeRTOSv10.4.1/FreeRTOS/Source/queue.c **** /*
 191:../../../../dependencies/freertos/FreeRTOSv10.4.1/FreeRTOS/Source/queue.c ****  * Copies an item into the queue, either at the front of the queue or the
 192:../../../../dependencies/freertos/FreeRTOSv10.4.1/FreeRTOS/Source/queue.c ****  * back of the queue.
 193:../../../../dependencies/freertos/FreeRTOSv10.4.1/FreeRTOS/Source/queue.c ****  */
 194:../../../../dependencies/freertos/FreeRTOSv10.4.1/FreeRTOS/Source/queue.c **** static BaseType_t prvCopyDataToQueue( Queue_t * const pxQueue,
 195:../../../../dependencies/freertos/FreeRTOSv10.4.1/FreeRTOS/Source/queue.c ****                                       const void * pvItemToQueue,
 196:../../../../dependencies/freertos/FreeRTOSv10.4.1/FreeRTOS/Source/queue.c ****                                       const BaseType_t xPosition ) PRIVILEGED_FUNCTION;
 197:../../../../dependencies/freertos/FreeRTOSv10.4.1/FreeRTOS/Source/queue.c **** 
 198:../../../../dependencies/freertos/FreeRTOSv10.4.1/FreeRTOS/Source/queue.c **** /*
 199:../../../../dependencies/freertos/FreeRTOSv10.4.1/FreeRTOS/Source/queue.c ****  * Copies an item out of a queue.
 200:../../../../dependencies/freertos/FreeRTOSv10.4.1/FreeRTOS/Source/queue.c ****  */
ARM GAS  /var/folders/kj/yzqgq53j3dg15vgwwwwgf5s00000gn/T//ccGgwidk.s 			page 5


 201:../../../../dependencies/freertos/FreeRTOSv10.4.1/FreeRTOS/Source/queue.c **** static void prvCopyDataFromQueue( Queue_t * const pxQueue,
 202:../../../../dependencies/freertos/FreeRTOSv10.4.1/FreeRTOS/Source/queue.c ****                                   void * const pvBuffer ) PRIVILEGED_FUNCTION;
 203:../../../../dependencies/freertos/FreeRTOSv10.4.1/FreeRTOS/Source/queue.c **** 
 204:../../../../dependencies/freertos/FreeRTOSv10.4.1/FreeRTOS/Source/queue.c **** #if ( configUSE_QUEUE_SETS == 1 )
 205:../../../../dependencies/freertos/FreeRTOSv10.4.1/FreeRTOS/Source/queue.c **** 
 206:../../../../dependencies/freertos/FreeRTOSv10.4.1/FreeRTOS/Source/queue.c **** /*
 207:../../../../dependencies/freertos/FreeRTOSv10.4.1/FreeRTOS/Source/queue.c ****  * Checks to see if a queue is a member of a queue set, and if so, notifies
 208:../../../../dependencies/freertos/FreeRTOSv10.4.1/FreeRTOS/Source/queue.c ****  * the queue set that the queue contains data.
 209:../../../../dependencies/freertos/FreeRTOSv10.4.1/FreeRTOS/Source/queue.c ****  */
 210:../../../../dependencies/freertos/FreeRTOSv10.4.1/FreeRTOS/Source/queue.c ****     static BaseType_t prvNotifyQueueSetContainer( const Queue_t * const pxQueue ) PRIVILEGED_FUNCTI
 211:../../../../dependencies/freertos/FreeRTOSv10.4.1/FreeRTOS/Source/queue.c **** #endif
 212:../../../../dependencies/freertos/FreeRTOSv10.4.1/FreeRTOS/Source/queue.c **** 
 213:../../../../dependencies/freertos/FreeRTOSv10.4.1/FreeRTOS/Source/queue.c **** /*
 214:../../../../dependencies/freertos/FreeRTOSv10.4.1/FreeRTOS/Source/queue.c ****  * Called after a Queue_t structure has been allocated either statically or
 215:../../../../dependencies/freertos/FreeRTOSv10.4.1/FreeRTOS/Source/queue.c ****  * dynamically to fill in the structure's members.
 216:../../../../dependencies/freertos/FreeRTOSv10.4.1/FreeRTOS/Source/queue.c ****  */
 217:../../../../dependencies/freertos/FreeRTOSv10.4.1/FreeRTOS/Source/queue.c **** static void prvInitialiseNewQueue( const UBaseType_t uxQueueLength,
 218:../../../../dependencies/freertos/FreeRTOSv10.4.1/FreeRTOS/Source/queue.c ****                                    const UBaseType_t uxItemSize,
 219:../../../../dependencies/freertos/FreeRTOSv10.4.1/FreeRTOS/Source/queue.c ****                                    uint8_t * pucQueueStorage,
 220:../../../../dependencies/freertos/FreeRTOSv10.4.1/FreeRTOS/Source/queue.c ****                                    const uint8_t ucQueueType,
 221:../../../../dependencies/freertos/FreeRTOSv10.4.1/FreeRTOS/Source/queue.c ****                                    Queue_t * pxNewQueue ) PRIVILEGED_FUNCTION;
 222:../../../../dependencies/freertos/FreeRTOSv10.4.1/FreeRTOS/Source/queue.c **** 
 223:../../../../dependencies/freertos/FreeRTOSv10.4.1/FreeRTOS/Source/queue.c **** /*
 224:../../../../dependencies/freertos/FreeRTOSv10.4.1/FreeRTOS/Source/queue.c ****  * Mutexes are a special type of queue.  When a mutex is created, first the
 225:../../../../dependencies/freertos/FreeRTOSv10.4.1/FreeRTOS/Source/queue.c ****  * queue is created, then prvInitialiseMutex() is called to configure the queue
 226:../../../../dependencies/freertos/FreeRTOSv10.4.1/FreeRTOS/Source/queue.c ****  * as a mutex.
 227:../../../../dependencies/freertos/FreeRTOSv10.4.1/FreeRTOS/Source/queue.c ****  */
 228:../../../../dependencies/freertos/FreeRTOSv10.4.1/FreeRTOS/Source/queue.c **** #if ( configUSE_MUTEXES == 1 )
 229:../../../../dependencies/freertos/FreeRTOSv10.4.1/FreeRTOS/Source/queue.c ****     static void prvInitialiseMutex( Queue_t * pxNewQueue ) PRIVILEGED_FUNCTION;
 230:../../../../dependencies/freertos/FreeRTOSv10.4.1/FreeRTOS/Source/queue.c **** #endif
 231:../../../../dependencies/freertos/FreeRTOSv10.4.1/FreeRTOS/Source/queue.c **** 
 232:../../../../dependencies/freertos/FreeRTOSv10.4.1/FreeRTOS/Source/queue.c **** #if ( configUSE_MUTEXES == 1 )
 233:../../../../dependencies/freertos/FreeRTOSv10.4.1/FreeRTOS/Source/queue.c **** 
 234:../../../../dependencies/freertos/FreeRTOSv10.4.1/FreeRTOS/Source/queue.c **** /*
 235:../../../../dependencies/freertos/FreeRTOSv10.4.1/FreeRTOS/Source/queue.c ****  * If a task waiting for a mutex causes the mutex holder to inherit a
 236:../../../../dependencies/freertos/FreeRTOSv10.4.1/FreeRTOS/Source/queue.c ****  * priority, but the waiting task times out, then the holder should
 237:../../../../dependencies/freertos/FreeRTOSv10.4.1/FreeRTOS/Source/queue.c ****  * disinherit the priority - but only down to the highest priority of any
 238:../../../../dependencies/freertos/FreeRTOSv10.4.1/FreeRTOS/Source/queue.c ****  * other tasks that are waiting for the same mutex.  This function returns
 239:../../../../dependencies/freertos/FreeRTOSv10.4.1/FreeRTOS/Source/queue.c ****  * that priority.
 240:../../../../dependencies/freertos/FreeRTOSv10.4.1/FreeRTOS/Source/queue.c ****  */
 241:../../../../dependencies/freertos/FreeRTOSv10.4.1/FreeRTOS/Source/queue.c ****     static UBaseType_t prvGetDisinheritPriorityAfterTimeout( const Queue_t * const pxQueue ) PRIVIL
 242:../../../../dependencies/freertos/FreeRTOSv10.4.1/FreeRTOS/Source/queue.c **** #endif
 243:../../../../dependencies/freertos/FreeRTOSv10.4.1/FreeRTOS/Source/queue.c **** /*-----------------------------------------------------------*/
 244:../../../../dependencies/freertos/FreeRTOSv10.4.1/FreeRTOS/Source/queue.c **** 
 245:../../../../dependencies/freertos/FreeRTOSv10.4.1/FreeRTOS/Source/queue.c **** /*
 246:../../../../dependencies/freertos/FreeRTOSv10.4.1/FreeRTOS/Source/queue.c ****  * Macro to mark a queue as locked.  Locking a queue prevents an ISR from
 247:../../../../dependencies/freertos/FreeRTOSv10.4.1/FreeRTOS/Source/queue.c ****  * accessing the queue event lists.
 248:../../../../dependencies/freertos/FreeRTOSv10.4.1/FreeRTOS/Source/queue.c ****  */
 249:../../../../dependencies/freertos/FreeRTOSv10.4.1/FreeRTOS/Source/queue.c **** #define prvLockQueue( pxQueue )                            \
 250:../../../../dependencies/freertos/FreeRTOSv10.4.1/FreeRTOS/Source/queue.c ****     taskENTER_CRITICAL();                                  \
 251:../../../../dependencies/freertos/FreeRTOSv10.4.1/FreeRTOS/Source/queue.c ****     {                                                      \
 252:../../../../dependencies/freertos/FreeRTOSv10.4.1/FreeRTOS/Source/queue.c ****         if( ( pxQueue )->cRxLock == queueUNLOCKED )        \
 253:../../../../dependencies/freertos/FreeRTOSv10.4.1/FreeRTOS/Source/queue.c ****         {                                                  \
 254:../../../../dependencies/freertos/FreeRTOSv10.4.1/FreeRTOS/Source/queue.c ****             ( pxQueue )->cRxLock = queueLOCKED_UNMODIFIED; \
 255:../../../../dependencies/freertos/FreeRTOSv10.4.1/FreeRTOS/Source/queue.c ****         }                                                  \
 256:../../../../dependencies/freertos/FreeRTOSv10.4.1/FreeRTOS/Source/queue.c ****         if( ( pxQueue )->cTxLock == queueUNLOCKED )        \
 257:../../../../dependencies/freertos/FreeRTOSv10.4.1/FreeRTOS/Source/queue.c ****         {                                                  \
ARM GAS  /var/folders/kj/yzqgq53j3dg15vgwwwwgf5s00000gn/T//ccGgwidk.s 			page 6


 258:../../../../dependencies/freertos/FreeRTOSv10.4.1/FreeRTOS/Source/queue.c ****             ( pxQueue )->cTxLock = queueLOCKED_UNMODIFIED; \
 259:../../../../dependencies/freertos/FreeRTOSv10.4.1/FreeRTOS/Source/queue.c ****         }                                                  \
 260:../../../../dependencies/freertos/FreeRTOSv10.4.1/FreeRTOS/Source/queue.c ****     }                                                      \
 261:../../../../dependencies/freertos/FreeRTOSv10.4.1/FreeRTOS/Source/queue.c ****     taskEXIT_CRITICAL()
 262:../../../../dependencies/freertos/FreeRTOSv10.4.1/FreeRTOS/Source/queue.c **** /*-----------------------------------------------------------*/
 263:../../../../dependencies/freertos/FreeRTOSv10.4.1/FreeRTOS/Source/queue.c **** 
 264:../../../../dependencies/freertos/FreeRTOSv10.4.1/FreeRTOS/Source/queue.c **** BaseType_t xQueueGenericReset( QueueHandle_t xQueue,
 265:../../../../dependencies/freertos/FreeRTOSv10.4.1/FreeRTOS/Source/queue.c ****                                BaseType_t xNewQueue )
 266:../../../../dependencies/freertos/FreeRTOSv10.4.1/FreeRTOS/Source/queue.c **** {
  30              		.loc 1 266 1
  31              		.cfi_startproc
  32              		@ args = 0, pretend = 0, frame = 16
  33              		@ frame_needed = 1, uses_anonymous_args = 0
  34 0000 80B5     		push	{r7, lr}
  35              	.LCFI0:
  36              		.cfi_def_cfa_offset 8
  37              		.cfi_offset 7, -8
  38              		.cfi_offset 14, -4
  39 0002 84B0     		sub	sp, sp, #16
  40              	.LCFI1:
  41              		.cfi_def_cfa_offset 24
  42 0004 00AF     		add	r7, sp, #0
  43              	.LCFI2:
  44              		.cfi_def_cfa_register 7
  45 0006 7860     		str	r0, [r7, #4]
  46 0008 3960     		str	r1, [r7]
 267:../../../../dependencies/freertos/FreeRTOSv10.4.1/FreeRTOS/Source/queue.c ****     Queue_t * const pxQueue = xQueue;
  47              		.loc 1 267 21
  48 000a 7B68     		ldr	r3, [r7, #4]
  49 000c FB60     		str	r3, [r7, #12]
 268:../../../../dependencies/freertos/FreeRTOSv10.4.1/FreeRTOS/Source/queue.c **** 
 269:../../../../dependencies/freertos/FreeRTOSv10.4.1/FreeRTOS/Source/queue.c ****     configASSERT( pxQueue );
  50              		.loc 1 269 5
  51 000e FB68     		ldr	r3, [r7, #12]
  52 0010 002B     		cmp	r3, #0
  53 0012 0AD1     		bne	.L2
  54              	.LBB111:
  55              	.LBB112:
  56              		.file 2 "../../../../dependencies/freertos/FreeRTOSv10.4.1/FreeRTOS/Source/portable/GCC/ARM_CM4F/p
   1:../../../../dependencies/freertos/FreeRTOSv10.4.1/FreeRTOS/Source/portable/GCC/ARM_CM4F/portmacro.h **** /*
   2:../../../../dependencies/freertos/FreeRTOSv10.4.1/FreeRTOS/Source/portable/GCC/ARM_CM4F/portmacro.h ****  * FreeRTOS Kernel V10.4.1
   3:../../../../dependencies/freertos/FreeRTOSv10.4.1/FreeRTOS/Source/portable/GCC/ARM_CM4F/portmacro.h ****  * Copyright (C) 2020 Amazon.com, Inc. or its affiliates.  All Rights Reserved.
   4:../../../../dependencies/freertos/FreeRTOSv10.4.1/FreeRTOS/Source/portable/GCC/ARM_CM4F/portmacro.h ****  *
   5:../../../../dependencies/freertos/FreeRTOSv10.4.1/FreeRTOS/Source/portable/GCC/ARM_CM4F/portmacro.h ****  * Permission is hereby granted, free of charge, to any person obtaining a copy of
   6:../../../../dependencies/freertos/FreeRTOSv10.4.1/FreeRTOS/Source/portable/GCC/ARM_CM4F/portmacro.h ****  * this software and associated documentation files (the "Software"), to deal in
   7:../../../../dependencies/freertos/FreeRTOSv10.4.1/FreeRTOS/Source/portable/GCC/ARM_CM4F/portmacro.h ****  * the Software without restriction, including without limitation the rights to
   8:../../../../dependencies/freertos/FreeRTOSv10.4.1/FreeRTOS/Source/portable/GCC/ARM_CM4F/portmacro.h ****  * use, copy, modify, merge, publish, distribute, sublicense, and/or sell copies of
   9:../../../../dependencies/freertos/FreeRTOSv10.4.1/FreeRTOS/Source/portable/GCC/ARM_CM4F/portmacro.h ****  * the Software, and to permit persons to whom the Software is furnished to do so,
  10:../../../../dependencies/freertos/FreeRTOSv10.4.1/FreeRTOS/Source/portable/GCC/ARM_CM4F/portmacro.h ****  * subject to the following conditions:
  11:../../../../dependencies/freertos/FreeRTOSv10.4.1/FreeRTOS/Source/portable/GCC/ARM_CM4F/portmacro.h ****  *
  12:../../../../dependencies/freertos/FreeRTOSv10.4.1/FreeRTOS/Source/portable/GCC/ARM_CM4F/portmacro.h ****  * The above copyright notice and this permission notice shall be included in all
  13:../../../../dependencies/freertos/FreeRTOSv10.4.1/FreeRTOS/Source/portable/GCC/ARM_CM4F/portmacro.h ****  * copies or substantial portions of the Software.
  14:../../../../dependencies/freertos/FreeRTOSv10.4.1/FreeRTOS/Source/portable/GCC/ARM_CM4F/portmacro.h ****  *
  15:../../../../dependencies/freertos/FreeRTOSv10.4.1/FreeRTOS/Source/portable/GCC/ARM_CM4F/portmacro.h ****  * THE SOFTWARE IS PROVIDED "AS IS", WITHOUT WARRANTY OF ANY KIND, EXPRESS OR
  16:../../../../dependencies/freertos/FreeRTOSv10.4.1/FreeRTOS/Source/portable/GCC/ARM_CM4F/portmacro.h ****  * IMPLIED, INCLUDING BUT NOT LIMITED TO THE WARRANTIES OF MERCHANTABILITY, FITNESS
  17:../../../../dependencies/freertos/FreeRTOSv10.4.1/FreeRTOS/Source/portable/GCC/ARM_CM4F/portmacro.h ****  * FOR A PARTICULAR PURPOSE AND NONINFRINGEMENT. IN NO EVENT SHALL THE AUTHORS OR
  18:../../../../dependencies/freertos/FreeRTOSv10.4.1/FreeRTOS/Source/portable/GCC/ARM_CM4F/portmacro.h ****  * COPYRIGHT HOLDERS BE LIABLE FOR ANY CLAIM, DAMAGES OR OTHER LIABILITY, WHETHER
ARM GAS  /var/folders/kj/yzqgq53j3dg15vgwwwwgf5s00000gn/T//ccGgwidk.s 			page 7


  19:../../../../dependencies/freertos/FreeRTOSv10.4.1/FreeRTOS/Source/portable/GCC/ARM_CM4F/portmacro.h ****  * IN AN ACTION OF CONTRACT, TORT OR OTHERWISE, ARISING FROM, OUT OF OR IN
  20:../../../../dependencies/freertos/FreeRTOSv10.4.1/FreeRTOS/Source/portable/GCC/ARM_CM4F/portmacro.h ****  * CONNECTION WITH THE SOFTWARE OR THE USE OR OTHER DEALINGS IN THE SOFTWARE.
  21:../../../../dependencies/freertos/FreeRTOSv10.4.1/FreeRTOS/Source/portable/GCC/ARM_CM4F/portmacro.h ****  *
  22:../../../../dependencies/freertos/FreeRTOSv10.4.1/FreeRTOS/Source/portable/GCC/ARM_CM4F/portmacro.h ****  * https://www.FreeRTOS.org
  23:../../../../dependencies/freertos/FreeRTOSv10.4.1/FreeRTOS/Source/portable/GCC/ARM_CM4F/portmacro.h ****  * https://github.com/FreeRTOS
  24:../../../../dependencies/freertos/FreeRTOSv10.4.1/FreeRTOS/Source/portable/GCC/ARM_CM4F/portmacro.h ****  *
  25:../../../../dependencies/freertos/FreeRTOSv10.4.1/FreeRTOS/Source/portable/GCC/ARM_CM4F/portmacro.h ****  * 1 tab == 4 spaces!
  26:../../../../dependencies/freertos/FreeRTOSv10.4.1/FreeRTOS/Source/portable/GCC/ARM_CM4F/portmacro.h ****  */
  27:../../../../dependencies/freertos/FreeRTOSv10.4.1/FreeRTOS/Source/portable/GCC/ARM_CM4F/portmacro.h **** 
  28:../../../../dependencies/freertos/FreeRTOSv10.4.1/FreeRTOS/Source/portable/GCC/ARM_CM4F/portmacro.h **** 
  29:../../../../dependencies/freertos/FreeRTOSv10.4.1/FreeRTOS/Source/portable/GCC/ARM_CM4F/portmacro.h **** #ifndef PORTMACRO_H
  30:../../../../dependencies/freertos/FreeRTOSv10.4.1/FreeRTOS/Source/portable/GCC/ARM_CM4F/portmacro.h ****     #define PORTMACRO_H
  31:../../../../dependencies/freertos/FreeRTOSv10.4.1/FreeRTOS/Source/portable/GCC/ARM_CM4F/portmacro.h **** 
  32:../../../../dependencies/freertos/FreeRTOSv10.4.1/FreeRTOS/Source/portable/GCC/ARM_CM4F/portmacro.h ****     #ifdef __cplusplus
  33:../../../../dependencies/freertos/FreeRTOSv10.4.1/FreeRTOS/Source/portable/GCC/ARM_CM4F/portmacro.h ****         extern "C" {
  34:../../../../dependencies/freertos/FreeRTOSv10.4.1/FreeRTOS/Source/portable/GCC/ARM_CM4F/portmacro.h ****     #endif
  35:../../../../dependencies/freertos/FreeRTOSv10.4.1/FreeRTOS/Source/portable/GCC/ARM_CM4F/portmacro.h **** 
  36:../../../../dependencies/freertos/FreeRTOSv10.4.1/FreeRTOS/Source/portable/GCC/ARM_CM4F/portmacro.h **** /*-----------------------------------------------------------
  37:../../../../dependencies/freertos/FreeRTOSv10.4.1/FreeRTOS/Source/portable/GCC/ARM_CM4F/portmacro.h ****  * Port specific definitions.
  38:../../../../dependencies/freertos/FreeRTOSv10.4.1/FreeRTOS/Source/portable/GCC/ARM_CM4F/portmacro.h ****  *
  39:../../../../dependencies/freertos/FreeRTOSv10.4.1/FreeRTOS/Source/portable/GCC/ARM_CM4F/portmacro.h ****  * The settings in this file configure FreeRTOS correctly for the
  40:../../../../dependencies/freertos/FreeRTOSv10.4.1/FreeRTOS/Source/portable/GCC/ARM_CM4F/portmacro.h ****  * given hardware and compiler.
  41:../../../../dependencies/freertos/FreeRTOSv10.4.1/FreeRTOS/Source/portable/GCC/ARM_CM4F/portmacro.h ****  *
  42:../../../../dependencies/freertos/FreeRTOSv10.4.1/FreeRTOS/Source/portable/GCC/ARM_CM4F/portmacro.h ****  * These settings should not be altered.
  43:../../../../dependencies/freertos/FreeRTOSv10.4.1/FreeRTOS/Source/portable/GCC/ARM_CM4F/portmacro.h ****  *-----------------------------------------------------------
  44:../../../../dependencies/freertos/FreeRTOSv10.4.1/FreeRTOS/Source/portable/GCC/ARM_CM4F/portmacro.h ****  */
  45:../../../../dependencies/freertos/FreeRTOSv10.4.1/FreeRTOS/Source/portable/GCC/ARM_CM4F/portmacro.h **** 
  46:../../../../dependencies/freertos/FreeRTOSv10.4.1/FreeRTOS/Source/portable/GCC/ARM_CM4F/portmacro.h **** /* Type definitions. */
  47:../../../../dependencies/freertos/FreeRTOSv10.4.1/FreeRTOS/Source/portable/GCC/ARM_CM4F/portmacro.h ****     #define portCHAR          char
  48:../../../../dependencies/freertos/FreeRTOSv10.4.1/FreeRTOS/Source/portable/GCC/ARM_CM4F/portmacro.h ****     #define portFLOAT         float
  49:../../../../dependencies/freertos/FreeRTOSv10.4.1/FreeRTOS/Source/portable/GCC/ARM_CM4F/portmacro.h ****     #define portDOUBLE        double
  50:../../../../dependencies/freertos/FreeRTOSv10.4.1/FreeRTOS/Source/portable/GCC/ARM_CM4F/portmacro.h ****     #define portLONG          long
  51:../../../../dependencies/freertos/FreeRTOSv10.4.1/FreeRTOS/Source/portable/GCC/ARM_CM4F/portmacro.h ****     #define portSHORT         short
  52:../../../../dependencies/freertos/FreeRTOSv10.4.1/FreeRTOS/Source/portable/GCC/ARM_CM4F/portmacro.h ****     #define portSTACK_TYPE    uint32_t
  53:../../../../dependencies/freertos/FreeRTOSv10.4.1/FreeRTOS/Source/portable/GCC/ARM_CM4F/portmacro.h ****     #define portBASE_TYPE     long
  54:../../../../dependencies/freertos/FreeRTOSv10.4.1/FreeRTOS/Source/portable/GCC/ARM_CM4F/portmacro.h **** 
  55:../../../../dependencies/freertos/FreeRTOSv10.4.1/FreeRTOS/Source/portable/GCC/ARM_CM4F/portmacro.h ****     typedef portSTACK_TYPE   StackType_t;
  56:../../../../dependencies/freertos/FreeRTOSv10.4.1/FreeRTOS/Source/portable/GCC/ARM_CM4F/portmacro.h ****     typedef long             BaseType_t;
  57:../../../../dependencies/freertos/FreeRTOSv10.4.1/FreeRTOS/Source/portable/GCC/ARM_CM4F/portmacro.h ****     typedef unsigned long    UBaseType_t;
  58:../../../../dependencies/freertos/FreeRTOSv10.4.1/FreeRTOS/Source/portable/GCC/ARM_CM4F/portmacro.h **** 
  59:../../../../dependencies/freertos/FreeRTOSv10.4.1/FreeRTOS/Source/portable/GCC/ARM_CM4F/portmacro.h ****     #if ( configUSE_16_BIT_TICKS == 1 )
  60:../../../../dependencies/freertos/FreeRTOSv10.4.1/FreeRTOS/Source/portable/GCC/ARM_CM4F/portmacro.h ****         typedef uint16_t     TickType_t;
  61:../../../../dependencies/freertos/FreeRTOSv10.4.1/FreeRTOS/Source/portable/GCC/ARM_CM4F/portmacro.h ****         #define portMAX_DELAY              ( TickType_t ) 0xffff
  62:../../../../dependencies/freertos/FreeRTOSv10.4.1/FreeRTOS/Source/portable/GCC/ARM_CM4F/portmacro.h ****     #else
  63:../../../../dependencies/freertos/FreeRTOSv10.4.1/FreeRTOS/Source/portable/GCC/ARM_CM4F/portmacro.h ****         typedef uint32_t     TickType_t;
  64:../../../../dependencies/freertos/FreeRTOSv10.4.1/FreeRTOS/Source/portable/GCC/ARM_CM4F/portmacro.h ****         #define portMAX_DELAY              ( TickType_t ) 0xffffffffUL
  65:../../../../dependencies/freertos/FreeRTOSv10.4.1/FreeRTOS/Source/portable/GCC/ARM_CM4F/portmacro.h **** 
  66:../../../../dependencies/freertos/FreeRTOSv10.4.1/FreeRTOS/Source/portable/GCC/ARM_CM4F/portmacro.h **** /* 32-bit tick type on a 32-bit architecture, so reads of the tick count do
  67:../../../../dependencies/freertos/FreeRTOSv10.4.1/FreeRTOS/Source/portable/GCC/ARM_CM4F/portmacro.h ****  * not need to be guarded with a critical section. */
  68:../../../../dependencies/freertos/FreeRTOSv10.4.1/FreeRTOS/Source/portable/GCC/ARM_CM4F/portmacro.h ****         #define portTICK_TYPE_IS_ATOMIC    1
  69:../../../../dependencies/freertos/FreeRTOSv10.4.1/FreeRTOS/Source/portable/GCC/ARM_CM4F/portmacro.h ****     #endif
  70:../../../../dependencies/freertos/FreeRTOSv10.4.1/FreeRTOS/Source/portable/GCC/ARM_CM4F/portmacro.h **** /*-----------------------------------------------------------*/
  71:../../../../dependencies/freertos/FreeRTOSv10.4.1/FreeRTOS/Source/portable/GCC/ARM_CM4F/portmacro.h **** 
  72:../../../../dependencies/freertos/FreeRTOSv10.4.1/FreeRTOS/Source/portable/GCC/ARM_CM4F/portmacro.h **** /* Architecture specifics. */
  73:../../../../dependencies/freertos/FreeRTOSv10.4.1/FreeRTOS/Source/portable/GCC/ARM_CM4F/portmacro.h ****     #define portSTACK_GROWTH      ( -1 )
  74:../../../../dependencies/freertos/FreeRTOSv10.4.1/FreeRTOS/Source/portable/GCC/ARM_CM4F/portmacro.h ****     #define portTICK_PERIOD_MS    ( ( TickType_t ) 1000 / configTICK_RATE_HZ )
  75:../../../../dependencies/freertos/FreeRTOSv10.4.1/FreeRTOS/Source/portable/GCC/ARM_CM4F/portmacro.h ****     #define portBYTE_ALIGNMENT    8
ARM GAS  /var/folders/kj/yzqgq53j3dg15vgwwwwgf5s00000gn/T//ccGgwidk.s 			page 8


  76:../../../../dependencies/freertos/FreeRTOSv10.4.1/FreeRTOS/Source/portable/GCC/ARM_CM4F/portmacro.h ****     #define portDONT_DISCARD      __attribute__( ( used ) )
  77:../../../../dependencies/freertos/FreeRTOSv10.4.1/FreeRTOS/Source/portable/GCC/ARM_CM4F/portmacro.h **** /*-----------------------------------------------------------*/
  78:../../../../dependencies/freertos/FreeRTOSv10.4.1/FreeRTOS/Source/portable/GCC/ARM_CM4F/portmacro.h **** 
  79:../../../../dependencies/freertos/FreeRTOSv10.4.1/FreeRTOS/Source/portable/GCC/ARM_CM4F/portmacro.h **** /* Scheduler utilities. */
  80:../../../../dependencies/freertos/FreeRTOSv10.4.1/FreeRTOS/Source/portable/GCC/ARM_CM4F/portmacro.h ****     #define portYIELD()                                 \
  81:../../../../dependencies/freertos/FreeRTOSv10.4.1/FreeRTOS/Source/portable/GCC/ARM_CM4F/portmacro.h ****     {                                                   \
  82:../../../../dependencies/freertos/FreeRTOSv10.4.1/FreeRTOS/Source/portable/GCC/ARM_CM4F/portmacro.h ****         /* Set a PendSV to request a context switch. */ \
  83:../../../../dependencies/freertos/FreeRTOSv10.4.1/FreeRTOS/Source/portable/GCC/ARM_CM4F/portmacro.h ****         portNVIC_INT_CTRL_REG = portNVIC_PENDSVSET_BIT; \
  84:../../../../dependencies/freertos/FreeRTOSv10.4.1/FreeRTOS/Source/portable/GCC/ARM_CM4F/portmacro.h ****                                                         \
  85:../../../../dependencies/freertos/FreeRTOSv10.4.1/FreeRTOS/Source/portable/GCC/ARM_CM4F/portmacro.h ****         /* Barriers are normally not required but do ensure the code is completely \
  86:../../../../dependencies/freertos/FreeRTOSv10.4.1/FreeRTOS/Source/portable/GCC/ARM_CM4F/portmacro.h ****          * within the specified behaviour for the architecture. */ \
  87:../../../../dependencies/freertos/FreeRTOSv10.4.1/FreeRTOS/Source/portable/GCC/ARM_CM4F/portmacro.h ****         __asm volatile ( "dsb" ::: "memory" );                     \
  88:../../../../dependencies/freertos/FreeRTOSv10.4.1/FreeRTOS/Source/portable/GCC/ARM_CM4F/portmacro.h ****         __asm volatile ( "isb" );                                  \
  89:../../../../dependencies/freertos/FreeRTOSv10.4.1/FreeRTOS/Source/portable/GCC/ARM_CM4F/portmacro.h ****     }
  90:../../../../dependencies/freertos/FreeRTOSv10.4.1/FreeRTOS/Source/portable/GCC/ARM_CM4F/portmacro.h **** 
  91:../../../../dependencies/freertos/FreeRTOSv10.4.1/FreeRTOS/Source/portable/GCC/ARM_CM4F/portmacro.h ****     #define portNVIC_INT_CTRL_REG     ( *( ( volatile uint32_t * ) 0xe000ed04 ) )
  92:../../../../dependencies/freertos/FreeRTOSv10.4.1/FreeRTOS/Source/portable/GCC/ARM_CM4F/portmacro.h ****     #define portNVIC_PENDSVSET_BIT    ( 1UL << 28UL )
  93:../../../../dependencies/freertos/FreeRTOSv10.4.1/FreeRTOS/Source/portable/GCC/ARM_CM4F/portmacro.h ****     #define portEND_SWITCHING_ISR( xSwitchRequired )    if( xSwitchRequired != pdFALSE ) portYIELD(
  94:../../../../dependencies/freertos/FreeRTOSv10.4.1/FreeRTOS/Source/portable/GCC/ARM_CM4F/portmacro.h ****     #define portYIELD_FROM_ISR( x )                     portEND_SWITCHING_ISR( x )
  95:../../../../dependencies/freertos/FreeRTOSv10.4.1/FreeRTOS/Source/portable/GCC/ARM_CM4F/portmacro.h **** /*-----------------------------------------------------------*/
  96:../../../../dependencies/freertos/FreeRTOSv10.4.1/FreeRTOS/Source/portable/GCC/ARM_CM4F/portmacro.h **** 
  97:../../../../dependencies/freertos/FreeRTOSv10.4.1/FreeRTOS/Source/portable/GCC/ARM_CM4F/portmacro.h **** /* Critical section management. */
  98:../../../../dependencies/freertos/FreeRTOSv10.4.1/FreeRTOS/Source/portable/GCC/ARM_CM4F/portmacro.h ****     extern void vPortEnterCritical( void );
  99:../../../../dependencies/freertos/FreeRTOSv10.4.1/FreeRTOS/Source/portable/GCC/ARM_CM4F/portmacro.h ****     extern void vPortExitCritical( void );
 100:../../../../dependencies/freertos/FreeRTOSv10.4.1/FreeRTOS/Source/portable/GCC/ARM_CM4F/portmacro.h ****     #define portSET_INTERRUPT_MASK_FROM_ISR()         ulPortRaiseBASEPRI()
 101:../../../../dependencies/freertos/FreeRTOSv10.4.1/FreeRTOS/Source/portable/GCC/ARM_CM4F/portmacro.h ****     #define portCLEAR_INTERRUPT_MASK_FROM_ISR( x )    vPortSetBASEPRI( x )
 102:../../../../dependencies/freertos/FreeRTOSv10.4.1/FreeRTOS/Source/portable/GCC/ARM_CM4F/portmacro.h ****     #define portDISABLE_INTERRUPTS()                  vPortRaiseBASEPRI()
 103:../../../../dependencies/freertos/FreeRTOSv10.4.1/FreeRTOS/Source/portable/GCC/ARM_CM4F/portmacro.h ****     #define portENABLE_INTERRUPTS()                   vPortSetBASEPRI( 0 )
 104:../../../../dependencies/freertos/FreeRTOSv10.4.1/FreeRTOS/Source/portable/GCC/ARM_CM4F/portmacro.h ****     #define portENTER_CRITICAL()                      vPortEnterCritical()
 105:../../../../dependencies/freertos/FreeRTOSv10.4.1/FreeRTOS/Source/portable/GCC/ARM_CM4F/portmacro.h ****     #define portEXIT_CRITICAL()                       vPortExitCritical()
 106:../../../../dependencies/freertos/FreeRTOSv10.4.1/FreeRTOS/Source/portable/GCC/ARM_CM4F/portmacro.h **** 
 107:../../../../dependencies/freertos/FreeRTOSv10.4.1/FreeRTOS/Source/portable/GCC/ARM_CM4F/portmacro.h **** /*-----------------------------------------------------------*/
 108:../../../../dependencies/freertos/FreeRTOSv10.4.1/FreeRTOS/Source/portable/GCC/ARM_CM4F/portmacro.h **** 
 109:../../../../dependencies/freertos/FreeRTOSv10.4.1/FreeRTOS/Source/portable/GCC/ARM_CM4F/portmacro.h **** /* Task function macros as described on the FreeRTOS.org WEB site.  These are
 110:../../../../dependencies/freertos/FreeRTOSv10.4.1/FreeRTOS/Source/portable/GCC/ARM_CM4F/portmacro.h ****  * not necessary for to use this port.  They are defined so the common demo files
 111:../../../../dependencies/freertos/FreeRTOSv10.4.1/FreeRTOS/Source/portable/GCC/ARM_CM4F/portmacro.h ****  * (which build with all the ports) will build. */
 112:../../../../dependencies/freertos/FreeRTOSv10.4.1/FreeRTOS/Source/portable/GCC/ARM_CM4F/portmacro.h ****     #define portTASK_FUNCTION_PROTO( vFunction, pvParameters )    void vFunction( void * pvParamete
 113:../../../../dependencies/freertos/FreeRTOSv10.4.1/FreeRTOS/Source/portable/GCC/ARM_CM4F/portmacro.h ****     #define portTASK_FUNCTION( vFunction, pvParameters )          void vFunction( void * pvParamete
 114:../../../../dependencies/freertos/FreeRTOSv10.4.1/FreeRTOS/Source/portable/GCC/ARM_CM4F/portmacro.h **** /*-----------------------------------------------------------*/
 115:../../../../dependencies/freertos/FreeRTOSv10.4.1/FreeRTOS/Source/portable/GCC/ARM_CM4F/portmacro.h **** 
 116:../../../../dependencies/freertos/FreeRTOSv10.4.1/FreeRTOS/Source/portable/GCC/ARM_CM4F/portmacro.h **** /* Tickless idle/low power functionality. */
 117:../../../../dependencies/freertos/FreeRTOSv10.4.1/FreeRTOS/Source/portable/GCC/ARM_CM4F/portmacro.h ****     #ifndef portSUPPRESS_TICKS_AND_SLEEP
 118:../../../../dependencies/freertos/FreeRTOSv10.4.1/FreeRTOS/Source/portable/GCC/ARM_CM4F/portmacro.h ****         extern void vPortSuppressTicksAndSleep( TickType_t xExpectedIdleTime );
 119:../../../../dependencies/freertos/FreeRTOSv10.4.1/FreeRTOS/Source/portable/GCC/ARM_CM4F/portmacro.h ****         #define portSUPPRESS_TICKS_AND_SLEEP( xExpectedIdleTime )    vPortSuppressTicksAndSleep( xE
 120:../../../../dependencies/freertos/FreeRTOSv10.4.1/FreeRTOS/Source/portable/GCC/ARM_CM4F/portmacro.h ****     #endif
 121:../../../../dependencies/freertos/FreeRTOSv10.4.1/FreeRTOS/Source/portable/GCC/ARM_CM4F/portmacro.h **** /*-----------------------------------------------------------*/
 122:../../../../dependencies/freertos/FreeRTOSv10.4.1/FreeRTOS/Source/portable/GCC/ARM_CM4F/portmacro.h **** 
 123:../../../../dependencies/freertos/FreeRTOSv10.4.1/FreeRTOS/Source/portable/GCC/ARM_CM4F/portmacro.h **** /* Architecture specific optimisations. */
 124:../../../../dependencies/freertos/FreeRTOSv10.4.1/FreeRTOS/Source/portable/GCC/ARM_CM4F/portmacro.h ****     #ifndef configUSE_PORT_OPTIMISED_TASK_SELECTION
 125:../../../../dependencies/freertos/FreeRTOSv10.4.1/FreeRTOS/Source/portable/GCC/ARM_CM4F/portmacro.h ****         #define configUSE_PORT_OPTIMISED_TASK_SELECTION    1
 126:../../../../dependencies/freertos/FreeRTOSv10.4.1/FreeRTOS/Source/portable/GCC/ARM_CM4F/portmacro.h ****     #endif
 127:../../../../dependencies/freertos/FreeRTOSv10.4.1/FreeRTOS/Source/portable/GCC/ARM_CM4F/portmacro.h **** 
 128:../../../../dependencies/freertos/FreeRTOSv10.4.1/FreeRTOS/Source/portable/GCC/ARM_CM4F/portmacro.h ****     #if configUSE_PORT_OPTIMISED_TASK_SELECTION == 1
 129:../../../../dependencies/freertos/FreeRTOSv10.4.1/FreeRTOS/Source/portable/GCC/ARM_CM4F/portmacro.h **** 
 130:../../../../dependencies/freertos/FreeRTOSv10.4.1/FreeRTOS/Source/portable/GCC/ARM_CM4F/portmacro.h **** /* Generic helper function. */
 131:../../../../dependencies/freertos/FreeRTOSv10.4.1/FreeRTOS/Source/portable/GCC/ARM_CM4F/portmacro.h ****         __attribute__( ( always_inline ) ) static inline uint8_t ucPortCountLeadingZeros( uint32_t 
 132:../../../../dependencies/freertos/FreeRTOSv10.4.1/FreeRTOS/Source/portable/GCC/ARM_CM4F/portmacro.h ****         {
ARM GAS  /var/folders/kj/yzqgq53j3dg15vgwwwwgf5s00000gn/T//ccGgwidk.s 			page 9


 133:../../../../dependencies/freertos/FreeRTOSv10.4.1/FreeRTOS/Source/portable/GCC/ARM_CM4F/portmacro.h ****             uint8_t ucReturn;
 134:../../../../dependencies/freertos/FreeRTOSv10.4.1/FreeRTOS/Source/portable/GCC/ARM_CM4F/portmacro.h **** 
 135:../../../../dependencies/freertos/FreeRTOSv10.4.1/FreeRTOS/Source/portable/GCC/ARM_CM4F/portmacro.h ****             __asm volatile ( "clz %0, %1" : "=r" ( ucReturn ) : "r" ( ulBitmap ) : "memory" );
 136:../../../../dependencies/freertos/FreeRTOSv10.4.1/FreeRTOS/Source/portable/GCC/ARM_CM4F/portmacro.h **** 
 137:../../../../dependencies/freertos/FreeRTOSv10.4.1/FreeRTOS/Source/portable/GCC/ARM_CM4F/portmacro.h ****             return ucReturn;
 138:../../../../dependencies/freertos/FreeRTOSv10.4.1/FreeRTOS/Source/portable/GCC/ARM_CM4F/portmacro.h ****         }
 139:../../../../dependencies/freertos/FreeRTOSv10.4.1/FreeRTOS/Source/portable/GCC/ARM_CM4F/portmacro.h **** 
 140:../../../../dependencies/freertos/FreeRTOSv10.4.1/FreeRTOS/Source/portable/GCC/ARM_CM4F/portmacro.h **** /* Check the configuration. */
 141:../../../../dependencies/freertos/FreeRTOSv10.4.1/FreeRTOS/Source/portable/GCC/ARM_CM4F/portmacro.h ****         #if ( configMAX_PRIORITIES > 32 )
 142:../../../../dependencies/freertos/FreeRTOSv10.4.1/FreeRTOS/Source/portable/GCC/ARM_CM4F/portmacro.h ****             #error configUSE_PORT_OPTIMISED_TASK_SELECTION can only be set to 1 when configMAX_PRIO
 143:../../../../dependencies/freertos/FreeRTOSv10.4.1/FreeRTOS/Source/portable/GCC/ARM_CM4F/portmacro.h ****         #endif
 144:../../../../dependencies/freertos/FreeRTOSv10.4.1/FreeRTOS/Source/portable/GCC/ARM_CM4F/portmacro.h **** 
 145:../../../../dependencies/freertos/FreeRTOSv10.4.1/FreeRTOS/Source/portable/GCC/ARM_CM4F/portmacro.h **** /* Store/clear the ready priorities in a bit map. */
 146:../../../../dependencies/freertos/FreeRTOSv10.4.1/FreeRTOS/Source/portable/GCC/ARM_CM4F/portmacro.h ****         #define portRECORD_READY_PRIORITY( uxPriority, uxReadyPriorities )    ( uxReadyPriorities )
 147:../../../../dependencies/freertos/FreeRTOSv10.4.1/FreeRTOS/Source/portable/GCC/ARM_CM4F/portmacro.h ****         #define portRESET_READY_PRIORITY( uxPriority, uxReadyPriorities )     ( uxReadyPriorities )
 148:../../../../dependencies/freertos/FreeRTOSv10.4.1/FreeRTOS/Source/portable/GCC/ARM_CM4F/portmacro.h **** 
 149:../../../../dependencies/freertos/FreeRTOSv10.4.1/FreeRTOS/Source/portable/GCC/ARM_CM4F/portmacro.h **** /*-----------------------------------------------------------*/
 150:../../../../dependencies/freertos/FreeRTOSv10.4.1/FreeRTOS/Source/portable/GCC/ARM_CM4F/portmacro.h **** 
 151:../../../../dependencies/freertos/FreeRTOSv10.4.1/FreeRTOS/Source/portable/GCC/ARM_CM4F/portmacro.h ****         #define portGET_HIGHEST_PRIORITY( uxTopPriority, uxReadyPriorities )    uxTopPriority = ( 3
 152:../../../../dependencies/freertos/FreeRTOSv10.4.1/FreeRTOS/Source/portable/GCC/ARM_CM4F/portmacro.h **** 
 153:../../../../dependencies/freertos/FreeRTOSv10.4.1/FreeRTOS/Source/portable/GCC/ARM_CM4F/portmacro.h ****     #endif /* configUSE_PORT_OPTIMISED_TASK_SELECTION */
 154:../../../../dependencies/freertos/FreeRTOSv10.4.1/FreeRTOS/Source/portable/GCC/ARM_CM4F/portmacro.h **** 
 155:../../../../dependencies/freertos/FreeRTOSv10.4.1/FreeRTOS/Source/portable/GCC/ARM_CM4F/portmacro.h **** /*-----------------------------------------------------------*/
 156:../../../../dependencies/freertos/FreeRTOSv10.4.1/FreeRTOS/Source/portable/GCC/ARM_CM4F/portmacro.h **** 
 157:../../../../dependencies/freertos/FreeRTOSv10.4.1/FreeRTOS/Source/portable/GCC/ARM_CM4F/portmacro.h ****     #ifdef configASSERT
 158:../../../../dependencies/freertos/FreeRTOSv10.4.1/FreeRTOS/Source/portable/GCC/ARM_CM4F/portmacro.h ****         void vPortValidateInterruptPriority( void );
 159:../../../../dependencies/freertos/FreeRTOSv10.4.1/FreeRTOS/Source/portable/GCC/ARM_CM4F/portmacro.h ****         #define portASSERT_IF_INTERRUPT_PRIORITY_INVALID()    vPortValidateInterruptPriority()
 160:../../../../dependencies/freertos/FreeRTOSv10.4.1/FreeRTOS/Source/portable/GCC/ARM_CM4F/portmacro.h ****     #endif
 161:../../../../dependencies/freertos/FreeRTOSv10.4.1/FreeRTOS/Source/portable/GCC/ARM_CM4F/portmacro.h **** 
 162:../../../../dependencies/freertos/FreeRTOSv10.4.1/FreeRTOS/Source/portable/GCC/ARM_CM4F/portmacro.h **** /* portNOP() is not required by this port. */
 163:../../../../dependencies/freertos/FreeRTOSv10.4.1/FreeRTOS/Source/portable/GCC/ARM_CM4F/portmacro.h ****     #define portNOP()
 164:../../../../dependencies/freertos/FreeRTOSv10.4.1/FreeRTOS/Source/portable/GCC/ARM_CM4F/portmacro.h **** 
 165:../../../../dependencies/freertos/FreeRTOSv10.4.1/FreeRTOS/Source/portable/GCC/ARM_CM4F/portmacro.h ****     #define portINLINE              __inline
 166:../../../../dependencies/freertos/FreeRTOSv10.4.1/FreeRTOS/Source/portable/GCC/ARM_CM4F/portmacro.h **** 
 167:../../../../dependencies/freertos/FreeRTOSv10.4.1/FreeRTOS/Source/portable/GCC/ARM_CM4F/portmacro.h ****     #ifndef portFORCE_INLINE
 168:../../../../dependencies/freertos/FreeRTOSv10.4.1/FreeRTOS/Source/portable/GCC/ARM_CM4F/portmacro.h ****         #define portFORCE_INLINE    inline __attribute__( ( always_inline ) )
 169:../../../../dependencies/freertos/FreeRTOSv10.4.1/FreeRTOS/Source/portable/GCC/ARM_CM4F/portmacro.h ****     #endif
 170:../../../../dependencies/freertos/FreeRTOSv10.4.1/FreeRTOS/Source/portable/GCC/ARM_CM4F/portmacro.h **** 
 171:../../../../dependencies/freertos/FreeRTOSv10.4.1/FreeRTOS/Source/portable/GCC/ARM_CM4F/portmacro.h ****     portFORCE_INLINE static BaseType_t xPortIsInsideInterrupt( void )
 172:../../../../dependencies/freertos/FreeRTOSv10.4.1/FreeRTOS/Source/portable/GCC/ARM_CM4F/portmacro.h ****     {
 173:../../../../dependencies/freertos/FreeRTOSv10.4.1/FreeRTOS/Source/portable/GCC/ARM_CM4F/portmacro.h ****         uint32_t ulCurrentInterrupt;
 174:../../../../dependencies/freertos/FreeRTOSv10.4.1/FreeRTOS/Source/portable/GCC/ARM_CM4F/portmacro.h ****         BaseType_t xReturn;
 175:../../../../dependencies/freertos/FreeRTOSv10.4.1/FreeRTOS/Source/portable/GCC/ARM_CM4F/portmacro.h **** 
 176:../../../../dependencies/freertos/FreeRTOSv10.4.1/FreeRTOS/Source/portable/GCC/ARM_CM4F/portmacro.h ****         /* Obtain the number of the currently executing interrupt. */
 177:../../../../dependencies/freertos/FreeRTOSv10.4.1/FreeRTOS/Source/portable/GCC/ARM_CM4F/portmacro.h ****         __asm volatile ( "mrs %0, ipsr" : "=r" ( ulCurrentInterrupt )::"memory" );
 178:../../../../dependencies/freertos/FreeRTOSv10.4.1/FreeRTOS/Source/portable/GCC/ARM_CM4F/portmacro.h **** 
 179:../../../../dependencies/freertos/FreeRTOSv10.4.1/FreeRTOS/Source/portable/GCC/ARM_CM4F/portmacro.h ****         if( ulCurrentInterrupt == 0 )
 180:../../../../dependencies/freertos/FreeRTOSv10.4.1/FreeRTOS/Source/portable/GCC/ARM_CM4F/portmacro.h ****         {
 181:../../../../dependencies/freertos/FreeRTOSv10.4.1/FreeRTOS/Source/portable/GCC/ARM_CM4F/portmacro.h ****             xReturn = pdFALSE;
 182:../../../../dependencies/freertos/FreeRTOSv10.4.1/FreeRTOS/Source/portable/GCC/ARM_CM4F/portmacro.h ****         }
 183:../../../../dependencies/freertos/FreeRTOSv10.4.1/FreeRTOS/Source/portable/GCC/ARM_CM4F/portmacro.h ****         else
 184:../../../../dependencies/freertos/FreeRTOSv10.4.1/FreeRTOS/Source/portable/GCC/ARM_CM4F/portmacro.h ****         {
 185:../../../../dependencies/freertos/FreeRTOSv10.4.1/FreeRTOS/Source/portable/GCC/ARM_CM4F/portmacro.h ****             xReturn = pdTRUE;
 186:../../../../dependencies/freertos/FreeRTOSv10.4.1/FreeRTOS/Source/portable/GCC/ARM_CM4F/portmacro.h ****         }
 187:../../../../dependencies/freertos/FreeRTOSv10.4.1/FreeRTOS/Source/portable/GCC/ARM_CM4F/portmacro.h **** 
 188:../../../../dependencies/freertos/FreeRTOSv10.4.1/FreeRTOS/Source/portable/GCC/ARM_CM4F/portmacro.h ****         return xReturn;
 189:../../../../dependencies/freertos/FreeRTOSv10.4.1/FreeRTOS/Source/portable/GCC/ARM_CM4F/portmacro.h ****     }
ARM GAS  /var/folders/kj/yzqgq53j3dg15vgwwwwgf5s00000gn/T//ccGgwidk.s 			page 10


 190:../../../../dependencies/freertos/FreeRTOSv10.4.1/FreeRTOS/Source/portable/GCC/ARM_CM4F/portmacro.h **** 
 191:../../../../dependencies/freertos/FreeRTOSv10.4.1/FreeRTOS/Source/portable/GCC/ARM_CM4F/portmacro.h **** /*-----------------------------------------------------------*/
 192:../../../../dependencies/freertos/FreeRTOSv10.4.1/FreeRTOS/Source/portable/GCC/ARM_CM4F/portmacro.h **** 
 193:../../../../dependencies/freertos/FreeRTOSv10.4.1/FreeRTOS/Source/portable/GCC/ARM_CM4F/portmacro.h ****     portFORCE_INLINE static void vPortRaiseBASEPRI( void )
 194:../../../../dependencies/freertos/FreeRTOSv10.4.1/FreeRTOS/Source/portable/GCC/ARM_CM4F/portmacro.h ****     {
 195:../../../../dependencies/freertos/FreeRTOSv10.4.1/FreeRTOS/Source/portable/GCC/ARM_CM4F/portmacro.h ****         uint32_t ulNewBASEPRI;
 196:../../../../dependencies/freertos/FreeRTOSv10.4.1/FreeRTOS/Source/portable/GCC/ARM_CM4F/portmacro.h **** 
 197:../../../../dependencies/freertos/FreeRTOSv10.4.1/FreeRTOS/Source/portable/GCC/ARM_CM4F/portmacro.h ****         __asm volatile
  57              		.loc 2 197 9
  58              		.syntax unified
  59              	@ 197 "../../../../dependencies/freertos/FreeRTOSv10.4.1/FreeRTOS/Source/portable/GCC/ARM_CM4F/port
  60 0014 4FF05003 			mov r3, #80												
  61 0018 83F31188 		msr basepri, r3											
  62 001c BFF36F8F 		isb														
  63 0020 BFF34F8F 		dsb														
  64              	
  65              	@ 0 "" 2
  66              		.thumb
  67              		.syntax unified
  68 0024 BB60     		str	r3, [r7, #8]
 198:../../../../dependencies/freertos/FreeRTOSv10.4.1/FreeRTOS/Source/portable/GCC/ARM_CM4F/portmacro.h ****         (
 199:../../../../dependencies/freertos/FreeRTOSv10.4.1/FreeRTOS/Source/portable/GCC/ARM_CM4F/portmacro.h ****             "	mov %0, %1												\n"\
 200:../../../../dependencies/freertos/FreeRTOSv10.4.1/FreeRTOS/Source/portable/GCC/ARM_CM4F/portmacro.h ****             "	msr basepri, %0											\n"\
 201:../../../../dependencies/freertos/FreeRTOSv10.4.1/FreeRTOS/Source/portable/GCC/ARM_CM4F/portmacro.h ****             "	isb														\n"\
 202:../../../../dependencies/freertos/FreeRTOSv10.4.1/FreeRTOS/Source/portable/GCC/ARM_CM4F/portmacro.h ****             "	dsb														\n"\
 203:../../../../dependencies/freertos/FreeRTOSv10.4.1/FreeRTOS/Source/portable/GCC/ARM_CM4F/portmacro.h ****             : "=r" ( ulNewBASEPRI ) : "i" ( configMAX_SYSCALL_INTERRUPT_PRIORITY ) : "memory"
 204:../../../../dependencies/freertos/FreeRTOSv10.4.1/FreeRTOS/Source/portable/GCC/ARM_CM4F/portmacro.h ****         );
 205:../../../../dependencies/freertos/FreeRTOSv10.4.1/FreeRTOS/Source/portable/GCC/ARM_CM4F/portmacro.h ****     }
  69              		.loc 2 205 5
  70 0026 00BF     		nop
  71              	.L3:
  72              	.LBE112:
  73              	.LBE111:
  74              		.loc 1 269 5 discriminator 1
  75 0028 FEE7     		b	.L3
  76              	.L2:
 270:../../../../dependencies/freertos/FreeRTOSv10.4.1/FreeRTOS/Source/queue.c **** 
 271:../../../../dependencies/freertos/FreeRTOSv10.4.1/FreeRTOS/Source/queue.c ****     taskENTER_CRITICAL();
  77              		.loc 1 271 5
  78 002a FFF7FEFF 		bl	vPortEnterCritical
 272:../../../../dependencies/freertos/FreeRTOSv10.4.1/FreeRTOS/Source/queue.c ****     {
 273:../../../../dependencies/freertos/FreeRTOSv10.4.1/FreeRTOS/Source/queue.c ****         pxQueue->u.xQueue.pcTail = pxQueue->pcHead + ( pxQueue->uxLength * pxQueue->uxItemSize ); /
  79              		.loc 1 273 43
  80 002e FB68     		ldr	r3, [r7, #12]
  81 0030 1A68     		ldr	r2, [r3]
  82              		.loc 1 273 63
  83 0032 FB68     		ldr	r3, [r7, #12]
  84 0034 DB6B     		ldr	r3, [r3, #60]
  85              		.loc 1 273 83
  86 0036 F968     		ldr	r1, [r7, #12]
  87 0038 096C     		ldr	r1, [r1, #64]
  88              		.loc 1 273 74
  89 003a 01FB03F3 		mul	r3, r1, r3
  90              		.loc 1 273 52
  91 003e 1A44     		add	r2, r2, r3
  92              		.loc 1 273 34
  93 0040 FB68     		ldr	r3, [r7, #12]
ARM GAS  /var/folders/kj/yzqgq53j3dg15vgwwwwgf5s00000gn/T//ccGgwidk.s 			page 11


  94 0042 9A60     		str	r2, [r3, #8]
 274:../../../../dependencies/freertos/FreeRTOSv10.4.1/FreeRTOS/Source/queue.c ****         pxQueue->uxMessagesWaiting = ( UBaseType_t ) 0U;
  95              		.loc 1 274 36
  96 0044 FB68     		ldr	r3, [r7, #12]
  97 0046 0022     		movs	r2, #0
  98 0048 9A63     		str	r2, [r3, #56]
 275:../../../../dependencies/freertos/FreeRTOSv10.4.1/FreeRTOS/Source/queue.c ****         pxQueue->pcWriteTo = pxQueue->pcHead;
  99              		.loc 1 275 37
 100 004a FB68     		ldr	r3, [r7, #12]
 101 004c 1A68     		ldr	r2, [r3]
 102              		.loc 1 275 28
 103 004e FB68     		ldr	r3, [r7, #12]
 104 0050 5A60     		str	r2, [r3, #4]
 276:../../../../dependencies/freertos/FreeRTOSv10.4.1/FreeRTOS/Source/queue.c ****         pxQueue->u.xQueue.pcReadFrom = pxQueue->pcHead + ( ( pxQueue->uxLength - 1U ) * pxQueue->ux
 105              		.loc 1 276 47
 106 0052 FB68     		ldr	r3, [r7, #12]
 107 0054 1A68     		ldr	r2, [r3]
 108              		.loc 1 276 69
 109 0056 FB68     		ldr	r3, [r7, #12]
 110 0058 DB6B     		ldr	r3, [r3, #60]
 111              		.loc 1 276 80
 112 005a 013B     		subs	r3, r3, #1
 113              		.loc 1 276 96
 114 005c F968     		ldr	r1, [r7, #12]
 115 005e 096C     		ldr	r1, [r1, #64]
 116              		.loc 1 276 87
 117 0060 01FB03F3 		mul	r3, r1, r3
 118              		.loc 1 276 56
 119 0064 1A44     		add	r2, r2, r3
 120              		.loc 1 276 38
 121 0066 FB68     		ldr	r3, [r7, #12]
 122 0068 DA60     		str	r2, [r3, #12]
 277:../../../../dependencies/freertos/FreeRTOSv10.4.1/FreeRTOS/Source/queue.c ****         pxQueue->cRxLock = queueUNLOCKED;
 123              		.loc 1 277 26
 124 006a FB68     		ldr	r3, [r7, #12]
 125 006c FF22     		movs	r2, #255
 126 006e 83F84420 		strb	r2, [r3, #68]
 278:../../../../dependencies/freertos/FreeRTOSv10.4.1/FreeRTOS/Source/queue.c ****         pxQueue->cTxLock = queueUNLOCKED;
 127              		.loc 1 278 26
 128 0072 FB68     		ldr	r3, [r7, #12]
 129 0074 FF22     		movs	r2, #255
 130 0076 83F84520 		strb	r2, [r3, #69]
 279:../../../../dependencies/freertos/FreeRTOSv10.4.1/FreeRTOS/Source/queue.c **** 
 280:../../../../dependencies/freertos/FreeRTOSv10.4.1/FreeRTOS/Source/queue.c ****         if( xNewQueue == pdFALSE )
 131              		.loc 1 280 11
 132 007a 3B68     		ldr	r3, [r7]
 133 007c 002B     		cmp	r3, #0
 134 007e 14D1     		bne	.L4
 281:../../../../dependencies/freertos/FreeRTOSv10.4.1/FreeRTOS/Source/queue.c ****         {
 282:../../../../dependencies/freertos/FreeRTOSv10.4.1/FreeRTOS/Source/queue.c ****             /* If there are tasks blocked waiting to read from the queue, then
 283:../../../../dependencies/freertos/FreeRTOSv10.4.1/FreeRTOS/Source/queue.c ****              * the tasks will remain blocked as after this function exits the queue
 284:../../../../dependencies/freertos/FreeRTOSv10.4.1/FreeRTOS/Source/queue.c ****              * will still be empty.  If there are tasks blocked waiting to write to
 285:../../../../dependencies/freertos/FreeRTOSv10.4.1/FreeRTOS/Source/queue.c ****              * the queue, then one should be unblocked as after this function exits
 286:../../../../dependencies/freertos/FreeRTOSv10.4.1/FreeRTOS/Source/queue.c ****              * it will be possible to write to it. */
 287:../../../../dependencies/freertos/FreeRTOSv10.4.1/FreeRTOS/Source/queue.c ****             if( listLIST_IS_EMPTY( &( pxQueue->xTasksWaitingToSend ) ) == pdFALSE )
 135              		.loc 1 287 17
 136 0080 FB68     		ldr	r3, [r7, #12]
ARM GAS  /var/folders/kj/yzqgq53j3dg15vgwwwwgf5s00000gn/T//ccGgwidk.s 			page 12


 137 0082 1B69     		ldr	r3, [r3, #16]
 138              		.loc 1 287 15
 139 0084 002B     		cmp	r3, #0
 140 0086 1AD0     		beq	.L5
 288:../../../../dependencies/freertos/FreeRTOSv10.4.1/FreeRTOS/Source/queue.c ****             {
 289:../../../../dependencies/freertos/FreeRTOSv10.4.1/FreeRTOS/Source/queue.c ****                 if( xTaskRemoveFromEventList( &( pxQueue->xTasksWaitingToSend ) ) != pdFALSE )
 141              		.loc 1 289 47
 142 0088 FB68     		ldr	r3, [r7, #12]
 143 008a 1033     		adds	r3, r3, #16
 144              		.loc 1 289 21
 145 008c 1846     		mov	r0, r3
 146 008e FFF7FEFF 		bl	xTaskRemoveFromEventList
 147 0092 0346     		mov	r3, r0
 148              		.loc 1 289 19
 149 0094 002B     		cmp	r3, #0
 150 0096 12D0     		beq	.L5
 290:../../../../dependencies/freertos/FreeRTOSv10.4.1/FreeRTOS/Source/queue.c ****                 {
 291:../../../../dependencies/freertos/FreeRTOSv10.4.1/FreeRTOS/Source/queue.c ****                     queueYIELD_IF_USING_PREEMPTION();
 151              		.loc 1 291 21
 152 0098 0C4B     		ldr	r3, .L7
 153 009a 4FF08052 		mov	r2, #268435456
 154 009e 1A60     		str	r2, [r3]
 155              		.syntax unified
 156              	@ 291 "../../../../dependencies/freertos/FreeRTOSv10.4.1/FreeRTOS/Source/queue.c" 1
 157 00a0 BFF34F8F 		dsb
 158              	@ 0 "" 2
 159              	@ 291 "../../../../dependencies/freertos/FreeRTOSv10.4.1/FreeRTOS/Source/queue.c" 1
 160 00a4 BFF36F8F 		isb
 161              	@ 0 "" 2
 162              		.thumb
 163              		.syntax unified
 164 00a8 09E0     		b	.L5
 165              	.L4:
 292:../../../../dependencies/freertos/FreeRTOSv10.4.1/FreeRTOS/Source/queue.c ****                 }
 293:../../../../dependencies/freertos/FreeRTOSv10.4.1/FreeRTOS/Source/queue.c ****                 else
 294:../../../../dependencies/freertos/FreeRTOSv10.4.1/FreeRTOS/Source/queue.c ****                 {
 295:../../../../dependencies/freertos/FreeRTOSv10.4.1/FreeRTOS/Source/queue.c ****                     mtCOVERAGE_TEST_MARKER();
 296:../../../../dependencies/freertos/FreeRTOSv10.4.1/FreeRTOS/Source/queue.c ****                 }
 297:../../../../dependencies/freertos/FreeRTOSv10.4.1/FreeRTOS/Source/queue.c ****             }
 298:../../../../dependencies/freertos/FreeRTOSv10.4.1/FreeRTOS/Source/queue.c ****             else
 299:../../../../dependencies/freertos/FreeRTOSv10.4.1/FreeRTOS/Source/queue.c ****             {
 300:../../../../dependencies/freertos/FreeRTOSv10.4.1/FreeRTOS/Source/queue.c ****                 mtCOVERAGE_TEST_MARKER();
 301:../../../../dependencies/freertos/FreeRTOSv10.4.1/FreeRTOS/Source/queue.c ****             }
 302:../../../../dependencies/freertos/FreeRTOSv10.4.1/FreeRTOS/Source/queue.c ****         }
 303:../../../../dependencies/freertos/FreeRTOSv10.4.1/FreeRTOS/Source/queue.c ****         else
 304:../../../../dependencies/freertos/FreeRTOSv10.4.1/FreeRTOS/Source/queue.c ****         {
 305:../../../../dependencies/freertos/FreeRTOSv10.4.1/FreeRTOS/Source/queue.c ****             /* Ensure the event queues start in the correct state. */
 306:../../../../dependencies/freertos/FreeRTOSv10.4.1/FreeRTOS/Source/queue.c ****             vListInitialise( &( pxQueue->xTasksWaitingToSend ) );
 166              		.loc 1 306 13
 167 00aa FB68     		ldr	r3, [r7, #12]
 168 00ac 1033     		adds	r3, r3, #16
 169 00ae 1846     		mov	r0, r3
 170 00b0 FFF7FEFF 		bl	vListInitialise
 307:../../../../dependencies/freertos/FreeRTOSv10.4.1/FreeRTOS/Source/queue.c ****             vListInitialise( &( pxQueue->xTasksWaitingToReceive ) );
 171              		.loc 1 307 13
 172 00b4 FB68     		ldr	r3, [r7, #12]
 173 00b6 2433     		adds	r3, r3, #36
ARM GAS  /var/folders/kj/yzqgq53j3dg15vgwwwwgf5s00000gn/T//ccGgwidk.s 			page 13


 174 00b8 1846     		mov	r0, r3
 175 00ba FFF7FEFF 		bl	vListInitialise
 176              	.L5:
 308:../../../../dependencies/freertos/FreeRTOSv10.4.1/FreeRTOS/Source/queue.c ****         }
 309:../../../../dependencies/freertos/FreeRTOSv10.4.1/FreeRTOS/Source/queue.c ****     }
 310:../../../../dependencies/freertos/FreeRTOSv10.4.1/FreeRTOS/Source/queue.c ****     taskEXIT_CRITICAL();
 177              		.loc 1 310 5
 178 00be FFF7FEFF 		bl	vPortExitCritical
 311:../../../../dependencies/freertos/FreeRTOSv10.4.1/FreeRTOS/Source/queue.c **** 
 312:../../../../dependencies/freertos/FreeRTOSv10.4.1/FreeRTOS/Source/queue.c ****     /* A value is returned for calling semantic consistency with previous
 313:../../../../dependencies/freertos/FreeRTOSv10.4.1/FreeRTOS/Source/queue.c ****      * versions. */
 314:../../../../dependencies/freertos/FreeRTOSv10.4.1/FreeRTOS/Source/queue.c ****     return pdPASS;
 179              		.loc 1 314 12
 180 00c2 0123     		movs	r3, #1
 315:../../../../dependencies/freertos/FreeRTOSv10.4.1/FreeRTOS/Source/queue.c **** }
 181              		.loc 1 315 1
 182 00c4 1846     		mov	r0, r3
 183 00c6 1037     		adds	r7, r7, #16
 184              	.LCFI3:
 185              		.cfi_def_cfa_offset 8
 186 00c8 BD46     		mov	sp, r7
 187              	.LCFI4:
 188              		.cfi_def_cfa_register 13
 189              		@ sp needed
 190 00ca 80BD     		pop	{r7, pc}
 191              	.L8:
 192              		.align	2
 193              	.L7:
 194 00cc 04ED00E0 		.word	-536810236
 195              		.cfi_endproc
 196              	.LFE5:
 198              		.section	.text.xQueueGenericCreate,"ax",%progbits
 199              		.align	1
 200              		.global	xQueueGenericCreate
 201              		.syntax unified
 202              		.thumb
 203              		.thumb_func
 204              		.fpu fpv4-sp-d16
 206              	xQueueGenericCreate:
 207              	.LFB6:
 316:../../../../dependencies/freertos/FreeRTOSv10.4.1/FreeRTOS/Source/queue.c **** /*-----------------------------------------------------------*/
 317:../../../../dependencies/freertos/FreeRTOSv10.4.1/FreeRTOS/Source/queue.c **** 
 318:../../../../dependencies/freertos/FreeRTOSv10.4.1/FreeRTOS/Source/queue.c **** #if ( configSUPPORT_STATIC_ALLOCATION == 1 )
 319:../../../../dependencies/freertos/FreeRTOSv10.4.1/FreeRTOS/Source/queue.c **** 
 320:../../../../dependencies/freertos/FreeRTOSv10.4.1/FreeRTOS/Source/queue.c ****     QueueHandle_t xQueueGenericCreateStatic( const UBaseType_t uxQueueLength,
 321:../../../../dependencies/freertos/FreeRTOSv10.4.1/FreeRTOS/Source/queue.c ****                                              const UBaseType_t uxItemSize,
 322:../../../../dependencies/freertos/FreeRTOSv10.4.1/FreeRTOS/Source/queue.c ****                                              uint8_t * pucQueueStorage,
 323:../../../../dependencies/freertos/FreeRTOSv10.4.1/FreeRTOS/Source/queue.c ****                                              StaticQueue_t * pxStaticQueue,
 324:../../../../dependencies/freertos/FreeRTOSv10.4.1/FreeRTOS/Source/queue.c ****                                              const uint8_t ucQueueType )
 325:../../../../dependencies/freertos/FreeRTOSv10.4.1/FreeRTOS/Source/queue.c ****     {
 326:../../../../dependencies/freertos/FreeRTOSv10.4.1/FreeRTOS/Source/queue.c ****         Queue_t * pxNewQueue;
 327:../../../../dependencies/freertos/FreeRTOSv10.4.1/FreeRTOS/Source/queue.c **** 
 328:../../../../dependencies/freertos/FreeRTOSv10.4.1/FreeRTOS/Source/queue.c ****         configASSERT( uxQueueLength > ( UBaseType_t ) 0 );
 329:../../../../dependencies/freertos/FreeRTOSv10.4.1/FreeRTOS/Source/queue.c **** 
 330:../../../../dependencies/freertos/FreeRTOSv10.4.1/FreeRTOS/Source/queue.c ****         /* The StaticQueue_t structure and the queue storage area must be
 331:../../../../dependencies/freertos/FreeRTOSv10.4.1/FreeRTOS/Source/queue.c ****          * supplied. */
 332:../../../../dependencies/freertos/FreeRTOSv10.4.1/FreeRTOS/Source/queue.c ****         configASSERT( pxStaticQueue != NULL );
ARM GAS  /var/folders/kj/yzqgq53j3dg15vgwwwwgf5s00000gn/T//ccGgwidk.s 			page 14


 333:../../../../dependencies/freertos/FreeRTOSv10.4.1/FreeRTOS/Source/queue.c **** 
 334:../../../../dependencies/freertos/FreeRTOSv10.4.1/FreeRTOS/Source/queue.c ****         /* A queue storage area should be provided if the item size is not 0, and
 335:../../../../dependencies/freertos/FreeRTOSv10.4.1/FreeRTOS/Source/queue.c ****          * should not be provided if the item size is 0. */
 336:../../../../dependencies/freertos/FreeRTOSv10.4.1/FreeRTOS/Source/queue.c ****         configASSERT( !( ( pucQueueStorage != NULL ) && ( uxItemSize == 0 ) ) );
 337:../../../../dependencies/freertos/FreeRTOSv10.4.1/FreeRTOS/Source/queue.c ****         configASSERT( !( ( pucQueueStorage == NULL ) && ( uxItemSize != 0 ) ) );
 338:../../../../dependencies/freertos/FreeRTOSv10.4.1/FreeRTOS/Source/queue.c **** 
 339:../../../../dependencies/freertos/FreeRTOSv10.4.1/FreeRTOS/Source/queue.c ****         #if ( configASSERT_DEFINED == 1 )
 340:../../../../dependencies/freertos/FreeRTOSv10.4.1/FreeRTOS/Source/queue.c ****             {
 341:../../../../dependencies/freertos/FreeRTOSv10.4.1/FreeRTOS/Source/queue.c ****                 /* Sanity check that the size of the structure used to declare a
 342:../../../../dependencies/freertos/FreeRTOSv10.4.1/FreeRTOS/Source/queue.c ****                  * variable of type StaticQueue_t or StaticSemaphore_t equals the size of
 343:../../../../dependencies/freertos/FreeRTOSv10.4.1/FreeRTOS/Source/queue.c ****                  * the real queue and semaphore structures. */
 344:../../../../dependencies/freertos/FreeRTOSv10.4.1/FreeRTOS/Source/queue.c ****                 volatile size_t xSize = sizeof( StaticQueue_t );
 345:../../../../dependencies/freertos/FreeRTOSv10.4.1/FreeRTOS/Source/queue.c ****                 configASSERT( xSize == sizeof( Queue_t ) );
 346:../../../../dependencies/freertos/FreeRTOSv10.4.1/FreeRTOS/Source/queue.c ****                 ( void ) xSize; /* Keeps lint quiet when configASSERT() is not defined. */
 347:../../../../dependencies/freertos/FreeRTOSv10.4.1/FreeRTOS/Source/queue.c ****             }
 348:../../../../dependencies/freertos/FreeRTOSv10.4.1/FreeRTOS/Source/queue.c ****         #endif /* configASSERT_DEFINED */
 349:../../../../dependencies/freertos/FreeRTOSv10.4.1/FreeRTOS/Source/queue.c **** 
 350:../../../../dependencies/freertos/FreeRTOSv10.4.1/FreeRTOS/Source/queue.c ****         /* The address of a statically allocated queue was passed in, use it.
 351:../../../../dependencies/freertos/FreeRTOSv10.4.1/FreeRTOS/Source/queue.c ****          * The address of a statically allocated storage area was also passed in
 352:../../../../dependencies/freertos/FreeRTOSv10.4.1/FreeRTOS/Source/queue.c ****          * but is already set. */
 353:../../../../dependencies/freertos/FreeRTOSv10.4.1/FreeRTOS/Source/queue.c ****         pxNewQueue = ( Queue_t * ) pxStaticQueue; /*lint !e740 !e9087 Unusual cast is ok as the str
 354:../../../../dependencies/freertos/FreeRTOSv10.4.1/FreeRTOS/Source/queue.c **** 
 355:../../../../dependencies/freertos/FreeRTOSv10.4.1/FreeRTOS/Source/queue.c ****         if( pxNewQueue != NULL )
 356:../../../../dependencies/freertos/FreeRTOSv10.4.1/FreeRTOS/Source/queue.c ****         {
 357:../../../../dependencies/freertos/FreeRTOSv10.4.1/FreeRTOS/Source/queue.c ****             #if ( configSUPPORT_DYNAMIC_ALLOCATION == 1 )
 358:../../../../dependencies/freertos/FreeRTOSv10.4.1/FreeRTOS/Source/queue.c ****                 {
 359:../../../../dependencies/freertos/FreeRTOSv10.4.1/FreeRTOS/Source/queue.c ****                     /* Queues can be allocated wither statically or dynamically, so
 360:../../../../dependencies/freertos/FreeRTOSv10.4.1/FreeRTOS/Source/queue.c ****                      * note this queue was allocated statically in case the queue is
 361:../../../../dependencies/freertos/FreeRTOSv10.4.1/FreeRTOS/Source/queue.c ****                      * later deleted. */
 362:../../../../dependencies/freertos/FreeRTOSv10.4.1/FreeRTOS/Source/queue.c ****                     pxNewQueue->ucStaticallyAllocated = pdTRUE;
 363:../../../../dependencies/freertos/FreeRTOSv10.4.1/FreeRTOS/Source/queue.c ****                 }
 364:../../../../dependencies/freertos/FreeRTOSv10.4.1/FreeRTOS/Source/queue.c ****             #endif /* configSUPPORT_DYNAMIC_ALLOCATION */
 365:../../../../dependencies/freertos/FreeRTOSv10.4.1/FreeRTOS/Source/queue.c **** 
 366:../../../../dependencies/freertos/FreeRTOSv10.4.1/FreeRTOS/Source/queue.c ****             prvInitialiseNewQueue( uxQueueLength, uxItemSize, pucQueueStorage, ucQueueType, pxNewQu
 367:../../../../dependencies/freertos/FreeRTOSv10.4.1/FreeRTOS/Source/queue.c ****         }
 368:../../../../dependencies/freertos/FreeRTOSv10.4.1/FreeRTOS/Source/queue.c ****         else
 369:../../../../dependencies/freertos/FreeRTOSv10.4.1/FreeRTOS/Source/queue.c ****         {
 370:../../../../dependencies/freertos/FreeRTOSv10.4.1/FreeRTOS/Source/queue.c ****             traceQUEUE_CREATE_FAILED( ucQueueType );
 371:../../../../dependencies/freertos/FreeRTOSv10.4.1/FreeRTOS/Source/queue.c ****             mtCOVERAGE_TEST_MARKER();
 372:../../../../dependencies/freertos/FreeRTOSv10.4.1/FreeRTOS/Source/queue.c ****         }
 373:../../../../dependencies/freertos/FreeRTOSv10.4.1/FreeRTOS/Source/queue.c **** 
 374:../../../../dependencies/freertos/FreeRTOSv10.4.1/FreeRTOS/Source/queue.c ****         return pxNewQueue;
 375:../../../../dependencies/freertos/FreeRTOSv10.4.1/FreeRTOS/Source/queue.c ****     }
 376:../../../../dependencies/freertos/FreeRTOSv10.4.1/FreeRTOS/Source/queue.c **** 
 377:../../../../dependencies/freertos/FreeRTOSv10.4.1/FreeRTOS/Source/queue.c **** #endif /* configSUPPORT_STATIC_ALLOCATION */
 378:../../../../dependencies/freertos/FreeRTOSv10.4.1/FreeRTOS/Source/queue.c **** /*-----------------------------------------------------------*/
 379:../../../../dependencies/freertos/FreeRTOSv10.4.1/FreeRTOS/Source/queue.c **** 
 380:../../../../dependencies/freertos/FreeRTOSv10.4.1/FreeRTOS/Source/queue.c **** #if ( configSUPPORT_DYNAMIC_ALLOCATION == 1 )
 381:../../../../dependencies/freertos/FreeRTOSv10.4.1/FreeRTOS/Source/queue.c **** 
 382:../../../../dependencies/freertos/FreeRTOSv10.4.1/FreeRTOS/Source/queue.c ****     QueueHandle_t xQueueGenericCreate( const UBaseType_t uxQueueLength,
 383:../../../../dependencies/freertos/FreeRTOSv10.4.1/FreeRTOS/Source/queue.c ****                                        const UBaseType_t uxItemSize,
 384:../../../../dependencies/freertos/FreeRTOSv10.4.1/FreeRTOS/Source/queue.c ****                                        const uint8_t ucQueueType )
 385:../../../../dependencies/freertos/FreeRTOSv10.4.1/FreeRTOS/Source/queue.c ****     {
 208              		.loc 1 385 5
 209              		.cfi_startproc
 210              		@ args = 0, pretend = 0, frame = 40
 211              		@ frame_needed = 1, uses_anonymous_args = 0
ARM GAS  /var/folders/kj/yzqgq53j3dg15vgwwwwgf5s00000gn/T//ccGgwidk.s 			page 15


 212 0000 80B5     		push	{r7, lr}
 213              	.LCFI5:
 214              		.cfi_def_cfa_offset 8
 215              		.cfi_offset 7, -8
 216              		.cfi_offset 14, -4
 217 0002 8CB0     		sub	sp, sp, #48
 218              	.LCFI6:
 219              		.cfi_def_cfa_offset 56
 220 0004 02AF     		add	r7, sp, #8
 221              	.LCFI7:
 222              		.cfi_def_cfa 7, 48
 223 0006 F860     		str	r0, [r7, #12]
 224 0008 B960     		str	r1, [r7, #8]
 225 000a 1346     		mov	r3, r2
 226 000c FB71     		strb	r3, [r7, #7]
 386:../../../../dependencies/freertos/FreeRTOSv10.4.1/FreeRTOS/Source/queue.c ****         Queue_t * pxNewQueue;
 387:../../../../dependencies/freertos/FreeRTOSv10.4.1/FreeRTOS/Source/queue.c ****         size_t xQueueSizeInBytes;
 388:../../../../dependencies/freertos/FreeRTOSv10.4.1/FreeRTOS/Source/queue.c ****         uint8_t * pucQueueStorage;
 389:../../../../dependencies/freertos/FreeRTOSv10.4.1/FreeRTOS/Source/queue.c **** 
 390:../../../../dependencies/freertos/FreeRTOSv10.4.1/FreeRTOS/Source/queue.c ****         configASSERT( uxQueueLength > ( UBaseType_t ) 0 );
 227              		.loc 1 390 9
 228 000e FB68     		ldr	r3, [r7, #12]
 229 0010 002B     		cmp	r3, #0
 230 0012 0AD1     		bne	.L10
 231              	.LBB113:
 232              	.LBB114:
 197:../../../../dependencies/freertos/FreeRTOSv10.4.1/FreeRTOS/Source/portable/GCC/ARM_CM4F/portmacro.h ****         (
 233              		.loc 2 197 9
 234              		.syntax unified
 235              	@ 197 "../../../../dependencies/freertos/FreeRTOSv10.4.1/FreeRTOS/Source/portable/GCC/ARM_CM4F/port
 236 0014 4FF05003 			mov r3, #80												
 237 0018 83F31188 		msr basepri, r3											
 238 001c BFF36F8F 		isb														
 239 0020 BFF34F8F 		dsb														
 240              	
 241              	@ 0 "" 2
 242              		.thumb
 243              		.syntax unified
 244 0024 BB61     		str	r3, [r7, #24]
 245              		.loc 2 205 5
 246 0026 00BF     		nop
 247              	.L11:
 248              	.LBE114:
 249              	.LBE113:
 250              		.loc 1 390 9 discriminator 1
 251 0028 FEE7     		b	.L11
 252              	.L10:
 391:../../../../dependencies/freertos/FreeRTOSv10.4.1/FreeRTOS/Source/queue.c **** 
 392:../../../../dependencies/freertos/FreeRTOSv10.4.1/FreeRTOS/Source/queue.c ****         /* Allocate enough space to hold the maximum number of items that
 393:../../../../dependencies/freertos/FreeRTOSv10.4.1/FreeRTOS/Source/queue.c ****          * can be in the queue at any time.  It is valid for uxItemSize to be
 394:../../../../dependencies/freertos/FreeRTOSv10.4.1/FreeRTOS/Source/queue.c ****          * zero in the case the queue is used as a semaphore. */
 395:../../../../dependencies/freertos/FreeRTOSv10.4.1/FreeRTOS/Source/queue.c ****         xQueueSizeInBytes = ( size_t ) ( uxQueueLength * uxItemSize ); /*lint !e961 MISRA exception
 253              		.loc 1 395 27
 254 002a FB68     		ldr	r3, [r7, #12]
 255 002c BA68     		ldr	r2, [r7, #8]
 256 002e 02FB03F3 		mul	r3, r2, r3
 257 0032 7B62     		str	r3, [r7, #36]
ARM GAS  /var/folders/kj/yzqgq53j3dg15vgwwwwgf5s00000gn/T//ccGgwidk.s 			page 16


 396:../../../../dependencies/freertos/FreeRTOSv10.4.1/FreeRTOS/Source/queue.c **** 
 397:../../../../dependencies/freertos/FreeRTOSv10.4.1/FreeRTOS/Source/queue.c ****         /* Check for multiplication overflow. */
 398:../../../../dependencies/freertos/FreeRTOSv10.4.1/FreeRTOS/Source/queue.c ****         configASSERT( ( uxItemSize == 0 ) || ( uxQueueLength == ( xQueueSizeInBytes / uxItemSize ) 
 258              		.loc 1 398 9
 259 0034 BB68     		ldr	r3, [r7, #8]
 260 0036 002B     		cmp	r3, #0
 261 0038 06D0     		beq	.L12
 262              		.loc 1 398 9 is_stmt 0 discriminator 2
 263 003a 7A6A     		ldr	r2, [r7, #36]
 264 003c BB68     		ldr	r3, [r7, #8]
 265 003e B2FBF3F3 		udiv	r3, r2, r3
 266 0042 FA68     		ldr	r2, [r7, #12]
 267 0044 9A42     		cmp	r2, r3
 268 0046 01D1     		bne	.L13
 269              	.L12:
 270              		.loc 1 398 9 discriminator 3
 271 0048 0123     		movs	r3, #1
 272 004a 00E0     		b	.L14
 273              	.L13:
 274              		.loc 1 398 9 discriminator 4
 275 004c 0023     		movs	r3, #0
 276              	.L14:
 277              		.loc 1 398 9 discriminator 6
 278 004e 002B     		cmp	r3, #0
 279 0050 0AD1     		bne	.L15
 280              	.LBB115:
 281              	.LBB116:
 197:../../../../dependencies/freertos/FreeRTOSv10.4.1/FreeRTOS/Source/portable/GCC/ARM_CM4F/portmacro.h ****         (
 282              		.loc 2 197 9 is_stmt 1
 283              		.syntax unified
 284              	@ 197 "../../../../dependencies/freertos/FreeRTOSv10.4.1/FreeRTOS/Source/portable/GCC/ARM_CM4F/port
 285 0052 4FF05003 			mov r3, #80												
 286 0056 83F31188 		msr basepri, r3											
 287 005a BFF36F8F 		isb														
 288 005e BFF34F8F 		dsb														
 289              	
 290              	@ 0 "" 2
 291              		.thumb
 292              		.syntax unified
 293 0062 7B61     		str	r3, [r7, #20]
 294              		.loc 2 205 5
 295 0064 00BF     		nop
 296              	.L16:
 297              	.LBE116:
 298              	.LBE115:
 299              		.loc 1 398 9 discriminator 2
 300 0066 FEE7     		b	.L16
 301              	.L15:
 399:../../../../dependencies/freertos/FreeRTOSv10.4.1/FreeRTOS/Source/queue.c **** 
 400:../../../../dependencies/freertos/FreeRTOSv10.4.1/FreeRTOS/Source/queue.c ****         /* Allocate the queue and storage area.  Justification for MISRA
 401:../../../../dependencies/freertos/FreeRTOSv10.4.1/FreeRTOS/Source/queue.c ****          * deviation as follows:  pvPortMalloc() always ensures returned memory
 402:../../../../dependencies/freertos/FreeRTOSv10.4.1/FreeRTOS/Source/queue.c ****          * blocks are aligned per the requirements of the MCU stack.  In this case
 403:../../../../dependencies/freertos/FreeRTOSv10.4.1/FreeRTOS/Source/queue.c ****          * pvPortMalloc() must return a pointer that is guaranteed to meet the
 404:../../../../dependencies/freertos/FreeRTOSv10.4.1/FreeRTOS/Source/queue.c ****          * alignment requirements of the Queue_t structure - which in this case
 405:../../../../dependencies/freertos/FreeRTOSv10.4.1/FreeRTOS/Source/queue.c ****          * is an int8_t *.  Therefore, whenever the stack alignment requirements
 406:../../../../dependencies/freertos/FreeRTOSv10.4.1/FreeRTOS/Source/queue.c ****          * are greater than or equal to the pointer to char requirements the cast
 407:../../../../dependencies/freertos/FreeRTOSv10.4.1/FreeRTOS/Source/queue.c ****          * is safe.  In other cases alignment requirements are not strict (one or
ARM GAS  /var/folders/kj/yzqgq53j3dg15vgwwwwgf5s00000gn/T//ccGgwidk.s 			page 17


 408:../../../../dependencies/freertos/FreeRTOSv10.4.1/FreeRTOS/Source/queue.c ****          * two bytes). */
 409:../../../../dependencies/freertos/FreeRTOSv10.4.1/FreeRTOS/Source/queue.c ****         pxNewQueue = ( Queue_t * ) pvPortMalloc( sizeof( Queue_t ) + xQueueSizeInBytes ); /*lint !e
 302              		.loc 1 409 36
 303 0068 7B6A     		ldr	r3, [r7, #36]
 304 006a 5033     		adds	r3, r3, #80
 305 006c 1846     		mov	r0, r3
 306 006e FFF7FEFF 		bl	pvPortMalloc
 307 0072 3862     		str	r0, [r7, #32]
 410:../../../../dependencies/freertos/FreeRTOSv10.4.1/FreeRTOS/Source/queue.c **** 
 411:../../../../dependencies/freertos/FreeRTOSv10.4.1/FreeRTOS/Source/queue.c ****         if( pxNewQueue != NULL )
 308              		.loc 1 411 11
 309 0074 3B6A     		ldr	r3, [r7, #32]
 310 0076 002B     		cmp	r3, #0
 311 0078 0DD0     		beq	.L17
 412:../../../../dependencies/freertos/FreeRTOSv10.4.1/FreeRTOS/Source/queue.c ****         {
 413:../../../../dependencies/freertos/FreeRTOSv10.4.1/FreeRTOS/Source/queue.c ****             /* Jump past the queue structure to find the location of the queue
 414:../../../../dependencies/freertos/FreeRTOSv10.4.1/FreeRTOS/Source/queue.c ****              * storage area. */
 415:../../../../dependencies/freertos/FreeRTOSv10.4.1/FreeRTOS/Source/queue.c ****             pucQueueStorage = ( uint8_t * ) pxNewQueue;
 312              		.loc 1 415 29
 313 007a 3B6A     		ldr	r3, [r7, #32]
 314 007c FB61     		str	r3, [r7, #28]
 416:../../../../dependencies/freertos/FreeRTOSv10.4.1/FreeRTOS/Source/queue.c ****             pucQueueStorage += sizeof( Queue_t ); /*lint !e9016 Pointer arithmetic allowed on char 
 315              		.loc 1 416 29
 316 007e FB69     		ldr	r3, [r7, #28]
 317 0080 5033     		adds	r3, r3, #80
 318 0082 FB61     		str	r3, [r7, #28]
 417:../../../../dependencies/freertos/FreeRTOSv10.4.1/FreeRTOS/Source/queue.c **** 
 418:../../../../dependencies/freertos/FreeRTOSv10.4.1/FreeRTOS/Source/queue.c ****             #if ( configSUPPORT_STATIC_ALLOCATION == 1 )
 419:../../../../dependencies/freertos/FreeRTOSv10.4.1/FreeRTOS/Source/queue.c ****                 {
 420:../../../../dependencies/freertos/FreeRTOSv10.4.1/FreeRTOS/Source/queue.c ****                     /* Queues can be created either statically or dynamically, so
 421:../../../../dependencies/freertos/FreeRTOSv10.4.1/FreeRTOS/Source/queue.c ****                      * note this task was created dynamically in case it is later
 422:../../../../dependencies/freertos/FreeRTOSv10.4.1/FreeRTOS/Source/queue.c ****                      * deleted. */
 423:../../../../dependencies/freertos/FreeRTOSv10.4.1/FreeRTOS/Source/queue.c ****                     pxNewQueue->ucStaticallyAllocated = pdFALSE;
 424:../../../../dependencies/freertos/FreeRTOSv10.4.1/FreeRTOS/Source/queue.c ****                 }
 425:../../../../dependencies/freertos/FreeRTOSv10.4.1/FreeRTOS/Source/queue.c ****             #endif /* configSUPPORT_STATIC_ALLOCATION */
 426:../../../../dependencies/freertos/FreeRTOSv10.4.1/FreeRTOS/Source/queue.c **** 
 427:../../../../dependencies/freertos/FreeRTOSv10.4.1/FreeRTOS/Source/queue.c ****             prvInitialiseNewQueue( uxQueueLength, uxItemSize, pucQueueStorage, ucQueueType, pxNewQu
 319              		.loc 1 427 13
 320 0084 FA79     		ldrb	r2, [r7, #7]	@ zero_extendqisi2
 321 0086 3B6A     		ldr	r3, [r7, #32]
 322 0088 0093     		str	r3, [sp]
 323 008a 1346     		mov	r3, r2
 324 008c FA69     		ldr	r2, [r7, #28]
 325 008e B968     		ldr	r1, [r7, #8]
 326 0090 F868     		ldr	r0, [r7, #12]
 327 0092 FFF7FEFF 		bl	prvInitialiseNewQueue
 328              	.L17:
 428:../../../../dependencies/freertos/FreeRTOSv10.4.1/FreeRTOS/Source/queue.c ****         }
 429:../../../../dependencies/freertos/FreeRTOSv10.4.1/FreeRTOS/Source/queue.c ****         else
 430:../../../../dependencies/freertos/FreeRTOSv10.4.1/FreeRTOS/Source/queue.c ****         {
 431:../../../../dependencies/freertos/FreeRTOSv10.4.1/FreeRTOS/Source/queue.c ****             traceQUEUE_CREATE_FAILED( ucQueueType );
 432:../../../../dependencies/freertos/FreeRTOSv10.4.1/FreeRTOS/Source/queue.c ****             mtCOVERAGE_TEST_MARKER();
 433:../../../../dependencies/freertos/FreeRTOSv10.4.1/FreeRTOS/Source/queue.c ****         }
 434:../../../../dependencies/freertos/FreeRTOSv10.4.1/FreeRTOS/Source/queue.c **** 
 435:../../../../dependencies/freertos/FreeRTOSv10.4.1/FreeRTOS/Source/queue.c ****         return pxNewQueue;
 329              		.loc 1 435 16
 330 0096 3B6A     		ldr	r3, [r7, #32]
ARM GAS  /var/folders/kj/yzqgq53j3dg15vgwwwwgf5s00000gn/T//ccGgwidk.s 			page 18


 436:../../../../dependencies/freertos/FreeRTOSv10.4.1/FreeRTOS/Source/queue.c ****     }
 331              		.loc 1 436 5
 332 0098 1846     		mov	r0, r3
 333 009a 2837     		adds	r7, r7, #40
 334              	.LCFI8:
 335              		.cfi_def_cfa_offset 8
 336 009c BD46     		mov	sp, r7
 337              	.LCFI9:
 338              		.cfi_def_cfa_register 13
 339              		@ sp needed
 340 009e 80BD     		pop	{r7, pc}
 341              		.cfi_endproc
 342              	.LFE6:
 344              		.section	.text.prvInitialiseNewQueue,"ax",%progbits
 345              		.align	1
 346              		.syntax unified
 347              		.thumb
 348              		.thumb_func
 349              		.fpu fpv4-sp-d16
 351              	prvInitialiseNewQueue:
 352              	.LFB7:
 437:../../../../dependencies/freertos/FreeRTOSv10.4.1/FreeRTOS/Source/queue.c **** 
 438:../../../../dependencies/freertos/FreeRTOSv10.4.1/FreeRTOS/Source/queue.c **** #endif /* configSUPPORT_STATIC_ALLOCATION */
 439:../../../../dependencies/freertos/FreeRTOSv10.4.1/FreeRTOS/Source/queue.c **** /*-----------------------------------------------------------*/
 440:../../../../dependencies/freertos/FreeRTOSv10.4.1/FreeRTOS/Source/queue.c **** 
 441:../../../../dependencies/freertos/FreeRTOSv10.4.1/FreeRTOS/Source/queue.c **** static void prvInitialiseNewQueue( const UBaseType_t uxQueueLength,
 442:../../../../dependencies/freertos/FreeRTOSv10.4.1/FreeRTOS/Source/queue.c ****                                    const UBaseType_t uxItemSize,
 443:../../../../dependencies/freertos/FreeRTOSv10.4.1/FreeRTOS/Source/queue.c ****                                    uint8_t * pucQueueStorage,
 444:../../../../dependencies/freertos/FreeRTOSv10.4.1/FreeRTOS/Source/queue.c ****                                    const uint8_t ucQueueType,
 445:../../../../dependencies/freertos/FreeRTOSv10.4.1/FreeRTOS/Source/queue.c ****                                    Queue_t * pxNewQueue )
 446:../../../../dependencies/freertos/FreeRTOSv10.4.1/FreeRTOS/Source/queue.c **** {
 353              		.loc 1 446 1
 354              		.cfi_startproc
 355              		@ args = 4, pretend = 0, frame = 16
 356              		@ frame_needed = 1, uses_anonymous_args = 0
 357 0000 80B5     		push	{r7, lr}
 358              	.LCFI10:
 359              		.cfi_def_cfa_offset 8
 360              		.cfi_offset 7, -8
 361              		.cfi_offset 14, -4
 362 0002 84B0     		sub	sp, sp, #16
 363              	.LCFI11:
 364              		.cfi_def_cfa_offset 24
 365 0004 00AF     		add	r7, sp, #0
 366              	.LCFI12:
 367              		.cfi_def_cfa_register 7
 368 0006 F860     		str	r0, [r7, #12]
 369 0008 B960     		str	r1, [r7, #8]
 370 000a 7A60     		str	r2, [r7, #4]
 371 000c FB70     		strb	r3, [r7, #3]
 447:../../../../dependencies/freertos/FreeRTOSv10.4.1/FreeRTOS/Source/queue.c ****     /* Remove compiler warnings about unused parameters should
 448:../../../../dependencies/freertos/FreeRTOSv10.4.1/FreeRTOS/Source/queue.c ****      * configUSE_TRACE_FACILITY not be set to 1. */
 449:../../../../dependencies/freertos/FreeRTOSv10.4.1/FreeRTOS/Source/queue.c ****     ( void ) ucQueueType;
 450:../../../../dependencies/freertos/FreeRTOSv10.4.1/FreeRTOS/Source/queue.c **** 
 451:../../../../dependencies/freertos/FreeRTOSv10.4.1/FreeRTOS/Source/queue.c ****     if( uxItemSize == ( UBaseType_t ) 0 )
 372              		.loc 1 451 7
 373 000e BB68     		ldr	r3, [r7, #8]
ARM GAS  /var/folders/kj/yzqgq53j3dg15vgwwwwgf5s00000gn/T//ccGgwidk.s 			page 19


 374 0010 002B     		cmp	r3, #0
 375 0012 03D1     		bne	.L20
 452:../../../../dependencies/freertos/FreeRTOSv10.4.1/FreeRTOS/Source/queue.c ****     {
 453:../../../../dependencies/freertos/FreeRTOSv10.4.1/FreeRTOS/Source/queue.c ****         /* No RAM was allocated for the queue storage area, but PC head cannot
 454:../../../../dependencies/freertos/FreeRTOSv10.4.1/FreeRTOS/Source/queue.c ****          * be set to NULL because NULL is used as a key to say the queue is used as
 455:../../../../dependencies/freertos/FreeRTOSv10.4.1/FreeRTOS/Source/queue.c ****          * a mutex.  Therefore just set pcHead to point to the queue as a benign
 456:../../../../dependencies/freertos/FreeRTOSv10.4.1/FreeRTOS/Source/queue.c ****          * value that is known to be within the memory map. */
 457:../../../../dependencies/freertos/FreeRTOSv10.4.1/FreeRTOS/Source/queue.c ****         pxNewQueue->pcHead = ( int8_t * ) pxNewQueue;
 376              		.loc 1 457 28
 377 0014 BB69     		ldr	r3, [r7, #24]
 378 0016 BA69     		ldr	r2, [r7, #24]
 379 0018 1A60     		str	r2, [r3]
 380 001a 02E0     		b	.L21
 381              	.L20:
 458:../../../../dependencies/freertos/FreeRTOSv10.4.1/FreeRTOS/Source/queue.c ****     }
 459:../../../../dependencies/freertos/FreeRTOSv10.4.1/FreeRTOS/Source/queue.c ****     else
 460:../../../../dependencies/freertos/FreeRTOSv10.4.1/FreeRTOS/Source/queue.c ****     {
 461:../../../../dependencies/freertos/FreeRTOSv10.4.1/FreeRTOS/Source/queue.c ****         /* Set the head to the start of the queue storage area. */
 462:../../../../dependencies/freertos/FreeRTOSv10.4.1/FreeRTOS/Source/queue.c ****         pxNewQueue->pcHead = ( int8_t * ) pucQueueStorage;
 382              		.loc 1 462 28
 383 001c BB69     		ldr	r3, [r7, #24]
 384 001e 7A68     		ldr	r2, [r7, #4]
 385 0020 1A60     		str	r2, [r3]
 386              	.L21:
 463:../../../../dependencies/freertos/FreeRTOSv10.4.1/FreeRTOS/Source/queue.c ****     }
 464:../../../../dependencies/freertos/FreeRTOSv10.4.1/FreeRTOS/Source/queue.c **** 
 465:../../../../dependencies/freertos/FreeRTOSv10.4.1/FreeRTOS/Source/queue.c ****     /* Initialise the queue members as described where the queue type is
 466:../../../../dependencies/freertos/FreeRTOSv10.4.1/FreeRTOS/Source/queue.c ****      * defined. */
 467:../../../../dependencies/freertos/FreeRTOSv10.4.1/FreeRTOS/Source/queue.c ****     pxNewQueue->uxLength = uxQueueLength;
 387              		.loc 1 467 26
 388 0022 BB69     		ldr	r3, [r7, #24]
 389 0024 FA68     		ldr	r2, [r7, #12]
 390 0026 DA63     		str	r2, [r3, #60]
 468:../../../../dependencies/freertos/FreeRTOSv10.4.1/FreeRTOS/Source/queue.c ****     pxNewQueue->uxItemSize = uxItemSize;
 391              		.loc 1 468 28
 392 0028 BB69     		ldr	r3, [r7, #24]
 393 002a BA68     		ldr	r2, [r7, #8]
 394 002c 1A64     		str	r2, [r3, #64]
 469:../../../../dependencies/freertos/FreeRTOSv10.4.1/FreeRTOS/Source/queue.c ****     ( void ) xQueueGenericReset( pxNewQueue, pdTRUE );
 395              		.loc 1 469 14
 396 002e 0121     		movs	r1, #1
 397 0030 B869     		ldr	r0, [r7, #24]
 398 0032 FFF7FEFF 		bl	xQueueGenericReset
 470:../../../../dependencies/freertos/FreeRTOSv10.4.1/FreeRTOS/Source/queue.c **** 
 471:../../../../dependencies/freertos/FreeRTOSv10.4.1/FreeRTOS/Source/queue.c ****     #if ( configUSE_TRACE_FACILITY == 1 )
 472:../../../../dependencies/freertos/FreeRTOSv10.4.1/FreeRTOS/Source/queue.c ****         {
 473:../../../../dependencies/freertos/FreeRTOSv10.4.1/FreeRTOS/Source/queue.c ****             pxNewQueue->ucQueueType = ucQueueType;
 399              		.loc 1 473 37
 400 0036 BB69     		ldr	r3, [r7, #24]
 401 0038 FA78     		ldrb	r2, [r7, #3]
 402 003a 83F84C20 		strb	r2, [r3, #76]
 474:../../../../dependencies/freertos/FreeRTOSv10.4.1/FreeRTOS/Source/queue.c ****         }
 475:../../../../dependencies/freertos/FreeRTOSv10.4.1/FreeRTOS/Source/queue.c ****     #endif /* configUSE_TRACE_FACILITY */
 476:../../../../dependencies/freertos/FreeRTOSv10.4.1/FreeRTOS/Source/queue.c **** 
 477:../../../../dependencies/freertos/FreeRTOSv10.4.1/FreeRTOS/Source/queue.c ****     #if ( configUSE_QUEUE_SETS == 1 )
 478:../../../../dependencies/freertos/FreeRTOSv10.4.1/FreeRTOS/Source/queue.c ****         {
 479:../../../../dependencies/freertos/FreeRTOSv10.4.1/FreeRTOS/Source/queue.c ****             pxNewQueue->pxQueueSetContainer = NULL;
ARM GAS  /var/folders/kj/yzqgq53j3dg15vgwwwwgf5s00000gn/T//ccGgwidk.s 			page 20


 480:../../../../dependencies/freertos/FreeRTOSv10.4.1/FreeRTOS/Source/queue.c ****         }
 481:../../../../dependencies/freertos/FreeRTOSv10.4.1/FreeRTOS/Source/queue.c ****     #endif /* configUSE_QUEUE_SETS */
 482:../../../../dependencies/freertos/FreeRTOSv10.4.1/FreeRTOS/Source/queue.c **** 
 483:../../../../dependencies/freertos/FreeRTOSv10.4.1/FreeRTOS/Source/queue.c ****     traceQUEUE_CREATE( pxNewQueue );
 484:../../../../dependencies/freertos/FreeRTOSv10.4.1/FreeRTOS/Source/queue.c **** }
 403              		.loc 1 484 1
 404 003e 00BF     		nop
 405 0040 1037     		adds	r7, r7, #16
 406              	.LCFI13:
 407              		.cfi_def_cfa_offset 8
 408 0042 BD46     		mov	sp, r7
 409              	.LCFI14:
 410              		.cfi_def_cfa_register 13
 411              		@ sp needed
 412 0044 80BD     		pop	{r7, pc}
 413              		.cfi_endproc
 414              	.LFE7:
 416              		.section	.text.prvInitialiseMutex,"ax",%progbits
 417              		.align	1
 418              		.syntax unified
 419              		.thumb
 420              		.thumb_func
 421              		.fpu fpv4-sp-d16
 423              	prvInitialiseMutex:
 424              	.LFB8:
 485:../../../../dependencies/freertos/FreeRTOSv10.4.1/FreeRTOS/Source/queue.c **** /*-----------------------------------------------------------*/
 486:../../../../dependencies/freertos/FreeRTOSv10.4.1/FreeRTOS/Source/queue.c **** 
 487:../../../../dependencies/freertos/FreeRTOSv10.4.1/FreeRTOS/Source/queue.c **** #if ( configUSE_MUTEXES == 1 )
 488:../../../../dependencies/freertos/FreeRTOSv10.4.1/FreeRTOS/Source/queue.c **** 
 489:../../../../dependencies/freertos/FreeRTOSv10.4.1/FreeRTOS/Source/queue.c ****     static void prvInitialiseMutex( Queue_t * pxNewQueue )
 490:../../../../dependencies/freertos/FreeRTOSv10.4.1/FreeRTOS/Source/queue.c ****     {
 425              		.loc 1 490 5
 426              		.cfi_startproc
 427              		@ args = 0, pretend = 0, frame = 8
 428              		@ frame_needed = 1, uses_anonymous_args = 0
 429 0000 80B5     		push	{r7, lr}
 430              	.LCFI15:
 431              		.cfi_def_cfa_offset 8
 432              		.cfi_offset 7, -8
 433              		.cfi_offset 14, -4
 434 0002 82B0     		sub	sp, sp, #8
 435              	.LCFI16:
 436              		.cfi_def_cfa_offset 16
 437 0004 00AF     		add	r7, sp, #0
 438              	.LCFI17:
 439              		.cfi_def_cfa_register 7
 440 0006 7860     		str	r0, [r7, #4]
 491:../../../../dependencies/freertos/FreeRTOSv10.4.1/FreeRTOS/Source/queue.c ****         if( pxNewQueue != NULL )
 441              		.loc 1 491 11
 442 0008 7B68     		ldr	r3, [r7, #4]
 443 000a 002B     		cmp	r3, #0
 444 000c 0ED0     		beq	.L24
 492:../../../../dependencies/freertos/FreeRTOSv10.4.1/FreeRTOS/Source/queue.c ****         {
 493:../../../../dependencies/freertos/FreeRTOSv10.4.1/FreeRTOS/Source/queue.c ****             /* The queue create function will set all the queue structure members
 494:../../../../dependencies/freertos/FreeRTOSv10.4.1/FreeRTOS/Source/queue.c ****             * correctly for a generic queue, but this function is creating a
 495:../../../../dependencies/freertos/FreeRTOSv10.4.1/FreeRTOS/Source/queue.c ****             * mutex.  Overwrite those members that need to be set differently -
 496:../../../../dependencies/freertos/FreeRTOSv10.4.1/FreeRTOS/Source/queue.c ****             * in particular the information required for priority inheritance. */
ARM GAS  /var/folders/kj/yzqgq53j3dg15vgwwwwgf5s00000gn/T//ccGgwidk.s 			page 21


 497:../../../../dependencies/freertos/FreeRTOSv10.4.1/FreeRTOS/Source/queue.c ****             pxNewQueue->u.xSemaphore.xMutexHolder = NULL;
 445              		.loc 1 497 51
 446 000e 7B68     		ldr	r3, [r7, #4]
 447 0010 0022     		movs	r2, #0
 448 0012 9A60     		str	r2, [r3, #8]
 498:../../../../dependencies/freertos/FreeRTOSv10.4.1/FreeRTOS/Source/queue.c ****             pxNewQueue->uxQueueType = queueQUEUE_IS_MUTEX;
 449              		.loc 1 498 37
 450 0014 7B68     		ldr	r3, [r7, #4]
 451 0016 0022     		movs	r2, #0
 452 0018 1A60     		str	r2, [r3]
 499:../../../../dependencies/freertos/FreeRTOSv10.4.1/FreeRTOS/Source/queue.c **** 
 500:../../../../dependencies/freertos/FreeRTOSv10.4.1/FreeRTOS/Source/queue.c ****             /* In case this is a recursive mutex. */
 501:../../../../dependencies/freertos/FreeRTOSv10.4.1/FreeRTOS/Source/queue.c ****             pxNewQueue->u.xSemaphore.uxRecursiveCallCount = 0;
 453              		.loc 1 501 59
 454 001a 7B68     		ldr	r3, [r7, #4]
 455 001c 0022     		movs	r2, #0
 456 001e DA60     		str	r2, [r3, #12]
 502:../../../../dependencies/freertos/FreeRTOSv10.4.1/FreeRTOS/Source/queue.c **** 
 503:../../../../dependencies/freertos/FreeRTOSv10.4.1/FreeRTOS/Source/queue.c ****             traceCREATE_MUTEX( pxNewQueue );
 504:../../../../dependencies/freertos/FreeRTOSv10.4.1/FreeRTOS/Source/queue.c **** 
 505:../../../../dependencies/freertos/FreeRTOSv10.4.1/FreeRTOS/Source/queue.c ****             /* Start with the semaphore in the expected state. */
 506:../../../../dependencies/freertos/FreeRTOSv10.4.1/FreeRTOS/Source/queue.c ****             ( void ) xQueueGenericSend( pxNewQueue, NULL, ( TickType_t ) 0U, queueSEND_TO_BACK );
 457              		.loc 1 506 22
 458 0020 0023     		movs	r3, #0
 459 0022 0022     		movs	r2, #0
 460 0024 0021     		movs	r1, #0
 461 0026 7868     		ldr	r0, [r7, #4]
 462 0028 FFF7FEFF 		bl	xQueueGenericSend
 463              	.L24:
 507:../../../../dependencies/freertos/FreeRTOSv10.4.1/FreeRTOS/Source/queue.c ****         }
 508:../../../../dependencies/freertos/FreeRTOSv10.4.1/FreeRTOS/Source/queue.c ****         else
 509:../../../../dependencies/freertos/FreeRTOSv10.4.1/FreeRTOS/Source/queue.c ****         {
 510:../../../../dependencies/freertos/FreeRTOSv10.4.1/FreeRTOS/Source/queue.c ****             traceCREATE_MUTEX_FAILED();
 511:../../../../dependencies/freertos/FreeRTOSv10.4.1/FreeRTOS/Source/queue.c ****         }
 512:../../../../dependencies/freertos/FreeRTOSv10.4.1/FreeRTOS/Source/queue.c ****     }
 464              		.loc 1 512 5
 465 002c 00BF     		nop
 466 002e 0837     		adds	r7, r7, #8
 467              	.LCFI18:
 468              		.cfi_def_cfa_offset 8
 469 0030 BD46     		mov	sp, r7
 470              	.LCFI19:
 471              		.cfi_def_cfa_register 13
 472              		@ sp needed
 473 0032 80BD     		pop	{r7, pc}
 474              		.cfi_endproc
 475              	.LFE8:
 477              		.section	.text.xQueueCreateMutex,"ax",%progbits
 478              		.align	1
 479              		.global	xQueueCreateMutex
 480              		.syntax unified
 481              		.thumb
 482              		.thumb_func
 483              		.fpu fpv4-sp-d16
 485              	xQueueCreateMutex:
 486              	.LFB9:
 513:../../../../dependencies/freertos/FreeRTOSv10.4.1/FreeRTOS/Source/queue.c **** 
ARM GAS  /var/folders/kj/yzqgq53j3dg15vgwwwwgf5s00000gn/T//ccGgwidk.s 			page 22


 514:../../../../dependencies/freertos/FreeRTOSv10.4.1/FreeRTOS/Source/queue.c **** #endif /* configUSE_MUTEXES */
 515:../../../../dependencies/freertos/FreeRTOSv10.4.1/FreeRTOS/Source/queue.c **** /*-----------------------------------------------------------*/
 516:../../../../dependencies/freertos/FreeRTOSv10.4.1/FreeRTOS/Source/queue.c **** 
 517:../../../../dependencies/freertos/FreeRTOSv10.4.1/FreeRTOS/Source/queue.c **** #if ( ( configUSE_MUTEXES == 1 ) && ( configSUPPORT_DYNAMIC_ALLOCATION == 1 ) )
 518:../../../../dependencies/freertos/FreeRTOSv10.4.1/FreeRTOS/Source/queue.c **** 
 519:../../../../dependencies/freertos/FreeRTOSv10.4.1/FreeRTOS/Source/queue.c ****     QueueHandle_t xQueueCreateMutex( const uint8_t ucQueueType )
 520:../../../../dependencies/freertos/FreeRTOSv10.4.1/FreeRTOS/Source/queue.c ****     {
 487              		.loc 1 520 5
 488              		.cfi_startproc
 489              		@ args = 0, pretend = 0, frame = 24
 490              		@ frame_needed = 1, uses_anonymous_args = 0
 491 0000 80B5     		push	{r7, lr}
 492              	.LCFI20:
 493              		.cfi_def_cfa_offset 8
 494              		.cfi_offset 7, -8
 495              		.cfi_offset 14, -4
 496 0002 86B0     		sub	sp, sp, #24
 497              	.LCFI21:
 498              		.cfi_def_cfa_offset 32
 499 0004 00AF     		add	r7, sp, #0
 500              	.LCFI22:
 501              		.cfi_def_cfa_register 7
 502 0006 0346     		mov	r3, r0
 503 0008 FB71     		strb	r3, [r7, #7]
 521:../../../../dependencies/freertos/FreeRTOSv10.4.1/FreeRTOS/Source/queue.c ****         QueueHandle_t xNewQueue;
 522:../../../../dependencies/freertos/FreeRTOSv10.4.1/FreeRTOS/Source/queue.c ****         const UBaseType_t uxMutexLength = ( UBaseType_t ) 1, uxMutexSize = ( UBaseType_t ) 0;
 504              		.loc 1 522 27
 505 000a 0123     		movs	r3, #1
 506 000c 7B61     		str	r3, [r7, #20]
 507              		.loc 1 522 62
 508 000e 0023     		movs	r3, #0
 509 0010 3B61     		str	r3, [r7, #16]
 523:../../../../dependencies/freertos/FreeRTOSv10.4.1/FreeRTOS/Source/queue.c **** 
 524:../../../../dependencies/freertos/FreeRTOSv10.4.1/FreeRTOS/Source/queue.c ****         xNewQueue = xQueueGenericCreate( uxMutexLength, uxMutexSize, ucQueueType );
 510              		.loc 1 524 21
 511 0012 FB79     		ldrb	r3, [r7, #7]	@ zero_extendqisi2
 512 0014 1A46     		mov	r2, r3
 513 0016 3969     		ldr	r1, [r7, #16]
 514 0018 7869     		ldr	r0, [r7, #20]
 515 001a FFF7FEFF 		bl	xQueueGenericCreate
 516 001e F860     		str	r0, [r7, #12]
 525:../../../../dependencies/freertos/FreeRTOSv10.4.1/FreeRTOS/Source/queue.c ****         prvInitialiseMutex( ( Queue_t * ) xNewQueue );
 517              		.loc 1 525 9
 518 0020 F868     		ldr	r0, [r7, #12]
 519 0022 FFF7FEFF 		bl	prvInitialiseMutex
 526:../../../../dependencies/freertos/FreeRTOSv10.4.1/FreeRTOS/Source/queue.c **** 
 527:../../../../dependencies/freertos/FreeRTOSv10.4.1/FreeRTOS/Source/queue.c ****         return xNewQueue;
 520              		.loc 1 527 16
 521 0026 FB68     		ldr	r3, [r7, #12]
 528:../../../../dependencies/freertos/FreeRTOSv10.4.1/FreeRTOS/Source/queue.c ****     }
 522              		.loc 1 528 5
 523 0028 1846     		mov	r0, r3
 524 002a 1837     		adds	r7, r7, #24
 525              	.LCFI23:
 526              		.cfi_def_cfa_offset 8
 527 002c BD46     		mov	sp, r7
 528              	.LCFI24:
ARM GAS  /var/folders/kj/yzqgq53j3dg15vgwwwwgf5s00000gn/T//ccGgwidk.s 			page 23


 529              		.cfi_def_cfa_register 13
 530              		@ sp needed
 531 002e 80BD     		pop	{r7, pc}
 532              		.cfi_endproc
 533              	.LFE9:
 535              		.section	.text.xQueueGetMutexHolder,"ax",%progbits
 536              		.align	1
 537              		.global	xQueueGetMutexHolder
 538              		.syntax unified
 539              		.thumb
 540              		.thumb_func
 541              		.fpu fpv4-sp-d16
 543              	xQueueGetMutexHolder:
 544              	.LFB10:
 529:../../../../dependencies/freertos/FreeRTOSv10.4.1/FreeRTOS/Source/queue.c **** 
 530:../../../../dependencies/freertos/FreeRTOSv10.4.1/FreeRTOS/Source/queue.c **** #endif /* configUSE_MUTEXES */
 531:../../../../dependencies/freertos/FreeRTOSv10.4.1/FreeRTOS/Source/queue.c **** /*-----------------------------------------------------------*/
 532:../../../../dependencies/freertos/FreeRTOSv10.4.1/FreeRTOS/Source/queue.c **** 
 533:../../../../dependencies/freertos/FreeRTOSv10.4.1/FreeRTOS/Source/queue.c **** #if ( ( configUSE_MUTEXES == 1 ) && ( configSUPPORT_STATIC_ALLOCATION == 1 ) )
 534:../../../../dependencies/freertos/FreeRTOSv10.4.1/FreeRTOS/Source/queue.c **** 
 535:../../../../dependencies/freertos/FreeRTOSv10.4.1/FreeRTOS/Source/queue.c ****     QueueHandle_t xQueueCreateMutexStatic( const uint8_t ucQueueType,
 536:../../../../dependencies/freertos/FreeRTOSv10.4.1/FreeRTOS/Source/queue.c ****                                            StaticQueue_t * pxStaticQueue )
 537:../../../../dependencies/freertos/FreeRTOSv10.4.1/FreeRTOS/Source/queue.c ****     {
 538:../../../../dependencies/freertos/FreeRTOSv10.4.1/FreeRTOS/Source/queue.c ****         QueueHandle_t xNewQueue;
 539:../../../../dependencies/freertos/FreeRTOSv10.4.1/FreeRTOS/Source/queue.c ****         const UBaseType_t uxMutexLength = ( UBaseType_t ) 1, uxMutexSize = ( UBaseType_t ) 0;
 540:../../../../dependencies/freertos/FreeRTOSv10.4.1/FreeRTOS/Source/queue.c **** 
 541:../../../../dependencies/freertos/FreeRTOSv10.4.1/FreeRTOS/Source/queue.c ****         /* Prevent compiler warnings about unused parameters if
 542:../../../../dependencies/freertos/FreeRTOSv10.4.1/FreeRTOS/Source/queue.c ****          * configUSE_TRACE_FACILITY does not equal 1. */
 543:../../../../dependencies/freertos/FreeRTOSv10.4.1/FreeRTOS/Source/queue.c ****         ( void ) ucQueueType;
 544:../../../../dependencies/freertos/FreeRTOSv10.4.1/FreeRTOS/Source/queue.c **** 
 545:../../../../dependencies/freertos/FreeRTOSv10.4.1/FreeRTOS/Source/queue.c ****         xNewQueue = xQueueGenericCreateStatic( uxMutexLength, uxMutexSize, NULL, pxStaticQueue, ucQ
 546:../../../../dependencies/freertos/FreeRTOSv10.4.1/FreeRTOS/Source/queue.c ****         prvInitialiseMutex( ( Queue_t * ) xNewQueue );
 547:../../../../dependencies/freertos/FreeRTOSv10.4.1/FreeRTOS/Source/queue.c **** 
 548:../../../../dependencies/freertos/FreeRTOSv10.4.1/FreeRTOS/Source/queue.c ****         return xNewQueue;
 549:../../../../dependencies/freertos/FreeRTOSv10.4.1/FreeRTOS/Source/queue.c ****     }
 550:../../../../dependencies/freertos/FreeRTOSv10.4.1/FreeRTOS/Source/queue.c **** 
 551:../../../../dependencies/freertos/FreeRTOSv10.4.1/FreeRTOS/Source/queue.c **** #endif /* configUSE_MUTEXES */
 552:../../../../dependencies/freertos/FreeRTOSv10.4.1/FreeRTOS/Source/queue.c **** /*-----------------------------------------------------------*/
 553:../../../../dependencies/freertos/FreeRTOSv10.4.1/FreeRTOS/Source/queue.c **** 
 554:../../../../dependencies/freertos/FreeRTOSv10.4.1/FreeRTOS/Source/queue.c **** #if ( ( configUSE_MUTEXES == 1 ) && ( INCLUDE_xSemaphoreGetMutexHolder == 1 ) )
 555:../../../../dependencies/freertos/FreeRTOSv10.4.1/FreeRTOS/Source/queue.c **** 
 556:../../../../dependencies/freertos/FreeRTOSv10.4.1/FreeRTOS/Source/queue.c ****     TaskHandle_t xQueueGetMutexHolder( QueueHandle_t xSemaphore )
 557:../../../../dependencies/freertos/FreeRTOSv10.4.1/FreeRTOS/Source/queue.c ****     {
 545              		.loc 1 557 5
 546              		.cfi_startproc
 547              		@ args = 0, pretend = 0, frame = 16
 548              		@ frame_needed = 1, uses_anonymous_args = 0
 549 0000 80B5     		push	{r7, lr}
 550              	.LCFI25:
 551              		.cfi_def_cfa_offset 8
 552              		.cfi_offset 7, -8
 553              		.cfi_offset 14, -4
 554 0002 84B0     		sub	sp, sp, #16
 555              	.LCFI26:
 556              		.cfi_def_cfa_offset 24
 557 0004 00AF     		add	r7, sp, #0
 558              	.LCFI27:
ARM GAS  /var/folders/kj/yzqgq53j3dg15vgwwwwgf5s00000gn/T//ccGgwidk.s 			page 24


 559              		.cfi_def_cfa_register 7
 560 0006 7860     		str	r0, [r7, #4]
 558:../../../../dependencies/freertos/FreeRTOSv10.4.1/FreeRTOS/Source/queue.c ****         TaskHandle_t pxReturn;
 559:../../../../dependencies/freertos/FreeRTOSv10.4.1/FreeRTOS/Source/queue.c ****         Queue_t * const pxSemaphore = ( Queue_t * ) xSemaphore;
 561              		.loc 1 559 25
 562 0008 7B68     		ldr	r3, [r7, #4]
 563 000a BB60     		str	r3, [r7, #8]
 560:../../../../dependencies/freertos/FreeRTOSv10.4.1/FreeRTOS/Source/queue.c **** 
 561:../../../../dependencies/freertos/FreeRTOSv10.4.1/FreeRTOS/Source/queue.c ****         /* This function is called by xSemaphoreGetMutexHolder(), and should not
 562:../../../../dependencies/freertos/FreeRTOSv10.4.1/FreeRTOS/Source/queue.c ****          * be called directly.  Note:  This is a good way of determining if the
 563:../../../../dependencies/freertos/FreeRTOSv10.4.1/FreeRTOS/Source/queue.c ****          * calling task is the mutex holder, but not a good way of determining the
 564:../../../../dependencies/freertos/FreeRTOSv10.4.1/FreeRTOS/Source/queue.c ****          * identity of the mutex holder, as the holder may change between the
 565:../../../../dependencies/freertos/FreeRTOSv10.4.1/FreeRTOS/Source/queue.c ****          * following critical section exiting and the function returning. */
 566:../../../../dependencies/freertos/FreeRTOSv10.4.1/FreeRTOS/Source/queue.c ****         taskENTER_CRITICAL();
 564              		.loc 1 566 9
 565 000c FFF7FEFF 		bl	vPortEnterCritical
 567:../../../../dependencies/freertos/FreeRTOSv10.4.1/FreeRTOS/Source/queue.c ****         {
 568:../../../../dependencies/freertos/FreeRTOSv10.4.1/FreeRTOS/Source/queue.c ****             if( pxSemaphore->uxQueueType == queueQUEUE_IS_MUTEX )
 566              		.loc 1 568 28
 567 0010 BB68     		ldr	r3, [r7, #8]
 568 0012 1B68     		ldr	r3, [r3]
 569              		.loc 1 568 15
 570 0014 002B     		cmp	r3, #0
 571 0016 03D1     		bne	.L28
 569:../../../../dependencies/freertos/FreeRTOSv10.4.1/FreeRTOS/Source/queue.c ****             {
 570:../../../../dependencies/freertos/FreeRTOSv10.4.1/FreeRTOS/Source/queue.c ****                 pxReturn = pxSemaphore->u.xSemaphore.xMutexHolder;
 572              		.loc 1 570 26
 573 0018 BB68     		ldr	r3, [r7, #8]
 574 001a 9B68     		ldr	r3, [r3, #8]
 575 001c FB60     		str	r3, [r7, #12]
 576 001e 01E0     		b	.L29
 577              	.L28:
 571:../../../../dependencies/freertos/FreeRTOSv10.4.1/FreeRTOS/Source/queue.c ****             }
 572:../../../../dependencies/freertos/FreeRTOSv10.4.1/FreeRTOS/Source/queue.c ****             else
 573:../../../../dependencies/freertos/FreeRTOSv10.4.1/FreeRTOS/Source/queue.c ****             {
 574:../../../../dependencies/freertos/FreeRTOSv10.4.1/FreeRTOS/Source/queue.c ****                 pxReturn = NULL;
 578              		.loc 1 574 26
 579 0020 0023     		movs	r3, #0
 580 0022 FB60     		str	r3, [r7, #12]
 581              	.L29:
 575:../../../../dependencies/freertos/FreeRTOSv10.4.1/FreeRTOS/Source/queue.c ****             }
 576:../../../../dependencies/freertos/FreeRTOSv10.4.1/FreeRTOS/Source/queue.c ****         }
 577:../../../../dependencies/freertos/FreeRTOSv10.4.1/FreeRTOS/Source/queue.c ****         taskEXIT_CRITICAL();
 582              		.loc 1 577 9
 583 0024 FFF7FEFF 		bl	vPortExitCritical
 578:../../../../dependencies/freertos/FreeRTOSv10.4.1/FreeRTOS/Source/queue.c **** 
 579:../../../../dependencies/freertos/FreeRTOSv10.4.1/FreeRTOS/Source/queue.c ****         return pxReturn;
 584              		.loc 1 579 16
 585 0028 FB68     		ldr	r3, [r7, #12]
 580:../../../../dependencies/freertos/FreeRTOSv10.4.1/FreeRTOS/Source/queue.c ****     } /*lint !e818 xSemaphore cannot be a pointer to const because it is a typedef. */
 586              		.loc 1 580 5
 587 002a 1846     		mov	r0, r3
 588 002c 1037     		adds	r7, r7, #16
 589              	.LCFI28:
 590              		.cfi_def_cfa_offset 8
 591 002e BD46     		mov	sp, r7
 592              	.LCFI29:
ARM GAS  /var/folders/kj/yzqgq53j3dg15vgwwwwgf5s00000gn/T//ccGgwidk.s 			page 25


 593              		.cfi_def_cfa_register 13
 594              		@ sp needed
 595 0030 80BD     		pop	{r7, pc}
 596              		.cfi_endproc
 597              	.LFE10:
 599              		.section	.text.xQueueGetMutexHolderFromISR,"ax",%progbits
 600              		.align	1
 601              		.global	xQueueGetMutexHolderFromISR
 602              		.syntax unified
 603              		.thumb
 604              		.thumb_func
 605              		.fpu fpv4-sp-d16
 607              	xQueueGetMutexHolderFromISR:
 608              	.LFB11:
 581:../../../../dependencies/freertos/FreeRTOSv10.4.1/FreeRTOS/Source/queue.c **** 
 582:../../../../dependencies/freertos/FreeRTOSv10.4.1/FreeRTOS/Source/queue.c **** #endif /* if ( ( configUSE_MUTEXES == 1 ) && ( INCLUDE_xSemaphoreGetMutexHolder == 1 ) ) */
 583:../../../../dependencies/freertos/FreeRTOSv10.4.1/FreeRTOS/Source/queue.c **** /*-----------------------------------------------------------*/
 584:../../../../dependencies/freertos/FreeRTOSv10.4.1/FreeRTOS/Source/queue.c **** 
 585:../../../../dependencies/freertos/FreeRTOSv10.4.1/FreeRTOS/Source/queue.c **** #if ( ( configUSE_MUTEXES == 1 ) && ( INCLUDE_xSemaphoreGetMutexHolder == 1 ) )
 586:../../../../dependencies/freertos/FreeRTOSv10.4.1/FreeRTOS/Source/queue.c **** 
 587:../../../../dependencies/freertos/FreeRTOSv10.4.1/FreeRTOS/Source/queue.c ****     TaskHandle_t xQueueGetMutexHolderFromISR( QueueHandle_t xSemaphore )
 588:../../../../dependencies/freertos/FreeRTOSv10.4.1/FreeRTOS/Source/queue.c ****     {
 609              		.loc 1 588 5
 610              		.cfi_startproc
 611              		@ args = 0, pretend = 0, frame = 16
 612              		@ frame_needed = 1, uses_anonymous_args = 0
 613              		@ link register save eliminated.
 614 0000 80B4     		push	{r7}
 615              	.LCFI30:
 616              		.cfi_def_cfa_offset 4
 617              		.cfi_offset 7, -4
 618 0002 85B0     		sub	sp, sp, #20
 619              	.LCFI31:
 620              		.cfi_def_cfa_offset 24
 621 0004 00AF     		add	r7, sp, #0
 622              	.LCFI32:
 623              		.cfi_def_cfa_register 7
 624 0006 7860     		str	r0, [r7, #4]
 589:../../../../dependencies/freertos/FreeRTOSv10.4.1/FreeRTOS/Source/queue.c ****         TaskHandle_t pxReturn;
 590:../../../../dependencies/freertos/FreeRTOSv10.4.1/FreeRTOS/Source/queue.c **** 
 591:../../../../dependencies/freertos/FreeRTOSv10.4.1/FreeRTOS/Source/queue.c ****         configASSERT( xSemaphore );
 625              		.loc 1 591 9
 626 0008 7B68     		ldr	r3, [r7, #4]
 627 000a 002B     		cmp	r3, #0
 628 000c 0AD1     		bne	.L32
 629              	.LBB117:
 630              	.LBB118:
 197:../../../../dependencies/freertos/FreeRTOSv10.4.1/FreeRTOS/Source/portable/GCC/ARM_CM4F/portmacro.h ****         (
 631              		.loc 2 197 9
 632              		.syntax unified
 633              	@ 197 "../../../../dependencies/freertos/FreeRTOSv10.4.1/FreeRTOS/Source/portable/GCC/ARM_CM4F/port
 634 000e 4FF05003 			mov r3, #80												
 635 0012 83F31188 		msr basepri, r3											
 636 0016 BFF36F8F 		isb														
 637 001a BFF34F8F 		dsb														
 638              	
 639              	@ 0 "" 2
ARM GAS  /var/folders/kj/yzqgq53j3dg15vgwwwwgf5s00000gn/T//ccGgwidk.s 			page 26


 640              		.thumb
 641              		.syntax unified
 642 001e BB60     		str	r3, [r7, #8]
 643              		.loc 2 205 5
 644 0020 00BF     		nop
 645              	.L33:
 646              	.LBE118:
 647              	.LBE117:
 648              		.loc 1 591 9 discriminator 1
 649 0022 FEE7     		b	.L33
 650              	.L32:
 592:../../../../dependencies/freertos/FreeRTOSv10.4.1/FreeRTOS/Source/queue.c **** 
 593:../../../../dependencies/freertos/FreeRTOSv10.4.1/FreeRTOS/Source/queue.c ****         /* Mutexes cannot be used in interrupt service routines, so the mutex
 594:../../../../dependencies/freertos/FreeRTOSv10.4.1/FreeRTOS/Source/queue.c ****          * holder should not change in an ISR, and therefore a critical section is
 595:../../../../dependencies/freertos/FreeRTOSv10.4.1/FreeRTOS/Source/queue.c ****          * not required here. */
 596:../../../../dependencies/freertos/FreeRTOSv10.4.1/FreeRTOS/Source/queue.c ****         if( ( ( Queue_t * ) xSemaphore )->uxQueueType == queueQUEUE_IS_MUTEX )
 651              		.loc 1 596 41
 652 0024 7B68     		ldr	r3, [r7, #4]
 653 0026 1B68     		ldr	r3, [r3]
 654              		.loc 1 596 11
 655 0028 002B     		cmp	r3, #0
 656 002a 03D1     		bne	.L34
 597:../../../../dependencies/freertos/FreeRTOSv10.4.1/FreeRTOS/Source/queue.c ****         {
 598:../../../../dependencies/freertos/FreeRTOSv10.4.1/FreeRTOS/Source/queue.c ****             pxReturn = ( ( Queue_t * ) xSemaphore )->u.xSemaphore.xMutexHolder;
 657              		.loc 1 598 22
 658 002c 7B68     		ldr	r3, [r7, #4]
 659 002e 9B68     		ldr	r3, [r3, #8]
 660 0030 FB60     		str	r3, [r7, #12]
 661 0032 01E0     		b	.L35
 662              	.L34:
 599:../../../../dependencies/freertos/FreeRTOSv10.4.1/FreeRTOS/Source/queue.c ****         }
 600:../../../../dependencies/freertos/FreeRTOSv10.4.1/FreeRTOS/Source/queue.c ****         else
 601:../../../../dependencies/freertos/FreeRTOSv10.4.1/FreeRTOS/Source/queue.c ****         {
 602:../../../../dependencies/freertos/FreeRTOSv10.4.1/FreeRTOS/Source/queue.c ****             pxReturn = NULL;
 663              		.loc 1 602 22
 664 0034 0023     		movs	r3, #0
 665 0036 FB60     		str	r3, [r7, #12]
 666              	.L35:
 603:../../../../dependencies/freertos/FreeRTOSv10.4.1/FreeRTOS/Source/queue.c ****         }
 604:../../../../dependencies/freertos/FreeRTOSv10.4.1/FreeRTOS/Source/queue.c **** 
 605:../../../../dependencies/freertos/FreeRTOSv10.4.1/FreeRTOS/Source/queue.c ****         return pxReturn;
 667              		.loc 1 605 16
 668 0038 FB68     		ldr	r3, [r7, #12]
 606:../../../../dependencies/freertos/FreeRTOSv10.4.1/FreeRTOS/Source/queue.c ****     } /*lint !e818 xSemaphore cannot be a pointer to const because it is a typedef. */
 669              		.loc 1 606 5
 670 003a 1846     		mov	r0, r3
 671 003c 1437     		adds	r7, r7, #20
 672              	.LCFI33:
 673              		.cfi_def_cfa_offset 4
 674 003e BD46     		mov	sp, r7
 675              	.LCFI34:
 676              		.cfi_def_cfa_register 13
 677              		@ sp needed
 678 0040 5DF8047B 		ldr	r7, [sp], #4
 679              	.LCFI35:
 680              		.cfi_restore 7
 681              		.cfi_def_cfa_offset 0
ARM GAS  /var/folders/kj/yzqgq53j3dg15vgwwwwgf5s00000gn/T//ccGgwidk.s 			page 27


 682 0044 7047     		bx	lr
 683              		.cfi_endproc
 684              	.LFE11:
 686              		.section	.text.xQueueGiveMutexRecursive,"ax",%progbits
 687              		.align	1
 688              		.global	xQueueGiveMutexRecursive
 689              		.syntax unified
 690              		.thumb
 691              		.thumb_func
 692              		.fpu fpv4-sp-d16
 694              	xQueueGiveMutexRecursive:
 695              	.LFB12:
 607:../../../../dependencies/freertos/FreeRTOSv10.4.1/FreeRTOS/Source/queue.c **** 
 608:../../../../dependencies/freertos/FreeRTOSv10.4.1/FreeRTOS/Source/queue.c **** #endif /* if ( ( configUSE_MUTEXES == 1 ) && ( INCLUDE_xSemaphoreGetMutexHolder == 1 ) ) */
 609:../../../../dependencies/freertos/FreeRTOSv10.4.1/FreeRTOS/Source/queue.c **** /*-----------------------------------------------------------*/
 610:../../../../dependencies/freertos/FreeRTOSv10.4.1/FreeRTOS/Source/queue.c **** 
 611:../../../../dependencies/freertos/FreeRTOSv10.4.1/FreeRTOS/Source/queue.c **** #if ( configUSE_RECURSIVE_MUTEXES == 1 )
 612:../../../../dependencies/freertos/FreeRTOSv10.4.1/FreeRTOS/Source/queue.c **** 
 613:../../../../dependencies/freertos/FreeRTOSv10.4.1/FreeRTOS/Source/queue.c ****     BaseType_t xQueueGiveMutexRecursive( QueueHandle_t xMutex )
 614:../../../../dependencies/freertos/FreeRTOSv10.4.1/FreeRTOS/Source/queue.c ****     {
 696              		.loc 1 614 5
 697              		.cfi_startproc
 698              		@ args = 0, pretend = 0, frame = 24
 699              		@ frame_needed = 1, uses_anonymous_args = 0
 700 0000 90B5     		push	{r4, r7, lr}
 701              	.LCFI36:
 702              		.cfi_def_cfa_offset 12
 703              		.cfi_offset 4, -12
 704              		.cfi_offset 7, -8
 705              		.cfi_offset 14, -4
 706 0002 87B0     		sub	sp, sp, #28
 707              	.LCFI37:
 708              		.cfi_def_cfa_offset 40
 709 0004 00AF     		add	r7, sp, #0
 710              	.LCFI38:
 711              		.cfi_def_cfa_register 7
 712 0006 7860     		str	r0, [r7, #4]
 615:../../../../dependencies/freertos/FreeRTOSv10.4.1/FreeRTOS/Source/queue.c ****         BaseType_t xReturn;
 616:../../../../dependencies/freertos/FreeRTOSv10.4.1/FreeRTOS/Source/queue.c ****         Queue_t * const pxMutex = ( Queue_t * ) xMutex;
 713              		.loc 1 616 25
 714 0008 7B68     		ldr	r3, [r7, #4]
 715 000a 3B61     		str	r3, [r7, #16]
 617:../../../../dependencies/freertos/FreeRTOSv10.4.1/FreeRTOS/Source/queue.c **** 
 618:../../../../dependencies/freertos/FreeRTOSv10.4.1/FreeRTOS/Source/queue.c ****         configASSERT( pxMutex );
 716              		.loc 1 618 9
 717 000c 3B69     		ldr	r3, [r7, #16]
 718 000e 002B     		cmp	r3, #0
 719 0010 0AD1     		bne	.L38
 720              	.LBB119:
 721              	.LBB120:
 197:../../../../dependencies/freertos/FreeRTOSv10.4.1/FreeRTOS/Source/portable/GCC/ARM_CM4F/portmacro.h ****         (
 722              		.loc 2 197 9
 723              		.syntax unified
 724              	@ 197 "../../../../dependencies/freertos/FreeRTOSv10.4.1/FreeRTOS/Source/portable/GCC/ARM_CM4F/port
 725 0012 4FF05003 			mov r3, #80												
 726 0016 83F31188 		msr basepri, r3											
 727 001a BFF36F8F 		isb														
ARM GAS  /var/folders/kj/yzqgq53j3dg15vgwwwwgf5s00000gn/T//ccGgwidk.s 			page 28


 728 001e BFF34F8F 		dsb														
 729              	
 730              	@ 0 "" 2
 731              		.thumb
 732              		.syntax unified
 733 0022 FB60     		str	r3, [r7, #12]
 734              		.loc 2 205 5
 735 0024 00BF     		nop
 736              	.L39:
 737              	.LBE120:
 738              	.LBE119:
 739              		.loc 1 618 9 discriminator 1
 740 0026 FEE7     		b	.L39
 741              	.L38:
 619:../../../../dependencies/freertos/FreeRTOSv10.4.1/FreeRTOS/Source/queue.c **** 
 620:../../../../dependencies/freertos/FreeRTOSv10.4.1/FreeRTOS/Source/queue.c ****         /* If this is the task that holds the mutex then xMutexHolder will not
 621:../../../../dependencies/freertos/FreeRTOSv10.4.1/FreeRTOS/Source/queue.c ****          * change outside of this task.  If this task does not hold the mutex then
 622:../../../../dependencies/freertos/FreeRTOSv10.4.1/FreeRTOS/Source/queue.c ****          * pxMutexHolder can never coincidentally equal the tasks handle, and as
 623:../../../../dependencies/freertos/FreeRTOSv10.4.1/FreeRTOS/Source/queue.c ****          * this is the only condition we are interested in it does not matter if
 624:../../../../dependencies/freertos/FreeRTOSv10.4.1/FreeRTOS/Source/queue.c ****          * pxMutexHolder is accessed simultaneously by another task.  Therefore no
 625:../../../../dependencies/freertos/FreeRTOSv10.4.1/FreeRTOS/Source/queue.c ****          * mutual exclusion is required to test the pxMutexHolder variable. */
 626:../../../../dependencies/freertos/FreeRTOSv10.4.1/FreeRTOS/Source/queue.c ****         if( pxMutex->u.xSemaphore.xMutexHolder == xTaskGetCurrentTaskHandle() )
 742              		.loc 1 626 34
 743 0028 3B69     		ldr	r3, [r7, #16]
 744 002a 9C68     		ldr	r4, [r3, #8]
 745              		.loc 1 626 51
 746 002c FFF7FEFF 		bl	xTaskGetCurrentTaskHandle
 747 0030 0346     		mov	r3, r0
 748              		.loc 1 626 11
 749 0032 9C42     		cmp	r4, r3
 750 0034 11D1     		bne	.L40
 627:../../../../dependencies/freertos/FreeRTOSv10.4.1/FreeRTOS/Source/queue.c ****         {
 628:../../../../dependencies/freertos/FreeRTOSv10.4.1/FreeRTOS/Source/queue.c ****             traceGIVE_MUTEX_RECURSIVE( pxMutex );
 629:../../../../dependencies/freertos/FreeRTOSv10.4.1/FreeRTOS/Source/queue.c **** 
 630:../../../../dependencies/freertos/FreeRTOSv10.4.1/FreeRTOS/Source/queue.c ****             /* uxRecursiveCallCount cannot be zero if xMutexHolder is equal to
 631:../../../../dependencies/freertos/FreeRTOSv10.4.1/FreeRTOS/Source/queue.c ****              * the task handle, therefore no underflow check is required.  Also,
 632:../../../../dependencies/freertos/FreeRTOSv10.4.1/FreeRTOS/Source/queue.c ****              * uxRecursiveCallCount is only modified by the mutex holder, and as
 633:../../../../dependencies/freertos/FreeRTOSv10.4.1/FreeRTOS/Source/queue.c ****              * there can only be one, no mutual exclusion is required to modify the
 634:../../../../dependencies/freertos/FreeRTOSv10.4.1/FreeRTOS/Source/queue.c ****              * uxRecursiveCallCount member. */
 635:../../../../dependencies/freertos/FreeRTOSv10.4.1/FreeRTOS/Source/queue.c ****             ( pxMutex->u.xSemaphore.uxRecursiveCallCount )--;
 751              		.loc 1 635 36
 752 0036 3B69     		ldr	r3, [r7, #16]
 753 0038 DB68     		ldr	r3, [r3, #12]
 754              		.loc 1 635 59
 755 003a 5A1E     		subs	r2, r3, #1
 756 003c 3B69     		ldr	r3, [r7, #16]
 757 003e DA60     		str	r2, [r3, #12]
 636:../../../../dependencies/freertos/FreeRTOSv10.4.1/FreeRTOS/Source/queue.c **** 
 637:../../../../dependencies/freertos/FreeRTOSv10.4.1/FreeRTOS/Source/queue.c ****             /* Has the recursive call count unwound to 0? */
 638:../../../../dependencies/freertos/FreeRTOSv10.4.1/FreeRTOS/Source/queue.c ****             if( pxMutex->u.xSemaphore.uxRecursiveCallCount == ( UBaseType_t ) 0 )
 758              		.loc 1 638 38
 759 0040 3B69     		ldr	r3, [r7, #16]
 760 0042 DB68     		ldr	r3, [r3, #12]
 761              		.loc 1 638 15
 762 0044 002B     		cmp	r3, #0
 763 0046 05D1     		bne	.L41
 639:../../../../dependencies/freertos/FreeRTOSv10.4.1/FreeRTOS/Source/queue.c ****             {
ARM GAS  /var/folders/kj/yzqgq53j3dg15vgwwwwgf5s00000gn/T//ccGgwidk.s 			page 29


 640:../../../../dependencies/freertos/FreeRTOSv10.4.1/FreeRTOS/Source/queue.c ****                 /* Return the mutex.  This will automatically unblock any other
 641:../../../../dependencies/freertos/FreeRTOSv10.4.1/FreeRTOS/Source/queue.c ****                  * task that might be waiting to access the mutex. */
 642:../../../../dependencies/freertos/FreeRTOSv10.4.1/FreeRTOS/Source/queue.c ****                 ( void ) xQueueGenericSend( pxMutex, NULL, queueMUTEX_GIVE_BLOCK_TIME, queueSEND_TO
 764              		.loc 1 642 26
 765 0048 0023     		movs	r3, #0
 766 004a 0022     		movs	r2, #0
 767 004c 0021     		movs	r1, #0
 768 004e 3869     		ldr	r0, [r7, #16]
 769 0050 FFF7FEFF 		bl	xQueueGenericSend
 770              	.L41:
 643:../../../../dependencies/freertos/FreeRTOSv10.4.1/FreeRTOS/Source/queue.c ****             }
 644:../../../../dependencies/freertos/FreeRTOSv10.4.1/FreeRTOS/Source/queue.c ****             else
 645:../../../../dependencies/freertos/FreeRTOSv10.4.1/FreeRTOS/Source/queue.c ****             {
 646:../../../../dependencies/freertos/FreeRTOSv10.4.1/FreeRTOS/Source/queue.c ****                 mtCOVERAGE_TEST_MARKER();
 647:../../../../dependencies/freertos/FreeRTOSv10.4.1/FreeRTOS/Source/queue.c ****             }
 648:../../../../dependencies/freertos/FreeRTOSv10.4.1/FreeRTOS/Source/queue.c **** 
 649:../../../../dependencies/freertos/FreeRTOSv10.4.1/FreeRTOS/Source/queue.c ****             xReturn = pdPASS;
 771              		.loc 1 649 21
 772 0054 0123     		movs	r3, #1
 773 0056 7B61     		str	r3, [r7, #20]
 774 0058 01E0     		b	.L42
 775              	.L40:
 650:../../../../dependencies/freertos/FreeRTOSv10.4.1/FreeRTOS/Source/queue.c ****         }
 651:../../../../dependencies/freertos/FreeRTOSv10.4.1/FreeRTOS/Source/queue.c ****         else
 652:../../../../dependencies/freertos/FreeRTOSv10.4.1/FreeRTOS/Source/queue.c ****         {
 653:../../../../dependencies/freertos/FreeRTOSv10.4.1/FreeRTOS/Source/queue.c ****             /* The mutex cannot be given because the calling task is not the
 654:../../../../dependencies/freertos/FreeRTOSv10.4.1/FreeRTOS/Source/queue.c ****              * holder. */
 655:../../../../dependencies/freertos/FreeRTOSv10.4.1/FreeRTOS/Source/queue.c ****             xReturn = pdFAIL;
 776              		.loc 1 655 21
 777 005a 0023     		movs	r3, #0
 778 005c 7B61     		str	r3, [r7, #20]
 779              	.L42:
 656:../../../../dependencies/freertos/FreeRTOSv10.4.1/FreeRTOS/Source/queue.c **** 
 657:../../../../dependencies/freertos/FreeRTOSv10.4.1/FreeRTOS/Source/queue.c ****             traceGIVE_MUTEX_RECURSIVE_FAILED( pxMutex );
 658:../../../../dependencies/freertos/FreeRTOSv10.4.1/FreeRTOS/Source/queue.c ****         }
 659:../../../../dependencies/freertos/FreeRTOSv10.4.1/FreeRTOS/Source/queue.c **** 
 660:../../../../dependencies/freertos/FreeRTOSv10.4.1/FreeRTOS/Source/queue.c ****         return xReturn;
 780              		.loc 1 660 16
 781 005e 7B69     		ldr	r3, [r7, #20]
 661:../../../../dependencies/freertos/FreeRTOSv10.4.1/FreeRTOS/Source/queue.c ****     }
 782              		.loc 1 661 5
 783 0060 1846     		mov	r0, r3
 784 0062 1C37     		adds	r7, r7, #28
 785              	.LCFI39:
 786              		.cfi_def_cfa_offset 12
 787 0064 BD46     		mov	sp, r7
 788              	.LCFI40:
 789              		.cfi_def_cfa_register 13
 790              		@ sp needed
 791 0066 90BD     		pop	{r4, r7, pc}
 792              		.cfi_endproc
 793              	.LFE12:
 795              		.section	.text.xQueueTakeMutexRecursive,"ax",%progbits
 796              		.align	1
 797              		.global	xQueueTakeMutexRecursive
 798              		.syntax unified
 799              		.thumb
ARM GAS  /var/folders/kj/yzqgq53j3dg15vgwwwwgf5s00000gn/T//ccGgwidk.s 			page 30


 800              		.thumb_func
 801              		.fpu fpv4-sp-d16
 803              	xQueueTakeMutexRecursive:
 804              	.LFB13:
 662:../../../../dependencies/freertos/FreeRTOSv10.4.1/FreeRTOS/Source/queue.c **** 
 663:../../../../dependencies/freertos/FreeRTOSv10.4.1/FreeRTOS/Source/queue.c **** #endif /* configUSE_RECURSIVE_MUTEXES */
 664:../../../../dependencies/freertos/FreeRTOSv10.4.1/FreeRTOS/Source/queue.c **** /*-----------------------------------------------------------*/
 665:../../../../dependencies/freertos/FreeRTOSv10.4.1/FreeRTOS/Source/queue.c **** 
 666:../../../../dependencies/freertos/FreeRTOSv10.4.1/FreeRTOS/Source/queue.c **** #if ( configUSE_RECURSIVE_MUTEXES == 1 )
 667:../../../../dependencies/freertos/FreeRTOSv10.4.1/FreeRTOS/Source/queue.c **** 
 668:../../../../dependencies/freertos/FreeRTOSv10.4.1/FreeRTOS/Source/queue.c ****     BaseType_t xQueueTakeMutexRecursive( QueueHandle_t xMutex,
 669:../../../../dependencies/freertos/FreeRTOSv10.4.1/FreeRTOS/Source/queue.c ****                                          TickType_t xTicksToWait )
 670:../../../../dependencies/freertos/FreeRTOSv10.4.1/FreeRTOS/Source/queue.c ****     {
 805              		.loc 1 670 5
 806              		.cfi_startproc
 807              		@ args = 0, pretend = 0, frame = 24
 808              		@ frame_needed = 1, uses_anonymous_args = 0
 809 0000 90B5     		push	{r4, r7, lr}
 810              	.LCFI41:
 811              		.cfi_def_cfa_offset 12
 812              		.cfi_offset 4, -12
 813              		.cfi_offset 7, -8
 814              		.cfi_offset 14, -4
 815 0002 87B0     		sub	sp, sp, #28
 816              	.LCFI42:
 817              		.cfi_def_cfa_offset 40
 818 0004 00AF     		add	r7, sp, #0
 819              	.LCFI43:
 820              		.cfi_def_cfa_register 7
 821 0006 7860     		str	r0, [r7, #4]
 822 0008 3960     		str	r1, [r7]
 671:../../../../dependencies/freertos/FreeRTOSv10.4.1/FreeRTOS/Source/queue.c ****         BaseType_t xReturn;
 672:../../../../dependencies/freertos/FreeRTOSv10.4.1/FreeRTOS/Source/queue.c ****         Queue_t * const pxMutex = ( Queue_t * ) xMutex;
 823              		.loc 1 672 25
 824 000a 7B68     		ldr	r3, [r7, #4]
 825 000c 3B61     		str	r3, [r7, #16]
 673:../../../../dependencies/freertos/FreeRTOSv10.4.1/FreeRTOS/Source/queue.c **** 
 674:../../../../dependencies/freertos/FreeRTOSv10.4.1/FreeRTOS/Source/queue.c ****         configASSERT( pxMutex );
 826              		.loc 1 674 9
 827 000e 3B69     		ldr	r3, [r7, #16]
 828 0010 002B     		cmp	r3, #0
 829 0012 0AD1     		bne	.L45
 830              	.LBB121:
 831              	.LBB122:
 197:../../../../dependencies/freertos/FreeRTOSv10.4.1/FreeRTOS/Source/portable/GCC/ARM_CM4F/portmacro.h ****         (
 832              		.loc 2 197 9
 833              		.syntax unified
 834              	@ 197 "../../../../dependencies/freertos/FreeRTOSv10.4.1/FreeRTOS/Source/portable/GCC/ARM_CM4F/port
 835 0014 4FF05003 			mov r3, #80												
 836 0018 83F31188 		msr basepri, r3											
 837 001c BFF36F8F 		isb														
 838 0020 BFF34F8F 		dsb														
 839              	
 840              	@ 0 "" 2
 841              		.thumb
 842              		.syntax unified
 843 0024 FB60     		str	r3, [r7, #12]
ARM GAS  /var/folders/kj/yzqgq53j3dg15vgwwwwgf5s00000gn/T//ccGgwidk.s 			page 31


 844              		.loc 2 205 5
 845 0026 00BF     		nop
 846              	.L46:
 847              	.LBE122:
 848              	.LBE121:
 849              		.loc 1 674 9 discriminator 1
 850 0028 FEE7     		b	.L46
 851              	.L45:
 675:../../../../dependencies/freertos/FreeRTOSv10.4.1/FreeRTOS/Source/queue.c **** 
 676:../../../../dependencies/freertos/FreeRTOSv10.4.1/FreeRTOS/Source/queue.c ****         /* Comments regarding mutual exclusion as per those within
 677:../../../../dependencies/freertos/FreeRTOSv10.4.1/FreeRTOS/Source/queue.c ****          * xQueueGiveMutexRecursive(). */
 678:../../../../dependencies/freertos/FreeRTOSv10.4.1/FreeRTOS/Source/queue.c **** 
 679:../../../../dependencies/freertos/FreeRTOSv10.4.1/FreeRTOS/Source/queue.c ****         traceTAKE_MUTEX_RECURSIVE( pxMutex );
 680:../../../../dependencies/freertos/FreeRTOSv10.4.1/FreeRTOS/Source/queue.c **** 
 681:../../../../dependencies/freertos/FreeRTOSv10.4.1/FreeRTOS/Source/queue.c ****         if( pxMutex->u.xSemaphore.xMutexHolder == xTaskGetCurrentTaskHandle() )
 852              		.loc 1 681 34
 853 002a 3B69     		ldr	r3, [r7, #16]
 854 002c 9C68     		ldr	r4, [r3, #8]
 855              		.loc 1 681 51
 856 002e FFF7FEFF 		bl	xTaskGetCurrentTaskHandle
 857 0032 0346     		mov	r3, r0
 858              		.loc 1 681 11
 859 0034 9C42     		cmp	r4, r3
 860 0036 07D1     		bne	.L47
 682:../../../../dependencies/freertos/FreeRTOSv10.4.1/FreeRTOS/Source/queue.c ****         {
 683:../../../../dependencies/freertos/FreeRTOSv10.4.1/FreeRTOS/Source/queue.c ****             ( pxMutex->u.xSemaphore.uxRecursiveCallCount )++;
 861              		.loc 1 683 36
 862 0038 3B69     		ldr	r3, [r7, #16]
 863 003a DB68     		ldr	r3, [r3, #12]
 864              		.loc 1 683 59
 865 003c 5A1C     		adds	r2, r3, #1
 866 003e 3B69     		ldr	r3, [r7, #16]
 867 0040 DA60     		str	r2, [r3, #12]
 684:../../../../dependencies/freertos/FreeRTOSv10.4.1/FreeRTOS/Source/queue.c ****             xReturn = pdPASS;
 868              		.loc 1 684 21
 869 0042 0123     		movs	r3, #1
 870 0044 7B61     		str	r3, [r7, #20]
 871 0046 0CE0     		b	.L48
 872              	.L47:
 685:../../../../dependencies/freertos/FreeRTOSv10.4.1/FreeRTOS/Source/queue.c ****         }
 686:../../../../dependencies/freertos/FreeRTOSv10.4.1/FreeRTOS/Source/queue.c ****         else
 687:../../../../dependencies/freertos/FreeRTOSv10.4.1/FreeRTOS/Source/queue.c ****         {
 688:../../../../dependencies/freertos/FreeRTOSv10.4.1/FreeRTOS/Source/queue.c ****             xReturn = xQueueSemaphoreTake( pxMutex, xTicksToWait );
 873              		.loc 1 688 23
 874 0048 3968     		ldr	r1, [r7]
 875 004a 3869     		ldr	r0, [r7, #16]
 876 004c FFF7FEFF 		bl	xQueueSemaphoreTake
 877 0050 7861     		str	r0, [r7, #20]
 689:../../../../dependencies/freertos/FreeRTOSv10.4.1/FreeRTOS/Source/queue.c **** 
 690:../../../../dependencies/freertos/FreeRTOSv10.4.1/FreeRTOS/Source/queue.c ****             /* pdPASS will only be returned if the mutex was successfully
 691:../../../../dependencies/freertos/FreeRTOSv10.4.1/FreeRTOS/Source/queue.c ****              * obtained.  The calling task may have entered the Blocked state
 692:../../../../dependencies/freertos/FreeRTOSv10.4.1/FreeRTOS/Source/queue.c ****              * before reaching here. */
 693:../../../../dependencies/freertos/FreeRTOSv10.4.1/FreeRTOS/Source/queue.c ****             if( xReturn != pdFAIL )
 878              		.loc 1 693 15
 879 0052 7B69     		ldr	r3, [r7, #20]
 880 0054 002B     		cmp	r3, #0
 881 0056 04D0     		beq	.L48
ARM GAS  /var/folders/kj/yzqgq53j3dg15vgwwwwgf5s00000gn/T//ccGgwidk.s 			page 32


 694:../../../../dependencies/freertos/FreeRTOSv10.4.1/FreeRTOS/Source/queue.c ****             {
 695:../../../../dependencies/freertos/FreeRTOSv10.4.1/FreeRTOS/Source/queue.c ****                 ( pxMutex->u.xSemaphore.uxRecursiveCallCount )++;
 882              		.loc 1 695 40
 883 0058 3B69     		ldr	r3, [r7, #16]
 884 005a DB68     		ldr	r3, [r3, #12]
 885              		.loc 1 695 63
 886 005c 5A1C     		adds	r2, r3, #1
 887 005e 3B69     		ldr	r3, [r7, #16]
 888 0060 DA60     		str	r2, [r3, #12]
 889              	.L48:
 696:../../../../dependencies/freertos/FreeRTOSv10.4.1/FreeRTOS/Source/queue.c ****             }
 697:../../../../dependencies/freertos/FreeRTOSv10.4.1/FreeRTOS/Source/queue.c ****             else
 698:../../../../dependencies/freertos/FreeRTOSv10.4.1/FreeRTOS/Source/queue.c ****             {
 699:../../../../dependencies/freertos/FreeRTOSv10.4.1/FreeRTOS/Source/queue.c ****                 traceTAKE_MUTEX_RECURSIVE_FAILED( pxMutex );
 700:../../../../dependencies/freertos/FreeRTOSv10.4.1/FreeRTOS/Source/queue.c ****             }
 701:../../../../dependencies/freertos/FreeRTOSv10.4.1/FreeRTOS/Source/queue.c ****         }
 702:../../../../dependencies/freertos/FreeRTOSv10.4.1/FreeRTOS/Source/queue.c **** 
 703:../../../../dependencies/freertos/FreeRTOSv10.4.1/FreeRTOS/Source/queue.c ****         return xReturn;
 890              		.loc 1 703 16
 891 0062 7B69     		ldr	r3, [r7, #20]
 704:../../../../dependencies/freertos/FreeRTOSv10.4.1/FreeRTOS/Source/queue.c ****     }
 892              		.loc 1 704 5
 893 0064 1846     		mov	r0, r3
 894 0066 1C37     		adds	r7, r7, #28
 895              	.LCFI44:
 896              		.cfi_def_cfa_offset 12
 897 0068 BD46     		mov	sp, r7
 898              	.LCFI45:
 899              		.cfi_def_cfa_register 13
 900              		@ sp needed
 901 006a 90BD     		pop	{r4, r7, pc}
 902              		.cfi_endproc
 903              	.LFE13:
 905              		.section	.text.xQueueCreateCountingSemaphore,"ax",%progbits
 906              		.align	1
 907              		.global	xQueueCreateCountingSemaphore
 908              		.syntax unified
 909              		.thumb
 910              		.thumb_func
 911              		.fpu fpv4-sp-d16
 913              	xQueueCreateCountingSemaphore:
 914              	.LFB14:
 705:../../../../dependencies/freertos/FreeRTOSv10.4.1/FreeRTOS/Source/queue.c **** 
 706:../../../../dependencies/freertos/FreeRTOSv10.4.1/FreeRTOS/Source/queue.c **** #endif /* configUSE_RECURSIVE_MUTEXES */
 707:../../../../dependencies/freertos/FreeRTOSv10.4.1/FreeRTOS/Source/queue.c **** /*-----------------------------------------------------------*/
 708:../../../../dependencies/freertos/FreeRTOSv10.4.1/FreeRTOS/Source/queue.c **** 
 709:../../../../dependencies/freertos/FreeRTOSv10.4.1/FreeRTOS/Source/queue.c **** #if ( ( configUSE_COUNTING_SEMAPHORES == 1 ) && ( configSUPPORT_STATIC_ALLOCATION == 1 ) )
 710:../../../../dependencies/freertos/FreeRTOSv10.4.1/FreeRTOS/Source/queue.c **** 
 711:../../../../dependencies/freertos/FreeRTOSv10.4.1/FreeRTOS/Source/queue.c ****     QueueHandle_t xQueueCreateCountingSemaphoreStatic( const UBaseType_t uxMaxCount,
 712:../../../../dependencies/freertos/FreeRTOSv10.4.1/FreeRTOS/Source/queue.c ****                                                        const UBaseType_t uxInitialCount,
 713:../../../../dependencies/freertos/FreeRTOSv10.4.1/FreeRTOS/Source/queue.c ****                                                        StaticQueue_t * pxStaticQueue )
 714:../../../../dependencies/freertos/FreeRTOSv10.4.1/FreeRTOS/Source/queue.c ****     {
 715:../../../../dependencies/freertos/FreeRTOSv10.4.1/FreeRTOS/Source/queue.c ****         QueueHandle_t xHandle;
 716:../../../../dependencies/freertos/FreeRTOSv10.4.1/FreeRTOS/Source/queue.c **** 
 717:../../../../dependencies/freertos/FreeRTOSv10.4.1/FreeRTOS/Source/queue.c ****         configASSERT( uxMaxCount != 0 );
 718:../../../../dependencies/freertos/FreeRTOSv10.4.1/FreeRTOS/Source/queue.c ****         configASSERT( uxInitialCount <= uxMaxCount );
 719:../../../../dependencies/freertos/FreeRTOSv10.4.1/FreeRTOS/Source/queue.c **** 
ARM GAS  /var/folders/kj/yzqgq53j3dg15vgwwwwgf5s00000gn/T//ccGgwidk.s 			page 33


 720:../../../../dependencies/freertos/FreeRTOSv10.4.1/FreeRTOS/Source/queue.c ****         xHandle = xQueueGenericCreateStatic( uxMaxCount, queueSEMAPHORE_QUEUE_ITEM_LENGTH, NULL, px
 721:../../../../dependencies/freertos/FreeRTOSv10.4.1/FreeRTOS/Source/queue.c **** 
 722:../../../../dependencies/freertos/FreeRTOSv10.4.1/FreeRTOS/Source/queue.c ****         if( xHandle != NULL )
 723:../../../../dependencies/freertos/FreeRTOSv10.4.1/FreeRTOS/Source/queue.c ****         {
 724:../../../../dependencies/freertos/FreeRTOSv10.4.1/FreeRTOS/Source/queue.c ****             ( ( Queue_t * ) xHandle )->uxMessagesWaiting = uxInitialCount;
 725:../../../../dependencies/freertos/FreeRTOSv10.4.1/FreeRTOS/Source/queue.c **** 
 726:../../../../dependencies/freertos/FreeRTOSv10.4.1/FreeRTOS/Source/queue.c ****             traceCREATE_COUNTING_SEMAPHORE();
 727:../../../../dependencies/freertos/FreeRTOSv10.4.1/FreeRTOS/Source/queue.c ****         }
 728:../../../../dependencies/freertos/FreeRTOSv10.4.1/FreeRTOS/Source/queue.c ****         else
 729:../../../../dependencies/freertos/FreeRTOSv10.4.1/FreeRTOS/Source/queue.c ****         {
 730:../../../../dependencies/freertos/FreeRTOSv10.4.1/FreeRTOS/Source/queue.c ****             traceCREATE_COUNTING_SEMAPHORE_FAILED();
 731:../../../../dependencies/freertos/FreeRTOSv10.4.1/FreeRTOS/Source/queue.c ****         }
 732:../../../../dependencies/freertos/FreeRTOSv10.4.1/FreeRTOS/Source/queue.c **** 
 733:../../../../dependencies/freertos/FreeRTOSv10.4.1/FreeRTOS/Source/queue.c ****         return xHandle;
 734:../../../../dependencies/freertos/FreeRTOSv10.4.1/FreeRTOS/Source/queue.c ****     }
 735:../../../../dependencies/freertos/FreeRTOSv10.4.1/FreeRTOS/Source/queue.c **** 
 736:../../../../dependencies/freertos/FreeRTOSv10.4.1/FreeRTOS/Source/queue.c **** #endif /* ( ( configUSE_COUNTING_SEMAPHORES == 1 ) && ( configSUPPORT_DYNAMIC_ALLOCATION == 1 ) ) *
 737:../../../../dependencies/freertos/FreeRTOSv10.4.1/FreeRTOS/Source/queue.c **** /*-----------------------------------------------------------*/
 738:../../../../dependencies/freertos/FreeRTOSv10.4.1/FreeRTOS/Source/queue.c **** 
 739:../../../../dependencies/freertos/FreeRTOSv10.4.1/FreeRTOS/Source/queue.c **** #if ( ( configUSE_COUNTING_SEMAPHORES == 1 ) && ( configSUPPORT_DYNAMIC_ALLOCATION == 1 ) )
 740:../../../../dependencies/freertos/FreeRTOSv10.4.1/FreeRTOS/Source/queue.c **** 
 741:../../../../dependencies/freertos/FreeRTOSv10.4.1/FreeRTOS/Source/queue.c ****     QueueHandle_t xQueueCreateCountingSemaphore( const UBaseType_t uxMaxCount,
 742:../../../../dependencies/freertos/FreeRTOSv10.4.1/FreeRTOS/Source/queue.c ****                                                  const UBaseType_t uxInitialCount )
 743:../../../../dependencies/freertos/FreeRTOSv10.4.1/FreeRTOS/Source/queue.c ****     {
 915              		.loc 1 743 5
 916              		.cfi_startproc
 917              		@ args = 0, pretend = 0, frame = 24
 918              		@ frame_needed = 1, uses_anonymous_args = 0
 919 0000 80B5     		push	{r7, lr}
 920              	.LCFI46:
 921              		.cfi_def_cfa_offset 8
 922              		.cfi_offset 7, -8
 923              		.cfi_offset 14, -4
 924 0002 86B0     		sub	sp, sp, #24
 925              	.LCFI47:
 926              		.cfi_def_cfa_offset 32
 927 0004 00AF     		add	r7, sp, #0
 928              	.LCFI48:
 929              		.cfi_def_cfa_register 7
 930 0006 7860     		str	r0, [r7, #4]
 931 0008 3960     		str	r1, [r7]
 744:../../../../dependencies/freertos/FreeRTOSv10.4.1/FreeRTOS/Source/queue.c ****         QueueHandle_t xHandle;
 745:../../../../dependencies/freertos/FreeRTOSv10.4.1/FreeRTOS/Source/queue.c **** 
 746:../../../../dependencies/freertos/FreeRTOSv10.4.1/FreeRTOS/Source/queue.c ****         configASSERT( uxMaxCount != 0 );
 932              		.loc 1 746 9
 933 000a 7B68     		ldr	r3, [r7, #4]
 934 000c 002B     		cmp	r3, #0
 935 000e 0AD1     		bne	.L51
 936              	.LBB123:
 937              	.LBB124:
 197:../../../../dependencies/freertos/FreeRTOSv10.4.1/FreeRTOS/Source/portable/GCC/ARM_CM4F/portmacro.h ****         (
 938              		.loc 2 197 9
 939              		.syntax unified
 940              	@ 197 "../../../../dependencies/freertos/FreeRTOSv10.4.1/FreeRTOS/Source/portable/GCC/ARM_CM4F/port
 941 0010 4FF05003 			mov r3, #80												
 942 0014 83F31188 		msr basepri, r3											
 943 0018 BFF36F8F 		isb														
ARM GAS  /var/folders/kj/yzqgq53j3dg15vgwwwwgf5s00000gn/T//ccGgwidk.s 			page 34


 944 001c BFF34F8F 		dsb														
 945              	
 946              	@ 0 "" 2
 947              		.thumb
 948              		.syntax unified
 949 0020 3B61     		str	r3, [r7, #16]
 950              		.loc 2 205 5
 951 0022 00BF     		nop
 952              	.L52:
 953              	.LBE124:
 954              	.LBE123:
 955              		.loc 1 746 9 discriminator 1
 956 0024 FEE7     		b	.L52
 957              	.L51:
 747:../../../../dependencies/freertos/FreeRTOSv10.4.1/FreeRTOS/Source/queue.c ****         configASSERT( uxInitialCount <= uxMaxCount );
 958              		.loc 1 747 9
 959 0026 3A68     		ldr	r2, [r7]
 960 0028 7B68     		ldr	r3, [r7, #4]
 961 002a 9A42     		cmp	r2, r3
 962 002c 0AD9     		bls	.L53
 963              	.LBB125:
 964              	.LBB126:
 197:../../../../dependencies/freertos/FreeRTOSv10.4.1/FreeRTOS/Source/portable/GCC/ARM_CM4F/portmacro.h ****         (
 965              		.loc 2 197 9
 966              		.syntax unified
 967              	@ 197 "../../../../dependencies/freertos/FreeRTOSv10.4.1/FreeRTOS/Source/portable/GCC/ARM_CM4F/port
 968 002e 4FF05003 			mov r3, #80												
 969 0032 83F31188 		msr basepri, r3											
 970 0036 BFF36F8F 		isb														
 971 003a BFF34F8F 		dsb														
 972              	
 973              	@ 0 "" 2
 974              		.thumb
 975              		.syntax unified
 976 003e FB60     		str	r3, [r7, #12]
 977              		.loc 2 205 5
 978 0040 00BF     		nop
 979              	.L54:
 980              	.LBE126:
 981              	.LBE125:
 982              		.loc 1 747 9 discriminator 2
 983 0042 FEE7     		b	.L54
 984              	.L53:
 748:../../../../dependencies/freertos/FreeRTOSv10.4.1/FreeRTOS/Source/queue.c **** 
 749:../../../../dependencies/freertos/FreeRTOSv10.4.1/FreeRTOS/Source/queue.c ****         xHandle = xQueueGenericCreate( uxMaxCount, queueSEMAPHORE_QUEUE_ITEM_LENGTH, queueQUEUE_TYP
 985              		.loc 1 749 19
 986 0044 0222     		movs	r2, #2
 987 0046 0021     		movs	r1, #0
 988 0048 7868     		ldr	r0, [r7, #4]
 989 004a FFF7FEFF 		bl	xQueueGenericCreate
 990 004e 7861     		str	r0, [r7, #20]
 750:../../../../dependencies/freertos/FreeRTOSv10.4.1/FreeRTOS/Source/queue.c **** 
 751:../../../../dependencies/freertos/FreeRTOSv10.4.1/FreeRTOS/Source/queue.c ****         if( xHandle != NULL )
 991              		.loc 1 751 11
 992 0050 7B69     		ldr	r3, [r7, #20]
 993 0052 002B     		cmp	r3, #0
 994 0054 02D0     		beq	.L55
ARM GAS  /var/folders/kj/yzqgq53j3dg15vgwwwwgf5s00000gn/T//ccGgwidk.s 			page 35


 752:../../../../dependencies/freertos/FreeRTOSv10.4.1/FreeRTOS/Source/queue.c ****         {
 753:../../../../dependencies/freertos/FreeRTOSv10.4.1/FreeRTOS/Source/queue.c ****             ( ( Queue_t * ) xHandle )->uxMessagesWaiting = uxInitialCount;
 995              		.loc 1 753 58
 996 0056 7B69     		ldr	r3, [r7, #20]
 997 0058 3A68     		ldr	r2, [r7]
 998 005a 9A63     		str	r2, [r3, #56]
 999              	.L55:
 754:../../../../dependencies/freertos/FreeRTOSv10.4.1/FreeRTOS/Source/queue.c **** 
 755:../../../../dependencies/freertos/FreeRTOSv10.4.1/FreeRTOS/Source/queue.c ****             traceCREATE_COUNTING_SEMAPHORE();
 756:../../../../dependencies/freertos/FreeRTOSv10.4.1/FreeRTOS/Source/queue.c ****         }
 757:../../../../dependencies/freertos/FreeRTOSv10.4.1/FreeRTOS/Source/queue.c ****         else
 758:../../../../dependencies/freertos/FreeRTOSv10.4.1/FreeRTOS/Source/queue.c ****         {
 759:../../../../dependencies/freertos/FreeRTOSv10.4.1/FreeRTOS/Source/queue.c ****             traceCREATE_COUNTING_SEMAPHORE_FAILED();
 760:../../../../dependencies/freertos/FreeRTOSv10.4.1/FreeRTOS/Source/queue.c ****         }
 761:../../../../dependencies/freertos/FreeRTOSv10.4.1/FreeRTOS/Source/queue.c **** 
 762:../../../../dependencies/freertos/FreeRTOSv10.4.1/FreeRTOS/Source/queue.c ****         return xHandle;
 1000              		.loc 1 762 16
 1001 005c 7B69     		ldr	r3, [r7, #20]
 763:../../../../dependencies/freertos/FreeRTOSv10.4.1/FreeRTOS/Source/queue.c ****     }
 1002              		.loc 1 763 5
 1003 005e 1846     		mov	r0, r3
 1004 0060 1837     		adds	r7, r7, #24
 1005              	.LCFI49:
 1006              		.cfi_def_cfa_offset 8
 1007 0062 BD46     		mov	sp, r7
 1008              	.LCFI50:
 1009              		.cfi_def_cfa_register 13
 1010              		@ sp needed
 1011 0064 80BD     		pop	{r7, pc}
 1012              		.cfi_endproc
 1013              	.LFE14:
 1015              		.section	.text.xQueueGenericSend,"ax",%progbits
 1016              		.align	1
 1017              		.global	xQueueGenericSend
 1018              		.syntax unified
 1019              		.thumb
 1020              		.thumb_func
 1021              		.fpu fpv4-sp-d16
 1023              	xQueueGenericSend:
 1024              	.LFB15:
 764:../../../../dependencies/freertos/FreeRTOSv10.4.1/FreeRTOS/Source/queue.c **** 
 765:../../../../dependencies/freertos/FreeRTOSv10.4.1/FreeRTOS/Source/queue.c **** #endif /* ( ( configUSE_COUNTING_SEMAPHORES == 1 ) && ( configSUPPORT_DYNAMIC_ALLOCATION == 1 ) ) *
 766:../../../../dependencies/freertos/FreeRTOSv10.4.1/FreeRTOS/Source/queue.c **** /*-----------------------------------------------------------*/
 767:../../../../dependencies/freertos/FreeRTOSv10.4.1/FreeRTOS/Source/queue.c **** 
 768:../../../../dependencies/freertos/FreeRTOSv10.4.1/FreeRTOS/Source/queue.c **** BaseType_t xQueueGenericSend( QueueHandle_t xQueue,
 769:../../../../dependencies/freertos/FreeRTOSv10.4.1/FreeRTOS/Source/queue.c ****                               const void * const pvItemToQueue,
 770:../../../../dependencies/freertos/FreeRTOSv10.4.1/FreeRTOS/Source/queue.c ****                               TickType_t xTicksToWait,
 771:../../../../dependencies/freertos/FreeRTOSv10.4.1/FreeRTOS/Source/queue.c ****                               const BaseType_t xCopyPosition )
 772:../../../../dependencies/freertos/FreeRTOSv10.4.1/FreeRTOS/Source/queue.c **** {
 1025              		.loc 1 772 1
 1026              		.cfi_startproc
 1027              		@ args = 0, pretend = 0, frame = 56
 1028              		@ frame_needed = 1, uses_anonymous_args = 0
 1029 0000 80B5     		push	{r7, lr}
 1030              	.LCFI51:
 1031              		.cfi_def_cfa_offset 8
 1032              		.cfi_offset 7, -8
ARM GAS  /var/folders/kj/yzqgq53j3dg15vgwwwwgf5s00000gn/T//ccGgwidk.s 			page 36


 1033              		.cfi_offset 14, -4
 1034 0002 8EB0     		sub	sp, sp, #56
 1035              	.LCFI52:
 1036              		.cfi_def_cfa_offset 64
 1037 0004 00AF     		add	r7, sp, #0
 1038              	.LCFI53:
 1039              		.cfi_def_cfa_register 7
 1040 0006 F860     		str	r0, [r7, #12]
 1041 0008 B960     		str	r1, [r7, #8]
 1042 000a 7A60     		str	r2, [r7, #4]
 1043 000c 3B60     		str	r3, [r7]
 773:../../../../dependencies/freertos/FreeRTOSv10.4.1/FreeRTOS/Source/queue.c ****     BaseType_t xEntryTimeSet = pdFALSE, xYieldRequired;
 1044              		.loc 1 773 16
 1045 000e 0023     		movs	r3, #0
 1046 0010 7B63     		str	r3, [r7, #52]
 774:../../../../dependencies/freertos/FreeRTOSv10.4.1/FreeRTOS/Source/queue.c ****     TimeOut_t xTimeOut;
 775:../../../../dependencies/freertos/FreeRTOSv10.4.1/FreeRTOS/Source/queue.c ****     Queue_t * const pxQueue = xQueue;
 1047              		.loc 1 775 21
 1048 0012 FB68     		ldr	r3, [r7, #12]
 1049 0014 3B63     		str	r3, [r7, #48]
 776:../../../../dependencies/freertos/FreeRTOSv10.4.1/FreeRTOS/Source/queue.c **** 
 777:../../../../dependencies/freertos/FreeRTOSv10.4.1/FreeRTOS/Source/queue.c ****     configASSERT( pxQueue );
 1050              		.loc 1 777 5
 1051 0016 3B6B     		ldr	r3, [r7, #48]
 1052 0018 002B     		cmp	r3, #0
 1053 001a 0AD1     		bne	.L58
 1054              	.LBB127:
 1055              	.LBB128:
 197:../../../../dependencies/freertos/FreeRTOSv10.4.1/FreeRTOS/Source/portable/GCC/ARM_CM4F/portmacro.h ****         (
 1056              		.loc 2 197 9
 1057              		.syntax unified
 1058              	@ 197 "../../../../dependencies/freertos/FreeRTOSv10.4.1/FreeRTOS/Source/portable/GCC/ARM_CM4F/port
 1059 001c 4FF05003 			mov r3, #80												
 1060 0020 83F31188 		msr basepri, r3											
 1061 0024 BFF36F8F 		isb														
 1062 0028 BFF34F8F 		dsb														
 1063              	
 1064              	@ 0 "" 2
 1065              		.thumb
 1066              		.syntax unified
 1067 002c BB62     		str	r3, [r7, #40]
 1068              		.loc 2 205 5
 1069 002e 00BF     		nop
 1070              	.L59:
 1071              	.LBE128:
 1072              	.LBE127:
 1073              		.loc 1 777 5 discriminator 1
 1074 0030 FEE7     		b	.L59
 1075              	.L58:
 778:../../../../dependencies/freertos/FreeRTOSv10.4.1/FreeRTOS/Source/queue.c ****     configASSERT( !( ( pvItemToQueue == NULL ) && ( pxQueue->uxItemSize != ( UBaseType_t ) 0U ) ) )
 1076              		.loc 1 778 5
 1077 0032 BB68     		ldr	r3, [r7, #8]
 1078 0034 002B     		cmp	r3, #0
 1079 0036 03D1     		bne	.L60
 1080              		.loc 1 778 5 is_stmt 0 discriminator 2
 1081 0038 3B6B     		ldr	r3, [r7, #48]
 1082 003a 1B6C     		ldr	r3, [r3, #64]
ARM GAS  /var/folders/kj/yzqgq53j3dg15vgwwwwgf5s00000gn/T//ccGgwidk.s 			page 37


 1083 003c 002B     		cmp	r3, #0
 1084 003e 01D1     		bne	.L61
 1085              	.L60:
 1086              		.loc 1 778 5 discriminator 3
 1087 0040 0123     		movs	r3, #1
 1088 0042 00E0     		b	.L62
 1089              	.L61:
 1090              		.loc 1 778 5 discriminator 4
 1091 0044 0023     		movs	r3, #0
 1092              	.L62:
 1093              		.loc 1 778 5 discriminator 6
 1094 0046 002B     		cmp	r3, #0
 1095 0048 0AD1     		bne	.L63
 1096              	.LBB129:
 1097              	.LBB130:
 197:../../../../dependencies/freertos/FreeRTOSv10.4.1/FreeRTOS/Source/portable/GCC/ARM_CM4F/portmacro.h ****         (
 1098              		.loc 2 197 9 is_stmt 1
 1099              		.syntax unified
 1100              	@ 197 "../../../../dependencies/freertos/FreeRTOSv10.4.1/FreeRTOS/Source/portable/GCC/ARM_CM4F/port
 1101 004a 4FF05003 			mov r3, #80												
 1102 004e 83F31188 		msr basepri, r3											
 1103 0052 BFF36F8F 		isb														
 1104 0056 BFF34F8F 		dsb														
 1105              	
 1106              	@ 0 "" 2
 1107              		.thumb
 1108              		.syntax unified
 1109 005a 7B62     		str	r3, [r7, #36]
 1110              		.loc 2 205 5
 1111 005c 00BF     		nop
 1112              	.L64:
 1113              	.LBE130:
 1114              	.LBE129:
 1115              		.loc 1 778 5 discriminator 2
 1116 005e FEE7     		b	.L64
 1117              	.L63:
 779:../../../../dependencies/freertos/FreeRTOSv10.4.1/FreeRTOS/Source/queue.c ****     configASSERT( !( ( xCopyPosition == queueOVERWRITE ) && ( pxQueue->uxLength != 1 ) ) );
 1118              		.loc 1 779 5
 1119 0060 3B68     		ldr	r3, [r7]
 1120 0062 022B     		cmp	r3, #2
 1121 0064 03D1     		bne	.L65
 1122              		.loc 1 779 5 is_stmt 0 discriminator 2
 1123 0066 3B6B     		ldr	r3, [r7, #48]
 1124 0068 DB6B     		ldr	r3, [r3, #60]
 1125 006a 012B     		cmp	r3, #1
 1126 006c 01D1     		bne	.L66
 1127              	.L65:
 1128              		.loc 1 779 5 discriminator 3
 1129 006e 0123     		movs	r3, #1
 1130 0070 00E0     		b	.L67
 1131              	.L66:
 1132              		.loc 1 779 5 discriminator 4
 1133 0072 0023     		movs	r3, #0
 1134              	.L67:
 1135              		.loc 1 779 5 discriminator 6
 1136 0074 002B     		cmp	r3, #0
 1137 0076 0AD1     		bne	.L68
ARM GAS  /var/folders/kj/yzqgq53j3dg15vgwwwwgf5s00000gn/T//ccGgwidk.s 			page 38


 1138              	.LBB131:
 1139              	.LBB132:
 197:../../../../dependencies/freertos/FreeRTOSv10.4.1/FreeRTOS/Source/portable/GCC/ARM_CM4F/portmacro.h ****         (
 1140              		.loc 2 197 9 is_stmt 1
 1141              		.syntax unified
 1142              	@ 197 "../../../../dependencies/freertos/FreeRTOSv10.4.1/FreeRTOS/Source/portable/GCC/ARM_CM4F/port
 1143 0078 4FF05003 			mov r3, #80												
 1144 007c 83F31188 		msr basepri, r3											
 1145 0080 BFF36F8F 		isb														
 1146 0084 BFF34F8F 		dsb														
 1147              	
 1148              	@ 0 "" 2
 1149              		.thumb
 1150              		.syntax unified
 1151 0088 3B62     		str	r3, [r7, #32]
 1152              		.loc 2 205 5
 1153 008a 00BF     		nop
 1154              	.L69:
 1155              	.LBE132:
 1156              	.LBE131:
 1157              		.loc 1 779 5 discriminator 3
 1158 008c FEE7     		b	.L69
 1159              	.L68:
 780:../../../../dependencies/freertos/FreeRTOSv10.4.1/FreeRTOS/Source/queue.c ****     #if ( ( INCLUDE_xTaskGetSchedulerState == 1 ) || ( configUSE_TIMERS == 1 ) )
 781:../../../../dependencies/freertos/FreeRTOSv10.4.1/FreeRTOS/Source/queue.c ****         {
 782:../../../../dependencies/freertos/FreeRTOSv10.4.1/FreeRTOS/Source/queue.c ****             configASSERT( !( ( xTaskGetSchedulerState() == taskSCHEDULER_SUSPENDED ) && ( xTicksToW
 1160              		.loc 1 782 13
 1161 008e FFF7FEFF 		bl	xTaskGetSchedulerState
 1162 0092 0346     		mov	r3, r0
 1163 0094 002B     		cmp	r3, #0
 1164 0096 02D1     		bne	.L70
 1165              		.loc 1 782 13 is_stmt 0 discriminator 2
 1166 0098 7B68     		ldr	r3, [r7, #4]
 1167 009a 002B     		cmp	r3, #0
 1168 009c 01D1     		bne	.L71
 1169              	.L70:
 1170              		.loc 1 782 13 discriminator 3
 1171 009e 0123     		movs	r3, #1
 1172 00a0 00E0     		b	.L72
 1173              	.L71:
 1174              		.loc 1 782 13 discriminator 4
 1175 00a2 0023     		movs	r3, #0
 1176              	.L72:
 1177              		.loc 1 782 13 discriminator 6
 1178 00a4 002B     		cmp	r3, #0
 1179 00a6 0AD1     		bne	.L73
 1180              	.LBB133:
 1181              	.LBB134:
 197:../../../../dependencies/freertos/FreeRTOSv10.4.1/FreeRTOS/Source/portable/GCC/ARM_CM4F/portmacro.h ****         (
 1182              		.loc 2 197 9 is_stmt 1
 1183              		.syntax unified
 1184              	@ 197 "../../../../dependencies/freertos/FreeRTOSv10.4.1/FreeRTOS/Source/portable/GCC/ARM_CM4F/port
 1185 00a8 4FF05003 			mov r3, #80												
 1186 00ac 83F31188 		msr basepri, r3											
 1187 00b0 BFF36F8F 		isb														
 1188 00b4 BFF34F8F 		dsb														
 1189              	
ARM GAS  /var/folders/kj/yzqgq53j3dg15vgwwwwgf5s00000gn/T//ccGgwidk.s 			page 39


 1190              	@ 0 "" 2
 1191              		.thumb
 1192              		.syntax unified
 1193 00b8 FB61     		str	r3, [r7, #28]
 1194              		.loc 2 205 5
 1195 00ba 00BF     		nop
 1196              	.L74:
 1197              	.LBE134:
 1198              	.LBE133:
 1199              		.loc 1 782 13 discriminator 4
 1200 00bc FEE7     		b	.L74
 1201              	.L73:
 783:../../../../dependencies/freertos/FreeRTOSv10.4.1/FreeRTOS/Source/queue.c ****         }
 784:../../../../dependencies/freertos/FreeRTOSv10.4.1/FreeRTOS/Source/queue.c ****     #endif
 785:../../../../dependencies/freertos/FreeRTOSv10.4.1/FreeRTOS/Source/queue.c **** 
 786:../../../../dependencies/freertos/FreeRTOSv10.4.1/FreeRTOS/Source/queue.c ****     /*lint -save -e904 This function relaxes the coding standard somewhat to
 787:../../../../dependencies/freertos/FreeRTOSv10.4.1/FreeRTOS/Source/queue.c ****      * allow return statements within the function itself.  This is done in the
 788:../../../../dependencies/freertos/FreeRTOSv10.4.1/FreeRTOS/Source/queue.c ****      * interest of execution time efficiency. */
 789:../../../../dependencies/freertos/FreeRTOSv10.4.1/FreeRTOS/Source/queue.c ****     for( ; ; )
 790:../../../../dependencies/freertos/FreeRTOSv10.4.1/FreeRTOS/Source/queue.c ****     {
 791:../../../../dependencies/freertos/FreeRTOSv10.4.1/FreeRTOS/Source/queue.c ****         taskENTER_CRITICAL();
 1202              		.loc 1 791 9
 1203 00be FFF7FEFF 		bl	vPortEnterCritical
 792:../../../../dependencies/freertos/FreeRTOSv10.4.1/FreeRTOS/Source/queue.c ****         {
 793:../../../../dependencies/freertos/FreeRTOSv10.4.1/FreeRTOS/Source/queue.c ****             /* Is there room on the queue now?  The running task must be the
 794:../../../../dependencies/freertos/FreeRTOSv10.4.1/FreeRTOS/Source/queue.c ****              * highest priority task wanting to access the queue.  If the head item
 795:../../../../dependencies/freertos/FreeRTOSv10.4.1/FreeRTOS/Source/queue.c ****              * in the queue is to be overwritten then it does not matter if the
 796:../../../../dependencies/freertos/FreeRTOSv10.4.1/FreeRTOS/Source/queue.c ****              * queue is full. */
 797:../../../../dependencies/freertos/FreeRTOSv10.4.1/FreeRTOS/Source/queue.c ****             if( ( pxQueue->uxMessagesWaiting < pxQueue->uxLength ) || ( xCopyPosition == queueOVERW
 1204              		.loc 1 797 26
 1205 00c2 3B6B     		ldr	r3, [r7, #48]
 1206 00c4 9A6B     		ldr	r2, [r3, #56]
 1207              		.loc 1 797 55
 1208 00c6 3B6B     		ldr	r3, [r7, #48]
 1209 00c8 DB6B     		ldr	r3, [r3, #60]
 1210              		.loc 1 797 15
 1211 00ca 9A42     		cmp	r2, r3
 1212 00cc 02D3     		bcc	.L75
 1213              		.loc 1 797 68 discriminator 1
 1214 00ce 3B68     		ldr	r3, [r7]
 1215 00d0 022B     		cmp	r3, #2
 1216 00d2 29D1     		bne	.L76
 1217              	.L75:
 798:../../../../dependencies/freertos/FreeRTOSv10.4.1/FreeRTOS/Source/queue.c ****             {
 799:../../../../dependencies/freertos/FreeRTOSv10.4.1/FreeRTOS/Source/queue.c ****                 traceQUEUE_SEND( pxQueue );
 800:../../../../dependencies/freertos/FreeRTOSv10.4.1/FreeRTOS/Source/queue.c **** 
 801:../../../../dependencies/freertos/FreeRTOSv10.4.1/FreeRTOS/Source/queue.c ****                 #if ( configUSE_QUEUE_SETS == 1 )
 802:../../../../dependencies/freertos/FreeRTOSv10.4.1/FreeRTOS/Source/queue.c ****                     {
 803:../../../../dependencies/freertos/FreeRTOSv10.4.1/FreeRTOS/Source/queue.c ****                         const UBaseType_t uxPreviousMessagesWaiting = pxQueue->uxMessagesWaiting;
 804:../../../../dependencies/freertos/FreeRTOSv10.4.1/FreeRTOS/Source/queue.c **** 
 805:../../../../dependencies/freertos/FreeRTOSv10.4.1/FreeRTOS/Source/queue.c ****                         xYieldRequired = prvCopyDataToQueue( pxQueue, pvItemToQueue, xCopyPosition 
 806:../../../../dependencies/freertos/FreeRTOSv10.4.1/FreeRTOS/Source/queue.c **** 
 807:../../../../dependencies/freertos/FreeRTOSv10.4.1/FreeRTOS/Source/queue.c ****                         if( pxQueue->pxQueueSetContainer != NULL )
 808:../../../../dependencies/freertos/FreeRTOSv10.4.1/FreeRTOS/Source/queue.c ****                         {
 809:../../../../dependencies/freertos/FreeRTOSv10.4.1/FreeRTOS/Source/queue.c ****                             if( ( xCopyPosition == queueOVERWRITE ) && ( uxPreviousMessagesWaiting 
 810:../../../../dependencies/freertos/FreeRTOSv10.4.1/FreeRTOS/Source/queue.c ****                             {
 811:../../../../dependencies/freertos/FreeRTOSv10.4.1/FreeRTOS/Source/queue.c ****                                 /* Do not notify the queue set as an existing item
ARM GAS  /var/folders/kj/yzqgq53j3dg15vgwwwwgf5s00000gn/T//ccGgwidk.s 			page 40


 812:../../../../dependencies/freertos/FreeRTOSv10.4.1/FreeRTOS/Source/queue.c ****                                  * was overwritten in the queue so the number of items
 813:../../../../dependencies/freertos/FreeRTOSv10.4.1/FreeRTOS/Source/queue.c ****                                  * in the queue has not changed. */
 814:../../../../dependencies/freertos/FreeRTOSv10.4.1/FreeRTOS/Source/queue.c ****                                 mtCOVERAGE_TEST_MARKER();
 815:../../../../dependencies/freertos/FreeRTOSv10.4.1/FreeRTOS/Source/queue.c ****                             }
 816:../../../../dependencies/freertos/FreeRTOSv10.4.1/FreeRTOS/Source/queue.c ****                             else if( prvNotifyQueueSetContainer( pxQueue ) != pdFALSE )
 817:../../../../dependencies/freertos/FreeRTOSv10.4.1/FreeRTOS/Source/queue.c ****                             {
 818:../../../../dependencies/freertos/FreeRTOSv10.4.1/FreeRTOS/Source/queue.c ****                                 /* The queue is a member of a queue set, and posting
 819:../../../../dependencies/freertos/FreeRTOSv10.4.1/FreeRTOS/Source/queue.c ****                                  * to the queue set caused a higher priority task to
 820:../../../../dependencies/freertos/FreeRTOSv10.4.1/FreeRTOS/Source/queue.c ****                                  * unblock. A context switch is required. */
 821:../../../../dependencies/freertos/FreeRTOSv10.4.1/FreeRTOS/Source/queue.c ****                                 queueYIELD_IF_USING_PREEMPTION();
 822:../../../../dependencies/freertos/FreeRTOSv10.4.1/FreeRTOS/Source/queue.c ****                             }
 823:../../../../dependencies/freertos/FreeRTOSv10.4.1/FreeRTOS/Source/queue.c ****                             else
 824:../../../../dependencies/freertos/FreeRTOSv10.4.1/FreeRTOS/Source/queue.c ****                             {
 825:../../../../dependencies/freertos/FreeRTOSv10.4.1/FreeRTOS/Source/queue.c ****                                 mtCOVERAGE_TEST_MARKER();
 826:../../../../dependencies/freertos/FreeRTOSv10.4.1/FreeRTOS/Source/queue.c ****                             }
 827:../../../../dependencies/freertos/FreeRTOSv10.4.1/FreeRTOS/Source/queue.c ****                         }
 828:../../../../dependencies/freertos/FreeRTOSv10.4.1/FreeRTOS/Source/queue.c ****                         else
 829:../../../../dependencies/freertos/FreeRTOSv10.4.1/FreeRTOS/Source/queue.c ****                         {
 830:../../../../dependencies/freertos/FreeRTOSv10.4.1/FreeRTOS/Source/queue.c ****                             /* If there was a task waiting for data to arrive on the
 831:../../../../dependencies/freertos/FreeRTOSv10.4.1/FreeRTOS/Source/queue.c ****                              * queue then unblock it now. */
 832:../../../../dependencies/freertos/FreeRTOSv10.4.1/FreeRTOS/Source/queue.c ****                             if( listLIST_IS_EMPTY( &( pxQueue->xTasksWaitingToReceive ) ) == pdFALS
 833:../../../../dependencies/freertos/FreeRTOSv10.4.1/FreeRTOS/Source/queue.c ****                             {
 834:../../../../dependencies/freertos/FreeRTOSv10.4.1/FreeRTOS/Source/queue.c ****                                 if( xTaskRemoveFromEventList( &( pxQueue->xTasksWaitingToReceive ) 
 835:../../../../dependencies/freertos/FreeRTOSv10.4.1/FreeRTOS/Source/queue.c ****                                 {
 836:../../../../dependencies/freertos/FreeRTOSv10.4.1/FreeRTOS/Source/queue.c ****                                     /* The unblocked task has a priority higher than
 837:../../../../dependencies/freertos/FreeRTOSv10.4.1/FreeRTOS/Source/queue.c ****                                      * our own so yield immediately.  Yes it is ok to
 838:../../../../dependencies/freertos/FreeRTOSv10.4.1/FreeRTOS/Source/queue.c ****                                      * do this from within the critical section - the
 839:../../../../dependencies/freertos/FreeRTOSv10.4.1/FreeRTOS/Source/queue.c ****                                      * kernel takes care of that. */
 840:../../../../dependencies/freertos/FreeRTOSv10.4.1/FreeRTOS/Source/queue.c ****                                     queueYIELD_IF_USING_PREEMPTION();
 841:../../../../dependencies/freertos/FreeRTOSv10.4.1/FreeRTOS/Source/queue.c ****                                 }
 842:../../../../dependencies/freertos/FreeRTOSv10.4.1/FreeRTOS/Source/queue.c ****                                 else
 843:../../../../dependencies/freertos/FreeRTOSv10.4.1/FreeRTOS/Source/queue.c ****                                 {
 844:../../../../dependencies/freertos/FreeRTOSv10.4.1/FreeRTOS/Source/queue.c ****                                     mtCOVERAGE_TEST_MARKER();
 845:../../../../dependencies/freertos/FreeRTOSv10.4.1/FreeRTOS/Source/queue.c ****                                 }
 846:../../../../dependencies/freertos/FreeRTOSv10.4.1/FreeRTOS/Source/queue.c ****                             }
 847:../../../../dependencies/freertos/FreeRTOSv10.4.1/FreeRTOS/Source/queue.c ****                             else if( xYieldRequired != pdFALSE )
 848:../../../../dependencies/freertos/FreeRTOSv10.4.1/FreeRTOS/Source/queue.c ****                             {
 849:../../../../dependencies/freertos/FreeRTOSv10.4.1/FreeRTOS/Source/queue.c ****                                 /* This path is a special case that will only get
 850:../../../../dependencies/freertos/FreeRTOSv10.4.1/FreeRTOS/Source/queue.c ****                                  * executed if the task was holding multiple mutexes
 851:../../../../dependencies/freertos/FreeRTOSv10.4.1/FreeRTOS/Source/queue.c ****                                  * and the mutexes were given back in an order that is
 852:../../../../dependencies/freertos/FreeRTOSv10.4.1/FreeRTOS/Source/queue.c ****                                  * different to that in which they were taken. */
 853:../../../../dependencies/freertos/FreeRTOSv10.4.1/FreeRTOS/Source/queue.c ****                                 queueYIELD_IF_USING_PREEMPTION();
 854:../../../../dependencies/freertos/FreeRTOSv10.4.1/FreeRTOS/Source/queue.c ****                             }
 855:../../../../dependencies/freertos/FreeRTOSv10.4.1/FreeRTOS/Source/queue.c ****                             else
 856:../../../../dependencies/freertos/FreeRTOSv10.4.1/FreeRTOS/Source/queue.c ****                             {
 857:../../../../dependencies/freertos/FreeRTOSv10.4.1/FreeRTOS/Source/queue.c ****                                 mtCOVERAGE_TEST_MARKER();
 858:../../../../dependencies/freertos/FreeRTOSv10.4.1/FreeRTOS/Source/queue.c ****                             }
 859:../../../../dependencies/freertos/FreeRTOSv10.4.1/FreeRTOS/Source/queue.c ****                         }
 860:../../../../dependencies/freertos/FreeRTOSv10.4.1/FreeRTOS/Source/queue.c ****                     }
 861:../../../../dependencies/freertos/FreeRTOSv10.4.1/FreeRTOS/Source/queue.c ****                 #else /* configUSE_QUEUE_SETS */
 862:../../../../dependencies/freertos/FreeRTOSv10.4.1/FreeRTOS/Source/queue.c ****                     {
 863:../../../../dependencies/freertos/FreeRTOSv10.4.1/FreeRTOS/Source/queue.c ****                         xYieldRequired = prvCopyDataToQueue( pxQueue, pvItemToQueue, xCopyPosition 
 1218              		.loc 1 863 42
 1219 00d4 3A68     		ldr	r2, [r7]
 1220 00d6 B968     		ldr	r1, [r7, #8]
 1221 00d8 386B     		ldr	r0, [r7, #48]
 1222 00da FFF7FEFF 		bl	prvCopyDataToQueue
ARM GAS  /var/folders/kj/yzqgq53j3dg15vgwwwwgf5s00000gn/T//ccGgwidk.s 			page 41


 1223 00de F862     		str	r0, [r7, #44]
 864:../../../../dependencies/freertos/FreeRTOSv10.4.1/FreeRTOS/Source/queue.c **** 
 865:../../../../dependencies/freertos/FreeRTOSv10.4.1/FreeRTOS/Source/queue.c ****                         /* If there was a task waiting for data to arrive on the
 866:../../../../dependencies/freertos/FreeRTOSv10.4.1/FreeRTOS/Source/queue.c ****                          * queue then unblock it now. */
 867:../../../../dependencies/freertos/FreeRTOSv10.4.1/FreeRTOS/Source/queue.c ****                         if( listLIST_IS_EMPTY( &( pxQueue->xTasksWaitingToReceive ) ) == pdFALSE )
 1224              		.loc 1 867 29
 1225 00e0 3B6B     		ldr	r3, [r7, #48]
 1226 00e2 5B6A     		ldr	r3, [r3, #36]
 1227              		.loc 1 867 27
 1228 00e4 002B     		cmp	r3, #0
 1229 00e6 10D0     		beq	.L77
 868:../../../../dependencies/freertos/FreeRTOSv10.4.1/FreeRTOS/Source/queue.c ****                         {
 869:../../../../dependencies/freertos/FreeRTOSv10.4.1/FreeRTOS/Source/queue.c ****                             if( xTaskRemoveFromEventList( &( pxQueue->xTasksWaitingToReceive ) ) !=
 1230              		.loc 1 869 59
 1231 00e8 3B6B     		ldr	r3, [r7, #48]
 1232 00ea 2433     		adds	r3, r3, #36
 1233              		.loc 1 869 33
 1234 00ec 1846     		mov	r0, r3
 1235 00ee FFF7FEFF 		bl	xTaskRemoveFromEventList
 1236 00f2 0346     		mov	r3, r0
 1237              		.loc 1 869 31
 1238 00f4 002B     		cmp	r3, #0
 1239 00f6 13D0     		beq	.L78
 870:../../../../dependencies/freertos/FreeRTOSv10.4.1/FreeRTOS/Source/queue.c ****                             {
 871:../../../../dependencies/freertos/FreeRTOSv10.4.1/FreeRTOS/Source/queue.c ****                                 /* The unblocked task has a priority higher than
 872:../../../../dependencies/freertos/FreeRTOSv10.4.1/FreeRTOS/Source/queue.c ****                                  * our own so yield immediately.  Yes it is ok to do
 873:../../../../dependencies/freertos/FreeRTOSv10.4.1/FreeRTOS/Source/queue.c ****                                  * this from within the critical section - the kernel
 874:../../../../dependencies/freertos/FreeRTOSv10.4.1/FreeRTOS/Source/queue.c ****                                  * takes care of that. */
 875:../../../../dependencies/freertos/FreeRTOSv10.4.1/FreeRTOS/Source/queue.c ****                                 queueYIELD_IF_USING_PREEMPTION();
 1240              		.loc 1 875 33
 1241 00f8 3F4B     		ldr	r3, .L88
 1242 00fa 4FF08052 		mov	r2, #268435456
 1243 00fe 1A60     		str	r2, [r3]
 1244              		.syntax unified
 1245              	@ 875 "../../../../dependencies/freertos/FreeRTOSv10.4.1/FreeRTOS/Source/queue.c" 1
 1246 0100 BFF34F8F 		dsb
 1247              	@ 0 "" 2
 1248              	@ 875 "../../../../dependencies/freertos/FreeRTOSv10.4.1/FreeRTOS/Source/queue.c" 1
 1249 0104 BFF36F8F 		isb
 1250              	@ 0 "" 2
 1251              		.thumb
 1252              		.syntax unified
 1253 0108 0AE0     		b	.L78
 1254              	.L77:
 876:../../../../dependencies/freertos/FreeRTOSv10.4.1/FreeRTOS/Source/queue.c ****                             }
 877:../../../../dependencies/freertos/FreeRTOSv10.4.1/FreeRTOS/Source/queue.c ****                             else
 878:../../../../dependencies/freertos/FreeRTOSv10.4.1/FreeRTOS/Source/queue.c ****                             {
 879:../../../../dependencies/freertos/FreeRTOSv10.4.1/FreeRTOS/Source/queue.c ****                                 mtCOVERAGE_TEST_MARKER();
 880:../../../../dependencies/freertos/FreeRTOSv10.4.1/FreeRTOS/Source/queue.c ****                             }
 881:../../../../dependencies/freertos/FreeRTOSv10.4.1/FreeRTOS/Source/queue.c ****                         }
 882:../../../../dependencies/freertos/FreeRTOSv10.4.1/FreeRTOS/Source/queue.c ****                         else if( xYieldRequired != pdFALSE )
 1255              		.loc 1 882 32
 1256 010a FB6A     		ldr	r3, [r7, #44]
 1257 010c 002B     		cmp	r3, #0
 1258 010e 07D0     		beq	.L78
 883:../../../../dependencies/freertos/FreeRTOSv10.4.1/FreeRTOS/Source/queue.c ****                         {
 884:../../../../dependencies/freertos/FreeRTOSv10.4.1/FreeRTOS/Source/queue.c ****                             /* This path is a special case that will only get
ARM GAS  /var/folders/kj/yzqgq53j3dg15vgwwwwgf5s00000gn/T//ccGgwidk.s 			page 42


 885:../../../../dependencies/freertos/FreeRTOSv10.4.1/FreeRTOS/Source/queue.c ****                              * executed if the task was holding multiple mutexes and
 886:../../../../dependencies/freertos/FreeRTOSv10.4.1/FreeRTOS/Source/queue.c ****                              * the mutexes were given back in an order that is
 887:../../../../dependencies/freertos/FreeRTOSv10.4.1/FreeRTOS/Source/queue.c ****                              * different to that in which they were taken. */
 888:../../../../dependencies/freertos/FreeRTOSv10.4.1/FreeRTOS/Source/queue.c ****                             queueYIELD_IF_USING_PREEMPTION();
 1259              		.loc 1 888 29
 1260 0110 394B     		ldr	r3, .L88
 1261 0112 4FF08052 		mov	r2, #268435456
 1262 0116 1A60     		str	r2, [r3]
 1263              		.syntax unified
 1264              	@ 888 "../../../../dependencies/freertos/FreeRTOSv10.4.1/FreeRTOS/Source/queue.c" 1
 1265 0118 BFF34F8F 		dsb
 1266              	@ 0 "" 2
 1267              	@ 888 "../../../../dependencies/freertos/FreeRTOSv10.4.1/FreeRTOS/Source/queue.c" 1
 1268 011c BFF36F8F 		isb
 1269              	@ 0 "" 2
 1270              		.thumb
 1271              		.syntax unified
 1272              	.L78:
 889:../../../../dependencies/freertos/FreeRTOSv10.4.1/FreeRTOS/Source/queue.c ****                         }
 890:../../../../dependencies/freertos/FreeRTOSv10.4.1/FreeRTOS/Source/queue.c ****                         else
 891:../../../../dependencies/freertos/FreeRTOSv10.4.1/FreeRTOS/Source/queue.c ****                         {
 892:../../../../dependencies/freertos/FreeRTOSv10.4.1/FreeRTOS/Source/queue.c ****                             mtCOVERAGE_TEST_MARKER();
 893:../../../../dependencies/freertos/FreeRTOSv10.4.1/FreeRTOS/Source/queue.c ****                         }
 894:../../../../dependencies/freertos/FreeRTOSv10.4.1/FreeRTOS/Source/queue.c ****                     }
 895:../../../../dependencies/freertos/FreeRTOSv10.4.1/FreeRTOS/Source/queue.c ****                 #endif /* configUSE_QUEUE_SETS */
 896:../../../../dependencies/freertos/FreeRTOSv10.4.1/FreeRTOS/Source/queue.c **** 
 897:../../../../dependencies/freertos/FreeRTOSv10.4.1/FreeRTOS/Source/queue.c ****                 taskEXIT_CRITICAL();
 1273              		.loc 1 897 17
 1274 0120 FFF7FEFF 		bl	vPortExitCritical
 898:../../../../dependencies/freertos/FreeRTOSv10.4.1/FreeRTOS/Source/queue.c ****                 return pdPASS;
 1275              		.loc 1 898 24
 1276 0124 0123     		movs	r3, #1
 1277 0126 63E0     		b	.L87
 1278              	.L76:
 899:../../../../dependencies/freertos/FreeRTOSv10.4.1/FreeRTOS/Source/queue.c ****             }
 900:../../../../dependencies/freertos/FreeRTOSv10.4.1/FreeRTOS/Source/queue.c ****             else
 901:../../../../dependencies/freertos/FreeRTOSv10.4.1/FreeRTOS/Source/queue.c ****             {
 902:../../../../dependencies/freertos/FreeRTOSv10.4.1/FreeRTOS/Source/queue.c ****                 if( xTicksToWait == ( TickType_t ) 0 )
 1279              		.loc 1 902 34
 1280 0128 7B68     		ldr	r3, [r7, #4]
 1281              		.loc 1 902 19
 1282 012a 002B     		cmp	r3, #0
 1283 012c 03D1     		bne	.L80
 903:../../../../dependencies/freertos/FreeRTOSv10.4.1/FreeRTOS/Source/queue.c ****                 {
 904:../../../../dependencies/freertos/FreeRTOSv10.4.1/FreeRTOS/Source/queue.c ****                     /* The queue was full and no block time is specified (or
 905:../../../../dependencies/freertos/FreeRTOSv10.4.1/FreeRTOS/Source/queue.c ****                      * the block time has expired) so leave now. */
 906:../../../../dependencies/freertos/FreeRTOSv10.4.1/FreeRTOS/Source/queue.c ****                     taskEXIT_CRITICAL();
 1284              		.loc 1 906 21
 1285 012e FFF7FEFF 		bl	vPortExitCritical
 907:../../../../dependencies/freertos/FreeRTOSv10.4.1/FreeRTOS/Source/queue.c **** 
 908:../../../../dependencies/freertos/FreeRTOSv10.4.1/FreeRTOS/Source/queue.c ****                     /* Return to the original privilege level before exiting
 909:../../../../dependencies/freertos/FreeRTOSv10.4.1/FreeRTOS/Source/queue.c ****                      * the function. */
 910:../../../../dependencies/freertos/FreeRTOSv10.4.1/FreeRTOS/Source/queue.c ****                     traceQUEUE_SEND_FAILED( pxQueue );
 911:../../../../dependencies/freertos/FreeRTOSv10.4.1/FreeRTOS/Source/queue.c ****                     return errQUEUE_FULL;
 1286              		.loc 1 911 28
 1287 0132 0023     		movs	r3, #0
 1288 0134 5CE0     		b	.L87
ARM GAS  /var/folders/kj/yzqgq53j3dg15vgwwwwgf5s00000gn/T//ccGgwidk.s 			page 43


 1289              	.L80:
 912:../../../../dependencies/freertos/FreeRTOSv10.4.1/FreeRTOS/Source/queue.c ****                 }
 913:../../../../dependencies/freertos/FreeRTOSv10.4.1/FreeRTOS/Source/queue.c ****                 else if( xEntryTimeSet == pdFALSE )
 1290              		.loc 1 913 24
 1291 0136 7B6B     		ldr	r3, [r7, #52]
 1292 0138 002B     		cmp	r3, #0
 1293 013a 06D1     		bne	.L81
 914:../../../../dependencies/freertos/FreeRTOSv10.4.1/FreeRTOS/Source/queue.c ****                 {
 915:../../../../dependencies/freertos/FreeRTOSv10.4.1/FreeRTOS/Source/queue.c ****                     /* The queue was full and a block time was specified so
 916:../../../../dependencies/freertos/FreeRTOSv10.4.1/FreeRTOS/Source/queue.c ****                      * configure the timeout structure. */
 917:../../../../dependencies/freertos/FreeRTOSv10.4.1/FreeRTOS/Source/queue.c ****                     vTaskInternalSetTimeOutState( &xTimeOut );
 1294              		.loc 1 917 21
 1295 013c 07F11403 		add	r3, r7, #20
 1296 0140 1846     		mov	r0, r3
 1297 0142 FFF7FEFF 		bl	vTaskInternalSetTimeOutState
 918:../../../../dependencies/freertos/FreeRTOSv10.4.1/FreeRTOS/Source/queue.c ****                     xEntryTimeSet = pdTRUE;
 1298              		.loc 1 918 35
 1299 0146 0123     		movs	r3, #1
 1300 0148 7B63     		str	r3, [r7, #52]
 1301              	.L81:
 919:../../../../dependencies/freertos/FreeRTOSv10.4.1/FreeRTOS/Source/queue.c ****                 }
 920:../../../../dependencies/freertos/FreeRTOSv10.4.1/FreeRTOS/Source/queue.c ****                 else
 921:../../../../dependencies/freertos/FreeRTOSv10.4.1/FreeRTOS/Source/queue.c ****                 {
 922:../../../../dependencies/freertos/FreeRTOSv10.4.1/FreeRTOS/Source/queue.c ****                     /* Entry time was already set. */
 923:../../../../dependencies/freertos/FreeRTOSv10.4.1/FreeRTOS/Source/queue.c ****                     mtCOVERAGE_TEST_MARKER();
 924:../../../../dependencies/freertos/FreeRTOSv10.4.1/FreeRTOS/Source/queue.c ****                 }
 925:../../../../dependencies/freertos/FreeRTOSv10.4.1/FreeRTOS/Source/queue.c ****             }
 926:../../../../dependencies/freertos/FreeRTOSv10.4.1/FreeRTOS/Source/queue.c ****         }
 927:../../../../dependencies/freertos/FreeRTOSv10.4.1/FreeRTOS/Source/queue.c ****         taskEXIT_CRITICAL();
 1302              		.loc 1 927 9
 1303 014a FFF7FEFF 		bl	vPortExitCritical
 928:../../../../dependencies/freertos/FreeRTOSv10.4.1/FreeRTOS/Source/queue.c **** 
 929:../../../../dependencies/freertos/FreeRTOSv10.4.1/FreeRTOS/Source/queue.c ****         /* Interrupts and other tasks can send to and receive from the queue
 930:../../../../dependencies/freertos/FreeRTOSv10.4.1/FreeRTOS/Source/queue.c ****          * now the critical section has been exited. */
 931:../../../../dependencies/freertos/FreeRTOSv10.4.1/FreeRTOS/Source/queue.c **** 
 932:../../../../dependencies/freertos/FreeRTOSv10.4.1/FreeRTOS/Source/queue.c ****         vTaskSuspendAll();
 1304              		.loc 1 932 9
 1305 014e FFF7FEFF 		bl	vTaskSuspendAll
 933:../../../../dependencies/freertos/FreeRTOSv10.4.1/FreeRTOS/Source/queue.c ****         prvLockQueue( pxQueue );
 1306              		.loc 1 933 9
 1307 0152 FFF7FEFF 		bl	vPortEnterCritical
 1308 0156 3B6B     		ldr	r3, [r7, #48]
 1309 0158 93F84430 		ldrb	r3, [r3, #68]
 1310 015c 5BB2     		sxtb	r3, r3
 1311 015e B3F1FF3F 		cmp	r3, #-1
 1312 0162 03D1     		bne	.L82
 1313              		.loc 1 933 9 is_stmt 0 discriminator 1
 1314 0164 3B6B     		ldr	r3, [r7, #48]
 1315 0166 0022     		movs	r2, #0
 1316 0168 83F84420 		strb	r2, [r3, #68]
 1317              	.L82:
 1318              		.loc 1 933 9 discriminator 3
 1319 016c 3B6B     		ldr	r3, [r7, #48]
 1320 016e 93F84530 		ldrb	r3, [r3, #69]
 1321 0172 5BB2     		sxtb	r3, r3
 1322 0174 B3F1FF3F 		cmp	r3, #-1
 1323 0178 03D1     		bne	.L83
ARM GAS  /var/folders/kj/yzqgq53j3dg15vgwwwwgf5s00000gn/T//ccGgwidk.s 			page 44


 1324              		.loc 1 933 9 discriminator 4
 1325 017a 3B6B     		ldr	r3, [r7, #48]
 1326 017c 0022     		movs	r2, #0
 1327 017e 83F84520 		strb	r2, [r3, #69]
 1328              	.L83:
 1329              		.loc 1 933 9 discriminator 6
 1330 0182 FFF7FEFF 		bl	vPortExitCritical
 934:../../../../dependencies/freertos/FreeRTOSv10.4.1/FreeRTOS/Source/queue.c **** 
 935:../../../../dependencies/freertos/FreeRTOSv10.4.1/FreeRTOS/Source/queue.c ****         /* Update the timeout state to see if it has expired yet. */
 936:../../../../dependencies/freertos/FreeRTOSv10.4.1/FreeRTOS/Source/queue.c ****         if( xTaskCheckForTimeOut( &xTimeOut, &xTicksToWait ) == pdFALSE )
 1331              		.loc 1 936 13 is_stmt 1 discriminator 6
 1332 0186 3A1D     		adds	r2, r7, #4
 1333 0188 07F11403 		add	r3, r7, #20
 1334 018c 1146     		mov	r1, r2
 1335 018e 1846     		mov	r0, r3
 1336 0190 FFF7FEFF 		bl	xTaskCheckForTimeOut
 1337 0194 0346     		mov	r3, r0
 1338              		.loc 1 936 11 discriminator 6
 1339 0196 002B     		cmp	r3, #0
 1340 0198 24D1     		bne	.L84
 937:../../../../dependencies/freertos/FreeRTOSv10.4.1/FreeRTOS/Source/queue.c ****         {
 938:../../../../dependencies/freertos/FreeRTOSv10.4.1/FreeRTOS/Source/queue.c ****             if( prvIsQueueFull( pxQueue ) != pdFALSE )
 1341              		.loc 1 938 17
 1342 019a 386B     		ldr	r0, [r7, #48]
 1343 019c FFF7FEFF 		bl	prvIsQueueFull
 1344 01a0 0346     		mov	r3, r0
 1345              		.loc 1 938 15
 1346 01a2 002B     		cmp	r3, #0
 1347 01a4 18D0     		beq	.L85
 939:../../../../dependencies/freertos/FreeRTOSv10.4.1/FreeRTOS/Source/queue.c ****             {
 940:../../../../dependencies/freertos/FreeRTOSv10.4.1/FreeRTOS/Source/queue.c ****                 traceBLOCKING_ON_QUEUE_SEND( pxQueue );
 941:../../../../dependencies/freertos/FreeRTOSv10.4.1/FreeRTOS/Source/queue.c ****                 vTaskPlaceOnEventList( &( pxQueue->xTasksWaitingToSend ), xTicksToWait );
 1348              		.loc 1 941 17
 1349 01a6 3B6B     		ldr	r3, [r7, #48]
 1350 01a8 1033     		adds	r3, r3, #16
 1351 01aa 7A68     		ldr	r2, [r7, #4]
 1352 01ac 1146     		mov	r1, r2
 1353 01ae 1846     		mov	r0, r3
 1354 01b0 FFF7FEFF 		bl	vTaskPlaceOnEventList
 942:../../../../dependencies/freertos/FreeRTOSv10.4.1/FreeRTOS/Source/queue.c **** 
 943:../../../../dependencies/freertos/FreeRTOSv10.4.1/FreeRTOS/Source/queue.c ****                 /* Unlocking the queue means queue events can effect the
 944:../../../../dependencies/freertos/FreeRTOSv10.4.1/FreeRTOS/Source/queue.c ****                  * event list.  It is possible that interrupts occurring now
 945:../../../../dependencies/freertos/FreeRTOSv10.4.1/FreeRTOS/Source/queue.c ****                  * remove this task from the event list again - but as the
 946:../../../../dependencies/freertos/FreeRTOSv10.4.1/FreeRTOS/Source/queue.c ****                  * scheduler is suspended the task will go onto the pending
 947:../../../../dependencies/freertos/FreeRTOSv10.4.1/FreeRTOS/Source/queue.c ****                  * ready last instead of the actual ready list. */
 948:../../../../dependencies/freertos/FreeRTOSv10.4.1/FreeRTOS/Source/queue.c ****                 prvUnlockQueue( pxQueue );
 1355              		.loc 1 948 17
 1356 01b4 386B     		ldr	r0, [r7, #48]
 1357 01b6 FFF7FEFF 		bl	prvUnlockQueue
 949:../../../../dependencies/freertos/FreeRTOSv10.4.1/FreeRTOS/Source/queue.c **** 
 950:../../../../dependencies/freertos/FreeRTOSv10.4.1/FreeRTOS/Source/queue.c ****                 /* Resuming the scheduler will move tasks from the pending
 951:../../../../dependencies/freertos/FreeRTOSv10.4.1/FreeRTOS/Source/queue.c ****                  * ready list into the ready list - so it is feasible that this
 952:../../../../dependencies/freertos/FreeRTOSv10.4.1/FreeRTOS/Source/queue.c ****                  * task is already in a ready list before it yields - in which
 953:../../../../dependencies/freertos/FreeRTOSv10.4.1/FreeRTOS/Source/queue.c ****                  * case the yield will not cause a context switch unless there
 954:../../../../dependencies/freertos/FreeRTOSv10.4.1/FreeRTOS/Source/queue.c ****                  * is also a higher priority task in the pending ready list. */
 955:../../../../dependencies/freertos/FreeRTOSv10.4.1/FreeRTOS/Source/queue.c ****                 if( xTaskResumeAll() == pdFALSE )
 1358              		.loc 1 955 21
ARM GAS  /var/folders/kj/yzqgq53j3dg15vgwwwwgf5s00000gn/T//ccGgwidk.s 			page 45


 1359 01ba FFF7FEFF 		bl	xTaskResumeAll
 1360 01be 0346     		mov	r3, r0
 1361              		.loc 1 955 19
 1362 01c0 002B     		cmp	r3, #0
 1363 01c2 7FF47CAF 		bne	.L73
 956:../../../../dependencies/freertos/FreeRTOSv10.4.1/FreeRTOS/Source/queue.c ****                 {
 957:../../../../dependencies/freertos/FreeRTOSv10.4.1/FreeRTOS/Source/queue.c ****                     portYIELD_WITHIN_API();
 1364              		.loc 1 957 21
 1365 01c6 0C4B     		ldr	r3, .L88
 1366 01c8 4FF08052 		mov	r2, #268435456
 1367 01cc 1A60     		str	r2, [r3]
 1368              		.syntax unified
 1369              	@ 957 "../../../../dependencies/freertos/FreeRTOSv10.4.1/FreeRTOS/Source/queue.c" 1
 1370 01ce BFF34F8F 		dsb
 1371              	@ 0 "" 2
 1372              	@ 957 "../../../../dependencies/freertos/FreeRTOSv10.4.1/FreeRTOS/Source/queue.c" 1
 1373 01d2 BFF36F8F 		isb
 1374              	@ 0 "" 2
 1375              		.thumb
 1376              		.syntax unified
 1377 01d6 72E7     		b	.L73
 1378              	.L85:
 958:../../../../dependencies/freertos/FreeRTOSv10.4.1/FreeRTOS/Source/queue.c ****                 }
 959:../../../../dependencies/freertos/FreeRTOSv10.4.1/FreeRTOS/Source/queue.c ****             }
 960:../../../../dependencies/freertos/FreeRTOSv10.4.1/FreeRTOS/Source/queue.c ****             else
 961:../../../../dependencies/freertos/FreeRTOSv10.4.1/FreeRTOS/Source/queue.c ****             {
 962:../../../../dependencies/freertos/FreeRTOSv10.4.1/FreeRTOS/Source/queue.c ****                 /* Try again. */
 963:../../../../dependencies/freertos/FreeRTOSv10.4.1/FreeRTOS/Source/queue.c ****                 prvUnlockQueue( pxQueue );
 1379              		.loc 1 963 17
 1380 01d8 386B     		ldr	r0, [r7, #48]
 1381 01da FFF7FEFF 		bl	prvUnlockQueue
 964:../../../../dependencies/freertos/FreeRTOSv10.4.1/FreeRTOS/Source/queue.c ****                 ( void ) xTaskResumeAll();
 1382              		.loc 1 964 26
 1383 01de FFF7FEFF 		bl	xTaskResumeAll
 1384 01e2 6CE7     		b	.L73
 1385              	.L84:
 965:../../../../dependencies/freertos/FreeRTOSv10.4.1/FreeRTOS/Source/queue.c ****             }
 966:../../../../dependencies/freertos/FreeRTOSv10.4.1/FreeRTOS/Source/queue.c ****         }
 967:../../../../dependencies/freertos/FreeRTOSv10.4.1/FreeRTOS/Source/queue.c ****         else
 968:../../../../dependencies/freertos/FreeRTOSv10.4.1/FreeRTOS/Source/queue.c ****         {
 969:../../../../dependencies/freertos/FreeRTOSv10.4.1/FreeRTOS/Source/queue.c ****             /* The timeout has expired. */
 970:../../../../dependencies/freertos/FreeRTOSv10.4.1/FreeRTOS/Source/queue.c ****             prvUnlockQueue( pxQueue );
 1386              		.loc 1 970 13
 1387 01e4 386B     		ldr	r0, [r7, #48]
 1388 01e6 FFF7FEFF 		bl	prvUnlockQueue
 971:../../../../dependencies/freertos/FreeRTOSv10.4.1/FreeRTOS/Source/queue.c ****             ( void ) xTaskResumeAll();
 1389              		.loc 1 971 22
 1390 01ea FFF7FEFF 		bl	xTaskResumeAll
 972:../../../../dependencies/freertos/FreeRTOSv10.4.1/FreeRTOS/Source/queue.c **** 
 973:../../../../dependencies/freertos/FreeRTOSv10.4.1/FreeRTOS/Source/queue.c ****             traceQUEUE_SEND_FAILED( pxQueue );
 974:../../../../dependencies/freertos/FreeRTOSv10.4.1/FreeRTOS/Source/queue.c ****             return errQUEUE_FULL;
 1391              		.loc 1 974 20
 1392 01ee 0023     		movs	r3, #0
 1393              	.L87:
 975:../../../../dependencies/freertos/FreeRTOSv10.4.1/FreeRTOS/Source/queue.c ****         }
 976:../../../../dependencies/freertos/FreeRTOSv10.4.1/FreeRTOS/Source/queue.c ****     } /*lint -restore */
 977:../../../../dependencies/freertos/FreeRTOSv10.4.1/FreeRTOS/Source/queue.c **** }
ARM GAS  /var/folders/kj/yzqgq53j3dg15vgwwwwgf5s00000gn/T//ccGgwidk.s 			page 46


 1394              		.loc 1 977 1 discriminator 7
 1395 01f0 1846     		mov	r0, r3
 1396 01f2 3837     		adds	r7, r7, #56
 1397              	.LCFI54:
 1398              		.cfi_def_cfa_offset 8
 1399 01f4 BD46     		mov	sp, r7
 1400              	.LCFI55:
 1401              		.cfi_def_cfa_register 13
 1402              		@ sp needed
 1403 01f6 80BD     		pop	{r7, pc}
 1404              	.L89:
 1405              		.align	2
 1406              	.L88:
 1407 01f8 04ED00E0 		.word	-536810236
 1408              		.cfi_endproc
 1409              	.LFE15:
 1411              		.section	.text.xQueueGenericSendFromISR,"ax",%progbits
 1412              		.align	1
 1413              		.global	xQueueGenericSendFromISR
 1414              		.syntax unified
 1415              		.thumb
 1416              		.thumb_func
 1417              		.fpu fpv4-sp-d16
 1419              	xQueueGenericSendFromISR:
 1420              	.LFB16:
 978:../../../../dependencies/freertos/FreeRTOSv10.4.1/FreeRTOS/Source/queue.c **** /*-----------------------------------------------------------*/
 979:../../../../dependencies/freertos/FreeRTOSv10.4.1/FreeRTOS/Source/queue.c **** 
 980:../../../../dependencies/freertos/FreeRTOSv10.4.1/FreeRTOS/Source/queue.c **** BaseType_t xQueueGenericSendFromISR( QueueHandle_t xQueue,
 981:../../../../dependencies/freertos/FreeRTOSv10.4.1/FreeRTOS/Source/queue.c ****                                      const void * const pvItemToQueue,
 982:../../../../dependencies/freertos/FreeRTOSv10.4.1/FreeRTOS/Source/queue.c ****                                      BaseType_t * const pxHigherPriorityTaskWoken,
 983:../../../../dependencies/freertos/FreeRTOSv10.4.1/FreeRTOS/Source/queue.c ****                                      const BaseType_t xCopyPosition )
 984:../../../../dependencies/freertos/FreeRTOSv10.4.1/FreeRTOS/Source/queue.c **** {
 1421              		.loc 1 984 1
 1422              		.cfi_startproc
 1423              		@ args = 0, pretend = 0, frame = 64
 1424              		@ frame_needed = 1, uses_anonymous_args = 0
 1425 0000 80B5     		push	{r7, lr}
 1426              	.LCFI56:
 1427              		.cfi_def_cfa_offset 8
 1428              		.cfi_offset 7, -8
 1429              		.cfi_offset 14, -4
 1430 0002 90B0     		sub	sp, sp, #64
 1431              	.LCFI57:
 1432              		.cfi_def_cfa_offset 72
 1433 0004 00AF     		add	r7, sp, #0
 1434              	.LCFI58:
 1435              		.cfi_def_cfa_register 7
 1436 0006 F860     		str	r0, [r7, #12]
 1437 0008 B960     		str	r1, [r7, #8]
 1438 000a 7A60     		str	r2, [r7, #4]
 1439 000c 3B60     		str	r3, [r7]
 985:../../../../dependencies/freertos/FreeRTOSv10.4.1/FreeRTOS/Source/queue.c ****     BaseType_t xReturn;
 986:../../../../dependencies/freertos/FreeRTOSv10.4.1/FreeRTOS/Source/queue.c ****     UBaseType_t uxSavedInterruptStatus;
 987:../../../../dependencies/freertos/FreeRTOSv10.4.1/FreeRTOS/Source/queue.c ****     Queue_t * const pxQueue = xQueue;
 1440              		.loc 1 987 21
 1441 000e FB68     		ldr	r3, [r7, #12]
 1442 0010 BB63     		str	r3, [r7, #56]
ARM GAS  /var/folders/kj/yzqgq53j3dg15vgwwwwgf5s00000gn/T//ccGgwidk.s 			page 47


 988:../../../../dependencies/freertos/FreeRTOSv10.4.1/FreeRTOS/Source/queue.c **** 
 989:../../../../dependencies/freertos/FreeRTOSv10.4.1/FreeRTOS/Source/queue.c ****     configASSERT( pxQueue );
 1443              		.loc 1 989 5
 1444 0012 BB6B     		ldr	r3, [r7, #56]
 1445 0014 002B     		cmp	r3, #0
 1446 0016 0AD1     		bne	.L91
 1447              	.LBB135:
 1448              	.LBB136:
 197:../../../../dependencies/freertos/FreeRTOSv10.4.1/FreeRTOS/Source/portable/GCC/ARM_CM4F/portmacro.h ****         (
 1449              		.loc 2 197 9
 1450              		.syntax unified
 1451              	@ 197 "../../../../dependencies/freertos/FreeRTOSv10.4.1/FreeRTOS/Source/portable/GCC/ARM_CM4F/port
 1452 0018 4FF05003 			mov r3, #80												
 1453 001c 83F31188 		msr basepri, r3											
 1454 0020 BFF36F8F 		isb														
 1455 0024 BFF34F8F 		dsb														
 1456              	
 1457              	@ 0 "" 2
 1458              		.thumb
 1459              		.syntax unified
 1460 0028 BB62     		str	r3, [r7, #40]
 1461              		.loc 2 205 5
 1462 002a 00BF     		nop
 1463              	.L92:
 1464              	.LBE136:
 1465              	.LBE135:
 1466              		.loc 1 989 5 discriminator 1
 1467 002c FEE7     		b	.L92
 1468              	.L91:
 990:../../../../dependencies/freertos/FreeRTOSv10.4.1/FreeRTOS/Source/queue.c ****     configASSERT( !( ( pvItemToQueue == NULL ) && ( pxQueue->uxItemSize != ( UBaseType_t ) 0U ) ) )
 1469              		.loc 1 990 5
 1470 002e BB68     		ldr	r3, [r7, #8]
 1471 0030 002B     		cmp	r3, #0
 1472 0032 03D1     		bne	.L93
 1473              		.loc 1 990 5 is_stmt 0 discriminator 2
 1474 0034 BB6B     		ldr	r3, [r7, #56]
 1475 0036 1B6C     		ldr	r3, [r3, #64]
 1476 0038 002B     		cmp	r3, #0
 1477 003a 01D1     		bne	.L94
 1478              	.L93:
 1479              		.loc 1 990 5 discriminator 3
 1480 003c 0123     		movs	r3, #1
 1481 003e 00E0     		b	.L95
 1482              	.L94:
 1483              		.loc 1 990 5 discriminator 4
 1484 0040 0023     		movs	r3, #0
 1485              	.L95:
 1486              		.loc 1 990 5 discriminator 6
 1487 0042 002B     		cmp	r3, #0
 1488 0044 0AD1     		bne	.L96
 1489              	.LBB137:
 1490              	.LBB138:
 197:../../../../dependencies/freertos/FreeRTOSv10.4.1/FreeRTOS/Source/portable/GCC/ARM_CM4F/portmacro.h ****         (
 1491              		.loc 2 197 9 is_stmt 1
 1492              		.syntax unified
 1493              	@ 197 "../../../../dependencies/freertos/FreeRTOSv10.4.1/FreeRTOS/Source/portable/GCC/ARM_CM4F/port
 1494 0046 4FF05003 			mov r3, #80												
ARM GAS  /var/folders/kj/yzqgq53j3dg15vgwwwwgf5s00000gn/T//ccGgwidk.s 			page 48


 1495 004a 83F31188 		msr basepri, r3											
 1496 004e BFF36F8F 		isb														
 1497 0052 BFF34F8F 		dsb														
 1498              	
 1499              	@ 0 "" 2
 1500              		.thumb
 1501              		.syntax unified
 1502 0056 7B62     		str	r3, [r7, #36]
 1503              		.loc 2 205 5
 1504 0058 00BF     		nop
 1505              	.L97:
 1506              	.LBE138:
 1507              	.LBE137:
 1508              		.loc 1 990 5 discriminator 2
 1509 005a FEE7     		b	.L97
 1510              	.L96:
 991:../../../../dependencies/freertos/FreeRTOSv10.4.1/FreeRTOS/Source/queue.c ****     configASSERT( !( ( xCopyPosition == queueOVERWRITE ) && ( pxQueue->uxLength != 1 ) ) );
 1511              		.loc 1 991 5
 1512 005c 3B68     		ldr	r3, [r7]
 1513 005e 022B     		cmp	r3, #2
 1514 0060 03D1     		bne	.L98
 1515              		.loc 1 991 5 is_stmt 0 discriminator 2
 1516 0062 BB6B     		ldr	r3, [r7, #56]
 1517 0064 DB6B     		ldr	r3, [r3, #60]
 1518 0066 012B     		cmp	r3, #1
 1519 0068 01D1     		bne	.L99
 1520              	.L98:
 1521              		.loc 1 991 5 discriminator 3
 1522 006a 0123     		movs	r3, #1
 1523 006c 00E0     		b	.L100
 1524              	.L99:
 1525              		.loc 1 991 5 discriminator 4
 1526 006e 0023     		movs	r3, #0
 1527              	.L100:
 1528              		.loc 1 991 5 discriminator 6
 1529 0070 002B     		cmp	r3, #0
 1530 0072 0AD1     		bne	.L101
 1531              	.LBB139:
 1532              	.LBB140:
 197:../../../../dependencies/freertos/FreeRTOSv10.4.1/FreeRTOS/Source/portable/GCC/ARM_CM4F/portmacro.h ****         (
 1533              		.loc 2 197 9 is_stmt 1
 1534              		.syntax unified
 1535              	@ 197 "../../../../dependencies/freertos/FreeRTOSv10.4.1/FreeRTOS/Source/portable/GCC/ARM_CM4F/port
 1536 0074 4FF05003 			mov r3, #80												
 1537 0078 83F31188 		msr basepri, r3											
 1538 007c BFF36F8F 		isb														
 1539 0080 BFF34F8F 		dsb														
 1540              	
 1541              	@ 0 "" 2
 1542              		.thumb
 1543              		.syntax unified
 1544 0084 3B62     		str	r3, [r7, #32]
 1545              		.loc 2 205 5
 1546 0086 00BF     		nop
 1547              	.L102:
 1548              	.LBE140:
 1549              	.LBE139:
ARM GAS  /var/folders/kj/yzqgq53j3dg15vgwwwwgf5s00000gn/T//ccGgwidk.s 			page 49


 1550              		.loc 1 991 5 discriminator 3
 1551 0088 FEE7     		b	.L102
 1552              	.L101:
 992:../../../../dependencies/freertos/FreeRTOSv10.4.1/FreeRTOS/Source/queue.c **** 
 993:../../../../dependencies/freertos/FreeRTOSv10.4.1/FreeRTOS/Source/queue.c ****     /* RTOS ports that support interrupt nesting have the concept of a maximum
 994:../../../../dependencies/freertos/FreeRTOSv10.4.1/FreeRTOS/Source/queue.c ****      * system call (or maximum API call) interrupt priority.  Interrupts that are
 995:../../../../dependencies/freertos/FreeRTOSv10.4.1/FreeRTOS/Source/queue.c ****      * above the maximum system call priority are kept permanently enabled, even
 996:../../../../dependencies/freertos/FreeRTOSv10.4.1/FreeRTOS/Source/queue.c ****      * when the RTOS kernel is in a critical section, but cannot make any calls to
 997:../../../../dependencies/freertos/FreeRTOSv10.4.1/FreeRTOS/Source/queue.c ****      * FreeRTOS API functions.  If configASSERT() is defined in FreeRTOSConfig.h
 998:../../../../dependencies/freertos/FreeRTOSv10.4.1/FreeRTOS/Source/queue.c ****      * then portASSERT_IF_INTERRUPT_PRIORITY_INVALID() will result in an assertion
 999:../../../../dependencies/freertos/FreeRTOSv10.4.1/FreeRTOS/Source/queue.c ****      * failure if a FreeRTOS API function is called from an interrupt that has been
1000:../../../../dependencies/freertos/FreeRTOSv10.4.1/FreeRTOS/Source/queue.c ****      * assigned a priority above the configured maximum system call priority.
1001:../../../../dependencies/freertos/FreeRTOSv10.4.1/FreeRTOS/Source/queue.c ****      * Only FreeRTOS functions that end in FromISR can be called from interrupts
1002:../../../../dependencies/freertos/FreeRTOSv10.4.1/FreeRTOS/Source/queue.c ****      * that have been assigned a priority at or (logically) below the maximum
1003:../../../../dependencies/freertos/FreeRTOSv10.4.1/FreeRTOS/Source/queue.c ****      * system call interrupt priority.  FreeRTOS maintains a separate interrupt
1004:../../../../dependencies/freertos/FreeRTOSv10.4.1/FreeRTOS/Source/queue.c ****      * safe API to ensure interrupt entry is as fast and as simple as possible.
1005:../../../../dependencies/freertos/FreeRTOSv10.4.1/FreeRTOS/Source/queue.c ****      * More information (albeit Cortex-M specific) is provided on the following
1006:../../../../dependencies/freertos/FreeRTOSv10.4.1/FreeRTOS/Source/queue.c ****      * link: https://www.FreeRTOS.org/RTOS-Cortex-M3-M4.html */
1007:../../../../dependencies/freertos/FreeRTOSv10.4.1/FreeRTOS/Source/queue.c ****     portASSERT_IF_INTERRUPT_PRIORITY_INVALID();
 1553              		.loc 1 1007 5
 1554 008a FFF7FEFF 		bl	vPortValidateInterruptPriority
 1555              	.LBB141:
 1556              	.LBB142:
 206:../../../../dependencies/freertos/FreeRTOSv10.4.1/FreeRTOS/Source/portable/GCC/ARM_CM4F/portmacro.h **** 
 207:../../../../dependencies/freertos/FreeRTOSv10.4.1/FreeRTOS/Source/portable/GCC/ARM_CM4F/portmacro.h **** /*-----------------------------------------------------------*/
 208:../../../../dependencies/freertos/FreeRTOSv10.4.1/FreeRTOS/Source/portable/GCC/ARM_CM4F/portmacro.h **** 
 209:../../../../dependencies/freertos/FreeRTOSv10.4.1/FreeRTOS/Source/portable/GCC/ARM_CM4F/portmacro.h ****     portFORCE_INLINE static uint32_t ulPortRaiseBASEPRI( void )
 210:../../../../dependencies/freertos/FreeRTOSv10.4.1/FreeRTOS/Source/portable/GCC/ARM_CM4F/portmacro.h ****     {
 211:../../../../dependencies/freertos/FreeRTOSv10.4.1/FreeRTOS/Source/portable/GCC/ARM_CM4F/portmacro.h ****         uint32_t ulOriginalBASEPRI, ulNewBASEPRI;
 212:../../../../dependencies/freertos/FreeRTOSv10.4.1/FreeRTOS/Source/portable/GCC/ARM_CM4F/portmacro.h **** 
 213:../../../../dependencies/freertos/FreeRTOSv10.4.1/FreeRTOS/Source/portable/GCC/ARM_CM4F/portmacro.h ****         __asm volatile
 1557              		.loc 2 213 9
 1558              		.syntax unified
 1559              	@ 213 "../../../../dependencies/freertos/FreeRTOSv10.4.1/FreeRTOS/Source/portable/GCC/ARM_CM4F/port
 1560 008e EFF31182 			mrs r2, basepri											
 1561 0092 4FF05003 		mov r3, #80												
 1562 0096 83F31188 		msr basepri, r3											
 1563 009a BFF36F8F 		isb														
 1564 009e BFF34F8F 		dsb														
 1565              	
 1566              	@ 0 "" 2
 1567              		.thumb
 1568              		.syntax unified
 1569 00a2 FA61     		str	r2, [r7, #28]
 1570 00a4 BB61     		str	r3, [r7, #24]
 214:../../../../dependencies/freertos/FreeRTOSv10.4.1/FreeRTOS/Source/portable/GCC/ARM_CM4F/portmacro.h ****         (
 215:../../../../dependencies/freertos/FreeRTOSv10.4.1/FreeRTOS/Source/portable/GCC/ARM_CM4F/portmacro.h ****             "	mrs %0, basepri											\n"\
 216:../../../../dependencies/freertos/FreeRTOSv10.4.1/FreeRTOS/Source/portable/GCC/ARM_CM4F/portmacro.h ****             "	mov %1, %2												\n"\
 217:../../../../dependencies/freertos/FreeRTOSv10.4.1/FreeRTOS/Source/portable/GCC/ARM_CM4F/portmacro.h ****             "	msr basepri, %1											\n"\
 218:../../../../dependencies/freertos/FreeRTOSv10.4.1/FreeRTOS/Source/portable/GCC/ARM_CM4F/portmacro.h ****             "	isb														\n"\
 219:../../../../dependencies/freertos/FreeRTOSv10.4.1/FreeRTOS/Source/portable/GCC/ARM_CM4F/portmacro.h ****             "	dsb														\n"\
 220:../../../../dependencies/freertos/FreeRTOSv10.4.1/FreeRTOS/Source/portable/GCC/ARM_CM4F/portmacro.h ****             : "=r" ( ulOriginalBASEPRI ), "=r" ( ulNewBASEPRI ) : "i" ( configMAX_SYSCALL_INTERRUPT
 221:../../../../dependencies/freertos/FreeRTOSv10.4.1/FreeRTOS/Source/portable/GCC/ARM_CM4F/portmacro.h ****         );
 222:../../../../dependencies/freertos/FreeRTOSv10.4.1/FreeRTOS/Source/portable/GCC/ARM_CM4F/portmacro.h **** 
 223:../../../../dependencies/freertos/FreeRTOSv10.4.1/FreeRTOS/Source/portable/GCC/ARM_CM4F/portmacro.h ****         /* This return will not be reached but is necessary to prevent compiler
 224:../../../../dependencies/freertos/FreeRTOSv10.4.1/FreeRTOS/Source/portable/GCC/ARM_CM4F/portmacro.h ****          * warnings. */
 225:../../../../dependencies/freertos/FreeRTOSv10.4.1/FreeRTOS/Source/portable/GCC/ARM_CM4F/portmacro.h ****         return ulOriginalBASEPRI;
ARM GAS  /var/folders/kj/yzqgq53j3dg15vgwwwwgf5s00000gn/T//ccGgwidk.s 			page 50


 1571              		.loc 2 225 16
 1572 00a6 FB69     		ldr	r3, [r7, #28]
 1573              	.LBE142:
 1574              	.LBE141:
1008:../../../../dependencies/freertos/FreeRTOSv10.4.1/FreeRTOS/Source/queue.c **** 
1009:../../../../dependencies/freertos/FreeRTOSv10.4.1/FreeRTOS/Source/queue.c ****     /* Similar to xQueueGenericSend, except without blocking if there is no room
1010:../../../../dependencies/freertos/FreeRTOSv10.4.1/FreeRTOS/Source/queue.c ****      * in the queue.  Also don't directly wake a task that was blocked on a queue
1011:../../../../dependencies/freertos/FreeRTOSv10.4.1/FreeRTOS/Source/queue.c ****      * read, instead return a flag to say whether a context switch is required or
1012:../../../../dependencies/freertos/FreeRTOSv10.4.1/FreeRTOS/Source/queue.c ****      * not (i.e. has a task with a higher priority than us been woken by this
1013:../../../../dependencies/freertos/FreeRTOSv10.4.1/FreeRTOS/Source/queue.c ****      * post). */
1014:../../../../dependencies/freertos/FreeRTOSv10.4.1/FreeRTOS/Source/queue.c ****     uxSavedInterruptStatus = portSET_INTERRUPT_MASK_FROM_ISR();
 1575              		.loc 1 1014 30
 1576 00a8 7B63     		str	r3, [r7, #52]
1015:../../../../dependencies/freertos/FreeRTOSv10.4.1/FreeRTOS/Source/queue.c ****     {
1016:../../../../dependencies/freertos/FreeRTOSv10.4.1/FreeRTOS/Source/queue.c ****         if( ( pxQueue->uxMessagesWaiting < pxQueue->uxLength ) || ( xCopyPosition == queueOVERWRITE
 1577              		.loc 1 1016 22
 1578 00aa BB6B     		ldr	r3, [r7, #56]
 1579 00ac 9A6B     		ldr	r2, [r3, #56]
 1580              		.loc 1 1016 51
 1581 00ae BB6B     		ldr	r3, [r7, #56]
 1582 00b0 DB6B     		ldr	r3, [r3, #60]
 1583              		.loc 1 1016 11
 1584 00b2 9A42     		cmp	r2, r3
 1585 00b4 02D3     		bcc	.L104
 1586              		.loc 1 1016 64 discriminator 1
 1587 00b6 3B68     		ldr	r3, [r7]
 1588 00b8 022B     		cmp	r3, #2
 1589 00ba 3ED1     		bne	.L105
 1590              	.L104:
 1591              	.LBB143:
1017:../../../../dependencies/freertos/FreeRTOSv10.4.1/FreeRTOS/Source/queue.c ****         {
1018:../../../../dependencies/freertos/FreeRTOSv10.4.1/FreeRTOS/Source/queue.c ****             const int8_t cTxLock = pxQueue->cTxLock;
 1592              		.loc 1 1018 26
 1593 00bc BB6B     		ldr	r3, [r7, #56]
 1594 00be 93F84530 		ldrb	r3, [r3, #69]
 1595 00c2 87F83330 		strb	r3, [r7, #51]
1019:../../../../dependencies/freertos/FreeRTOSv10.4.1/FreeRTOS/Source/queue.c ****             const UBaseType_t uxPreviousMessagesWaiting = pxQueue->uxMessagesWaiting;
 1596              		.loc 1 1019 31
 1597 00c6 BB6B     		ldr	r3, [r7, #56]
 1598 00c8 9B6B     		ldr	r3, [r3, #56]
 1599 00ca FB62     		str	r3, [r7, #44]
1020:../../../../dependencies/freertos/FreeRTOSv10.4.1/FreeRTOS/Source/queue.c **** 
1021:../../../../dependencies/freertos/FreeRTOSv10.4.1/FreeRTOS/Source/queue.c ****             traceQUEUE_SEND_FROM_ISR( pxQueue );
1022:../../../../dependencies/freertos/FreeRTOSv10.4.1/FreeRTOS/Source/queue.c **** 
1023:../../../../dependencies/freertos/FreeRTOSv10.4.1/FreeRTOS/Source/queue.c ****             /* Semaphores use xQueueGiveFromISR(), so pxQueue will not be a
1024:../../../../dependencies/freertos/FreeRTOSv10.4.1/FreeRTOS/Source/queue.c ****              *  semaphore or mutex.  That means prvCopyDataToQueue() cannot result
1025:../../../../dependencies/freertos/FreeRTOSv10.4.1/FreeRTOS/Source/queue.c ****              *  in a task disinheriting a priority and prvCopyDataToQueue() can be
1026:../../../../dependencies/freertos/FreeRTOSv10.4.1/FreeRTOS/Source/queue.c ****              *  called here even though the disinherit function does not check if
1027:../../../../dependencies/freertos/FreeRTOSv10.4.1/FreeRTOS/Source/queue.c ****              *  the scheduler is suspended before accessing the ready lists. */
1028:../../../../dependencies/freertos/FreeRTOSv10.4.1/FreeRTOS/Source/queue.c ****             ( void ) prvCopyDataToQueue( pxQueue, pvItemToQueue, xCopyPosition );
 1600              		.loc 1 1028 22
 1601 00cc 3A68     		ldr	r2, [r7]
 1602 00ce B968     		ldr	r1, [r7, #8]
 1603 00d0 B86B     		ldr	r0, [r7, #56]
 1604 00d2 FFF7FEFF 		bl	prvCopyDataToQueue
1029:../../../../dependencies/freertos/FreeRTOSv10.4.1/FreeRTOS/Source/queue.c **** 
1030:../../../../dependencies/freertos/FreeRTOSv10.4.1/FreeRTOS/Source/queue.c ****             /* The event list is not altered if the queue is locked.  This will
ARM GAS  /var/folders/kj/yzqgq53j3dg15vgwwwwgf5s00000gn/T//ccGgwidk.s 			page 51


1031:../../../../dependencies/freertos/FreeRTOSv10.4.1/FreeRTOS/Source/queue.c ****              * be done when the queue is unlocked later. */
1032:../../../../dependencies/freertos/FreeRTOSv10.4.1/FreeRTOS/Source/queue.c ****             if( cTxLock == queueUNLOCKED )
 1605              		.loc 1 1032 15
 1606 00d6 97F93330 		ldrsb	r3, [r7, #51]
 1607 00da B3F1FF3F 		cmp	r3, #-1
 1608 00de 12D1     		bne	.L106
1033:../../../../dependencies/freertos/FreeRTOSv10.4.1/FreeRTOS/Source/queue.c ****             {
1034:../../../../dependencies/freertos/FreeRTOSv10.4.1/FreeRTOS/Source/queue.c ****                 #if ( configUSE_QUEUE_SETS == 1 )
1035:../../../../dependencies/freertos/FreeRTOSv10.4.1/FreeRTOS/Source/queue.c ****                     {
1036:../../../../dependencies/freertos/FreeRTOSv10.4.1/FreeRTOS/Source/queue.c ****                         if( pxQueue->pxQueueSetContainer != NULL )
1037:../../../../dependencies/freertos/FreeRTOSv10.4.1/FreeRTOS/Source/queue.c ****                         {
1038:../../../../dependencies/freertos/FreeRTOSv10.4.1/FreeRTOS/Source/queue.c ****                             if( ( xCopyPosition == queueOVERWRITE ) && ( uxPreviousMessagesWaiting 
1039:../../../../dependencies/freertos/FreeRTOSv10.4.1/FreeRTOS/Source/queue.c ****                             {
1040:../../../../dependencies/freertos/FreeRTOSv10.4.1/FreeRTOS/Source/queue.c ****                                 /* Do not notify the queue set as an existing item
1041:../../../../dependencies/freertos/FreeRTOSv10.4.1/FreeRTOS/Source/queue.c ****                                  * was overwritten in the queue so the number of items
1042:../../../../dependencies/freertos/FreeRTOSv10.4.1/FreeRTOS/Source/queue.c ****                                  * in the queue has not changed. */
1043:../../../../dependencies/freertos/FreeRTOSv10.4.1/FreeRTOS/Source/queue.c ****                                 mtCOVERAGE_TEST_MARKER();
1044:../../../../dependencies/freertos/FreeRTOSv10.4.1/FreeRTOS/Source/queue.c ****                             }
1045:../../../../dependencies/freertos/FreeRTOSv10.4.1/FreeRTOS/Source/queue.c ****                             else if( prvNotifyQueueSetContainer( pxQueue ) != pdFALSE )
1046:../../../../dependencies/freertos/FreeRTOSv10.4.1/FreeRTOS/Source/queue.c ****                             {
1047:../../../../dependencies/freertos/FreeRTOSv10.4.1/FreeRTOS/Source/queue.c ****                                 /* The queue is a member of a queue set, and posting
1048:../../../../dependencies/freertos/FreeRTOSv10.4.1/FreeRTOS/Source/queue.c ****                                  * to the queue set caused a higher priority task to
1049:../../../../dependencies/freertos/FreeRTOSv10.4.1/FreeRTOS/Source/queue.c ****                                  * unblock.  A context switch is required. */
1050:../../../../dependencies/freertos/FreeRTOSv10.4.1/FreeRTOS/Source/queue.c ****                                 if( pxHigherPriorityTaskWoken != NULL )
1051:../../../../dependencies/freertos/FreeRTOSv10.4.1/FreeRTOS/Source/queue.c ****                                 {
1052:../../../../dependencies/freertos/FreeRTOSv10.4.1/FreeRTOS/Source/queue.c ****                                     *pxHigherPriorityTaskWoken = pdTRUE;
1053:../../../../dependencies/freertos/FreeRTOSv10.4.1/FreeRTOS/Source/queue.c ****                                 }
1054:../../../../dependencies/freertos/FreeRTOSv10.4.1/FreeRTOS/Source/queue.c ****                                 else
1055:../../../../dependencies/freertos/FreeRTOSv10.4.1/FreeRTOS/Source/queue.c ****                                 {
1056:../../../../dependencies/freertos/FreeRTOSv10.4.1/FreeRTOS/Source/queue.c ****                                     mtCOVERAGE_TEST_MARKER();
1057:../../../../dependencies/freertos/FreeRTOSv10.4.1/FreeRTOS/Source/queue.c ****                                 }
1058:../../../../dependencies/freertos/FreeRTOSv10.4.1/FreeRTOS/Source/queue.c ****                             }
1059:../../../../dependencies/freertos/FreeRTOSv10.4.1/FreeRTOS/Source/queue.c ****                             else
1060:../../../../dependencies/freertos/FreeRTOSv10.4.1/FreeRTOS/Source/queue.c ****                             {
1061:../../../../dependencies/freertos/FreeRTOSv10.4.1/FreeRTOS/Source/queue.c ****                                 mtCOVERAGE_TEST_MARKER();
1062:../../../../dependencies/freertos/FreeRTOSv10.4.1/FreeRTOS/Source/queue.c ****                             }
1063:../../../../dependencies/freertos/FreeRTOSv10.4.1/FreeRTOS/Source/queue.c ****                         }
1064:../../../../dependencies/freertos/FreeRTOSv10.4.1/FreeRTOS/Source/queue.c ****                         else
1065:../../../../dependencies/freertos/FreeRTOSv10.4.1/FreeRTOS/Source/queue.c ****                         {
1066:../../../../dependencies/freertos/FreeRTOSv10.4.1/FreeRTOS/Source/queue.c ****                             if( listLIST_IS_EMPTY( &( pxQueue->xTasksWaitingToReceive ) ) == pdFALS
1067:../../../../dependencies/freertos/FreeRTOSv10.4.1/FreeRTOS/Source/queue.c ****                             {
1068:../../../../dependencies/freertos/FreeRTOSv10.4.1/FreeRTOS/Source/queue.c ****                                 if( xTaskRemoveFromEventList( &( pxQueue->xTasksWaitingToReceive ) 
1069:../../../../dependencies/freertos/FreeRTOSv10.4.1/FreeRTOS/Source/queue.c ****                                 {
1070:../../../../dependencies/freertos/FreeRTOSv10.4.1/FreeRTOS/Source/queue.c ****                                     /* The task waiting has a higher priority so
1071:../../../../dependencies/freertos/FreeRTOSv10.4.1/FreeRTOS/Source/queue.c ****                                      *  record that a context switch is required. */
1072:../../../../dependencies/freertos/FreeRTOSv10.4.1/FreeRTOS/Source/queue.c ****                                     if( pxHigherPriorityTaskWoken != NULL )
1073:../../../../dependencies/freertos/FreeRTOSv10.4.1/FreeRTOS/Source/queue.c ****                                     {
1074:../../../../dependencies/freertos/FreeRTOSv10.4.1/FreeRTOS/Source/queue.c ****                                         *pxHigherPriorityTaskWoken = pdTRUE;
1075:../../../../dependencies/freertos/FreeRTOSv10.4.1/FreeRTOS/Source/queue.c ****                                     }
1076:../../../../dependencies/freertos/FreeRTOSv10.4.1/FreeRTOS/Source/queue.c ****                                     else
1077:../../../../dependencies/freertos/FreeRTOSv10.4.1/FreeRTOS/Source/queue.c ****                                     {
1078:../../../../dependencies/freertos/FreeRTOSv10.4.1/FreeRTOS/Source/queue.c ****                                         mtCOVERAGE_TEST_MARKER();
1079:../../../../dependencies/freertos/FreeRTOSv10.4.1/FreeRTOS/Source/queue.c ****                                     }
1080:../../../../dependencies/freertos/FreeRTOSv10.4.1/FreeRTOS/Source/queue.c ****                                 }
1081:../../../../dependencies/freertos/FreeRTOSv10.4.1/FreeRTOS/Source/queue.c ****                                 else
1082:../../../../dependencies/freertos/FreeRTOSv10.4.1/FreeRTOS/Source/queue.c ****                                 {
1083:../../../../dependencies/freertos/FreeRTOSv10.4.1/FreeRTOS/Source/queue.c ****                                     mtCOVERAGE_TEST_MARKER();
ARM GAS  /var/folders/kj/yzqgq53j3dg15vgwwwwgf5s00000gn/T//ccGgwidk.s 			page 52


1084:../../../../dependencies/freertos/FreeRTOSv10.4.1/FreeRTOS/Source/queue.c ****                                 }
1085:../../../../dependencies/freertos/FreeRTOSv10.4.1/FreeRTOS/Source/queue.c ****                             }
1086:../../../../dependencies/freertos/FreeRTOSv10.4.1/FreeRTOS/Source/queue.c ****                             else
1087:../../../../dependencies/freertos/FreeRTOSv10.4.1/FreeRTOS/Source/queue.c ****                             {
1088:../../../../dependencies/freertos/FreeRTOSv10.4.1/FreeRTOS/Source/queue.c ****                                 mtCOVERAGE_TEST_MARKER();
1089:../../../../dependencies/freertos/FreeRTOSv10.4.1/FreeRTOS/Source/queue.c ****                             }
1090:../../../../dependencies/freertos/FreeRTOSv10.4.1/FreeRTOS/Source/queue.c ****                         }
1091:../../../../dependencies/freertos/FreeRTOSv10.4.1/FreeRTOS/Source/queue.c ****                     }
1092:../../../../dependencies/freertos/FreeRTOSv10.4.1/FreeRTOS/Source/queue.c ****                 #else /* configUSE_QUEUE_SETS */
1093:../../../../dependencies/freertos/FreeRTOSv10.4.1/FreeRTOS/Source/queue.c ****                     {
1094:../../../../dependencies/freertos/FreeRTOSv10.4.1/FreeRTOS/Source/queue.c ****                         if( listLIST_IS_EMPTY( &( pxQueue->xTasksWaitingToReceive ) ) == pdFALSE )
 1609              		.loc 1 1094 29
 1610 00e0 BB6B     		ldr	r3, [r7, #56]
 1611 00e2 5B6A     		ldr	r3, [r3, #36]
 1612              		.loc 1 1094 27
 1613 00e4 002B     		cmp	r3, #0
 1614 00e6 25D0     		beq	.L107
1095:../../../../dependencies/freertos/FreeRTOSv10.4.1/FreeRTOS/Source/queue.c ****                         {
1096:../../../../dependencies/freertos/FreeRTOSv10.4.1/FreeRTOS/Source/queue.c ****                             if( xTaskRemoveFromEventList( &( pxQueue->xTasksWaitingToReceive ) ) !=
 1615              		.loc 1 1096 59
 1616 00e8 BB6B     		ldr	r3, [r7, #56]
 1617 00ea 2433     		adds	r3, r3, #36
 1618              		.loc 1 1096 33
 1619 00ec 1846     		mov	r0, r3
 1620 00ee FFF7FEFF 		bl	xTaskRemoveFromEventList
 1621 00f2 0346     		mov	r3, r0
 1622              		.loc 1 1096 31
 1623 00f4 002B     		cmp	r3, #0
 1624 00f6 1DD0     		beq	.L107
1097:../../../../dependencies/freertos/FreeRTOSv10.4.1/FreeRTOS/Source/queue.c ****                             {
1098:../../../../dependencies/freertos/FreeRTOSv10.4.1/FreeRTOS/Source/queue.c ****                                 /* The task waiting has a higher priority so record that a
1099:../../../../dependencies/freertos/FreeRTOSv10.4.1/FreeRTOS/Source/queue.c ****                                  * context switch is required. */
1100:../../../../dependencies/freertos/FreeRTOSv10.4.1/FreeRTOS/Source/queue.c ****                                 if( pxHigherPriorityTaskWoken != NULL )
 1625              		.loc 1 1100 35
 1626 00f8 7B68     		ldr	r3, [r7, #4]
 1627 00fa 002B     		cmp	r3, #0
 1628 00fc 1AD0     		beq	.L107
1101:../../../../dependencies/freertos/FreeRTOSv10.4.1/FreeRTOS/Source/queue.c ****                                 {
1102:../../../../dependencies/freertos/FreeRTOSv10.4.1/FreeRTOS/Source/queue.c ****                                     *pxHigherPriorityTaskWoken = pdTRUE;
 1629              		.loc 1 1102 64
 1630 00fe 7B68     		ldr	r3, [r7, #4]
 1631 0100 0122     		movs	r2, #1
 1632 0102 1A60     		str	r2, [r3]
 1633 0104 16E0     		b	.L107
 1634              	.L106:
1103:../../../../dependencies/freertos/FreeRTOSv10.4.1/FreeRTOS/Source/queue.c ****                                 }
1104:../../../../dependencies/freertos/FreeRTOSv10.4.1/FreeRTOS/Source/queue.c ****                                 else
1105:../../../../dependencies/freertos/FreeRTOSv10.4.1/FreeRTOS/Source/queue.c ****                                 {
1106:../../../../dependencies/freertos/FreeRTOSv10.4.1/FreeRTOS/Source/queue.c ****                                     mtCOVERAGE_TEST_MARKER();
1107:../../../../dependencies/freertos/FreeRTOSv10.4.1/FreeRTOS/Source/queue.c ****                                 }
1108:../../../../dependencies/freertos/FreeRTOSv10.4.1/FreeRTOS/Source/queue.c ****                             }
1109:../../../../dependencies/freertos/FreeRTOSv10.4.1/FreeRTOS/Source/queue.c ****                             else
1110:../../../../dependencies/freertos/FreeRTOSv10.4.1/FreeRTOS/Source/queue.c ****                             {
1111:../../../../dependencies/freertos/FreeRTOSv10.4.1/FreeRTOS/Source/queue.c ****                                 mtCOVERAGE_TEST_MARKER();
1112:../../../../dependencies/freertos/FreeRTOSv10.4.1/FreeRTOS/Source/queue.c ****                             }
1113:../../../../dependencies/freertos/FreeRTOSv10.4.1/FreeRTOS/Source/queue.c ****                         }
1114:../../../../dependencies/freertos/FreeRTOSv10.4.1/FreeRTOS/Source/queue.c ****                         else
ARM GAS  /var/folders/kj/yzqgq53j3dg15vgwwwwgf5s00000gn/T//ccGgwidk.s 			page 53


1115:../../../../dependencies/freertos/FreeRTOSv10.4.1/FreeRTOS/Source/queue.c ****                         {
1116:../../../../dependencies/freertos/FreeRTOSv10.4.1/FreeRTOS/Source/queue.c ****                             mtCOVERAGE_TEST_MARKER();
1117:../../../../dependencies/freertos/FreeRTOSv10.4.1/FreeRTOS/Source/queue.c ****                         }
1118:../../../../dependencies/freertos/FreeRTOSv10.4.1/FreeRTOS/Source/queue.c **** 
1119:../../../../dependencies/freertos/FreeRTOSv10.4.1/FreeRTOS/Source/queue.c ****                         /* Not used in this path. */
1120:../../../../dependencies/freertos/FreeRTOSv10.4.1/FreeRTOS/Source/queue.c ****                         ( void ) uxPreviousMessagesWaiting;
1121:../../../../dependencies/freertos/FreeRTOSv10.4.1/FreeRTOS/Source/queue.c ****                     }
1122:../../../../dependencies/freertos/FreeRTOSv10.4.1/FreeRTOS/Source/queue.c ****                 #endif /* configUSE_QUEUE_SETS */
1123:../../../../dependencies/freertos/FreeRTOSv10.4.1/FreeRTOS/Source/queue.c ****             }
1124:../../../../dependencies/freertos/FreeRTOSv10.4.1/FreeRTOS/Source/queue.c ****             else
1125:../../../../dependencies/freertos/FreeRTOSv10.4.1/FreeRTOS/Source/queue.c ****             {
1126:../../../../dependencies/freertos/FreeRTOSv10.4.1/FreeRTOS/Source/queue.c ****                 /* Increment the lock count so the task that unlocks the queue
1127:../../../../dependencies/freertos/FreeRTOSv10.4.1/FreeRTOS/Source/queue.c ****                  * knows that data was posted while it was locked. */
1128:../../../../dependencies/freertos/FreeRTOSv10.4.1/FreeRTOS/Source/queue.c ****                 configASSERT( cTxLock != queueINT8_MAX );
 1635              		.loc 1 1128 17
 1636 0106 97F93330 		ldrsb	r3, [r7, #51]
 1637 010a 7F2B     		cmp	r3, #127
 1638 010c 0AD1     		bne	.L108
 1639              	.LBB144:
 1640              	.LBB145:
 197:../../../../dependencies/freertos/FreeRTOSv10.4.1/FreeRTOS/Source/portable/GCC/ARM_CM4F/portmacro.h ****         (
 1641              		.loc 2 197 9
 1642              		.syntax unified
 1643              	@ 197 "../../../../dependencies/freertos/FreeRTOSv10.4.1/FreeRTOS/Source/portable/GCC/ARM_CM4F/port
 1644 010e 4FF05003 			mov r3, #80												
 1645 0112 83F31188 		msr basepri, r3											
 1646 0116 BFF36F8F 		isb														
 1647 011a BFF34F8F 		dsb														
 1648              	
 1649              	@ 0 "" 2
 1650              		.thumb
 1651              		.syntax unified
 1652 011e 7B61     		str	r3, [r7, #20]
 205:../../../../dependencies/freertos/FreeRTOSv10.4.1/FreeRTOS/Source/portable/GCC/ARM_CM4F/portmacro.h **** 
 1653              		.loc 2 205 5
 1654 0120 00BF     		nop
 1655              	.L109:
 1656              	.LBE145:
 1657              	.LBE144:
 1658              		.loc 1 1128 17 discriminator 6
 1659 0122 FEE7     		b	.L109
 1660              	.L108:
1129:../../../../dependencies/freertos/FreeRTOSv10.4.1/FreeRTOS/Source/queue.c **** 
1130:../../../../dependencies/freertos/FreeRTOSv10.4.1/FreeRTOS/Source/queue.c ****                 pxQueue->cTxLock = ( int8_t ) ( cTxLock + 1 );
 1661              		.loc 1 1130 57
 1662 0124 97F83330 		ldrb	r3, [r7, #51]	@ zero_extendqisi2
 1663 0128 0133     		adds	r3, r3, #1
 1664 012a DBB2     		uxtb	r3, r3
 1665              		.loc 1 1130 36
 1666 012c 5AB2     		sxtb	r2, r3
 1667              		.loc 1 1130 34
 1668 012e BB6B     		ldr	r3, [r7, #56]
 1669 0130 83F84520 		strb	r2, [r3, #69]
 1670              	.L107:
1131:../../../../dependencies/freertos/FreeRTOSv10.4.1/FreeRTOS/Source/queue.c ****             }
1132:../../../../dependencies/freertos/FreeRTOSv10.4.1/FreeRTOS/Source/queue.c **** 
1133:../../../../dependencies/freertos/FreeRTOSv10.4.1/FreeRTOS/Source/queue.c ****             xReturn = pdPASS;
ARM GAS  /var/folders/kj/yzqgq53j3dg15vgwwwwgf5s00000gn/T//ccGgwidk.s 			page 54


 1671              		.loc 1 1133 21
 1672 0134 0123     		movs	r3, #1
 1673 0136 FB63     		str	r3, [r7, #60]
 1674              	.LBE143:
1017:../../../../dependencies/freertos/FreeRTOSv10.4.1/FreeRTOS/Source/queue.c ****             const int8_t cTxLock = pxQueue->cTxLock;
 1675              		.loc 1 1017 9
 1676 0138 01E0     		b	.L110
 1677              	.L105:
1134:../../../../dependencies/freertos/FreeRTOSv10.4.1/FreeRTOS/Source/queue.c ****         }
1135:../../../../dependencies/freertos/FreeRTOSv10.4.1/FreeRTOS/Source/queue.c ****         else
1136:../../../../dependencies/freertos/FreeRTOSv10.4.1/FreeRTOS/Source/queue.c ****         {
1137:../../../../dependencies/freertos/FreeRTOSv10.4.1/FreeRTOS/Source/queue.c ****             traceQUEUE_SEND_FROM_ISR_FAILED( pxQueue );
1138:../../../../dependencies/freertos/FreeRTOSv10.4.1/FreeRTOS/Source/queue.c ****             xReturn = errQUEUE_FULL;
 1678              		.loc 1 1138 21
 1679 013a 0023     		movs	r3, #0
 1680 013c FB63     		str	r3, [r7, #60]
 1681              	.L110:
 1682 013e 7B6B     		ldr	r3, [r7, #52]
 1683 0140 3B61     		str	r3, [r7, #16]
 1684              	.LBB146:
 1685              	.LBB147:
 226:../../../../dependencies/freertos/FreeRTOSv10.4.1/FreeRTOS/Source/portable/GCC/ARM_CM4F/portmacro.h ****     }
 227:../../../../dependencies/freertos/FreeRTOSv10.4.1/FreeRTOS/Source/portable/GCC/ARM_CM4F/portmacro.h **** /*-----------------------------------------------------------*/
 228:../../../../dependencies/freertos/FreeRTOSv10.4.1/FreeRTOS/Source/portable/GCC/ARM_CM4F/portmacro.h **** 
 229:../../../../dependencies/freertos/FreeRTOSv10.4.1/FreeRTOS/Source/portable/GCC/ARM_CM4F/portmacro.h ****     portFORCE_INLINE static void vPortSetBASEPRI( uint32_t ulNewMaskValue )
 230:../../../../dependencies/freertos/FreeRTOSv10.4.1/FreeRTOS/Source/portable/GCC/ARM_CM4F/portmacro.h ****     {
 231:../../../../dependencies/freertos/FreeRTOSv10.4.1/FreeRTOS/Source/portable/GCC/ARM_CM4F/portmacro.h ****         __asm volatile
 1686              		.loc 2 231 9
 1687 0142 3B69     		ldr	r3, [r7, #16]
 1688              		.syntax unified
 1689              	@ 231 "../../../../dependencies/freertos/FreeRTOSv10.4.1/FreeRTOS/Source/portable/GCC/ARM_CM4F/port
 1690 0144 83F31188 			msr basepri, r3	
 1691              	@ 0 "" 2
 232:../../../../dependencies/freertos/FreeRTOSv10.4.1/FreeRTOS/Source/portable/GCC/ARM_CM4F/portmacro.h ****         (
 233:../../../../dependencies/freertos/FreeRTOSv10.4.1/FreeRTOS/Source/portable/GCC/ARM_CM4F/portmacro.h ****             "	msr basepri, %0	"::"r" ( ulNewMaskValue ) : "memory"
 234:../../../../dependencies/freertos/FreeRTOSv10.4.1/FreeRTOS/Source/portable/GCC/ARM_CM4F/portmacro.h ****         );
 235:../../../../dependencies/freertos/FreeRTOSv10.4.1/FreeRTOS/Source/portable/GCC/ARM_CM4F/portmacro.h ****     }
 1692              		.loc 2 235 5
 1693              		.thumb
 1694              		.syntax unified
 1695 0148 00BF     		nop
 1696              	.LBE147:
 1697              	.LBE146:
1139:../../../../dependencies/freertos/FreeRTOSv10.4.1/FreeRTOS/Source/queue.c ****         }
1140:../../../../dependencies/freertos/FreeRTOSv10.4.1/FreeRTOS/Source/queue.c ****     }
1141:../../../../dependencies/freertos/FreeRTOSv10.4.1/FreeRTOS/Source/queue.c ****     portCLEAR_INTERRUPT_MASK_FROM_ISR( uxSavedInterruptStatus );
1142:../../../../dependencies/freertos/FreeRTOSv10.4.1/FreeRTOS/Source/queue.c **** 
1143:../../../../dependencies/freertos/FreeRTOSv10.4.1/FreeRTOS/Source/queue.c ****     return xReturn;
 1698              		.loc 1 1143 12
 1699 014a FB6B     		ldr	r3, [r7, #60]
1144:../../../../dependencies/freertos/FreeRTOSv10.4.1/FreeRTOS/Source/queue.c **** }
 1700              		.loc 1 1144 1
 1701 014c 1846     		mov	r0, r3
 1702 014e 4037     		adds	r7, r7, #64
 1703              	.LCFI59:
 1704              		.cfi_def_cfa_offset 8
 1705 0150 BD46     		mov	sp, r7
ARM GAS  /var/folders/kj/yzqgq53j3dg15vgwwwwgf5s00000gn/T//ccGgwidk.s 			page 55


 1706              	.LCFI60:
 1707              		.cfi_def_cfa_register 13
 1708              		@ sp needed
 1709 0152 80BD     		pop	{r7, pc}
 1710              		.cfi_endproc
 1711              	.LFE16:
 1713              		.section	.text.xQueueGiveFromISR,"ax",%progbits
 1714              		.align	1
 1715              		.global	xQueueGiveFromISR
 1716              		.syntax unified
 1717              		.thumb
 1718              		.thumb_func
 1719              		.fpu fpv4-sp-d16
 1721              	xQueueGiveFromISR:
 1722              	.LFB17:
1145:../../../../dependencies/freertos/FreeRTOSv10.4.1/FreeRTOS/Source/queue.c **** /*-----------------------------------------------------------*/
1146:../../../../dependencies/freertos/FreeRTOSv10.4.1/FreeRTOS/Source/queue.c **** 
1147:../../../../dependencies/freertos/FreeRTOSv10.4.1/FreeRTOS/Source/queue.c **** BaseType_t xQueueGiveFromISR( QueueHandle_t xQueue,
1148:../../../../dependencies/freertos/FreeRTOSv10.4.1/FreeRTOS/Source/queue.c ****                               BaseType_t * const pxHigherPriorityTaskWoken )
1149:../../../../dependencies/freertos/FreeRTOSv10.4.1/FreeRTOS/Source/queue.c **** {
 1723              		.loc 1 1149 1
 1724              		.cfi_startproc
 1725              		@ args = 0, pretend = 0, frame = 56
 1726              		@ frame_needed = 1, uses_anonymous_args = 0
 1727 0000 80B5     		push	{r7, lr}
 1728              	.LCFI61:
 1729              		.cfi_def_cfa_offset 8
 1730              		.cfi_offset 7, -8
 1731              		.cfi_offset 14, -4
 1732 0002 8EB0     		sub	sp, sp, #56
 1733              	.LCFI62:
 1734              		.cfi_def_cfa_offset 64
 1735 0004 00AF     		add	r7, sp, #0
 1736              	.LCFI63:
 1737              		.cfi_def_cfa_register 7
 1738 0006 7860     		str	r0, [r7, #4]
 1739 0008 3960     		str	r1, [r7]
