ARM GAS  /var/folders/kj/yzqgq53j3dg15vgwwwwgf5s00000gn/T//ccGgwidk.s 			page 1


   1              		.cpu cortex-m4
   2              		.eabi_attribute 27, 1
   3              		.eabi_attribute 28, 1
   4              		.eabi_attribute 20, 1
   5              		.eabi_attribute 21, 1
   6              		.eabi_attribute 23, 3
   7              		.eabi_attribute 24, 1
   8              		.eabi_attribute 25, 1
   9              		.eabi_attribute 26, 1
  10              		.eabi_attribute 30, 6
  11              		.eabi_attribute 34, 1
  12              		.eabi_attribute 18, 4
  13              		.file	"queue.c"
  14              		.text
  15              	.Ltext0:
  16              		.cfi_sections	.debug_frame
  17              		.comm	xQueueRegistry,64,4
  18              		.section	.text.xQueueGenericReset,"ax",%progbits
  19              		.align	1
  20              		.global	xQueueGenericReset
  21              		.arch armv7e-m
  22              		.syntax unified
  23              		.thumb
  24              		.thumb_func
  25              		.fpu fpv4-sp-d16
  27              	xQueueGenericReset:
  28              	.LFB5:
  29              		.file 1 "../../../../dependencies/freertos/FreeRTOSv10.4.1/FreeRTOS/Source/queue.c"
   1:../../../../dependencies/freertos/FreeRTOSv10.4.1/FreeRTOS/Source/queue.c **** /*
   2:../../../../dependencies/freertos/FreeRTOSv10.4.1/FreeRTOS/Source/queue.c ****  * FreeRTOS Kernel V10.4.1
   3:../../../../dependencies/freertos/FreeRTOSv10.4.1/FreeRTOS/Source/queue.c ****  * Copyright (C) 2020 Amazon.com, Inc. or its affiliates.  All Rights Reserved.
   4:../../../../dependencies/freertos/FreeRTOSv10.4.1/FreeRTOS/Source/queue.c ****  *
   5:../../../../dependencies/freertos/FreeRTOSv10.4.1/FreeRTOS/Source/queue.c ****  * Permission is hereby granted, free of charge, to any person obtaining a copy of
   6:../../../../dependencies/freertos/FreeRTOSv10.4.1/FreeRTOS/Source/queue.c ****  * this software and associated documentation files (the "Software"), to deal in
   7:../../../../dependencies/freertos/FreeRTOSv10.4.1/FreeRTOS/Source/queue.c ****  * the Software without restriction, including without limitation the rights to
   8:../../../../dependencies/freertos/FreeRTOSv10.4.1/FreeRTOS/Source/queue.c ****  * use, copy, modify, merge, publish, distribute, sublicense, and/or sell copies of
   9:../../../../dependencies/freertos/FreeRTOSv10.4.1/FreeRTOS/Source/queue.c ****  * the Software, and to permit persons to whom the Software is furnished to do so,
  10:../../../../dependencies/freertos/FreeRTOSv10.4.1/FreeRTOS/Source/queue.c ****  * subject to the following conditions:
  11:../../../../dependencies/freertos/FreeRTOSv10.4.1/FreeRTOS/Source/queue.c ****  *
  12:../../../../dependencies/freertos/FreeRTOSv10.4.1/FreeRTOS/Source/queue.c ****  * The above copyright notice and this permission notice shall be included in all
  13:../../../../dependencies/freertos/FreeRTOSv10.4.1/FreeRTOS/Source/queue.c ****  * copies or substantial portions of the Software.
  14:../../../../dependencies/freertos/FreeRTOSv10.4.1/FreeRTOS/Source/queue.c ****  *
  15:../../../../dependencies/freertos/FreeRTOSv10.4.1/FreeRTOS/Source/queue.c ****  * THE SOFTWARE IS PROVIDED "AS IS", WITHOUT WARRANTY OF ANY KIND, EXPRESS OR
  16:../../../../dependencies/freertos/FreeRTOSv10.4.1/FreeRTOS/Source/queue.c ****  * IMPLIED, INCLUDING BUT NOT LIMITED TO THE WARRANTIES OF MERCHANTABILITY, FITNESS
  17:../../../../dependencies/freertos/FreeRTOSv10.4.1/FreeRTOS/Source/queue.c ****  * FOR A PARTICULAR PURPOSE AND NONINFRINGEMENT. IN NO EVENT SHALL THE AUTHORS OR
  18:../../../../dependencies/freertos/FreeRTOSv10.4.1/FreeRTOS/Source/queue.c ****  * COPYRIGHT HOLDERS BE LIABLE FOR ANY CLAIM, DAMAGES OR OTHER LIABILITY, WHETHER
  19:../../../../dependencies/freertos/FreeRTOSv10.4.1/FreeRTOS/Source/queue.c ****  * IN AN ACTION OF CONTRACT, TORT OR OTHERWISE, ARISING FROM, OUT OF OR IN
  20:../../../../dependencies/freertos/FreeRTOSv10.4.1/FreeRTOS/Source/queue.c ****  * CONNECTION WITH THE SOFTWARE OR THE USE OR OTHER DEALINGS IN THE SOFTWARE.
  21:../../../../dependencies/freertos/FreeRTOSv10.4.1/FreeRTOS/Source/queue.c ****  *
  22:../../../../dependencies/freertos/FreeRTOSv10.4.1/FreeRTOS/Source/queue.c ****  * https://www.FreeRTOS.org
  23:../../../../dependencies/freertos/FreeRTOSv10.4.1/FreeRTOS/Source/queue.c ****  * https://github.com/FreeRTOS
  24:../../../../dependencies/freertos/FreeRTOSv10.4.1/FreeRTOS/Source/queue.c ****  *
  25:../../../../dependencies/freertos/FreeRTOSv10.4.1/FreeRTOS/Source/queue.c ****  */
  26:../../../../dependencies/freertos/FreeRTOSv10.4.1/FreeRTOS/Source/queue.c **** 
  27:../../../../dependencies/freertos/FreeRTOSv10.4.1/FreeRTOS/Source/queue.c **** #include <stdlib.h>
  28:../../../../dependencies/freertos/FreeRTOSv10.4.1/FreeRTOS/Source/queue.c **** #include <string.h>
  29:../../../../dependencies/freertos/FreeRTOSv10.4.1/FreeRTOS/Source/queue.c **** 
ARM GAS  /var/folders/kj/yzqgq53j3dg15vgwwwwgf5s00000gn/T//ccGgwidk.s 			page 2


  30:../../../../dependencies/freertos/FreeRTOSv10.4.1/FreeRTOS/Source/queue.c **** /* Defining MPU_WRAPPERS_INCLUDED_FROM_API_FILE prevents task.h from redefining
  31:../../../../dependencies/freertos/FreeRTOSv10.4.1/FreeRTOS/Source/queue.c ****  * all the API functions to use the MPU wrappers.  That should only be done when
  32:../../../../dependencies/freertos/FreeRTOSv10.4.1/FreeRTOS/Source/queue.c ****  * task.h is included from an application file. */
  33:../../../../dependencies/freertos/FreeRTOSv10.4.1/FreeRTOS/Source/queue.c **** #define MPU_WRAPPERS_INCLUDED_FROM_API_FILE
  34:../../../../dependencies/freertos/FreeRTOSv10.4.1/FreeRTOS/Source/queue.c **** 
  35:../../../../dependencies/freertos/FreeRTOSv10.4.1/FreeRTOS/Source/queue.c **** #include "FreeRTOS.h"
  36:../../../../dependencies/freertos/FreeRTOSv10.4.1/FreeRTOS/Source/queue.c **** #include "task.h"
  37:../../../../dependencies/freertos/FreeRTOSv10.4.1/FreeRTOS/Source/queue.c **** #include "queue.h"
  38:../../../../dependencies/freertos/FreeRTOSv10.4.1/FreeRTOS/Source/queue.c **** 
  39:../../../../dependencies/freertos/FreeRTOSv10.4.1/FreeRTOS/Source/queue.c **** #if ( configUSE_CO_ROUTINES == 1 )
  40:../../../../dependencies/freertos/FreeRTOSv10.4.1/FreeRTOS/Source/queue.c ****     #include "croutine.h"
  41:../../../../dependencies/freertos/FreeRTOSv10.4.1/FreeRTOS/Source/queue.c **** #endif
  42:../../../../dependencies/freertos/FreeRTOSv10.4.1/FreeRTOS/Source/queue.c **** 
  43:../../../../dependencies/freertos/FreeRTOSv10.4.1/FreeRTOS/Source/queue.c **** /* Lint e9021, e961 and e750 are suppressed as a MISRA exception justified
  44:../../../../dependencies/freertos/FreeRTOSv10.4.1/FreeRTOS/Source/queue.c ****  * because the MPU ports require MPU_WRAPPERS_INCLUDED_FROM_API_FILE to be defined
  45:../../../../dependencies/freertos/FreeRTOSv10.4.1/FreeRTOS/Source/queue.c ****  * for the header files above, but not in this file, in order to generate the
  46:../../../../dependencies/freertos/FreeRTOSv10.4.1/FreeRTOS/Source/queue.c ****  * correct privileged Vs unprivileged linkage and placement. */
  47:../../../../dependencies/freertos/FreeRTOSv10.4.1/FreeRTOS/Source/queue.c **** #undef MPU_WRAPPERS_INCLUDED_FROM_API_FILE /*lint !e961 !e750 !e9021. */
  48:../../../../dependencies/freertos/FreeRTOSv10.4.1/FreeRTOS/Source/queue.c **** 
  49:../../../../dependencies/freertos/FreeRTOSv10.4.1/FreeRTOS/Source/queue.c **** 
  50:../../../../dependencies/freertos/FreeRTOSv10.4.1/FreeRTOS/Source/queue.c **** /* Constants used with the cRxLock and cTxLock structure members. */
  51:../../../../dependencies/freertos/FreeRTOSv10.4.1/FreeRTOS/Source/queue.c **** #define queueUNLOCKED             ( ( int8_t ) -1 )
  52:../../../../dependencies/freertos/FreeRTOSv10.4.1/FreeRTOS/Source/queue.c **** #define queueLOCKED_UNMODIFIED    ( ( int8_t ) 0 )
  53:../../../../dependencies/freertos/FreeRTOSv10.4.1/FreeRTOS/Source/queue.c **** #define queueINT8_MAX             ( ( int8_t ) 127 )
  54:../../../../dependencies/freertos/FreeRTOSv10.4.1/FreeRTOS/Source/queue.c **** 
  55:../../../../dependencies/freertos/FreeRTOSv10.4.1/FreeRTOS/Source/queue.c **** /* When the Queue_t structure is used to represent a base queue its pcHead and
  56:../../../../dependencies/freertos/FreeRTOSv10.4.1/FreeRTOS/Source/queue.c ****  * pcTail members are used as pointers into the queue storage area.  When the
  57:../../../../dependencies/freertos/FreeRTOSv10.4.1/FreeRTOS/Source/queue.c ****  * Queue_t structure is used to represent a mutex pcHead and pcTail pointers are
  58:../../../../dependencies/freertos/FreeRTOSv10.4.1/FreeRTOS/Source/queue.c ****  * not necessary, and the pcHead pointer is set to NULL to indicate that the
  59:../../../../dependencies/freertos/FreeRTOSv10.4.1/FreeRTOS/Source/queue.c ****  * structure instead holds a pointer to the mutex holder (if any).  Map alternative
  60:../../../../dependencies/freertos/FreeRTOSv10.4.1/FreeRTOS/Source/queue.c ****  * names to the pcHead and structure member to ensure the readability of the code
  61:../../../../dependencies/freertos/FreeRTOSv10.4.1/FreeRTOS/Source/queue.c ****  * is maintained.  The QueuePointers_t and SemaphoreData_t types are used to form
  62:../../../../dependencies/freertos/FreeRTOSv10.4.1/FreeRTOS/Source/queue.c ****  * a union as their usage is mutually exclusive dependent on what the queue is
  63:../../../../dependencies/freertos/FreeRTOSv10.4.1/FreeRTOS/Source/queue.c ****  * being used for. */
  64:../../../../dependencies/freertos/FreeRTOSv10.4.1/FreeRTOS/Source/queue.c **** #define uxQueueType               pcHead
  65:../../../../dependencies/freertos/FreeRTOSv10.4.1/FreeRTOS/Source/queue.c **** #define queueQUEUE_IS_MUTEX       NULL
  66:../../../../dependencies/freertos/FreeRTOSv10.4.1/FreeRTOS/Source/queue.c **** 
  67:../../../../dependencies/freertos/FreeRTOSv10.4.1/FreeRTOS/Source/queue.c **** typedef struct QueuePointers
  68:../../../../dependencies/freertos/FreeRTOSv10.4.1/FreeRTOS/Source/queue.c **** {
  69:../../../../dependencies/freertos/FreeRTOSv10.4.1/FreeRTOS/Source/queue.c ****     int8_t * pcTail;     /*< Points to the byte at the end of the queue storage area.  Once more by
  70:../../../../dependencies/freertos/FreeRTOSv10.4.1/FreeRTOS/Source/queue.c ****     int8_t * pcReadFrom; /*< Points to the last place that a queued item was read from when the str
  71:../../../../dependencies/freertos/FreeRTOSv10.4.1/FreeRTOS/Source/queue.c **** } QueuePointers_t;
  72:../../../../dependencies/freertos/FreeRTOSv10.4.1/FreeRTOS/Source/queue.c **** 
  73:../../../../dependencies/freertos/FreeRTOSv10.4.1/FreeRTOS/Source/queue.c **** typedef struct SemaphoreData
  74:../../../../dependencies/freertos/FreeRTOSv10.4.1/FreeRTOS/Source/queue.c **** {
  75:../../../../dependencies/freertos/FreeRTOSv10.4.1/FreeRTOS/Source/queue.c ****     TaskHandle_t xMutexHolder;        /*< The handle of the task that holds the mutex. */
  76:../../../../dependencies/freertos/FreeRTOSv10.4.1/FreeRTOS/Source/queue.c ****     UBaseType_t uxRecursiveCallCount; /*< Maintains a count of the number of times a recursive mute
  77:../../../../dependencies/freertos/FreeRTOSv10.4.1/FreeRTOS/Source/queue.c **** } SemaphoreData_t;
  78:../../../../dependencies/freertos/FreeRTOSv10.4.1/FreeRTOS/Source/queue.c **** 
  79:../../../../dependencies/freertos/FreeRTOSv10.4.1/FreeRTOS/Source/queue.c **** /* Semaphores do not actually store or copy data, so have an item size of
  80:../../../../dependencies/freertos/FreeRTOSv10.4.1/FreeRTOS/Source/queue.c ****  * zero. */
  81:../../../../dependencies/freertos/FreeRTOSv10.4.1/FreeRTOS/Source/queue.c **** #define queueSEMAPHORE_QUEUE_ITEM_LENGTH    ( ( UBaseType_t ) 0 )
  82:../../../../dependencies/freertos/FreeRTOSv10.4.1/FreeRTOS/Source/queue.c **** #define queueMUTEX_GIVE_BLOCK_TIME          ( ( TickType_t ) 0U )
  83:../../../../dependencies/freertos/FreeRTOSv10.4.1/FreeRTOS/Source/queue.c **** 
  84:../../../../dependencies/freertos/FreeRTOSv10.4.1/FreeRTOS/Source/queue.c **** #if ( configUSE_PREEMPTION == 0 )
  85:../../../../dependencies/freertos/FreeRTOSv10.4.1/FreeRTOS/Source/queue.c **** 
  86:../../../../dependencies/freertos/FreeRTOSv10.4.1/FreeRTOS/Source/queue.c **** /* If the cooperative scheduler is being used then a yield should not be
ARM GAS  /var/folders/kj/yzqgq53j3dg15vgwwwwgf5s00000gn/T//ccGgwidk.s 			page 3


  87:../../../../dependencies/freertos/FreeRTOSv10.4.1/FreeRTOS/Source/queue.c ****  * performed just because a higher priority task has been woken. */
  88:../../../../dependencies/freertos/FreeRTOSv10.4.1/FreeRTOS/Source/queue.c ****     #define queueYIELD_IF_USING_PREEMPTION()
  89:../../../../dependencies/freertos/FreeRTOSv10.4.1/FreeRTOS/Source/queue.c **** #else
  90:../../../../dependencies/freertos/FreeRTOSv10.4.1/FreeRTOS/Source/queue.c ****     #define queueYIELD_IF_USING_PREEMPTION()    portYIELD_WITHIN_API()
  91:../../../../dependencies/freertos/FreeRTOSv10.4.1/FreeRTOS/Source/queue.c **** #endif
  92:../../../../dependencies/freertos/FreeRTOSv10.4.1/FreeRTOS/Source/queue.c **** 
  93:../../../../dependencies/freertos/FreeRTOSv10.4.1/FreeRTOS/Source/queue.c **** /*
  94:../../../../dependencies/freertos/FreeRTOSv10.4.1/FreeRTOS/Source/queue.c ****  * Definition of the queue used by the scheduler.
  95:../../../../dependencies/freertos/FreeRTOSv10.4.1/FreeRTOS/Source/queue.c ****  * Items are queued by copy, not reference.  See the following link for the
  96:../../../../dependencies/freertos/FreeRTOSv10.4.1/FreeRTOS/Source/queue.c ****  * rationale: https://www.FreeRTOS.org/Embedded-RTOS-Queues.html
  97:../../../../dependencies/freertos/FreeRTOSv10.4.1/FreeRTOS/Source/queue.c ****  */
  98:../../../../dependencies/freertos/FreeRTOSv10.4.1/FreeRTOS/Source/queue.c **** typedef struct QueueDefinition /* The old naming convention is used to prevent breaking kernel awar
  99:../../../../dependencies/freertos/FreeRTOSv10.4.1/FreeRTOS/Source/queue.c **** {
 100:../../../../dependencies/freertos/FreeRTOSv10.4.1/FreeRTOS/Source/queue.c ****     int8_t * pcHead;           /*< Points to the beginning of the queue storage area. */
 101:../../../../dependencies/freertos/FreeRTOSv10.4.1/FreeRTOS/Source/queue.c ****     int8_t * pcWriteTo;        /*< Points to the free next place in the storage area. */
 102:../../../../dependencies/freertos/FreeRTOSv10.4.1/FreeRTOS/Source/queue.c **** 
 103:../../../../dependencies/freertos/FreeRTOSv10.4.1/FreeRTOS/Source/queue.c ****     union
 104:../../../../dependencies/freertos/FreeRTOSv10.4.1/FreeRTOS/Source/queue.c ****     {
 105:../../../../dependencies/freertos/FreeRTOSv10.4.1/FreeRTOS/Source/queue.c ****         QueuePointers_t xQueue;     /*< Data required exclusively when this structure is used as a 
 106:../../../../dependencies/freertos/FreeRTOSv10.4.1/FreeRTOS/Source/queue.c ****         SemaphoreData_t xSemaphore; /*< Data required exclusively when this structure is used as a 
 107:../../../../dependencies/freertos/FreeRTOSv10.4.1/FreeRTOS/Source/queue.c ****     } u;
 108:../../../../dependencies/freertos/FreeRTOSv10.4.1/FreeRTOS/Source/queue.c **** 
 109:../../../../dependencies/freertos/FreeRTOSv10.4.1/FreeRTOS/Source/queue.c ****     List_t xTasksWaitingToSend;             /*< List of tasks that are blocked waiting to post onto
 110:../../../../dependencies/freertos/FreeRTOSv10.4.1/FreeRTOS/Source/queue.c ****     List_t xTasksWaitingToReceive;          /*< List of tasks that are blocked waiting to read from
 111:../../../../dependencies/freertos/FreeRTOSv10.4.1/FreeRTOS/Source/queue.c **** 
 112:../../../../dependencies/freertos/FreeRTOSv10.4.1/FreeRTOS/Source/queue.c ****     volatile UBaseType_t uxMessagesWaiting; /*< The number of items currently in the queue. */
 113:../../../../dependencies/freertos/FreeRTOSv10.4.1/FreeRTOS/Source/queue.c ****     UBaseType_t uxLength;                   /*< The length of the queue defined as the number of it
 114:../../../../dependencies/freertos/FreeRTOSv10.4.1/FreeRTOS/Source/queue.c ****     UBaseType_t uxItemSize;                 /*< The size of each items that the queue will hold. */
 115:../../../../dependencies/freertos/FreeRTOSv10.4.1/FreeRTOS/Source/queue.c **** 
 116:../../../../dependencies/freertos/FreeRTOSv10.4.1/FreeRTOS/Source/queue.c ****     volatile int8_t cRxLock;                /*< Stores the number of items received from the queue 
 117:../../../../dependencies/freertos/FreeRTOSv10.4.1/FreeRTOS/Source/queue.c ****     volatile int8_t cTxLock;                /*< Stores the number of items transmitted to the queue
 118:../../../../dependencies/freertos/FreeRTOSv10.4.1/FreeRTOS/Source/queue.c **** 
 119:../../../../dependencies/freertos/FreeRTOSv10.4.1/FreeRTOS/Source/queue.c ****     #if ( ( configSUPPORT_STATIC_ALLOCATION == 1 ) && ( configSUPPORT_DYNAMIC_ALLOCATION == 1 ) )
 120:../../../../dependencies/freertos/FreeRTOSv10.4.1/FreeRTOS/Source/queue.c ****         uint8_t ucStaticallyAllocated; /*< Set to pdTRUE if the memory used by the queue was static
 121:../../../../dependencies/freertos/FreeRTOSv10.4.1/FreeRTOS/Source/queue.c ****     #endif
 122:../../../../dependencies/freertos/FreeRTOSv10.4.1/FreeRTOS/Source/queue.c **** 
 123:../../../../dependencies/freertos/FreeRTOSv10.4.1/FreeRTOS/Source/queue.c ****     #if ( configUSE_QUEUE_SETS == 1 )
 124:../../../../dependencies/freertos/FreeRTOSv10.4.1/FreeRTOS/Source/queue.c ****         struct QueueDefinition * pxQueueSetContainer;
 125:../../../../dependencies/freertos/FreeRTOSv10.4.1/FreeRTOS/Source/queue.c ****     #endif
 126:../../../../dependencies/freertos/FreeRTOSv10.4.1/FreeRTOS/Source/queue.c **** 
 127:../../../../dependencies/freertos/FreeRTOSv10.4.1/FreeRTOS/Source/queue.c ****     #if ( configUSE_TRACE_FACILITY == 1 )
 128:../../../../dependencies/freertos/FreeRTOSv10.4.1/FreeRTOS/Source/queue.c ****         UBaseType_t uxQueueNumber;
 129:../../../../dependencies/freertos/FreeRTOSv10.4.1/FreeRTOS/Source/queue.c ****         uint8_t ucQueueType;
 130:../../../../dependencies/freertos/FreeRTOSv10.4.1/FreeRTOS/Source/queue.c ****     #endif
 131:../../../../dependencies/freertos/FreeRTOSv10.4.1/FreeRTOS/Source/queue.c **** } xQUEUE;
 132:../../../../dependencies/freertos/FreeRTOSv10.4.1/FreeRTOS/Source/queue.c **** 
 133:../../../../dependencies/freertos/FreeRTOSv10.4.1/FreeRTOS/Source/queue.c **** /* The old xQUEUE name is maintained above then typedefed to the new Queue_t
 134:../../../../dependencies/freertos/FreeRTOSv10.4.1/FreeRTOS/Source/queue.c ****  * name below to enable the use of older kernel aware debuggers. */
 135:../../../../dependencies/freertos/FreeRTOSv10.4.1/FreeRTOS/Source/queue.c **** typedef xQUEUE Queue_t;
 136:../../../../dependencies/freertos/FreeRTOSv10.4.1/FreeRTOS/Source/queue.c **** 
 137:../../../../dependencies/freertos/FreeRTOSv10.4.1/FreeRTOS/Source/queue.c **** /*-----------------------------------------------------------*/
 138:../../../../dependencies/freertos/FreeRTOSv10.4.1/FreeRTOS/Source/queue.c **** 
 139:../../../../dependencies/freertos/FreeRTOSv10.4.1/FreeRTOS/Source/queue.c **** /*
 140:../../../../dependencies/freertos/FreeRTOSv10.4.1/FreeRTOS/Source/queue.c ****  * The queue registry is just a means for kernel aware debuggers to locate
 141:../../../../dependencies/freertos/FreeRTOSv10.4.1/FreeRTOS/Source/queue.c ****  * queue structures.  It has no other purpose so is an optional component.
 142:../../../../dependencies/freertos/FreeRTOSv10.4.1/FreeRTOS/Source/queue.c ****  */
 143:../../../../dependencies/freertos/FreeRTOSv10.4.1/FreeRTOS/Source/queue.c **** #if ( configQUEUE_REGISTRY_SIZE > 0 )
ARM GAS  /var/folders/kj/yzqgq53j3dg15vgwwwwgf5s00000gn/T//ccGgwidk.s 			page 4


 144:../../../../dependencies/freertos/FreeRTOSv10.4.1/FreeRTOS/Source/queue.c **** 
 145:../../../../dependencies/freertos/FreeRTOSv10.4.1/FreeRTOS/Source/queue.c **** /* The type stored within the queue registry array.  This allows a name
 146:../../../../dependencies/freertos/FreeRTOSv10.4.1/FreeRTOS/Source/queue.c ****  * to be assigned to each queue making kernel aware debugging a little
 147:../../../../dependencies/freertos/FreeRTOSv10.4.1/FreeRTOS/Source/queue.c ****  * more user friendly. */
 148:../../../../dependencies/freertos/FreeRTOSv10.4.1/FreeRTOS/Source/queue.c ****     typedef struct QUEUE_REGISTRY_ITEM
 149:../../../../dependencies/freertos/FreeRTOSv10.4.1/FreeRTOS/Source/queue.c ****     {
 150:../../../../dependencies/freertos/FreeRTOSv10.4.1/FreeRTOS/Source/queue.c ****         const char * pcQueueName; /*lint !e971 Unqualified char types are allowed for strings and s
 151:../../../../dependencies/freertos/FreeRTOSv10.4.1/FreeRTOS/Source/queue.c ****         QueueHandle_t xHandle;
 152:../../../../dependencies/freertos/FreeRTOSv10.4.1/FreeRTOS/Source/queue.c ****     } xQueueRegistryItem;
 153:../../../../dependencies/freertos/FreeRTOSv10.4.1/FreeRTOS/Source/queue.c **** 
 154:../../../../dependencies/freertos/FreeRTOSv10.4.1/FreeRTOS/Source/queue.c **** /* The old xQueueRegistryItem name is maintained above then typedefed to the
 155:../../../../dependencies/freertos/FreeRTOSv10.4.1/FreeRTOS/Source/queue.c ****  * new xQueueRegistryItem name below to enable the use of older kernel aware
 156:../../../../dependencies/freertos/FreeRTOSv10.4.1/FreeRTOS/Source/queue.c ****  * debuggers. */
 157:../../../../dependencies/freertos/FreeRTOSv10.4.1/FreeRTOS/Source/queue.c ****     typedef xQueueRegistryItem QueueRegistryItem_t;
 158:../../../../dependencies/freertos/FreeRTOSv10.4.1/FreeRTOS/Source/queue.c **** 
 159:../../../../dependencies/freertos/FreeRTOSv10.4.1/FreeRTOS/Source/queue.c **** /* The queue registry is simply an array of QueueRegistryItem_t structures.
 160:../../../../dependencies/freertos/FreeRTOSv10.4.1/FreeRTOS/Source/queue.c ****  * The pcQueueName member of a structure being NULL is indicative of the
 161:../../../../dependencies/freertos/FreeRTOSv10.4.1/FreeRTOS/Source/queue.c ****  * array position being vacant. */
 162:../../../../dependencies/freertos/FreeRTOSv10.4.1/FreeRTOS/Source/queue.c ****     PRIVILEGED_DATA QueueRegistryItem_t xQueueRegistry[ configQUEUE_REGISTRY_SIZE ];
 163:../../../../dependencies/freertos/FreeRTOSv10.4.1/FreeRTOS/Source/queue.c **** 
 164:../../../../dependencies/freertos/FreeRTOSv10.4.1/FreeRTOS/Source/queue.c **** #endif /* configQUEUE_REGISTRY_SIZE */
 165:../../../../dependencies/freertos/FreeRTOSv10.4.1/FreeRTOS/Source/queue.c **** 
 166:../../../../dependencies/freertos/FreeRTOSv10.4.1/FreeRTOS/Source/queue.c **** /*
 167:../../../../dependencies/freertos/FreeRTOSv10.4.1/FreeRTOS/Source/queue.c ****  * Unlocks a queue locked by a call to prvLockQueue.  Locking a queue does not
 168:../../../../dependencies/freertos/FreeRTOSv10.4.1/FreeRTOS/Source/queue.c ****  * prevent an ISR from adding or removing items to the queue, but does prevent
 169:../../../../dependencies/freertos/FreeRTOSv10.4.1/FreeRTOS/Source/queue.c ****  * an ISR from removing tasks from the queue event lists.  If an ISR finds a
 170:../../../../dependencies/freertos/FreeRTOSv10.4.1/FreeRTOS/Source/queue.c ****  * queue is locked it will instead increment the appropriate queue lock count
 171:../../../../dependencies/freertos/FreeRTOSv10.4.1/FreeRTOS/Source/queue.c ****  * to indicate that a task may require unblocking.  When the queue in unlocked
 172:../../../../dependencies/freertos/FreeRTOSv10.4.1/FreeRTOS/Source/queue.c ****  * these lock counts are inspected, and the appropriate action taken.
 173:../../../../dependencies/freertos/FreeRTOSv10.4.1/FreeRTOS/Source/queue.c ****  */
 174:../../../../dependencies/freertos/FreeRTOSv10.4.1/FreeRTOS/Source/queue.c **** static void prvUnlockQueue( Queue_t * const pxQueue ) PRIVILEGED_FUNCTION;
 175:../../../../dependencies/freertos/FreeRTOSv10.4.1/FreeRTOS/Source/queue.c **** 
 176:../../../../dependencies/freertos/FreeRTOSv10.4.1/FreeRTOS/Source/queue.c **** /*
 177:../../../../dependencies/freertos/FreeRTOSv10.4.1/FreeRTOS/Source/queue.c ****  * Uses a critical section to determine if there is any data in a queue.
 178:../../../../dependencies/freertos/FreeRTOSv10.4.1/FreeRTOS/Source/queue.c ****  *
 179:../../../../dependencies/freertos/FreeRTOSv10.4.1/FreeRTOS/Source/queue.c ****  * @return pdTRUE if the queue contains no items, otherwise pdFALSE.
 180:../../../../dependencies/freertos/FreeRTOSv10.4.1/FreeRTOS/Source/queue.c ****  */
 181:../../../../dependencies/freertos/FreeRTOSv10.4.1/FreeRTOS/Source/queue.c **** static BaseType_t prvIsQueueEmpty( const Queue_t * pxQueue ) PRIVILEGED_FUNCTION;
 182:../../../../dependencies/freertos/FreeRTOSv10.4.1/FreeRTOS/Source/queue.c **** 
 183:../../../../dependencies/freertos/FreeRTOSv10.4.1/FreeRTOS/Source/queue.c **** /*
 184:../../../../dependencies/freertos/FreeRTOSv10.4.1/FreeRTOS/Source/queue.c ****  * Uses a critical section to determine if there is any space in a queue.
 185:../../../../dependencies/freertos/FreeRTOSv10.4.1/FreeRTOS/Source/queue.c ****  *
 186:../../../../dependencies/freertos/FreeRTOSv10.4.1/FreeRTOS/Source/queue.c ****  * @return pdTRUE if there is no space, otherwise pdFALSE;
 187:../../../../dependencies/freertos/FreeRTOSv10.4.1/FreeRTOS/Source/queue.c ****  */
 188:../../../../dependencies/freertos/FreeRTOSv10.4.1/FreeRTOS/Source/queue.c **** static BaseType_t prvIsQueueFull( const Queue_t * pxQueue ) PRIVILEGED_FUNCTION;
 189:../../../../dependencies/freertos/FreeRTOSv10.4.1/FreeRTOS/Source/queue.c **** 
 190:../../../../dependencies/freertos/FreeRTOSv10.4.1/FreeRTOS/Source/queue.c **** /*
 191:../../../../dependencies/freertos/FreeRTOSv10.4.1/FreeRTOS/Source/queue.c ****  * Copies an item into the queue, either at the front of the queue or the
 192:../../../../dependencies/freertos/FreeRTOSv10.4.1/FreeRTOS/Source/queue.c ****  * back of the queue.
 193:../../../../dependencies/freertos/FreeRTOSv10.4.1/FreeRTOS/Source/queue.c ****  */
 194:../../../../dependencies/freertos/FreeRTOSv10.4.1/FreeRTOS/Source/queue.c **** static BaseType_t prvCopyDataToQueue( Queue_t * const pxQueue,
 195:../../../../dependencies/freertos/FreeRTOSv10.4.1/FreeRTOS/Source/queue.c ****                                       const void * pvItemToQueue,
 196:../../../../dependencies/freertos/FreeRTOSv10.4.1/FreeRTOS/Source/queue.c ****                                       const BaseType_t xPosition ) PRIVILEGED_FUNCTION;
 197:../../../../dependencies/freertos/FreeRTOSv10.4.1/FreeRTOS/Source/queue.c **** 
 198:../../../../dependencies/freertos/FreeRTOSv10.4.1/FreeRTOS/Source/queue.c **** /*
 199:../../../../dependencies/freertos/FreeRTOSv10.4.1/FreeRTOS/Source/queue.c ****  * Copies an item out of a queue.
 200:../../../../dependencies/freertos/FreeRTOSv10.4.1/FreeRTOS/Source/queue.c ****  */
ARM GAS  /var/folders/kj/yzqgq53j3dg15vgwwwwgf5s00000gn/T//ccGgwidk.s 			page 5


 201:../../../../dependencies/freertos/FreeRTOSv10.4.1/FreeRTOS/Source/queue.c **** static void prvCopyDataFromQueue( Queue_t * const pxQueue,
 202:../../../../dependencies/freertos/FreeRTOSv10.4.1/FreeRTOS/Source/queue.c ****                                   void * const pvBuffer ) PRIVILEGED_FUNCTION;
 203:../../../../dependencies/freertos/FreeRTOSv10.4.1/FreeRTOS/Source/queue.c **** 
 204:../../../../dependencies/freertos/FreeRTOSv10.4.1/FreeRTOS/Source/queue.c **** #if ( configUSE_QUEUE_SETS == 1 )
 205:../../../../dependencies/freertos/FreeRTOSv10.4.1/FreeRTOS/Source/queue.c **** 
 206:../../../../dependencies/freertos/FreeRTOSv10.4.1/FreeRTOS/Source/queue.c **** /*
 207:../../../../dependencies/freertos/FreeRTOSv10.4.1/FreeRTOS/Source/queue.c ****  * Checks to see if a queue is a member of a queue set, and if so, notifies
 208:../../../../dependencies/freertos/FreeRTOSv10.4.1/FreeRTOS/Source/queue.c ****  * the queue set that the queue contains data.
 209:../../../../dependencies/freertos/FreeRTOSv10.4.1/FreeRTOS/Source/queue.c ****  */
 210:../../../../dependencies/freertos/FreeRTOSv10.4.1/FreeRTOS/Source/queue.c ****     static BaseType_t prvNotifyQueueSetContainer( const Queue_t * const pxQueue ) PRIVILEGED_FUNCTI
 211:../../../../dependencies/freertos/FreeRTOSv10.4.1/FreeRTOS/Source/queue.c **** #endif
 212:../../../../dependencies/freertos/FreeRTOSv10.4.1/FreeRTOS/Source/queue.c **** 
 213:../../../../dependencies/freertos/FreeRTOSv10.4.1/FreeRTOS/Source/queue.c **** /*
 214:../../../../dependencies/freertos/FreeRTOSv10.4.1/FreeRTOS/Source/queue.c ****  * Called after a Queue_t structure has been allocated either statically or
 215:../../../../dependencies/freertos/FreeRTOSv10.4.1/FreeRTOS/Source/queue.c ****  * dynamically to fill in the structure's members.
 216:../../../../dependencies/freertos/FreeRTOSv10.4.1/FreeRTOS/Source/queue.c ****  */
 217:../../../../dependencies/freertos/FreeRTOSv10.4.1/FreeRTOS/Source/queue.c **** static void prvInitialiseNewQueue( const UBaseType_t uxQueueLength,
 218:../../../../dependencies/freertos/FreeRTOSv10.4.1/FreeRTOS/Source/queue.c ****                                    const UBaseType_t uxItemSize,
 219:../../../../dependencies/freertos/FreeRTOSv10.4.1/FreeRTOS/Source/queue.c ****                                    uint8_t * pucQueueStorage,
 220:../../../../dependencies/freertos/FreeRTOSv10.4.1/FreeRTOS/Source/queue.c ****                                    const uint8_t ucQueueType,
 221:../../../../dependencies/freertos/FreeRTOSv10.4.1/FreeRTOS/Source/queue.c ****                                    Queue_t * pxNewQueue ) PRIVILEGED_FUNCTION;
 222:../../../../dependencies/freertos/FreeRTOSv10.4.1/FreeRTOS/Source/queue.c **** 
 223:../../../../dependencies/freertos/FreeRTOSv10.4.1/FreeRTOS/Source/queue.c **** /*
 224:../../../../dependencies/freertos/FreeRTOSv10.4.1/FreeRTOS/Source/queue.c ****  * Mutexes are a special type of queue.  When a mutex is created, first the
 225:../../../../dependencies/freertos/FreeRTOSv10.4.1/FreeRTOS/Source/queue.c ****  * queue is created, then prvInitialiseMutex() is called to configure the queue
 226:../../../../dependencies/freertos/FreeRTOSv10.4.1/FreeRTOS/Source/queue.c ****  * as a mutex.
 227:../../../../dependencies/freertos/FreeRTOSv10.4.1/FreeRTOS/Source/queue.c ****  */
 228:../../../../dependencies/freertos/FreeRTOSv10.4.1/FreeRTOS/Source/queue.c **** #if ( configUSE_MUTEXES == 1 )
 229:../../../../dependencies/freertos/FreeRTOSv10.4.1/FreeRTOS/Source/queue.c ****     static void prvInitialiseMutex( Queue_t * pxNewQueue ) PRIVILEGED_FUNCTION;
 230:../../../../dependencies/freertos/FreeRTOSv10.4.1/FreeRTOS/Source/queue.c **** #endif
 231:../../../../dependencies/freertos/FreeRTOSv10.4.1/FreeRTOS/Source/queue.c **** 
 232:../../../../dependencies/freertos/FreeRTOSv10.4.1/FreeRTOS/Source/queue.c **** #if ( configUSE_MUTEXES == 1 )
 233:../../../../dependencies/freertos/FreeRTOSv10.4.1/FreeRTOS/Source/queue.c **** 
 234:../../../../dependencies/freertos/FreeRTOSv10.4.1/FreeRTOS/Source/queue.c **** /*
 235:../../../../dependencies/freertos/FreeRTOSv10.4.1/FreeRTOS/Source/queue.c ****  * If a task waiting for a mutex causes the mutex holder to inherit a
 236:../../../../dependencies/freertos/FreeRTOSv10.4.1/FreeRTOS/Source/queue.c ****  * priority, but the waiting task times out, then the holder should
 237:../../../../dependencies/freertos/FreeRTOSv10.4.1/FreeRTOS/Source/queue.c ****  * disinherit the priority - but only down to the highest priority of any
 238:../../../../dependencies/freertos/FreeRTOSv10.4.1/FreeRTOS/Source/queue.c ****  * other tasks that are waiting for the same mutex.  This function returns
 239:../../../../dependencies/freertos/FreeRTOSv10.4.1/FreeRTOS/Source/queue.c ****  * that priority.
 240:../../../../dependencies/freertos/FreeRTOSv10.4.1/FreeRTOS/Source/queue.c ****  */
 241:../../../../dependencies/freertos/FreeRTOSv10.4.1/FreeRTOS/Source/queue.c ****     static UBaseType_t prvGetDisinheritPriorityAfterTimeout( const Queue_t * const pxQueue ) PRIVIL
 242:../../../../dependencies/freertos/FreeRTOSv10.4.1/FreeRTOS/Source/queue.c **** #endif
 243:../../../../dependencies/freertos/FreeRTOSv10.4.1/FreeRTOS/Source/queue.c **** /*-----------------------------------------------------------*/
 244:../../../../dependencies/freertos/FreeRTOSv10.4.1/FreeRTOS/Source/queue.c **** 
 245:../../../../dependencies/freertos/FreeRTOSv10.4.1/FreeRTOS/Source/queue.c **** /*
 246:../../../../dependencies/freertos/FreeRTOSv10.4.1/FreeRTOS/Source/queue.c ****  * Macro to mark a queue as locked.  Locking a queue prevents an ISR from
 247:../../../../dependencies/freertos/FreeRTOSv10.4.1/FreeRTOS/Source/queue.c ****  * accessing the queue event lists.
 248:../../../../dependencies/freertos/FreeRTOSv10.4.1/FreeRTOS/Source/queue.c ****  */
 249:../../../../dependencies/freertos/FreeRTOSv10.4.1/FreeRTOS/Source/queue.c **** #define prvLockQueue( pxQueue )                            \
 250:../../../../dependencies/freertos/FreeRTOSv10.4.1/FreeRTOS/Source/queue.c ****     taskENTER_CRITICAL();                                  \
 251:../../../../dependencies/freertos/FreeRTOSv10.4.1/FreeRTOS/Source/queue.c ****     {                                                      \
 252:../../../../dependencies/freertos/FreeRTOSv10.4.1/FreeRTOS/Source/queue.c ****         if( ( pxQueue )->cRxLock == queueUNLOCKED )        \
 253:../../../../dependencies/freertos/FreeRTOSv10.4.1/FreeRTOS/Source/queue.c ****         {                                                  \
 254:../../../../dependencies/freertos/FreeRTOSv10.4.1/FreeRTOS/Source/queue.c ****             ( pxQueue )->cRxLock = queueLOCKED_UNMODIFIED; \
 255:../../../../dependencies/freertos/FreeRTOSv10.4.1/FreeRTOS/Source/queue.c ****         }                                                  \
 256:../../../../dependencies/freertos/FreeRTOSv10.4.1/FreeRTOS/Source/queue.c ****         if( ( pxQueue )->cTxLock == queueUNLOCKED )        \
 257:../../../../dependencies/freertos/FreeRTOSv10.4.1/FreeRTOS/Source/queue.c ****         {                                                  \
ARM GAS  /var/folders/kj/yzqgq53j3dg15vgwwwwgf5s00000gn/T//ccGgwidk.s 			page 6


 258:../../../../dependencies/freertos/FreeRTOSv10.4.1/FreeRTOS/Source/queue.c ****             ( pxQueue )->cTxLock = queueLOCKED_UNMODIFIED; \
 259:../../../../dependencies/freertos/FreeRTOSv10.4.1/FreeRTOS/Source/queue.c ****         }                                                  \
 260:../../../../dependencies/freertos/FreeRTOSv10.4.1/FreeRTOS/Source/queue.c ****     }                                                      \
 261:../../../../dependencies/freertos/FreeRTOSv10.4.1/FreeRTOS/Source/queue.c ****     taskEXIT_CRITICAL()
 262:../../../../dependencies/freertos/FreeRTOSv10.4.1/FreeRTOS/Source/queue.c **** /*-----------------------------------------------------------*/
 263:../../../../dependencies/freertos/FreeRTOSv10.4.1/FreeRTOS/Source/queue.c **** 
 264:../../../../dependencies/freertos/FreeRTOSv10.4.1/FreeRTOS/Source/queue.c **** BaseType_t xQueueGenericReset( QueueHandle_t xQueue,
 265:../../../../dependencies/freertos/FreeRTOSv10.4.1/FreeRTOS/Source/queue.c ****                                BaseType_t xNewQueue )
 266:../../../../dependencies/freertos/FreeRTOSv10.4.1/FreeRTOS/Source/queue.c **** {
  30              		.loc 1 266 1
  31              		.cfi_startproc
  32              		@ args = 0, pretend = 0, frame = 16
  33              		@ frame_needed = 1, uses_anonymous_args = 0
  34 0000 80B5     		push	{r7, lr}
  35              	.LCFI0:
  36              		.cfi_def_cfa_offset 8
  37              		.cfi_offset 7, -8
  38              		.cfi_offset 14, -4
  39 0002 84B0     		sub	sp, sp, #16
  40              	.LCFI1:
  41              		.cfi_def_cfa_offset 24
  42 0004 00AF     		add	r7, sp, #0
  43              	.LCFI2:
  44              		.cfi_def_cfa_register 7
  45 0006 7860     		str	r0, [r7, #4]
  46 0008 3960     		str	r1, [r7]
 267:../../../../dependencies/freertos/FreeRTOSv10.4.1/FreeRTOS/Source/queue.c ****     Queue_t * const pxQueue = xQueue;
  47              		.loc 1 267 21
  48 000a 7B68     		ldr	r3, [r7, #4]
  49 000c FB60     		str	r3, [r7, #12]
 268:../../../../dependencies/freertos/FreeRTOSv10.4.1/FreeRTOS/Source/queue.c **** 
 269:../../../../dependencies/freertos/FreeRTOSv10.4.1/FreeRTOS/Source/queue.c ****     configASSERT( pxQueue );
  50              		.loc 1 269 5
  51 000e FB68     		ldr	r3, [r7, #12]
  52 0010 002B     		cmp	r3, #0
  53 0012 0AD1     		bne	.L2
  54              	.LBB111:
  55              	.LBB112:
  56              		.file 2 "../../../../dependencies/freertos/FreeRTOSv10.4.1/FreeRTOS/Source/portable/GCC/ARM_CM4F/p
   1:../../../../dependencies/freertos/FreeRTOSv10.4.1/FreeRTOS/Source/portable/GCC/ARM_CM4F/portmacro.h **** /*
   2:../../../../dependencies/freertos/FreeRTOSv10.4.1/FreeRTOS/Source/portable/GCC/ARM_CM4F/portmacro.h ****  * FreeRTOS Kernel V10.4.1
   3:../../../../dependencies/freertos/FreeRTOSv10.4.1/FreeRTOS/Source/portable/GCC/ARM_CM4F/portmacro.h ****  * Copyright (C) 2020 Amazon.com, Inc. or its affiliates.  All Rights Reserved.
   4:../../../../dependencies/freertos/FreeRTOSv10.4.1/FreeRTOS/Source/portable/GCC/ARM_CM4F/portmacro.h ****  *
   5:../../../../dependencies/freertos/FreeRTOSv10.4.1/FreeRTOS/Source/portable/GCC/ARM_CM4F/portmacro.h ****  * Permission is hereby granted, free of charge, to any person obtaining a copy of
   6:../../../../dependencies/freertos/FreeRTOSv10.4.1/FreeRTOS/Source/portable/GCC/ARM_CM4F/portmacro.h ****  * this software and associated documentation files (the "Software"), to deal in
   7:../../../../dependencies/freertos/FreeRTOSv10.4.1/FreeRTOS/Source/portable/GCC/ARM_CM4F/portmacro.h ****  * the Software without restriction, including without limitation the rights to
   8:../../../../dependencies/freertos/FreeRTOSv10.4.1/FreeRTOS/Source/portable/GCC/ARM_CM4F/portmacro.h ****  * use, copy, modify, merge, publish, distribute, sublicense, and/or sell copies of
   9:../../../../dependencies/freertos/FreeRTOSv10.4.1/FreeRTOS/Source/portable/GCC/ARM_CM4F/portmacro.h ****  * the Software, and to permit persons to whom the Software is furnished to do so,
  10:../../../../dependencies/freertos/FreeRTOSv10.4.1/FreeRTOS/Source/portable/GCC/ARM_CM4F/portmacro.h ****  * subject to the following conditions:
  11:../../../../dependencies/freertos/FreeRTOSv10.4.1/FreeRTOS/Source/portable/GCC/ARM_CM4F/portmacro.h ****  *
  12:../../../../dependencies/freertos/FreeRTOSv10.4.1/FreeRTOS/Source/portable/GCC/ARM_CM4F/portmacro.h ****  * The above copyright notice and this permission notice shall be included in all
  13:../../../../dependencies/freertos/FreeRTOSv10.4.1/FreeRTOS/Source/portable/GCC/ARM_CM4F/portmacro.h ****  * copies or substantial portions of the Software.
  14:../../../../dependencies/freertos/FreeRTOSv10.4.1/FreeRTOS/Source/portable/GCC/ARM_CM4F/portmacro.h ****  *
  15:../../../../dependencies/freertos/FreeRTOSv10.4.1/FreeRTOS/Source/portable/GCC/ARM_CM4F/portmacro.h ****  * THE SOFTWARE IS PROVIDED "AS IS", WITHOUT WARRANTY OF ANY KIND, EXPRESS OR
  16:../../../../dependencies/freertos/FreeRTOSv10.4.1/FreeRTOS/Source/portable/GCC/ARM_CM4F/portmacro.h ****  * IMPLIED, INCLUDING BUT NOT LIMITED TO THE WARRANTIES OF MERCHANTABILITY, FITNESS
  17:../../../../dependencies/freertos/FreeRTOSv10.4.1/FreeRTOS/Source/portable/GCC/ARM_CM4F/portmacro.h ****  * FOR A PARTICULAR PURPOSE AND NONINFRINGEMENT. IN NO EVENT SHALL THE AUTHORS OR
  18:../../../../dependencies/freertos/FreeRTOSv10.4.1/FreeRTOS/Source/portable/GCC/ARM_CM4F/portmacro.h ****  * COPYRIGHT HOLDERS BE LIABLE FOR ANY CLAIM, DAMAGES OR OTHER LIABILITY, WHETHER
ARM GAS  /var/folders/kj/yzqgq53j3dg15vgwwwwgf5s00000gn/T//ccGgwidk.s 			page 7


  19:../../../../dependencies/freertos/FreeRTOSv10.4.1/FreeRTOS/Source/portable/GCC/ARM_CM4F/portmacro.h ****  * IN AN ACTION OF CONTRACT, TORT OR OTHERWISE, ARISING FROM, OUT OF OR IN
  20:../../../../dependencies/freertos/FreeRTOSv10.4.1/FreeRTOS/Source/portable/GCC/ARM_CM4F/portmacro.h ****  * CONNECTION WITH THE SOFTWARE OR THE USE OR OTHER DEALINGS IN THE SOFTWARE.
  21:../../../../dependencies/freertos/FreeRTOSv10.4.1/FreeRTOS/Source/portable/GCC/ARM_CM4F/portmacro.h ****  *
  22:../../../../dependencies/freertos/FreeRTOSv10.4.1/FreeRTOS/Source/portable/GCC/ARM_CM4F/portmacro.h ****  * https://www.FreeRTOS.org
  23:../../../../dependencies/freertos/FreeRTOSv10.4.1/FreeRTOS/Source/portable/GCC/ARM_CM4F/portmacro.h ****  * https://github.com/FreeRTOS
  24:../../../../dependencies/freertos/FreeRTOSv10.4.1/FreeRTOS/Source/portable/GCC/ARM_CM4F/portmacro.h ****  *
  25:../../../../dependencies/freertos/FreeRTOSv10.4.1/FreeRTOS/Source/portable/GCC/ARM_CM4F/portmacro.h ****  * 1 tab == 4 spaces!
  26:../../../../dependencies/freertos/FreeRTOSv10.4.1/FreeRTOS/Source/portable/GCC/ARM_CM4F/portmacro.h ****  */
  27:../../../../dependencies/freertos/FreeRTOSv10.4.1/FreeRTOS/Source/portable/GCC/ARM_CM4F/portmacro.h **** 
  28:../../../../dependencies/freertos/FreeRTOSv10.4.1/FreeRTOS/Source/portable/GCC/ARM_CM4F/portmacro.h **** 
  29:../../../../dependencies/freertos/FreeRTOSv10.4.1/FreeRTOS/Source/portable/GCC/ARM_CM4F/portmacro.h **** #ifndef PORTMACRO_H
  30:../../../../dependencies/freertos/FreeRTOSv10.4.1/FreeRTOS/Source/portable/GCC/ARM_CM4F/portmacro.h ****     #define PORTMACRO_H
  31:../../../../dependencies/freertos/FreeRTOSv10.4.1/FreeRTOS/Source/portable/GCC/ARM_CM4F/portmacro.h **** 
  32:../../../../dependencies/freertos/FreeRTOSv10.4.1/FreeRTOS/Source/portable/GCC/ARM_CM4F/portmacro.h ****     #ifdef __cplusplus
  33:../../../../dependencies/freertos/FreeRTOSv10.4.1/FreeRTOS/Source/portable/GCC/ARM_CM4F/portmacro.h ****         extern "C" {
  34:../../../../dependencies/freertos/FreeRTOSv10.4.1/FreeRTOS/Source/portable/GCC/ARM_CM4F/portmacro.h ****     #endif
  35:../../../../dependencies/freertos/FreeRTOSv10.4.1/FreeRTOS/Source/portable/GCC/ARM_CM4F/portmacro.h **** 
  36:../../../../dependencies/freertos/FreeRTOSv10.4.1/FreeRTOS/Source/portable/GCC/ARM_CM4F/portmacro.h **** /*-----------------------------------------------------------
  37:../../../../dependencies/freertos/FreeRTOSv10.4.1/FreeRTOS/Source/portable/GCC/ARM_CM4F/portmacro.h ****  * Port specific definitions.
  38:../../../../dependencies/freertos/FreeRTOSv10.4.1/FreeRTOS/Source/portable/GCC/ARM_CM4F/portmacro.h ****  *
  39:../../../../dependencies/freertos/FreeRTOSv10.4.1/FreeRTOS/Source/portable/GCC/ARM_CM4F/portmacro.h ****  * The settings in this file configure FreeRTOS correctly for the
  40:../../../../dependencies/freertos/FreeRTOSv10.4.1/FreeRTOS/Source/portable/GCC/ARM_CM4F/portmacro.h ****  * given hardware and compiler.
  41:../../../../dependencies/freertos/FreeRTOSv10.4.1/FreeRTOS/Source/portable/GCC/ARM_CM4F/portmacro.h ****  *
  42:../../../../dependencies/freertos/FreeRTOSv10.4.1/FreeRTOS/Source/portable/GCC/ARM_CM4F/portmacro.h ****  * These settings should not be altered.
  43:../../../../dependencies/freertos/FreeRTOSv10.4.1/FreeRTOS/Source/portable/GCC/ARM_CM4F/portmacro.h ****  *-----------------------------------------------------------
  44:../../../../dependencies/freertos/FreeRTOSv10.4.1/FreeRTOS/Source/portable/GCC/ARM_CM4F/portmacro.h ****  */
  45:../../../../dependencies/freertos/FreeRTOSv10.4.1/FreeRTOS/Source/portable/GCC/ARM_CM4F/portmacro.h **** 
  46:../../../../dependencies/freertos/FreeRTOSv10.4.1/FreeRTOS/Source/portable/GCC/ARM_CM4F/portmacro.h **** /* Type definitions. */
  47:../../../../dependencies/freertos/FreeRTOSv10.4.1/FreeRTOS/Source/portable/GCC/ARM_CM4F/portmacro.h ****     #define portCHAR          char
  48:../../../../dependencies/freertos/FreeRTOSv10.4.1/FreeRTOS/Source/portable/GCC/ARM_CM4F/portmacro.h ****     #define portFLOAT         float
  49:../../../../dependencies/freertos/FreeRTOSv10.4.1/FreeRTOS/Source/portable/GCC/ARM_CM4F/portmacro.h ****     #define portDOUBLE        double
  50:../../../../dependencies/freertos/FreeRTOSv10.4.1/FreeRTOS/Source/portable/GCC/ARM_CM4F/portmacro.h ****     #define portLONG          long
  51:../../../../dependencies/freertos/FreeRTOSv10.4.1/FreeRTOS/Source/portable/GCC/ARM_CM4F/portmacro.h ****     #define portSHORT         short
  52:../../../../dependencies/freertos/FreeRTOSv10.4.1/FreeRTOS/Source/portable/GCC/ARM_CM4F/portmacro.h ****     #define portSTACK_TYPE    uint32_t
  53:../../../../dependencies/freertos/FreeRTOSv10.4.1/FreeRTOS/Source/portable/GCC/ARM_CM4F/portmacro.h ****     #define portBASE_TYPE     long
  54:../../../../dependencies/freertos/FreeRTOSv10.4.1/FreeRTOS/Source/portable/GCC/ARM_CM4F/portmacro.h **** 
  55:../../../../dependencies/freertos/FreeRTOSv10.4.1/FreeRTOS/Source/portable/GCC/ARM_CM4F/portmacro.h ****     typedef portSTACK_TYPE   StackType_t;
  56:../../../../dependencies/freertos/FreeRTOSv10.4.1/FreeRTOS/Source/portable/GCC/ARM_CM4F/portmacro.h ****     typedef long             BaseType_t;
  57:../../../../dependencies/freertos/FreeRTOSv10.4.1/FreeRTOS/Source/portable/GCC/ARM_CM4F/portmacro.h ****     typedef unsigned long    UBaseType_t;
  58:../../../../dependencies/freertos/FreeRTOSv10.4.1/FreeRTOS/Source/portable/GCC/ARM_CM4F/portmacro.h **** 
  59:../../../../dependencies/freertos/FreeRTOSv10.4.1/FreeRTOS/Source/portable/GCC/ARM_CM4F/portmacro.h ****     #if ( configUSE_16_BIT_TICKS == 1 )
  60:../../../../dependencies/freertos/FreeRTOSv10.4.1/FreeRTOS/Source/portable/GCC/ARM_CM4F/portmacro.h ****         typedef uint16_t     TickType_t;
  61:../../../../dependencies/freertos/FreeRTOSv10.4.1/FreeRTOS/Source/portable/GCC/ARM_CM4F/portmacro.h ****         #define portMAX_DELAY              ( TickType_t ) 0xffff
  62:../../../../dependencies/freertos/FreeRTOSv10.4.1/FreeRTOS/Source/portable/GCC/ARM_CM4F/portmacro.h ****     #else
  63:../../../../dependencies/freertos/FreeRTOSv10.4.1/FreeRTOS/Source/portable/GCC/ARM_CM4F/portmacro.h ****         typedef uint32_t     TickType_t;
  64:../../../../dependencies/freertos/FreeRTOSv10.4.1/FreeRTOS/Source/portable/GCC/ARM_CM4F/portmacro.h ****         #define portMAX_DELAY              ( TickType_t ) 0xffffffffUL
  65:../../../../dependencies/freertos/FreeRTOSv10.4.1/FreeRTOS/Source/portable/GCC/ARM_CM4F/portmacro.h **** 
  66:../../../../dependencies/freertos/FreeRTOSv10.4.1/FreeRTOS/Source/portable/GCC/ARM_CM4F/portmacro.h **** /* 32-bit tick type on a 32-bit architecture, so reads of the tick count do
  67:../../../../dependencies/freertos/FreeRTOSv10.4.1/FreeRTOS/Source/portable/GCC/ARM_CM4F/portmacro.h ****  * not need to be guarded with a critical section. */
  68:../../../../dependencies/freertos/FreeRTOSv10.4.1/FreeRTOS/Source/portable/GCC/ARM_CM4F/portmacro.h ****         #define portTICK_TYPE_IS_ATOMIC    1
  69:../../../../dependencies/freertos/FreeRTOSv10.4.1/FreeRTOS/Source/portable/GCC/ARM_CM4F/portmacro.h ****     #endif
  70:../../../../dependencies/freertos/FreeRTOSv10.4.1/FreeRTOS/Source/portable/GCC/ARM_CM4F/portmacro.h **** /*-----------------------------------------------------------*/
  71:../../../../dependencies/freertos/FreeRTOSv10.4.1/FreeRTOS/Source/portable/GCC/ARM_CM4F/portmacro.h **** 
  72:../../../../dependencies/freertos/FreeRTOSv10.4.1/FreeRTOS/Source/portable/GCC/ARM_CM4F/portmacro.h **** /* Architecture specifics. */
  73:../../../../dependencies/freertos/FreeRTOSv10.4.1/FreeRTOS/Source/portable/GCC/ARM_CM4F/portmacro.h ****     #define portSTACK_GROWTH      ( -1 )
  74:../../../../dependencies/freertos/FreeRTOSv10.4.1/FreeRTOS/Source/portable/GCC/ARM_CM4F/portmacro.h ****     #define portTICK_PERIOD_MS    ( ( TickType_t ) 1000 / configTICK_RATE_HZ )
  75:../../../../dependencies/freertos/FreeRTOSv10.4.1/FreeRTOS/Source/portable/GCC/ARM_CM4F/portmacro.h ****     #define portBYTE_ALIGNMENT    8
ARM GAS  /var/folders/kj/yzqgq53j3dg15vgwwwwgf5s00000gn/T//ccGgwidk.s 			page 8


  76:../../../../dependencies/freertos/FreeRTOSv10.4.1/FreeRTOS/Source/portable/GCC/ARM_CM4F/portmacro.h ****     #define portDONT_DISCARD      __attribute__( ( used ) )
  77:../../../../dependencies/freertos/FreeRTOSv10.4.1/FreeRTOS/Source/portable/GCC/ARM_CM4F/portmacro.h **** /*-----------------------------------------------------------*/
  78:../../../../dependencies/freertos/FreeRTOSv10.4.1/FreeRTOS/Source/portable/GCC/ARM_CM4F/portmacro.h **** 
  79:../../../../dependencies/freertos/FreeRTOSv10.4.1/FreeRTOS/Source/portable/GCC/ARM_CM4F/portmacro.h **** /* Scheduler utilities. */
  80:../../../../dependencies/freertos/FreeRTOSv10.4.1/FreeRTOS/Source/portable/GCC/ARM_CM4F/portmacro.h ****     #define portYIELD()                                 \
  81:../../../../dependencies/freertos/FreeRTOSv10.4.1/FreeRTOS/Source/portable/GCC/ARM_CM4F/portmacro.h ****     {                                                   \
  82:../../../../dependencies/freertos/FreeRTOSv10.4.1/FreeRTOS/Source/portable/GCC/ARM_CM4F/portmacro.h ****         /* Set a PendSV to request a context switch. */ \
  83:../../../../dependencies/freertos/FreeRTOSv10.4.1/FreeRTOS/Source/portable/GCC/ARM_CM4F/portmacro.h ****         portNVIC_INT_CTRL_REG = portNVIC_PENDSVSET_BIT; \
  84:../../../../dependencies/freertos/FreeRTOSv10.4.1/FreeRTOS/Source/portable/GCC/ARM_CM4F/portmacro.h ****                                                         \
  85:../../../../dependencies/freertos/FreeRTOSv10.4.1/FreeRTOS/Source/portable/GCC/ARM_CM4F/portmacro.h ****         /* Barriers are normally not required but do ensure the code is completely \
  86:../../../../dependencies/freertos/FreeRTOSv10.4.1/FreeRTOS/Source/portable/GCC/ARM_CM4F/portmacro.h ****          * within the specified behaviour for the architecture. */ \
  87:../../../../dependencies/freertos/FreeRTOSv10.4.1/FreeRTOS/Source/portable/GCC/ARM_CM4F/portmacro.h ****         __asm volatile ( "dsb" ::: "memory" );                     \
  88:../../../../dependencies/freertos/FreeRTOSv10.4.1/FreeRTOS/Source/portable/GCC/ARM_CM4F/portmacro.h ****         __asm volatile ( "isb" );                                  \
  89:../../../../dependencies/freertos/FreeRTOSv10.4.1/FreeRTOS/Source/portable/GCC/ARM_CM4F/portmacro.h ****     }
  90:../../../../dependencies/freertos/FreeRTOSv10.4.1/FreeRTOS/Source/portable/GCC/ARM_CM4F/portmacro.h **** 
  91:../../../../dependencies/freertos/FreeRTOSv10.4.1/FreeRTOS/Source/portable/GCC/ARM_CM4F/portmacro.h ****     #define portNVIC_INT_CTRL_REG     ( *( ( volatile uint32_t * ) 0xe000ed04 ) )
  92:../../../../dependencies/freertos/FreeRTOSv10.4.1/FreeRTOS/Source/portable/GCC/ARM_CM4F/portmacro.h ****     #define portNVIC_PENDSVSET_BIT    ( 1UL << 28UL )
  93:../../../../dependencies/freertos/FreeRTOSv10.4.1/FreeRTOS/Source/portable/GCC/ARM_CM4F/portmacro.h ****     #define portEND_SWITCHING_ISR( xSwitchRequired )    if( xSwitchRequired != pdFALSE ) portYIELD(
  94:../../../../dependencies/freertos/FreeRTOSv10.4.1/FreeRTOS/Source/portable/GCC/ARM_CM4F/portmacro.h ****     #define portYIELD_FROM_ISR( x )                     portEND_SWITCHING_ISR( x )
  95:../../../../dependencies/freertos/FreeRTOSv10.4.1/FreeRTOS/Source/portable/GCC/ARM_CM4F/portmacro.h **** /*-----------------------------------------------------------*/
  96:../../../../dependencies/freertos/FreeRTOSv10.4.1/FreeRTOS/Source/portable/GCC/ARM_CM4F/portmacro.h **** 
  97:../../../../dependencies/freertos/FreeRTOSv10.4.1/FreeRTOS/Source/portable/GCC/ARM_CM4F/portmacro.h **** /* Critical section management. */
  98:../../../../dependencies/freertos/FreeRTOSv10.4.1/FreeRTOS/Source/portable/GCC/ARM_CM4F/portmacro.h ****     extern void vPortEnterCritical( void );
  99:../../../../dependencies/freertos/FreeRTOSv10.4.1/FreeRTOS/Source/portable/GCC/ARM_CM4F/portmacro.h ****     extern void vPortExitCritical( void );
 100:../../../../dependencies/freertos/FreeRTOSv10.4.1/FreeRTOS/Source/portable/GCC/ARM_CM4F/portmacro.h ****     #define portSET_INTERRUPT_MASK_FROM_ISR()         ulPortRaiseBASEPRI()
 101:../../../../dependencies/freertos/FreeRTOSv10.4.1/FreeRTOS/Source/portable/GCC/ARM_CM4F/portmacro.h ****     #define portCLEAR_INTERRUPT_MASK_FROM_ISR( x )    vPortSetBASEPRI( x )
 102:../../../../dependencies/freertos/FreeRTOSv10.4.1/FreeRTOS/Source/portable/GCC/ARM_CM4F/portmacro.h ****     #define portDISABLE_INTERRUPTS()                  vPortRaiseBASEPRI()
 103:../../../../dependencies/freertos/FreeRTOSv10.4.1/FreeRTOS/Source/portable/GCC/ARM_CM4F/portmacro.h ****     #define portENABLE_INTERRUPTS()                   vPortSetBASEPRI( 0 )
 104:../../../../dependencies/freertos/FreeRTOSv10.4.1/FreeRTOS/Source/portable/GCC/ARM_CM4F/portmacro.h ****     #define portENTER_CRITICAL()                      vPortEnterCritical()
 105:../../../../dependencies/freertos/FreeRTOSv10.4.1/FreeRTOS/Source/portable/GCC/ARM_CM4F/portmacro.h ****     #define portEXIT_CRITICAL()                       vPortExitCritical()
 106:../../../../dependencies/freertos/FreeRTOSv10.4.1/FreeRTOS/Source/portable/GCC/ARM_CM4F/portmacro.h **** 
 107:../../../../dependencies/freertos/FreeRTOSv10.4.1/FreeRTOS/Source/portable/GCC/ARM_CM4F/portmacro.h **** /*-----------------------------------------------------------*/
 108:../../../../dependencies/freertos/FreeRTOSv10.4.1/FreeRTOS/Source/portable/GCC/ARM_CM4F/portmacro.h **** 
 109:../../../../dependencies/freertos/FreeRTOSv10.4.1/FreeRTOS/Source/portable/GCC/ARM_CM4F/portmacro.h **** /* Task function macros as described on the FreeRTOS.org WEB site.  These are
 110:../../../../dependencies/freertos/FreeRTOSv10.4.1/FreeRTOS/Source/portable/GCC/ARM_CM4F/portmacro.h ****  * not necessary for to use this port.  They are defined so the common demo files
 111:../../../../dependencies/freertos/FreeRTOSv10.4.1/FreeRTOS/Source/portable/GCC/ARM_CM4F/portmacro.h ****  * (which build with all the ports) will build. */
 112:../../../../dependencies/freertos/FreeRTOSv10.4.1/FreeRTOS/Source/portable/GCC/ARM_CM4F/portmacro.h ****     #define portTASK_FUNCTION_PROTO( vFunction, pvParameters )    void vFunction( void * pvParamete
 113:../../../../dependencies/freertos/FreeRTOSv10.4.1/FreeRTOS/Source/portable/GCC/ARM_CM4F/portmacro.h ****     #define portTASK_FUNCTION( vFunction, pvParameters )          void vFunction( void * pvParamete
 114:../../../../dependencies/freertos/FreeRTOSv10.4.1/FreeRTOS/Source/portable/GCC/ARM_CM4F/portmacro.h **** /*-----------------------------------------------------------*/
 115:../../../../dependencies/freertos/FreeRTOSv10.4.1/FreeRTOS/Source/portable/GCC/ARM_CM4F/portmacro.h **** 
 116:../../../../dependencies/freertos/FreeRTOSv10.4.1/FreeRTOS/Source/portable/GCC/ARM_CM4F/portmacro.h **** /* Tickless idle/low power functionality. */
 117:../../../../dependencies/freertos/FreeRTOSv10.4.1/FreeRTOS/Source/portable/GCC/ARM_CM4F/portmacro.h ****     #ifndef portSUPPRESS_TICKS_AND_SLEEP
 118:../../../../dependencies/freertos/FreeRTOSv10.4.1/FreeRTOS/Source/portable/GCC/ARM_CM4F/portmacro.h ****         extern void vPortSuppressTicksAndSleep( TickType_t xExpectedIdleTime );
 119:../../../../dependencies/freertos/FreeRTOSv10.4.1/FreeRTOS/Source/portable/GCC/ARM_CM4F/portmacro.h ****         #define portSUPPRESS_TICKS_AND_SLEEP( xExpectedIdleTime )    vPortSuppressTicksAndSleep( xE
 120:../../../../dependencies/freertos/FreeRTOSv10.4.1/FreeRTOS/Source/portable/GCC/ARM_CM4F/portmacro.h ****     #endif
 121:../../../../dependencies/freertos/FreeRTOSv10.4.1/FreeRTOS/Source/portable/GCC/ARM_CM4F/portmacro.h **** /*-----------------------------------------------------------*/
 122:../../../../dependencies/freertos/FreeRTOSv10.4.1/FreeRTOS/Source/portable/GCC/ARM_CM4F/portmacro.h **** 
 123:../../../../dependencies/freertos/FreeRTOSv10.4.1/FreeRTOS/Source/portable/GCC/ARM_CM4F/portmacro.h **** /* Architecture specific optimisations. */
 124:../../../../dependencies/freertos/FreeRTOSv10.4.1/FreeRTOS/Source/portable/GCC/ARM_CM4F/portmacro.h ****     #ifndef configUSE_PORT_OPTIMISED_TASK_SELECTION
 125:../../../../dependencies/freertos/FreeRTOSv10.4.1/FreeRTOS/Source/portable/GCC/ARM_CM4F/portmacro.h ****         #define configUSE_PORT_OPTIMISED_TASK_SELECTION    1
 126:../../../../dependencies/freertos/FreeRTOSv10.4.1/FreeRTOS/Source/portable/GCC/ARM_CM4F/portmacro.h ****     #endif
 127:../../../../dependencies/freertos/FreeRTOSv10.4.1/FreeRTOS/Source/portable/GCC/ARM_CM4F/portmacro.h **** 
 128:../../../../dependencies/freertos/FreeRTOSv10.4.1/FreeRTOS/Source/portable/GCC/ARM_CM4F/portmacro.h ****     #if configUSE_PORT_OPTIMISED_TASK_SELECTION == 1
 129:../../../../dependencies/freertos/FreeRTOSv10.4.1/FreeRTOS/Source/portable/GCC/ARM_CM4F/portmacro.h **** 
 130:../../../../dependencies/freertos/FreeRTOSv10.4.1/FreeRTOS/Source/portable/GCC/ARM_CM4F/portmacro.h **** /* Generic helper function. */
 131:../../../../dependencies/freertos/FreeRTOSv10.4.1/FreeRTOS/Source/portable/GCC/ARM_CM4F/portmacro.h ****         __attribute__( ( always_inline ) ) static inline uint8_t ucPortCountLeadingZeros( uint32_t 
 132:../../../../dependencies/freertos/FreeRTOSv10.4.1/FreeRTOS/Source/portable/GCC/ARM_CM4F/portmacro.h ****         {
ARM GAS  /var/folders/kj/yzqgq53j3dg15vgwwwwgf5s00000gn/T//ccGgwidk.s 			page 9


 133:../../../../dependencies/freertos/FreeRTOSv10.4.1/FreeRTOS/Source/portable/GCC/ARM_CM4F/portmacro.h ****             uint8_t ucReturn;
 134:../../../../dependencies/freertos/FreeRTOSv10.4.1/FreeRTOS/Source/portable/GCC/ARM_CM4F/portmacro.h **** 
 135:../../../../dependencies/freertos/FreeRTOSv10.4.1/FreeRTOS/Source/portable/GCC/ARM_CM4F/portmacro.h ****             __asm volatile ( "clz %0, %1" : "=r" ( ucReturn ) : "r" ( ulBitmap ) : "memory" );
 136:../../../../dependencies/freertos/FreeRTOSv10.4.1/FreeRTOS/Source/portable/GCC/ARM_CM4F/portmacro.h **** 
 137:../../../../dependencies/freertos/FreeRTOSv10.4.1/FreeRTOS/Source/portable/GCC/ARM_CM4F/portmacro.h ****             return ucReturn;
 138:../../../../dependencies/freertos/FreeRTOSv10.4.1/FreeRTOS/Source/portable/GCC/ARM_CM4F/portmacro.h ****         }
 139:../../../../dependencies/freertos/FreeRTOSv10.4.1/FreeRTOS/Source/portable/GCC/ARM_CM4F/portmacro.h **** 
 140:../../../../dependencies/freertos/FreeRTOSv10.4.1/FreeRTOS/Source/portable/GCC/ARM_CM4F/portmacro.h **** /* Check the configuration. */
 141:../../../../dependencies/freertos/FreeRTOSv10.4.1/FreeRTOS/Source/portable/GCC/ARM_CM4F/portmacro.h ****         #if ( configMAX_PRIORITIES > 32 )
 142:../../../../dependencies/freertos/FreeRTOSv10.4.1/FreeRTOS/Source/portable/GCC/ARM_CM4F/portmacro.h ****             #error configUSE_PORT_OPTIMISED_TASK_SELECTION can only be set to 1 when configMAX_PRIO
 143:../../../../dependencies/freertos/FreeRTOSv10.4.1/FreeRTOS/Source/portable/GCC/ARM_CM4F/portmacro.h ****         #endif
 144:../../../../dependencies/freertos/FreeRTOSv10.4.1/FreeRTOS/Source/portable/GCC/ARM_CM4F/portmacro.h **** 
 145:../../../../dependencies/freertos/FreeRTOSv10.4.1/FreeRTOS/Source/portable/GCC/ARM_CM4F/portmacro.h **** /* Store/clear the ready priorities in a bit map. */
 146:../../../../dependencies/freertos/FreeRTOSv10.4.1/FreeRTOS/Source/portable/GCC/ARM_CM4F/portmacro.h ****         #define portRECORD_READY_PRIORITY( uxPriority, uxReadyPriorities )    ( uxReadyPriorities )
 147:../../../../dependencies/freertos/FreeRTOSv10.4.1/FreeRTOS/Source/portable/GCC/ARM_CM4F/portmacro.h ****         #define portRESET_READY_PRIORITY( uxPriority, uxReadyPriorities )     ( uxReadyPriorities )
 148:../../../../dependencies/freertos/FreeRTOSv10.4.1/FreeRTOS/Source/portable/GCC/ARM_CM4F/portmacro.h **** 
 149:../../../../dependencies/freertos/FreeRTOSv10.4.1/FreeRTOS/Source/portable/GCC/ARM_CM4F/portmacro.h **** /*-----------------------------------------------------------*/
 150:../../../../dependencies/freertos/FreeRTOSv10.4.1/FreeRTOS/Source/portable/GCC/ARM_CM4F/portmacro.h **** 
 151:../../../../dependencies/freertos/FreeRTOSv10.4.1/FreeRTOS/Source/portable/GCC/ARM_CM4F/portmacro.h ****         #define portGET_HIGHEST_PRIORITY( uxTopPriority, uxReadyPriorities )    uxTopPriority = ( 3
 152:../../../../dependencies/freertos/FreeRTOSv10.4.1/FreeRTOS/Source/portable/GCC/ARM_CM4F/portmacro.h **** 
 153:../../../../dependencies/freertos/FreeRTOSv10.4.1/FreeRTOS/Source/portable/GCC/ARM_CM4F/portmacro.h ****     #endif /* configUSE_PORT_OPTIMISED_TASK_SELECTION */
 154:../../../../dependencies/freertos/FreeRTOSv10.4.1/FreeRTOS/Source/portable/GCC/ARM_CM4F/portmacro.h **** 
 155:../../../../dependencies/freertos/FreeRTOSv10.4.1/FreeRTOS/Source/portable/GCC/ARM_CM4F/portmacro.h **** /*-----------------------------------------------------------*/
 156:../../../../dependencies/freertos/FreeRTOSv10.4.1/FreeRTOS/Source/portable/GCC/ARM_CM4F/portmacro.h **** 
 157:../../../../dependencies/freertos/FreeRTOSv10.4.1/FreeRTOS/Source/portable/GCC/ARM_CM4F/portmacro.h ****     #ifdef configASSERT
 158:../../../../dependencies/freertos/FreeRTOSv10.4.1/FreeRTOS/Source/portable/GCC/ARM_CM4F/portmacro.h ****         void vPortValidateInterruptPriority( void );
 159:../../../../dependencies/freertos/FreeRTOSv10.4.1/FreeRTOS/Source/portable/GCC/ARM_CM4F/portmacro.h ****         #define portASSERT_IF_INTERRUPT_PRIORITY_INVALID()    vPortValidateInterruptPriority()
 160:../../../../dependencies/freertos/FreeRTOSv10.4.1/FreeRTOS/Source/portable/GCC/ARM_CM4F/portmacro.h ****     #endif
 161:../../../../dependencies/freertos/FreeRTOSv10.4.1/FreeRTOS/Source/portable/GCC/ARM_CM4F/portmacro.h **** 
 162:../../../../dependencies/freertos/FreeRTOSv10.4.1/FreeRTOS/Source/portable/GCC/ARM_CM4F/portmacro.h **** /* portNOP() is not required by this port. */
 163:../../../../dependencies/freertos/FreeRTOSv10.4.1/FreeRTOS/Source/portable/GCC/ARM_CM4F/portmacro.h ****     #define portNOP()
 164:../../../../dependencies/freertos/FreeRTOSv10.4.1/FreeRTOS/Source/portable/GCC/ARM_CM4F/portmacro.h **** 
 165:../../../../dependencies/freertos/FreeRTOSv10.4.1/FreeRTOS/Source/portable/GCC/ARM_CM4F/portmacro.h ****     #define portINLINE              __inline
 166:../../../../dependencies/freertos/FreeRTOSv10.4.1/FreeRTOS/Source/portable/GCC/ARM_CM4F/portmacro.h **** 
 167:../../../../dependencies/freertos/FreeRTOSv10.4.1/FreeRTOS/Source/portable/GCC/ARM_CM4F/portmacro.h ****     #ifndef portFORCE_INLINE
 168:../../../../dependencies/freertos/FreeRTOSv10.4.1/FreeRTOS/Source/portable/GCC/ARM_CM4F/portmacro.h ****         #define portFORCE_INLINE    inline __attribute__( ( always_inline ) )
 169:../../../../dependencies/freertos/FreeRTOSv10.4.1/FreeRTOS/Source/portable/GCC/ARM_CM4F/portmacro.h ****     #endif
 170:../../../../dependencies/freertos/FreeRTOSv10.4.1/FreeRTOS/Source/portable/GCC/ARM_CM4F/portmacro.h **** 
 171:../../../../dependencies/freertos/FreeRTOSv10.4.1/FreeRTOS/Source/portable/GCC/ARM_CM4F/portmacro.h ****     portFORCE_INLINE static BaseType_t xPortIsInsideInterrupt( void )
 172:../../../../dependencies/freertos/FreeRTOSv10.4.1/FreeRTOS/Source/portable/GCC/ARM_CM4F/portmacro.h ****     {
 173:../../../../dependencies/freertos/FreeRTOSv10.4.1/FreeRTOS/Source/portable/GCC/ARM_CM4F/portmacro.h ****         uint32_t ulCurrentInterrupt;
 174:../../../../dependencies/freertos/FreeRTOSv10.4.1/FreeRTOS/Source/portable/GCC/ARM_CM4F/portmacro.h ****         BaseType_t xReturn;
 175:../../../../dependencies/freertos/FreeRTOSv10.4.1/FreeRTOS/Source/portable/GCC/ARM_CM4F/portmacro.h **** 
 176:../../../../dependencies/freertos/FreeRTOSv10.4.1/FreeRTOS/Source/portable/GCC/ARM_CM4F/portmacro.h ****         /* Obtain the number of the currently executing interrupt. */
 177:../../../../dependencies/freertos/FreeRTOSv10.4.1/FreeRTOS/Source/portable/GCC/ARM_CM4F/portmacro.h ****         __asm volatile ( "mrs %0, ipsr" : "=r" ( ulCurrentInterrupt )::"memory" );
 178:../../../../dependencies/freertos/FreeRTOSv10.4.1/FreeRTOS/Source/portable/GCC/ARM_CM4F/portmacro.h **** 
 179:../../../../dependencies/freertos/FreeRTOSv10.4.1/FreeRTOS/Source/portable/GCC/ARM_CM4F/portmacro.h ****         if( ulCurrentInterrupt == 0 )
 180:../../../../dependencies/freertos/FreeRTOSv10.4.1/FreeRTOS/Source/portable/GCC/ARM_CM4F/portmacro.h ****         {
 181:../../../../dependencies/freertos/FreeRTOSv10.4.1/FreeRTOS/Source/portable/GCC/ARM_CM4F/portmacro.h ****             xReturn = pdFALSE;
 182:../../../../dependencies/freertos/FreeRTOSv10.4.1/FreeRTOS/Source/portable/GCC/ARM_CM4F/portmacro.h ****         }
 183:../../../../dependencies/freertos/FreeRTOSv10.4.1/FreeRTOS/Source/portable/GCC/ARM_CM4F/portmacro.h ****         else
 184:../../../../dependencies/freertos/FreeRTOSv10.4.1/FreeRTOS/Source/portable/GCC/ARM_CM4F/portmacro.h ****         {
 185:../../../../dependencies/freertos/FreeRTOSv10.4.1/FreeRTOS/Source/portable/GCC/ARM_CM4F/portmacro.h ****             xReturn = pdTRUE;
 186:../../../../dependencies/freertos/FreeRTOSv10.4.1/FreeRTOS/Source/portable/GCC/ARM_CM4F/portmacro.h ****         }
 187:../../../../dependencies/freertos/FreeRTOSv10.4.1/FreeRTOS/Source/portable/GCC/ARM_CM4F/portmacro.h **** 
 188:../../../../dependencies/freertos/FreeRTOSv10.4.1/FreeRTOS/Source/portable/GCC/ARM_CM4F/portmacro.h ****         return xReturn;
 189:../../../../dependencies/freertos/FreeRTOSv10.4.1/FreeRTOS/Source/portable/GCC/ARM_CM4F/portmacro.h ****     }
ARM GAS  /var/folders/kj/yzqgq53j3dg15vgwwwwgf5s00000gn/T//ccGgwidk.s 			page 10


 190:../../../../dependencies/freertos/FreeRTOSv10.4.1/FreeRTOS/Source/portable/GCC/ARM_CM4F/portmacro.h **** 
 191:../../../../dependencies/freertos/FreeRTOSv10.4.1/FreeRTOS/Source/portable/GCC/ARM_CM4F/portmacro.h **** /*-----------------------------------------------------------*/
 192:../../../../dependencies/freertos/FreeRTOSv10.4.1/FreeRTOS/Source/portable/GCC/ARM_CM4F/portmacro.h **** 
 193:../../../../dependencies/freertos/FreeRTOSv10.4.1/FreeRTOS/Source/portable/GCC/ARM_CM4F/portmacro.h ****     portFORCE_INLINE static void vPortRaiseBASEPRI( void )
 194:../../../../dependencies/freertos/FreeRTOSv10.4.1/FreeRTOS/Source/portable/GCC/ARM_CM4F/portmacro.h ****     {
 195:../../../../dependencies/freertos/FreeRTOSv10.4.1/FreeRTOS/Source/portable/GCC/ARM_CM4F/portmacro.h ****         uint32_t ulNewBASEPRI;
 196:../../../../dependencies/freertos/FreeRTOSv10.4.1/FreeRTOS/Source/portable/GCC/ARM_CM4F/portmacro.h **** 
 197:../../../../dependencies/freertos/FreeRTOSv10.4.1/FreeRTOS/Source/portable/GCC/ARM_CM4F/portmacro.h ****         __asm volatile
  57              		.loc 2 197 9
  58              		.syntax unified
  59              	@ 197 "../../../../dependencies/freertos/FreeRTOSv10.4.1/FreeRTOS/Source/portable/GCC/ARM_CM4F/port
  60 0014 4FF05003 			mov r3, #80												
  61 0018 83F31188 		msr basepri, r3											
  62 001c BFF36F8F 		isb														
  63 0020 BFF34F8F 		dsb														
  64              	
  65              	@ 0 "" 2
  66              		.thumb
  67              		.syntax unified
  68 0024 BB60     		str	r3, [r7, #8]
 198:../../../../dependencies/freertos/FreeRTOSv10.4.1/FreeRTOS/Source/portable/GCC/ARM_CM4F/portmacro.h ****         (
 199:../../../../dependencies/freertos/FreeRTOSv10.4.1/FreeRTOS/Source/portable/GCC/ARM_CM4F/portmacro.h ****             "	mov %0, %1												\n"\
 200:../../../../dependencies/freertos/FreeRTOSv10.4.1/FreeRTOS/Source/portable/GCC/ARM_CM4F/portmacro.h ****             "	msr basepri, %0											\n"\
 201:../../../../dependencies/freertos/FreeRTOSv10.4.1/FreeRTOS/Source/portable/GCC/ARM_CM4F/portmacro.h ****             "	isb														\n"\
 202:../../../../dependencies/freertos/FreeRTOSv10.4.1/FreeRTOS/Source/portable/GCC/ARM_CM4F/portmacro.h ****             "	dsb														\n"\
 203:../../../../dependencies/freertos/FreeRTOSv10.4.1/FreeRTOS/Source/portable/GCC/ARM_CM4F/portmacro.h ****             : "=r" ( ulNewBASEPRI ) : "i" ( configMAX_SYSCALL_INTERRUPT_PRIORITY ) : "memory"
 204:../../../../dependencies/freertos/FreeRTOSv10.4.1/FreeRTOS/Source/portable/GCC/ARM_CM4F/portmacro.h ****         );
 205:../../../../dependencies/freertos/FreeRTOSv10.4.1/FreeRTOS/Source/portable/GCC/ARM_CM4F/portmacro.h ****     }
  69              		.loc 2 205 5
  70 0026 00BF     		nop
  71              	.L3:
  72              	.LBE112:
  73              	.LBE111:
  74              		.loc 1 269 5 discriminator 1
  75 0028 FEE7     		b	.L3
  76              	.L2:
 270:../../../../dependencies/freertos/FreeRTOSv10.4.1/FreeRTOS/Source/queue.c **** 
 271:../../../../dependencies/freertos/FreeRTOSv10.4.1/FreeRTOS/Source/queue.c ****     taskENTER_CRITICAL();
  77              		.loc 1 271 5
  78 002a FFF7FEFF 		bl	vPortEnterCritical
 272:../../../../dependencies/freertos/FreeRTOSv10.4.1/FreeRTOS/Source/queue.c ****     {
 273:../../../../dependencies/freertos/FreeRTOSv10.4.1/FreeRTOS/Source/queue.c ****         pxQueue->u.xQueue.pcTail = pxQueue->pcHead + ( pxQueue->uxLength * pxQueue->uxItemSize ); /
  79              		.loc 1 273 43
  80 002e FB68     		ldr	r3, [r7, #12]
  81 0030 1A68     		ldr	r2, [r3]
  82              		.loc 1 273 63
  83 0032 FB68     		ldr	r3, [r7, #12]
  84 0034 DB6B     		ldr	r3, [r3, #60]
  85              		.loc 1 273 83
  86 0036 F968     		ldr	r1, [r7, #12]
  87 0038 096C     		ldr	r1, [r1, #64]
  88              		.loc 1 273 74
  89 003a 01FB03F3 		mul	r3, r1, r3
  90              		.loc 1 273 52
  91 003e 1A44     		add	r2, r2, r3
  92              		.loc 1 273 34
  93 0040 FB68     		ldr	r3, [r7, #12]
ARM GAS  /var/folders/kj/yzqgq53j3dg15vgwwwwgf5s00000gn/T//ccGgwidk.s 			page 11


  94 0042 9A60     		str	r2, [r3, #8]
 274:../../../../dependencies/freertos/FreeRTOSv10.4.1/FreeRTOS/Source/queue.c ****         pxQueue->uxMessagesWaiting = ( UBaseType_t ) 0U;
  95              		.loc 1 274 36
  96 0044 FB68     		ldr	r3, [r7, #12]
  97 0046 0022     		movs	r2, #0
  98 0048 9A63     		str	r2, [r3, #56]
 275:../../../../dependencies/freertos/FreeRTOSv10.4.1/FreeRTOS/Source/queue.c ****         pxQueue->pcWriteTo = pxQueue->pcHead;
  99              		.loc 1 275 37
 100 004a FB68     		ldr	r3, [r7, #12]
 101 004c 1A68     		ldr	r2, [r3]
 102              		.loc 1 275 28
 103 004e FB68     		ldr	r3, [r7, #12]
 104 0050 5A60     		str	r2, [r3, #4]
 276:../../../../dependencies/freertos/FreeRTOSv10.4.1/FreeRTOS/Source/queue.c ****         pxQueue->u.xQueue.pcReadFrom = pxQueue->pcHead + ( ( pxQueue->uxLength - 1U ) * pxQueue->ux
 105              		.loc 1 276 47
 106 0052 FB68     		ldr	r3, [r7, #12]
 107 0054 1A68     		ldr	r2, [r3]
 108              		.loc 1 276 69
 109 0056 FB68     		ldr	r3, [r7, #12]
 110 0058 DB6B     		ldr	r3, [r3, #60]
 111              		.loc 1 276 80
 112 005a 013B     		subs	r3, r3, #1
 113              		.loc 1 276 96
 114 005c F968     		ldr	r1, [r7, #12]
 115 005e 096C     		ldr	r1, [r1, #64]
 116              		.loc 1 276 87
 117 0060 01FB03F3 		mul	r3, r1, r3
 118              		.loc 1 276 56
 119 0064 1A44     		add	r2, r2, r3
 120              		.loc 1 276 38
 121 0066 FB68     		ldr	r3, [r7, #12]
 122 0068 DA60     		str	r2, [r3, #12]
 277:../../../../dependencies/freertos/FreeRTOSv10.4.1/FreeRTOS/Source/queue.c ****         pxQueue->cRxLock = queueUNLOCKED;
 123              		.loc 1 277 26
 124 006a FB68     		ldr	r3, [r7, #12]
 125 006c FF22     		movs	r2, #255
 126 006e 83F84420 		strb	r2, [r3, #68]
 278:../../../../dependencies/freertos/FreeRTOSv10.4.1/FreeRTOS/Source/queue.c ****         pxQueue->cTxLock = queueUNLOCKED;
 127              		.loc 1 278 26
 128 0072 FB68     		ldr	r3, [r7, #12]
 129 0074 FF22     		movs	r2, #255
 130 0076 83F84520 		strb	r2, [r3, #69]
 279:../../../../dependencies/freertos/FreeRTOSv10.4.1/FreeRTOS/Source/queue.c **** 
 280:../../../../dependencies/freertos/FreeRTOSv10.4.1/FreeRTOS/Source/queue.c ****         if( xNewQueue == pdFALSE )
 131              		.loc 1 280 11
 132 007a 3B68     		ldr	r3, [r7]
 133 007c 002B     		cmp	r3, #0
 134 007e 14D1     		bne	.L4
 281:../../../../dependencies/freertos/FreeRTOSv10.4.1/FreeRTOS/Source/queue.c ****         {
 282:../../../../dependencies/freertos/FreeRTOSv10.4.1/FreeRTOS/Source/queue.c ****             /* If there are tasks blocked waiting to read from the queue, then
 283:../../../../dependencies/freertos/FreeRTOSv10.4.1/FreeRTOS/Source/queue.c ****              * the tasks will remain blocked as after this function exits the queue
 284:../../../../dependencies/freertos/FreeRTOSv10.4.1/FreeRTOS/Source/queue.c ****              * will still be empty.  If there are tasks blocked waiting to write to
 285:../../../../dependencies/freertos/FreeRTOSv10.4.1/FreeRTOS/Source/queue.c ****              * the queue, then one should be unblocked as after this function exits
 286:../../../../dependencies/freertos/FreeRTOSv10.4.1/FreeRTOS/Source/queue.c ****              * it will be possible to write to it. */
 287:../../../../dependencies/freertos/FreeRTOSv10.4.1/FreeRTOS/Source/queue.c ****             if( listLIST_IS_EMPTY( &( pxQueue->xTasksWaitingToSend ) ) == pdFALSE )
 135              		.loc 1 287 17
 136 0080 FB68     		ldr	r3, [r7, #12]
ARM GAS  /var/folders/kj/yzqgq53j3dg15vgwwwwgf5s00000gn/T//ccGgwidk.s 			page 12


 137 0082 1B69     		ldr	r3, [r3, #16]
 138              		.loc 1 287 15
 139 0084 002B     		cmp	r3, #0
 140 0086 1AD0     		beq	.L5
 288:../../../../dependencies/freertos/FreeRTOSv10.4.1/FreeRTOS/Source/queue.c ****             {
 289:../../../../dependencies/freertos/FreeRTOSv10.4.1/FreeRTOS/Source/queue.c ****                 if( xTaskRemoveFromEventList( &( pxQueue->xTasksWaitingToSend ) ) != pdFALSE )
 141              		.loc 1 289 47
 142 0088 FB68     		ldr	r3, [r7, #12]
 143 008a 1033     		adds	r3, r3, #16
 144              		.loc 1 289 21
 145 008c 1846     		mov	r0, r3
 146 008e FFF7FEFF 		bl	xTaskRemoveFromEventList
 147 0092 0346     		mov	r3, r0
 148              		.loc 1 289 19
 149 0094 002B     		cmp	r3, #0
 150 0096 12D0     		beq	.L5
 290:../../../../dependencies/freertos/FreeRTOSv10.4.1/FreeRTOS/Source/queue.c ****                 {
 291:../../../../dependencies/freertos/FreeRTOSv10.4.1/FreeRTOS/Source/queue.c ****                     queueYIELD_IF_USING_PREEMPTION();
 151              		.loc 1 291 21
 152 0098 0C4B     		ldr	r3, .L7
 153 009a 4FF08052 		mov	r2, #268435456
 154 009e 1A60     		str	r2, [r3]
 155              		.syntax unified
 156              	@ 291 "../../../../dependencies/freertos/FreeRTOSv10.4.1/FreeRTOS/Source/queue.c" 1
 157 00a0 BFF34F8F 		dsb
 158              	@ 0 "" 2
 159              	@ 291 "../../../../dependencies/freertos/FreeRTOSv10.4.1/FreeRTOS/Source/queue.c" 1
 160 00a4 BFF36F8F 		isb
 161              	@ 0 "" 2
 162              		.thumb
 163              		.syntax unified
 164 00a8 09E0     		b	.L5
 165              	.L4:
 292:../../../../dependencies/freertos/FreeRTOSv10.4.1/FreeRTOS/Source/queue.c ****                 }
 293:../../../../dependencies/freertos/FreeRTOSv10.4.1/FreeRTOS/Source/queue.c ****                 else
 294:../../../../dependencies/freertos/FreeRTOSv10.4.1/FreeRTOS/Source/queue.c ****                 {
 295:../../../../dependencies/freertos/FreeRTOSv10.4.1/FreeRTOS/Source/queue.c ****                     mtCOVERAGE_TEST_MARKER();
 296:../../../../dependencies/freertos/FreeRTOSv10.4.1/FreeRTOS/Source/queue.c ****                 }
 297:../../../../dependencies/freertos/FreeRTOSv10.4.1/FreeRTOS/Source/queue.c ****             }
 298:../../../../dependencies/freertos/FreeRTOSv10.4.1/FreeRTOS/Source/queue.c ****             else
 299:../../../../dependencies/freertos/FreeRTOSv10.4.1/FreeRTOS/Source/queue.c ****             {
 300:../../../../dependencies/freertos/FreeRTOSv10.4.1/FreeRTOS/Source/queue.c ****                 mtCOVERAGE_TEST_MARKER();
 301:../../../../dependencies/freertos/FreeRTOSv10.4.1/FreeRTOS/Source/queue.c ****             }
 302:../../../../dependencies/freertos/FreeRTOSv10.4.1/FreeRTOS/Source/queue.c ****         }
 303:../../../../dependencies/freertos/FreeRTOSv10.4.1/FreeRTOS/Source/queue.c ****         else
 304:../../../../dependencies/freertos/FreeRTOSv10.4.1/FreeRTOS/Source/queue.c ****         {
 305:../../../../dependencies/freertos/FreeRTOSv10.4.1/FreeRTOS/Source/queue.c ****             /* Ensure the event queues start in the correct state. */
 306:../../../../dependencies/freertos/FreeRTOSv10.4.1/FreeRTOS/Source/queue.c ****             vListInitialise( &( pxQueue->xTasksWaitingToSend ) );
 166              		.loc 1 306 13
 167 00aa FB68     		ldr	r3, [r7, #12]
 168 00ac 1033     		adds	r3, r3, #16
 169 00ae 1846     		mov	r0, r3
 170 00b0 FFF7FEFF 		bl	vListInitialise
 307:../../../../dependencies/freertos/FreeRTOSv10.4.1/FreeRTOS/Source/queue.c ****             vListInitialise( &( pxQueue->xTasksWaitingToReceive ) );
 171              		.loc 1 307 13
 172 00b4 FB68     		ldr	r3, [r7, #12]
 173 00b6 2433     		adds	r3, r3, #36
ARM GAS  /var/folders/kj/yzqgq53j3dg15vgwwwwgf5s00000gn/T//ccGgwidk.s 			page 13


 174 00b8 1846     		mov	r0, r3
 175 00ba FFF7FEFF 		bl	vListInitialise
 176              	.L5:
 308:../../../../dependencies/freertos/FreeRTOSv10.4.1/FreeRTOS/Source/queue.c ****         }
 309:../../../../dependencies/freertos/FreeRTOSv10.4.1/FreeRTOS/Source/queue.c ****     }
 310:../../../../dependencies/freertos/FreeRTOSv10.4.1/FreeRTOS/Source/queue.c ****     taskEXIT_CRITICAL();
 177              		.loc 1 310 5
 178 00be FFF7FEFF 		bl	vPortExitCritical
 311:../../../../dependencies/freertos/FreeRTOSv10.4.1/FreeRTOS/Source/queue.c **** 
 312:../../../../dependencies/freertos/FreeRTOSv10.4.1/FreeRTOS/Source/queue.c ****     /* A value is returned for calling semantic consistency with previous
 313:../../../../dependencies/freertos/FreeRTOSv10.4.1/FreeRTOS/Source/queue.c ****      * versions. */
 314:../../../../dependencies/freertos/FreeRTOSv10.4.1/FreeRTOS/Source/queue.c ****     return pdPASS;
 179              		.loc 1 314 12
 180 00c2 0123     		movs	r3, #1
 315:../../../../dependencies/freertos/FreeRTOSv10.4.1/FreeRTOS/Source/queue.c **** }
 181              		.loc 1 315 1
 182 00c4 1846     		mov	r0, r3
 183 00c6 1037     		adds	r7, r7, #16
 184              	.LCFI3:
 185              		.cfi_def_cfa_offset 8
 186 00c8 BD46     		mov	sp, r7
 187              	.LCFI4:
 188              		.cfi_def_cfa_register 13
 189              		@ sp needed
 190 00ca 80BD     		pop	{r7, pc}
 191              	.L8:
 192              		.align	2
 193              	.L7:
 194 00cc 04ED00E0 		.word	-536810236
 195              		.cfi_endproc
 196              	.LFE5:
 198              		.section	.text.xQueueGenericCreate,"ax",%progbits
 199              		.align	1
 200              		.global	xQueueGenericCreate
 201              		.syntax unified
 202              		.thumb
 203              		.thumb_func
 204              		.fpu fpv4-sp-d16
 206              	xQueueGenericCreate:
 207              	.LFB6:
 316:../../../../dependencies/freertos/FreeRTOSv10.4.1/FreeRTOS/Source/queue.c **** /*-----------------------------------------------------------*/
 317:../../../../dependencies/freertos/FreeRTOSv10.4.1/FreeRTOS/Source/queue.c **** 
 318:../../../../dependencies/freertos/FreeRTOSv10.4.1/FreeRTOS/Source/queue.c **** #if ( configSUPPORT_STATIC_ALLOCATION == 1 )
 319:../../../../dependencies/freertos/FreeRTOSv10.4.1/FreeRTOS/Source/queue.c **** 
 320:../../../../dependencies/freertos/FreeRTOSv10.4.1/FreeRTOS/Source/queue.c ****     QueueHandle_t xQueueGenericCreateStatic( const UBaseType_t uxQueueLength,
 321:../../../../dependencies/freertos/FreeRTOSv10.4.1/FreeRTOS/Source/queue.c ****                                              const UBaseType_t uxItemSize,
 322:../../../../dependencies/freertos/FreeRTOSv10.4.1/FreeRTOS/Source/queue.c ****                                              uint8_t * pucQueueStorage,
 323:../../../../dependencies/freertos/FreeRTOSv10.4.1/FreeRTOS/Source/queue.c ****                                              StaticQueue_t * pxStaticQueue,
 324:../../../../dependencies/freertos/FreeRTOSv10.4.1/FreeRTOS/Source/queue.c ****                                              const uint8_t ucQueueType )
 325:../../../../dependencies/freertos/FreeRTOSv10.4.1/FreeRTOS/Source/queue.c ****     {
 326:../../../../dependencies/freertos/FreeRTOSv10.4.1/FreeRTOS/Source/queue.c ****         Queue_t * pxNewQueue;
 327:../../../../dependencies/freertos/FreeRTOSv10.4.1/FreeRTOS/Source/queue.c **** 
 328:../../../../dependencies/freertos/FreeRTOSv10.4.1/FreeRTOS/Source/queue.c ****         configASSERT( uxQueueLength > ( UBaseType_t ) 0 );
 329:../../../../dependencies/freertos/FreeRTOSv10.4.1/FreeRTOS/Source/queue.c **** 
 330:../../../../dependencies/freertos/FreeRTOSv10.4.1/FreeRTOS/Source/queue.c ****         /* The StaticQueue_t structure and the queue storage area must be
 331:../../../../dependencies/freertos/FreeRTOSv10.4.1/FreeRTOS/Source/queue.c ****          * supplied. */
 332:../../../../dependencies/freertos/FreeRTOSv10.4.1/FreeRTOS/Source/queue.c ****         configASSERT( pxStaticQueue != NULL );
ARM GAS  /var/folders/kj/yzqgq53j3dg15vgwwwwgf5s00000gn/T//ccGgwidk.s 			page 14


 333:../../../../dependencies/freertos/FreeRTOSv10.4.1/FreeRTOS/Source/queue.c **** 
 334:../../../../dependencies/freertos/FreeRTOSv10.4.1/FreeRTOS/Source/queue.c ****         /* A queue storage area should be provided if the item size is not 0, and
 335:../../../../dependencies/freertos/FreeRTOSv10.4.1/FreeRTOS/Source/queue.c ****          * should not be provided if the item size is 0. */
 336:../../../../dependencies/freertos/FreeRTOSv10.4.1/FreeRTOS/Source/queue.c ****         configASSERT( !( ( pucQueueStorage != NULL ) && ( uxItemSize == 0 ) ) );
 337:../../../../dependencies/freertos/FreeRTOSv10.4.1/FreeRTOS/Source/queue.c ****         configASSERT( !( ( pucQueueStorage == NULL ) && ( uxItemSize != 0 ) ) );
 338:../../../../dependencies/freertos/FreeRTOSv10.4.1/FreeRTOS/Source/queue.c **** 
 339:../../../../dependencies/freertos/FreeRTOSv10.4.1/FreeRTOS/Source/queue.c ****         #if ( configASSERT_DEFINED == 1 )
 340:../../../../dependencies/freertos/FreeRTOSv10.4.1/FreeRTOS/Source/queue.c ****             {
 341:../../../../dependencies/freertos/FreeRTOSv10.4.1/FreeRTOS/Source/queue.c ****                 /* Sanity check that the size of the structure used to declare a
 342:../../../../dependencies/freertos/FreeRTOSv10.4.1/FreeRTOS/Source/queue.c ****                  * variable of type StaticQueue_t or StaticSemaphore_t equals the size of
 343:../../../../dependencies/freertos/FreeRTOSv10.4.1/FreeRTOS/Source/queue.c ****                  * the real queue and semaphore structures. */
 344:../../../../dependencies/freertos/FreeRTOSv10.4.1/FreeRTOS/Source/queue.c ****                 volatile size_t xSize = sizeof( StaticQueue_t );
 345:../../../../dependencies/freertos/FreeRTOSv10.4.1/FreeRTOS/Source/queue.c ****                 configASSERT( xSize == sizeof( Queue_t ) );
 346:../../../../dependencies/freertos/FreeRTOSv10.4.1/FreeRTOS/Source/queue.c ****                 ( void ) xSize; /* Keeps lint quiet when configASSERT() is not defined. */
 347:../../../../dependencies/freertos/FreeRTOSv10.4.1/FreeRTOS/Source/queue.c ****             }
 348:../../../../dependencies/freertos/FreeRTOSv10.4.1/FreeRTOS/Source/queue.c ****         #endif /* configASSERT_DEFINED */
 349:../../../../dependencies/freertos/FreeRTOSv10.4.1/FreeRTOS/Source/queue.c **** 
 350:../../../../dependencies/freertos/FreeRTOSv10.4.1/FreeRTOS/Source/queue.c ****         /* The address of a statically allocated queue was passed in, use it.
 351:../../../../dependencies/freertos/FreeRTOSv10.4.1/FreeRTOS/Source/queue.c ****          * The address of a statically allocated storage area was also passed in
 352:../../../../dependencies/freertos/FreeRTOSv10.4.1/FreeRTOS/Source/queue.c ****          * but is already set. */
 353:../../../../dependencies/freertos/FreeRTOSv10.4.1/FreeRTOS/Source/queue.c ****         pxNewQueue = ( Queue_t * ) pxStaticQueue; /*lint !e740 !e9087 Unusual cast is ok as the str
 354:../../../../dependencies/freertos/FreeRTOSv10.4.1/FreeRTOS/Source/queue.c **** 
 355:../../../../dependencies/freertos/FreeRTOSv10.4.1/FreeRTOS/Source/queue.c ****         if( pxNewQueue != NULL )
 356:../../../../dependencies/freertos/FreeRTOSv10.4.1/FreeRTOS/Source/queue.c ****         {
 357:../../../../dependencies/freertos/FreeRTOSv10.4.1/FreeRTOS/Source/queue.c ****             #if ( configSUPPORT_DYNAMIC_ALLOCATION == 1 )
 358:../../../../dependencies/freertos/FreeRTOSv10.4.1/FreeRTOS/Source/queue.c ****                 {
 359:../../../../dependencies/freertos/FreeRTOSv10.4.1/FreeRTOS/Source/queue.c ****                     /* Queues can be allocated wither statically or dynamically, so
 360:../../../../dependencies/freertos/FreeRTOSv10.4.1/FreeRTOS/Source/queue.c ****                      * note this queue was allocated statically in case the queue is
 361:../../../../dependencies/freertos/FreeRTOSv10.4.1/FreeRTOS/Source/queue.c ****                      * later deleted. */
 362:../../../../dependencies/freertos/FreeRTOSv10.4.1/FreeRTOS/Source/queue.c ****                     pxNewQueue->ucStaticallyAllocated = pdTRUE;
 363:../../../../dependencies/freertos/FreeRTOSv10.4.1/FreeRTOS/Source/queue.c ****                 }
 364:../../../../dependencies/freertos/FreeRTOSv10.4.1/FreeRTOS/Source/queue.c ****             #endif /* configSUPPORT_DYNAMIC_ALLOCATION */
 365:../../../../dependencies/freertos/FreeRTOSv10.4.1/FreeRTOS/Source/queue.c **** 
 366:../../../../dependencies/freertos/FreeRTOSv10.4.1/FreeRTOS/Source/queue.c ****             prvInitialiseNewQueue( uxQueueLength, uxItemSize, pucQueueStorage, ucQueueType, pxNewQu
 367:../../../../dependencies/freertos/FreeRTOSv10.4.1/FreeRTOS/Source/queue.c ****         }
 368:../../../../dependencies/freertos/FreeRTOSv10.4.1/FreeRTOS/Source/queue.c ****         else
 369:../../../../dependencies/freertos/FreeRTOSv10.4.1/FreeRTOS/Source/queue.c ****         {
 370:../../../../dependencies/freertos/FreeRTOSv10.4.1/FreeRTOS/Source/queue.c ****             traceQUEUE_CREATE_FAILED( ucQueueType );
 371:../../../../dependencies/freertos/FreeRTOSv10.4.1/FreeRTOS/Source/queue.c ****             mtCOVERAGE_TEST_MARKER();
 372:../../../../dependencies/freertos/FreeRTOSv10.4.1/FreeRTOS/Source/queue.c ****         }
 373:../../../../dependencies/freertos/FreeRTOSv10.4.1/FreeRTOS/Source/queue.c **** 
 374:../../../../dependencies/freertos/FreeRTOSv10.4.1/FreeRTOS/Source/queue.c ****         return pxNewQueue;
 375:../../../../dependencies/freertos/FreeRTOSv10.4.1/FreeRTOS/Source/queue.c ****     }
 376:../../../../dependencies/freertos/FreeRTOSv10.4.1/FreeRTOS/Source/queue.c **** 
 377:../../../../dependencies/freertos/FreeRTOSv10.4.1/FreeRTOS/Source/queue.c **** #endif /* configSUPPORT_STATIC_ALLOCATION */
 378:../../../../dependencies/freertos/FreeRTOSv10.4.1/FreeRTOS/Source/queue.c **** /*-----------------------------------------------------------*/
 379:../../../../dependencies/freertos/FreeRTOSv10.4.1/FreeRTOS/Source/queue.c **** 
 380:../../../../dependencies/freertos/FreeRTOSv10.4.1/FreeRTOS/Source/queue.c **** #if ( configSUPPORT_DYNAMIC_ALLOCATION == 1 )
 381:../../../../dependencies/freertos/FreeRTOSv10.4.1/FreeRTOS/Source/queue.c **** 
 382:../../../../dependencies/freertos/FreeRTOSv10.4.1/FreeRTOS/Source/queue.c ****     QueueHandle_t xQueueGenericCreate( const UBaseType_t uxQueueLength,
 383:../../../../dependencies/freertos/FreeRTOSv10.4.1/FreeRTOS/Source/queue.c ****                                        const UBaseType_t uxItemSize,
 384:../../../../dependencies/freertos/FreeRTOSv10.4.1/FreeRTOS/Source/queue.c ****                                        const uint8_t ucQueueType )
 385:../../../../dependencies/freertos/FreeRTOSv10.4.1/FreeRTOS/Source/queue.c ****     {
 208              		.loc 1 385 5
 209              		.cfi_startproc
 210              		@ args = 0, pretend = 0, frame = 40
 211              		@ frame_needed = 1, uses_anonymous_args = 0
ARM GAS  /var/folders/kj/yzqgq53j3dg15vgwwwwgf5s00000gn/T//ccGgwidk.s 			page 15


 212 0000 80B5     		push	{r7, lr}
 213              	.LCFI5:
 214              		.cfi_def_cfa_offset 8
 215              		.cfi_offset 7, -8
 216              		.cfi_offset 14, -4
 217 0002 8CB0     		sub	sp, sp, #48
 218              	.LCFI6:
 219              		.cfi_def_cfa_offset 56
 220 0004 02AF     		add	r7, sp, #8
 221              	.LCFI7:
 222              		.cfi_def_cfa 7, 48
 223 0006 F860     		str	r0, [r7, #12]
 224 0008 B960     		str	r1, [r7, #8]
 225 000a 1346     		mov	r3, r2
 226 000c FB71     		strb	r3, [r7, #7]
 386:../../../../dependencies/freertos/FreeRTOSv10.4.1/FreeRTOS/Source/queue.c ****         Queue_t * pxNewQueue;
 387:../../../../dependencies/freertos/FreeRTOSv10.4.1/FreeRTOS/Source/queue.c ****         size_t xQueueSizeInBytes;
 388:../../../../dependencies/freertos/FreeRTOSv10.4.1/FreeRTOS/Source/queue.c ****         uint8_t * pucQueueStorage;
 389:../../../../dependencies/freertos/FreeRTOSv10.4.1/FreeRTOS/Source/queue.c **** 
 390:../../../../dependencies/freertos/FreeRTOSv10.4.1/FreeRTOS/Source/queue.c ****         configASSERT( uxQueueLength > ( UBaseType_t ) 0 );
 227              		.loc 1 390 9
 228 000e FB68     		ldr	r3, [r7, #12]
 229 0010 002B     		cmp	r3, #0
 230 0012 0AD1     		bne	.L10
 231              	.LBB113:
 232              	.LBB114:
 197:../../../../dependencies/freertos/FreeRTOSv10.4.1/FreeRTOS/Source/portable/GCC/ARM_CM4F/portmacro.h ****         (
 233              		.loc 2 197 9
 234              		.syntax unified
 235              	@ 197 "../../../../dependencies/freertos/FreeRTOSv10.4.1/FreeRTOS/Source/portable/GCC/ARM_CM4F/port
 236 0014 4FF05003 			mov r3, #80												
 237 0018 83F31188 		msr basepri, r3											
 238 001c BFF36F8F 		isb														
 239 0020 BFF34F8F 		dsb														
 240              	
 241              	@ 0 "" 2
 242              		.thumb
 243              		.syntax unified
 244 0024 BB61     		str	r3, [r7, #24]
 245              		.loc 2 205 5
 246 0026 00BF     		nop
 247              	.L11:
 248              	.LBE114:
 249              	.LBE113:
 250              		.loc 1 390 9 discriminator 1
 251 0028 FEE7     		b	.L11
 252              	.L10:
 391:../../../../dependencies/freertos/FreeRTOSv10.4.1/FreeRTOS/Source/queue.c **** 
 392:../../../../dependencies/freertos/FreeRTOSv10.4.1/FreeRTOS/Source/queue.c ****         /* Allocate enough space to hold the maximum number of items that
 393:../../../../dependencies/freertos/FreeRTOSv10.4.1/FreeRTOS/Source/queue.c ****          * can be in the queue at any time.  It is valid for uxItemSize to be
 394:../../../../dependencies/freertos/FreeRTOSv10.4.1/FreeRTOS/Source/queue.c ****          * zero in the case the queue is used as a semaphore. */
 395:../../../../dependencies/freertos/FreeRTOSv10.4.1/FreeRTOS/Source/queue.c ****         xQueueSizeInBytes = ( size_t ) ( uxQueueLength * uxItemSize ); /*lint !e961 MISRA exception
 253              		.loc 1 395 27
 254 002a FB68     		ldr	r3, [r7, #12]
 255 002c BA68     		ldr	r2, [r7, #8]
 256 002e 02FB03F3 		mul	r3, r2, r3
 257 0032 7B62     		str	r3, [r7, #36]
ARM GAS  /var/folders/kj/yzqgq53j3dg15vgwwwwgf5s00000gn/T//ccGgwidk.s 			page 16


 396:../../../../dependencies/freertos/FreeRTOSv10.4.1/FreeRTOS/Source/queue.c **** 
 397:../../../../dependencies/freertos/FreeRTOSv10.4.1/FreeRTOS/Source/queue.c ****         /* Check for multiplication overflow. */
 398:../../../../dependencies/freertos/FreeRTOSv10.4.1/FreeRTOS/Source/queue.c ****         configASSERT( ( uxItemSize == 0 ) || ( uxQueueLength == ( xQueueSizeInBytes / uxItemSize ) 
 258              		.loc 1 398 9
 259 0034 BB68     		ldr	r3, [r7, #8]
 260 0036 002B     		cmp	r3, #0
 261 0038 06D0     		beq	.L12
 262              		.loc 1 398 9 is_stmt 0 discriminator 2
 263 003a 7A6A     		ldr	r2, [r7, #36]
 264 003c BB68     		ldr	r3, [r7, #8]
 265 003e B2FBF3F3 		udiv	r3, r2, r3
 266 0042 FA68     		ldr	r2, [r7, #12]
 267 0044 9A42     		cmp	r2, r3
 268 0046 01D1     		bne	.L13
 269              	.L12:
 270              		.loc 1 398 9 discriminator 3
 271 0048 0123     		movs	r3, #1
 272 004a 00E0     		b	.L14
 273              	.L13:
 274              		.loc 1 398 9 discriminator 4
 275 004c 0023     		movs	r3, #0
 276              	.L14:
 277              		.loc 1 398 9 discriminator 6
 278 004e 002B     		cmp	r3, #0
 279 0050 0AD1     		bne	.L15
 280              	.LBB115:
 281              	.LBB116:
 197:../../../../dependencies/freertos/FreeRTOSv10.4.1/FreeRTOS/Source/portable/GCC/ARM_CM4F/portmacro.h ****         (
 282              		.loc 2 197 9 is_stmt 1
 283              		.syntax unified
 284              	@ 197 "../../../../dependencies/freertos/FreeRTOSv10.4.1/FreeRTOS/Source/portable/GCC/ARM_CM4F/port
 285 0052 4FF05003 			mov r3, #80												
 286 0056 83F31188 		msr basepri, r3											
 287 005a BFF36F8F 		isb														
 288 005e BFF34F8F 		dsb														
 289              	
 290              	@ 0 "" 2
 291              		.thumb
 292              		.syntax unified
 293 0062 7B61     		str	r3, [r7, #20]
 294              		.loc 2 205 5
 295 0064 00BF     		nop
 296              	.L16:
 297              	.LBE116:
 298              	.LBE115:
 299              		.loc 1 398 9 discriminator 2
 300 0066 FEE7     		b	.L16
 301              	.L15:
 399:../../../../dependencies/freertos/FreeRTOSv10.4.1/FreeRTOS/Source/queue.c **** 
 400:../../../../dependencies/freertos/FreeRTOSv10.4.1/FreeRTOS/Source/queue.c ****         /* Allocate the queue and storage area.  Justification for MISRA
 401:../../../../dependencies/freertos/FreeRTOSv10.4.1/FreeRTOS/Source/queue.c ****          * deviation as follows:  pvPortMalloc() always ensures returned memory
 402:../../../../dependencies/freertos/FreeRTOSv10.4.1/FreeRTOS/Source/queue.c ****          * blocks are aligned per the requirements of the MCU stack.  In this case
 403:../../../../dependencies/freertos/FreeRTOSv10.4.1/FreeRTOS/Source/queue.c ****          * pvPortMalloc() must return a pointer that is guaranteed to meet the
 404:../../../../dependencies/freertos/FreeRTOSv10.4.1/FreeRTOS/Source/queue.c ****          * alignment requirements of the Queue_t structure - which in this case
 405:../../../../dependencies/freertos/FreeRTOSv10.4.1/FreeRTOS/Source/queue.c ****          * is an int8_t *.  Therefore, whenever the stack alignment requirements
 406:../../../../dependencies/freertos/FreeRTOSv10.4.1/FreeRTOS/Source/queue.c ****          * are greater than or equal to the pointer to char requirements the cast
 407:../../../../dependencies/freertos/FreeRTOSv10.4.1/FreeRTOS/Source/queue.c ****          * is safe.  In other cases alignment requirements are not strict (one or
ARM GAS  /var/folders/kj/yzqgq53j3dg15vgwwwwgf5s00000gn/T//ccGgwidk.s 			page 17


 408:../../../../dependencies/freertos/FreeRTOSv10.4.1/FreeRTOS/Source/queue.c ****          * two bytes). */
 409:../../../../dependencies/freertos/FreeRTOSv10.4.1/FreeRTOS/Source/queue.c ****         pxNewQueue = ( Queue_t * ) pvPortMalloc( sizeof( Queue_t ) + xQueueSizeInBytes ); /*lint !e
 302              		.loc 1 409 36
 303 0068 7B6A     		ldr	r3, [r7, #36]
 304 006a 5033     		adds	r3, r3, #80
 305 006c 1846     		mov	r0, r3
 306 006e FFF7FEFF 		bl	pvPortMalloc
 307 0072 3862     		str	r0, [r7, #32]
 410:../../../../dependencies/freertos/FreeRTOSv10.4.1/FreeRTOS/Source/queue.c **** 
 411:../../../../dependencies/freertos/FreeRTOSv10.4.1/FreeRTOS/Source/queue.c ****         if( pxNewQueue != NULL )
 308              		.loc 1 411 11
 309 0074 3B6A     		ldr	r3, [r7, #32]
 310 0076 002B     		cmp	r3, #0
 311 0078 0DD0     		beq	.L17
 412:../../../../dependencies/freertos/FreeRTOSv10.4.1/FreeRTOS/Source/queue.c ****         {
 413:../../../../dependencies/freertos/FreeRTOSv10.4.1/FreeRTOS/Source/queue.c ****             /* Jump past the queue structure to find the location of the queue
 414:../../../../dependencies/freertos/FreeRTOSv10.4.1/FreeRTOS/Source/queue.c ****              * storage area. */
 415:../../../../dependencies/freertos/FreeRTOSv10.4.1/FreeRTOS/Source/queue.c ****             pucQueueStorage = ( uint8_t * ) pxNewQueue;
 312              		.loc 1 415 29
 313 007a 3B6A     		ldr	r3, [r7, #32]
 314 007c FB61     		str	r3, [r7, #28]
 416:../../../../dependencies/freertos/FreeRTOSv10.4.1/FreeRTOS/Source/queue.c ****             pucQueueStorage += sizeof( Queue_t ); /*lint !e9016 Pointer arithmetic allowed on char 
 315              		.loc 1 416 29
 316 007e FB69     		ldr	r3, [r7, #28]
 317 0080 5033     		adds	r3, r3, #80
 318 0082 FB61     		str	r3, [r7, #28]
 417:../../../../dependencies/freertos/FreeRTOSv10.4.1/FreeRTOS/Source/queue.c **** 
 418:../../../../dependencies/freertos/FreeRTOSv10.4.1/FreeRTOS/Source/queue.c ****             #if ( configSUPPORT_STATIC_ALLOCATION == 1 )
 419:../../../../dependencies/freertos/FreeRTOSv10.4.1/FreeRTOS/Source/queue.c ****                 {
 420:../../../../dependencies/freertos/FreeRTOSv10.4.1/FreeRTOS/Source/queue.c ****                     /* Queues can be created either statically or dynamically, so
 421:../../../../dependencies/freertos/FreeRTOSv10.4.1/FreeRTOS/Source/queue.c ****                      * note this task was created dynamically in case it is later
 422:../../../../dependencies/freertos/FreeRTOSv10.4.1/FreeRTOS/Source/queue.c ****                      * deleted. */
 423:../../../../dependencies/freertos/FreeRTOSv10.4.1/FreeRTOS/Source/queue.c ****                     pxNewQueue->ucStaticallyAllocated = pdFALSE;
 424:../../../../dependencies/freertos/FreeRTOSv10.4.1/FreeRTOS/Source/queue.c ****                 }
 425:../../../../dependencies/freertos/FreeRTOSv10.4.1/FreeRTOS/Source/queue.c ****             #endif /* configSUPPORT_STATIC_ALLOCATION */
 426:../../../../dependencies/freertos/FreeRTOSv10.4.1/FreeRTOS/Source/queue.c **** 
 427:../../../../dependencies/freertos/FreeRTOSv10.4.1/FreeRTOS/Source/queue.c ****             prvInitialiseNewQueue( uxQueueLength, uxItemSize, pucQueueStorage, ucQueueType, pxNewQu
 319              		.loc 1 427 13
 320 0084 FA79     		ldrb	r2, [r7, #7]	@ zero_extendqisi2
 321 0086 3B6A     		ldr	r3, [r7, #32]
 322 0088 0093     		str	r3, [sp]
 323 008a 1346     		mov	r3, r2
 324 008c FA69     		ldr	r2, [r7, #28]
 325 008e B968     		ldr	r1, [r7, #8]
 326 0090 F868     		ldr	r0, [r7, #12]
 327 0092 FFF7FEFF 		bl	prvInitialiseNewQueue
 328              	.L17:
 428:../../../../dependencies/freertos/FreeRTOSv10.4.1/FreeRTOS/Source/queue.c ****         }
 429:../../../../dependencies/freertos/FreeRTOSv10.4.1/FreeRTOS/Source/queue.c ****         else
 430:../../../../dependencies/freertos/FreeRTOSv10.4.1/FreeRTOS/Source/queue.c ****         {
 431:../../../../dependencies/freertos/FreeRTOSv10.4.1/FreeRTOS/Source/queue.c ****             traceQUEUE_CREATE_FAILED( ucQueueType );
 432:../../../../dependencies/freertos/FreeRTOSv10.4.1/FreeRTOS/Source/queue.c ****             mtCOVERAGE_TEST_MARKER();
 433:../../../../dependencies/freertos/FreeRTOSv10.4.1/FreeRTOS/Source/queue.c ****         }
 434:../../../../dependencies/freertos/FreeRTOSv10.4.1/FreeRTOS/Source/queue.c **** 
 435:../../../../dependencies/freertos/FreeRTOSv10.4.1/FreeRTOS/Source/queue.c ****         return pxNewQueue;
 329              		.loc 1 435 16
 330 0096 3B6A     		ldr	r3, [r7, #32]
ARM GAS  /var/folders/kj/yzqgq53j3dg15vgwwwwgf5s00000gn/T//ccGgwidk.s 			page 18


 436:../../../../dependencies/freertos/FreeRTOSv10.4.1/FreeRTOS/Source/queue.c ****     }
 331              		.loc 1 436 5
 332 0098 1846     		mov	r0, r3
 333 009a 2837     		adds	r7, r7, #40
 334              	.LCFI8:
 335              		.cfi_def_cfa_offset 8
 336 009c BD46     		mov	sp, r7
 337              	.LCFI9:
 338              		.cfi_def_cfa_register 13
 339              		@ sp needed
 340 009e 80BD     		pop	{r7, pc}
 341              		.cfi_endproc
 342              	.LFE6:
 344              		.section	.text.prvInitialiseNewQueue,"ax",%progbits
 345              		.align	1
 346              		.syntax unified
 347              		.thumb
 348              		.thumb_func
 349              		.fpu fpv4-sp-d16
 351              	prvInitialiseNewQueue:
 352              	.LFB7:
 437:../../../../dependencies/freertos/FreeRTOSv10.4.1/FreeRTOS/Source/queue.c **** 
 438:../../../../dependencies/freertos/FreeRTOSv10.4.1/FreeRTOS/Source/queue.c **** #endif /* configSUPPORT_STATIC_ALLOCATION */
 439:../../../../dependencies/freertos/FreeRTOSv10.4.1/FreeRTOS/Source/queue.c **** /*-----------------------------------------------------------*/
 440:../../../../dependencies/freertos/FreeRTOSv10.4.1/FreeRTOS/Source/queue.c **** 
 441:../../../../dependencies/freertos/FreeRTOSv10.4.1/FreeRTOS/Source/queue.c **** static void prvInitialiseNewQueue( const UBaseType_t uxQueueLength,
 442:../../../../dependencies/freertos/FreeRTOSv10.4.1/FreeRTOS/Source/queue.c ****                                    const UBaseType_t uxItemSize,
 443:../../../../dependencies/freertos/FreeRTOSv10.4.1/FreeRTOS/Source/queue.c ****                                    uint8_t * pucQueueStorage,
 444:../../../../dependencies/freertos/FreeRTOSv10.4.1/FreeRTOS/Source/queue.c ****                                    const uint8_t ucQueueType,
 445:../../../../dependencies/freertos/FreeRTOSv10.4.1/FreeRTOS/Source/queue.c ****                                    Queue_t * pxNewQueue )
 446:../../../../dependencies/freertos/FreeRTOSv10.4.1/FreeRTOS/Source/queue.c **** {
 353              		.loc 1 446 1
 354              		.cfi_startproc
 355              		@ args = 4, pretend = 0, frame = 16
 356              		@ frame_needed = 1, uses_anonymous_args = 0
 357 0000 80B5     		push	{r7, lr}
 358              	.LCFI10:
 359              		.cfi_def_cfa_offset 8
 360              		.cfi_offset 7, -8
 361              		.cfi_offset 14, -4
 362 0002 84B0     		sub	sp, sp, #16
 363              	.LCFI11:
 364              		.cfi_def_cfa_offset 24
 365 0004 00AF     		add	r7, sp, #0
 366              	.LCFI12:
 367              		.cfi_def_cfa_register 7
 368 0006 F860     		str	r0, [r7, #12]
 369 0008 B960     		str	r1, [r7, #8]
 370 000a 7A60     		str	r2, [r7, #4]
 371 000c FB70     		strb	r3, [r7, #3]
 447:../../../../dependencies/freertos/FreeRTOSv10.4.1/FreeRTOS/Source/queue.c ****     /* Remove compiler warnings about unused parameters should
 448:../../../../dependencies/freertos/FreeRTOSv10.4.1/FreeRTOS/Source/queue.c ****      * configUSE_TRACE_FACILITY not be set to 1. */
 449:../../../../dependencies/freertos/FreeRTOSv10.4.1/FreeRTOS/Source/queue.c ****     ( void ) ucQueueType;
 450:../../../../dependencies/freertos/FreeRTOSv10.4.1/FreeRTOS/Source/queue.c **** 
 451:../../../../dependencies/freertos/FreeRTOSv10.4.1/FreeRTOS/Source/queue.c ****     if( uxItemSize == ( UBaseType_t ) 0 )
 372              		.loc 1 451 7
 373 000e BB68     		ldr	r3, [r7, #8]
ARM GAS  /var/folders/kj/yzqgq53j3dg15vgwwwwgf5s00000gn/T//ccGgwidk.s 			page 19


 374 0010 002B     		cmp	r3, #0
 375 0012 03D1     		bne	.L20
 452:../../../../dependencies/freertos/FreeRTOSv10.4.1/FreeRTOS/Source/queue.c ****     {
 453:../../../../dependencies/freertos/FreeRTOSv10.4.1/FreeRTOS/Source/queue.c ****         /* No RAM was allocated for the queue storage area, but PC head cannot
 454:../../../../dependencies/freertos/FreeRTOSv10.4.1/FreeRTOS/Source/queue.c ****          * be set to NULL because NULL is used as a key to say the queue is used as
 455:../../../../dependencies/freertos/FreeRTOSv10.4.1/FreeRTOS/Source/queue.c ****          * a mutex.  Therefore just set pcHead to point to the queue as a benign
 456:../../../../dependencies/freertos/FreeRTOSv10.4.1/FreeRTOS/Source/queue.c ****          * value that is known to be within the memory map. */
 457:../../../../dependencies/freertos/FreeRTOSv10.4.1/FreeRTOS/Source/queue.c ****         pxNewQueue->pcHead = ( int8_t * ) pxNewQueue;
 376              		.loc 1 457 28
 377 0014 BB69     		ldr	r3, [r7, #24]
 378 0016 BA69     		ldr	r2, [r7, #24]
 379 0018 1A60     		str	r2, [r3]
 380 001a 02E0     		b	.L21
 381              	.L20:
 458:../../../../dependencies/freertos/FreeRTOSv10.4.1/FreeRTOS/Source/queue.c ****     }
 459:../../../../dependencies/freertos/FreeRTOSv10.4.1/FreeRTOS/Source/queue.c ****     else
 460:../../../../dependencies/freertos/FreeRTOSv10.4.1/FreeRTOS/Source/queue.c ****     {
 461:../../../../dependencies/freertos/FreeRTOSv10.4.1/FreeRTOS/Source/queue.c ****         /* Set the head to the start of the queue storage area. */
 462:../../../../dependencies/freertos/FreeRTOSv10.4.1/FreeRTOS/Source/queue.c ****         pxNewQueue->pcHead = ( int8_t * ) pucQueueStorage;
 382              		.loc 1 462 28
 383 001c BB69     		ldr	r3, [r7, #24]
 384 001e 7A68     		ldr	r2, [r7, #4]
 385 0020 1A60     		str	r2, [r3]
 386              	.L21:
 463:../../../../dependencies/freertos/FreeRTOSv10.4.1/FreeRTOS/Source/queue.c ****     }
 464:../../../../dependencies/freertos/FreeRTOSv10.4.1/FreeRTOS/Source/queue.c **** 
 465:../../../../dependencies/freertos/FreeRTOSv10.4.1/FreeRTOS/Source/queue.c ****     /* Initialise the queue members as described where the queue type is
 466:../../../../dependencies/freertos/FreeRTOSv10.4.1/FreeRTOS/Source/queue.c ****      * defined. */
 467:../../../../dependencies/freertos/FreeRTOSv10.4.1/FreeRTOS/Source/queue.c ****     pxNewQueue->uxLength = uxQueueLength;
 387              		.loc 1 467 26
 388 0022 BB69     		ldr	r3, [r7, #24]
 389 0024 FA68     		ldr	r2, [r7, #12]
 390 0026 DA63     		str	r2, [r3, #60]
 468:../../../../dependencies/freertos/FreeRTOSv10.4.1/FreeRTOS/Source/queue.c ****     pxNewQueue->uxItemSize = uxItemSize;
 391              		.loc 1 468 28
 392 0028 BB69     		ldr	r3, [r7, #24]
 393 002a BA68     		ldr	r2, [r7, #8]
 394 002c 1A64     		str	r2, [r3, #64]
 469:../../../../dependencies/freertos/FreeRTOSv10.4.1/FreeRTOS/Source/queue.c ****     ( void ) xQueueGenericReset( pxNewQueue, pdTRUE );
 395              		.loc 1 469 14
 396 002e 0121     		movs	r1, #1
 397 0030 B869     		ldr	r0, [r7, #24]
 398 0032 FFF7FEFF 		bl	xQueueGenericReset
 470:../../../../dependencies/freertos/FreeRTOSv10.4.1/FreeRTOS/Source/queue.c **** 
 471:../../../../dependencies/freertos/FreeRTOSv10.4.1/FreeRTOS/Source/queue.c ****     #if ( configUSE_TRACE_FACILITY == 1 )
 472:../../../../dependencies/freertos/FreeRTOSv10.4.1/FreeRTOS/Source/queue.c ****         {
 473:../../../../dependencies/freertos/FreeRTOSv10.4.1/FreeRTOS/Source/queue.c ****             pxNewQueue->ucQueueType = ucQueueType;
 399              		.loc 1 473 37
 400 0036 BB69     		ldr	r3, [r7, #24]
 401 0038 FA78     		ldrb	r2, [r7, #3]
 402 003a 83F84C20 		strb	r2, [r3, #76]
 474:../../../../dependencies/freertos/FreeRTOSv10.4.1/FreeRTOS/Source/queue.c ****         }
 475:../../../../dependencies/freertos/FreeRTOSv10.4.1/FreeRTOS/Source/queue.c ****     #endif /* configUSE_TRACE_FACILITY */
 476:../../../../dependencies/freertos/FreeRTOSv10.4.1/FreeRTOS/Source/queue.c **** 
 477:../../../../dependencies/freertos/FreeRTOSv10.4.1/FreeRTOS/Source/queue.c ****     #if ( configUSE_QUEUE_SETS == 1 )
 478:../../../../dependencies/freertos/FreeRTOSv10.4.1/FreeRTOS/Source/queue.c ****         {
 479:../../../../dependencies/freertos/FreeRTOSv10.4.1/FreeRTOS/Source/queue.c ****             pxNewQueue->pxQueueSetContainer = NULL;
ARM GAS  /var/folders/kj/yzqgq53j3dg15vgwwwwgf5s00000gn/T//ccGgwidk.s 			page 20


 480:../../../../dependencies/freertos/FreeRTOSv10.4.1/FreeRTOS/Source/queue.c ****         }
 481:../../../../dependencies/freertos/FreeRTOSv10.4.1/FreeRTOS/Source/queue.c ****     #endif /* configUSE_QUEUE_SETS */
 482:../../../../dependencies/freertos/FreeRTOSv10.4.1/FreeRTOS/Source/queue.c **** 
 483:../../../../dependencies/freertos/FreeRTOSv10.4.1/FreeRTOS/Source/queue.c ****     traceQUEUE_CREATE( pxNewQueue );
 484:../../../../dependencies/freertos/FreeRTOSv10.4.1/FreeRTOS/Source/queue.c **** }
 403              		.loc 1 484 1
 404 003e 00BF     		nop
 405 0040 1037     		adds	r7, r7, #16
 406              	.LCFI13:
 407              		.cfi_def_cfa_offset 8
 408 0042 BD46     		mov	sp, r7
 409              	.LCFI14:
 410              		.cfi_def_cfa_register 13
 411              		@ sp needed
 412 0044 80BD     		pop	{r7, pc}
 413              		.cfi_endproc
 414              	.LFE7:
 416              		.section	.text.prvInitialiseMutex,"ax",%progbits
 417              		.align	1
 418              		.syntax unified
 419              		.thumb
 420              		.thumb_func
 421              		.fpu fpv4-sp-d16
 423              	prvInitialiseMutex:
 424              	.LFB8:
 485:../../../../dependencies/freertos/FreeRTOSv10.4.1/FreeRTOS/Source/queue.c **** /*-----------------------------------------------------------*/
 486:../../../../dependencies/freertos/FreeRTOSv10.4.1/FreeRTOS/Source/queue.c **** 
 487:../../../../dependencies/freertos/FreeRTOSv10.4.1/FreeRTOS/Source/queue.c **** #if ( configUSE_MUTEXES == 1 )
 488:../../../../dependencies/freertos/FreeRTOSv10.4.1/FreeRTOS/Source/queue.c **** 
 489:../../../../dependencies/freertos/FreeRTOSv10.4.1/FreeRTOS/Source/queue.c ****     static void prvInitialiseMutex( Queue_t * pxNewQueue )
 490:../../../../dependencies/freertos/FreeRTOSv10.4.1/FreeRTOS/Source/queue.c ****     {
 425              		.loc 1 490 5
 426              		.cfi_startproc
 427              		@ args = 0, pretend = 0, frame = 8
 428              		@ frame_needed = 1, uses_anonymous_args = 0
 429 0000 80B5     		push	{r7, lr}
 430              	.LCFI15:
 431              		.cfi_def_cfa_offset 8
 432              		.cfi_offset 7, -8
 433              		.cfi_offset 14, -4
 434 0002 82B0     		sub	sp, sp, #8
 435              	.LCFI16:
 436              		.cfi_def_cfa_offset 16
 437 0004 00AF     		add	r7, sp, #0
 438              	.LCFI17:
 439              		.cfi_def_cfa_register 7
 440 0006 7860     		str	r0, [r7, #4]
 491:../../../../dependencies/freertos/FreeRTOSv10.4.1/FreeRTOS/Source/queue.c ****         if( pxNewQueue != NULL )
 441              		.loc 1 491 11
 442 0008 7B68     		ldr	r3, [r7, #4]
 443 000a 002B     		cmp	r3, #0
 444 000c 0ED0     		beq	.L24
 492:../../../../dependencies/freertos/FreeRTOSv10.4.1/FreeRTOS/Source/queue.c ****         {
 493:../../../../dependencies/freertos/FreeRTOSv10.4.1/FreeRTOS/Source/queue.c ****             /* The queue create function will set all the queue structure members
 494:../../../../dependencies/freertos/FreeRTOSv10.4.1/FreeRTOS/Source/queue.c ****             * correctly for a generic queue, but this function is creating a
 495:../../../../dependencies/freertos/FreeRTOSv10.4.1/FreeRTOS/Source/queue.c ****             * mutex.  Overwrite those members that need to be set differently -
 496:../../../../dependencies/freertos/FreeRTOSv10.4.1/FreeRTOS/Source/queue.c ****             * in particular the information required for priority inheritance. */
ARM GAS  /var/folders/kj/yzqgq53j3dg15vgwwwwgf5s00000gn/T//ccGgwidk.s 			page 21


 497:../../../../dependencies/freertos/FreeRTOSv10.4.1/FreeRTOS/Source/queue.c ****             pxNewQueue->u.xSemaphore.xMutexHolder = NULL;
 445              		.loc 1 497 51
 446 000e 7B68     		ldr	r3, [r7, #4]
 447 0010 0022     		movs	r2, #0
 448 0012 9A60     		str	r2, [r3, #8]
 498:../../../../dependencies/freertos/FreeRTOSv10.4.1/FreeRTOS/Source/queue.c ****             pxNewQueue->uxQueueType = queueQUEUE_IS_MUTEX;
 449              		.loc 1 498 37
 450 0014 7B68     		ldr	r3, [r7, #4]
 451 0016 0022     		movs	r2, #0
 452 0018 1A60     		str	r2, [r3]
 499:../../../../dependencies/freertos/FreeRTOSv10.4.1/FreeRTOS/Source/queue.c **** 
 500:../../../../dependencies/freertos/FreeRTOSv10.4.1/FreeRTOS/Source/queue.c ****             /* In case this is a recursive mutex. */
 501:../../../../dependencies/freertos/FreeRTOSv10.4.1/FreeRTOS/Source/queue.c ****             pxNewQueue->u.xSemaphore.uxRecursiveCallCount = 0;
 453              		.loc 1 501 59
 454 001a 7B68     		ldr	r3, [r7, #4]
 455 001c 0022     		movs	r2, #0
 456 001e DA60     		str	r2, [r3, #12]
 502:../../../../dependencies/freertos/FreeRTOSv10.4.1/FreeRTOS/Source/queue.c **** 
 503:../../../../dependencies/freertos/FreeRTOSv10.4.1/FreeRTOS/Source/queue.c ****             traceCREATE_MUTEX( pxNewQueue );
 504:../../../../dependencies/freertos/FreeRTOSv10.4.1/FreeRTOS/Source/queue.c **** 
 505:../../../../dependencies/freertos/FreeRTOSv10.4.1/FreeRTOS/Source/queue.c ****             /* Start with the semaphore in the expected state. */
 506:../../../../dependencies/freertos/FreeRTOSv10.4.1/FreeRTOS/Source/queue.c ****             ( void ) xQueueGenericSend( pxNewQueue, NULL, ( TickType_t ) 0U, queueSEND_TO_BACK );
 457              		.loc 1 506 22
 458 0020 0023     		movs	r3, #0
 459 0022 0022     		movs	r2, #0
 460 0024 0021     		movs	r1, #0
 461 0026 7868     		ldr	r0, [r7, #4]
 462 0028 FFF7FEFF 		bl	xQueueGenericSend
 463              	.L24:
 507:../../../../dependencies/freertos/FreeRTOSv10.4.1/FreeRTOS/Source/queue.c ****         }
 508:../../../../dependencies/freertos/FreeRTOSv10.4.1/FreeRTOS/Source/queue.c ****         else
 509:../../../../dependencies/freertos/FreeRTOSv10.4.1/FreeRTOS/Source/queue.c ****         {
 510:../../../../dependencies/freertos/FreeRTOSv10.4.1/FreeRTOS/Source/queue.c ****             traceCREATE_MUTEX_FAILED();
 511:../../../../dependencies/freertos/FreeRTOSv10.4.1/FreeRTOS/Source/queue.c ****         }
 512:../../../../dependencies/freertos/FreeRTOSv10.4.1/FreeRTOS/Source/queue.c ****     }
 464              		.loc 1 512 5
 465 002c 00BF     		nop
 466 002e 0837     		adds	r7, r7, #8
 467              	.LCFI18:
 468              		.cfi_def_cfa_offset 8
 469 0030 BD46     		mov	sp, r7
 470              	.LCFI19:
 471              		.cfi_def_cfa_register 13
 472              		@ sp needed
 473 0032 80BD     		pop	{r7, pc}
 474              		.cfi_endproc
 475              	.LFE8:
 477              		.section	.text.xQueueCreateMutex,"ax",%progbits
 478              		.align	1
 479              		.global	xQueueCreateMutex
 480              		.syntax unified
 481              		.thumb
 482              		.thumb_func
 483              		.fpu fpv4-sp-d16
 485              	xQueueCreateMutex:
 486              	.LFB9:
 513:../../../../dependencies/freertos/FreeRTOSv10.4.1/FreeRTOS/Source/queue.c **** 
ARM GAS  /var/folders/kj/yzqgq53j3dg15vgwwwwgf5s00000gn/T//ccGgwidk.s 			page 22


 514:../../../../dependencies/freertos/FreeRTOSv10.4.1/FreeRTOS/Source/queue.c **** #endif /* configUSE_MUTEXES */
 515:../../../../dependencies/freertos/FreeRTOSv10.4.1/FreeRTOS/Source/queue.c **** /*-----------------------------------------------------------*/
 516:../../../../dependencies/freertos/FreeRTOSv10.4.1/FreeRTOS/Source/queue.c **** 
 517:../../../../dependencies/freertos/FreeRTOSv10.4.1/FreeRTOS/Source/queue.c **** #if ( ( configUSE_MUTEXES == 1 ) && ( configSUPPORT_DYNAMIC_ALLOCATION == 1 ) )
 518:../../../../dependencies/freertos/FreeRTOSv10.4.1/FreeRTOS/Source/queue.c **** 
 519:../../../../dependencies/freertos/FreeRTOSv10.4.1/FreeRTOS/Source/queue.c ****     QueueHandle_t xQueueCreateMutex( const uint8_t ucQueueType )
 520:../../../../dependencies/freertos/FreeRTOSv10.4.1/FreeRTOS/Source/queue.c ****     {
 487              		.loc 1 520 5
 488              		.cfi_startproc
 489              		@ args = 0, pretend = 0, frame = 24
 490              		@ frame_needed = 1, uses_anonymous_args = 0
 491 0000 80B5     		push	{r7, lr}
 492              	.LCFI20:
 493              		.cfi_def_cfa_offset 8
 494              		.cfi_offset 7, -8
 495              		.cfi_offset 14, -4
 496 0002 86B0     		sub	sp, sp, #24
 497              	.LCFI21:
 498              		.cfi_def_cfa_offset 32
 499 0004 00AF     		add	r7, sp, #0
 500              	.LCFI22:
 501              		.cfi_def_cfa_register 7
 502 0006 0346     		mov	r3, r0
 503 0008 FB71     		strb	r3, [r7, #7]
 521:../../../../dependencies/freertos/FreeRTOSv10.4.1/FreeRTOS/Source/queue.c ****         QueueHandle_t xNewQueue;
 522:../../../../dependencies/freertos/FreeRTOSv10.4.1/FreeRTOS/Source/queue.c ****         const UBaseType_t uxMutexLength = ( UBaseType_t ) 1, uxMutexSize = ( UBaseType_t ) 0;
 504              		.loc 1 522 27
 505 000a 0123     		movs	r3, #1
 506 000c 7B61     		str	r3, [r7, #20]
 507              		.loc 1 522 62
 508 000e 0023     		movs	r3, #0
 509 0010 3B61     		str	r3, [r7, #16]
 523:../../../../dependencies/freertos/FreeRTOSv10.4.1/FreeRTOS/Source/queue.c **** 
 524:../../../../dependencies/freertos/FreeRTOSv10.4.1/FreeRTOS/Source/queue.c ****         xNewQueue = xQueueGenericCreate( uxMutexLength, uxMutexSize, ucQueueType );
 510              		.loc 1 524 21
 511 0012 FB79     		ldrb	r3, [r7, #7]	@ zero_extendqisi2
 512 0014 1A46     		mov	r2, r3
 513 0016 3969     		ldr	r1, [r7, #16]
 514 0018 7869     		ldr	r0, [r7, #20]
 515 001a FFF7FEFF 		bl	xQueueGenericCreate
 516 001e F860     		str	r0, [r7, #12]
 525:../../../../dependencies/freertos/FreeRTOSv10.4.1/FreeRTOS/Source/queue.c ****         prvInitialiseMutex( ( Queue_t * ) xNewQueue );
 517              		.loc 1 525 9
 518 0020 F868     		ldr	r0, [r7, #12]
 519 0022 FFF7FEFF 		bl	prvInitialiseMutex
 526:../../../../dependencies/freertos/FreeRTOSv10.4.1/FreeRTOS/Source/queue.c **** 
 527:../../../../dependencies/freertos/FreeRTOSv10.4.1/FreeRTOS/Source/queue.c ****         return xNewQueue;
 520              		.loc 1 527 16
 521 0026 FB68     		ldr	r3, [r7, #12]
 528:../../../../dependencies/freertos/FreeRTOSv10.4.1/FreeRTOS/Source/queue.c ****     }
 522              		.loc 1 528 5
 523 0028 1846     		mov	r0, r3
 524 002a 1837     		adds	r7, r7, #24
 525              	.LCFI23:
 526              		.cfi_def_cfa_offset 8
 527 002c BD46     		mov	sp, r7
 528              	.LCFI24:
ARM GAS  /var/folders/kj/yzqgq53j3dg15vgwwwwgf5s00000gn/T//ccGgwidk.s 			page 23


 529              		.cfi_def_cfa_register 13
 530              		@ sp needed
 531 002e 80BD     		pop	{r7, pc}
 532              		.cfi_endproc
 533              	.LFE9:
 535              		.section	.text.xQueueGetMutexHolder,"ax",%progbits
 536              		.align	1
 537              		.global	xQueueGetMutexHolder
 538              		.syntax unified
 539              		.thumb
 540              		.thumb_func
 541              		.fpu fpv4-sp-d16
 543              	xQueueGetMutexHolder:
 544              	.LFB10:
 529:../../../../dependencies/freertos/FreeRTOSv10.4.1/FreeRTOS/Source/queue.c **** 
 530:../../../../dependencies/freertos/FreeRTOSv10.4.1/FreeRTOS/Source/queue.c **** #endif /* configUSE_MUTEXES */
 531:../../../../dependencies/freertos/FreeRTOSv10.4.1/FreeRTOS/Source/queue.c **** /*-----------------------------------------------------------*/
 532:../../../../dependencies/freertos/FreeRTOSv10.4.1/FreeRTOS/Source/queue.c **** 
 533:../../../../dependencies/freertos/FreeRTOSv10.4.1/FreeRTOS/Source/queue.c **** #if ( ( configUSE_MUTEXES == 1 ) && ( configSUPPORT_STATIC_ALLOCATION == 1 ) )
 534:../../../../dependencies/freertos/FreeRTOSv10.4.1/FreeRTOS/Source/queue.c **** 
 535:../../../../dependencies/freertos/FreeRTOSv10.4.1/FreeRTOS/Source/queue.c ****     QueueHandle_t xQueueCreateMutexStatic( const uint8_t ucQueueType,
 536:../../../../dependencies/freertos/FreeRTOSv10.4.1/FreeRTOS/Source/queue.c ****                                            StaticQueue_t * pxStaticQueue )
 537:../../../../dependencies/freertos/FreeRTOSv10.4.1/FreeRTOS/Source/queue.c ****     {
 538:../../../../dependencies/freertos/FreeRTOSv10.4.1/FreeRTOS/Source/queue.c ****         QueueHandle_t xNewQueue;
 539:../../../../dependencies/freertos/FreeRTOSv10.4.1/FreeRTOS/Source/queue.c ****         const UBaseType_t uxMutexLength = ( UBaseType_t ) 1, uxMutexSize = ( UBaseType_t ) 0;
 540:../../../../dependencies/freertos/FreeRTOSv10.4.1/FreeRTOS/Source/queue.c **** 
 541:../../../../dependencies/freertos/FreeRTOSv10.4.1/FreeRTOS/Source/queue.c ****         /* Prevent compiler warnings about unused parameters if
 542:../../../../dependencies/freertos/FreeRTOSv10.4.1/FreeRTOS/Source/queue.c ****          * configUSE_TRACE_FACILITY does not equal 1. */
 543:../../../../dependencies/freertos/FreeRTOSv10.4.1/FreeRTOS/Source/queue.c ****         ( void ) ucQueueType;
 544:../../../../dependencies/freertos/FreeRTOSv10.4.1/FreeRTOS/Source/queue.c **** 
 545:../../../../dependencies/freertos/FreeRTOSv10.4.1/FreeRTOS/Source/queue.c ****         xNewQueue = xQueueGenericCreateStatic( uxMutexLength, uxMutexSize, NULL, pxStaticQueue, ucQ
 546:../../../../dependencies/freertos/FreeRTOSv10.4.1/FreeRTOS/Source/queue.c ****         prvInitialiseMutex( ( Queue_t * ) xNewQueue );
 547:../../../../dependencies/freertos/FreeRTOSv10.4.1/FreeRTOS/Source/queue.c **** 
 548:../../../../dependencies/freertos/FreeRTOSv10.4.1/FreeRTOS/Source/queue.c ****         return xNewQueue;
 549:../../../../dependencies/freertos/FreeRTOSv10.4.1/FreeRTOS/Source/queue.c ****     }
 550:../../../../dependencies/freertos/FreeRTOSv10.4.1/FreeRTOS/Source/queue.c **** 
 551:../../../../dependencies/freertos/FreeRTOSv10.4.1/FreeRTOS/Source/queue.c **** #endif /* configUSE_MUTEXES */
 552:../../../../dependencies/freertos/FreeRTOSv10.4.1/FreeRTOS/Source/queue.c **** /*-----------------------------------------------------------*/
 553:../../../../dependencies/freertos/FreeRTOSv10.4.1/FreeRTOS/Source/queue.c **** 
 554:../../../../dependencies/freertos/FreeRTOSv10.4.1/FreeRTOS/Source/queue.c **** #if ( ( configUSE_MUTEXES == 1 ) && ( INCLUDE_xSemaphoreGetMutexHolder == 1 ) )
 555:../../../../dependencies/freertos/FreeRTOSv10.4.1/FreeRTOS/Source/queue.c **** 
 556:../../../../dependencies/freertos/FreeRTOSv10.4.1/FreeRTOS/Source/queue.c ****     TaskHandle_t xQueueGetMutexHolder( QueueHandle_t xSemaphore )
 557:../../../../dependencies/freertos/FreeRTOSv10.4.1/FreeRTOS/Source/queue.c ****     {
 545              		.loc 1 557 5
 546              		.cfi_startproc
 547              		@ args = 0, pretend = 0, frame = 16
 548              		@ frame_needed = 1, uses_anonymous_args = 0
 549 0000 80B5     		push	{r7, lr}
 550              	.LCFI25:
 551              		.cfi_def_cfa_offset 8
 552              		.cfi_offset 7, -8
 553              		.cfi_offset 14, -4
 554 0002 84B0     		sub	sp, sp, #16
 555              	.LCFI26:
 556              		.cfi_def_cfa_offset 24
 557 0004 00AF     		add	r7, sp, #0
 558              	.LCFI27:
ARM GAS  /var/folders/kj/yzqgq53j3dg15vgwwwwgf5s00000gn/T//ccGgwidk.s 			page 24


 559              		.cfi_def_cfa_register 7
 560 0006 7860     		str	r0, [r7, #4]
 558:../../../../dependencies/freertos/FreeRTOSv10.4.1/FreeRTOS/Source/queue.c ****         TaskHandle_t pxReturn;
 559:../../../../dependencies/freertos/FreeRTOSv10.4.1/FreeRTOS/Source/queue.c ****         Queue_t * const pxSemaphore = ( Queue_t * ) xSemaphore;
 561              		.loc 1 559 25
 562 0008 7B68     		ldr	r3, [r7, #4]
 563 000a BB60     		str	r3, [r7, #8]
 560:../../../../dependencies/freertos/FreeRTOSv10.4.1/FreeRTOS/Source/queue.c **** 
 561:../../../../dependencies/freertos/FreeRTOSv10.4.1/FreeRTOS/Source/queue.c ****         /* This function is called by xSemaphoreGetMutexHolder(), and should not
 562:../../../../dependencies/freertos/FreeRTOSv10.4.1/FreeRTOS/Source/queue.c ****          * be called directly.  Note:  This is a good way of determining if the
 563:../../../../dependencies/freertos/FreeRTOSv10.4.1/FreeRTOS/Source/queue.c ****          * calling task is the mutex holder, but not a good way of determining the
 564:../../../../dependencies/freertos/FreeRTOSv10.4.1/FreeRTOS/Source/queue.c ****          * identity of the mutex holder, as the holder may change between the
 565:../../../../dependencies/freertos/FreeRTOSv10.4.1/FreeRTOS/Source/queue.c ****          * following critical section exiting and the function returning. */
 566:../../../../dependencies/freertos/FreeRTOSv10.4.1/FreeRTOS/Source/queue.c ****         taskENTER_CRITICAL();
 564              		.loc 1 566 9
 565 000c FFF7FEFF 		bl	vPortEnterCritical
 567:../../../../dependencies/freertos/FreeRTOSv10.4.1/FreeRTOS/Source/queue.c ****         {
 568:../../../../dependencies/freertos/FreeRTOSv10.4.1/FreeRTOS/Source/queue.c ****             if( pxSemaphore->uxQueueType == queueQUEUE_IS_MUTEX )
 566              		.loc 1 568 28
 567 0010 BB68     		ldr	r3, [r7, #8]
 568 0012 1B68     		ldr	r3, [r3]
 569              		.loc 1 568 15
 570 0014 002B     		cmp	r3, #0
 571 0016 03D1     		bne	.L28
 569:../../../../dependencies/freertos/FreeRTOSv10.4.1/FreeRTOS/Source/queue.c ****             {
 570:../../../../dependencies/freertos/FreeRTOSv10.4.1/FreeRTOS/Source/queue.c ****                 pxReturn = pxSemaphore->u.xSemaphore.xMutexHolder;
 572              		.loc 1 570 26
 573 0018 BB68     		ldr	r3, [r7, #8]
 574 001a 9B68     		ldr	r3, [r3, #8]
 575 001c FB60     		str	r3, [r7, #12]
 576 001e 01E0     		b	.L29
 577              	.L28:
 571:../../../../dependencies/freertos/FreeRTOSv10.4.1/FreeRTOS/Source/queue.c ****             }
 572:../../../../dependencies/freertos/FreeRTOSv10.4.1/FreeRTOS/Source/queue.c ****             else
 573:../../../../dependencies/freertos/FreeRTOSv10.4.1/FreeRTOS/Source/queue.c ****             {
 574:../../../../dependencies/freertos/FreeRTOSv10.4.1/FreeRTOS/Source/queue.c ****                 pxReturn = NULL;
 578              		.loc 1 574 26
 579 0020 0023     		movs	r3, #0
 580 0022 FB60     		str	r3, [r7, #12]
 581              	.L29:
 575:../../../../dependencies/freertos/FreeRTOSv10.4.1/FreeRTOS/Source/queue.c ****             }
 576:../../../../dependencies/freertos/FreeRTOSv10.4.1/FreeRTOS/Source/queue.c ****         }
 577:../../../../dependencies/freertos/FreeRTOSv10.4.1/FreeRTOS/Source/queue.c ****         taskEXIT_CRITICAL();
 582              		.loc 1 577 9
 583 0024 FFF7FEFF 		bl	vPortExitCritical
 578:../../../../dependencies/freertos/FreeRTOSv10.4.1/FreeRTOS/Source/queue.c **** 
 579:../../../../dependencies/freertos/FreeRTOSv10.4.1/FreeRTOS/Source/queue.c ****         return pxReturn;
 584              		.loc 1 579 16
 585 0028 FB68     		ldr	r3, [r7, #12]
 580:../../../../dependencies/freertos/FreeRTOSv10.4.1/FreeRTOS/Source/queue.c ****     } /*lint !e818 xSemaphore cannot be a pointer to const because it is a typedef. */
 586              		.loc 1 580 5
 587 002a 1846     		mov	r0, r3
 588 002c 1037     		adds	r7, r7, #16
 589              	.LCFI28:
 590              		.cfi_def_cfa_offset 8
 591 002e BD46     		mov	sp, r7
 592              	.LCFI29:
ARM GAS  /var/folders/kj/yzqgq53j3dg15vgwwwwgf5s00000gn/T//ccGgwidk.s 			page 25


 593              		.cfi_def_cfa_register 13
 594              		@ sp needed
 595 0030 80BD     		pop	{r7, pc}
 596              		.cfi_endproc
 597              	.LFE10:
 599              		.section	.text.xQueueGetMutexHolderFromISR,"ax",%progbits
 600              		.align	1
 601              		.global	xQueueGetMutexHolderFromISR
 602              		.syntax unified
 603              		.thumb
 604              		.thumb_func
 605              		.fpu fpv4-sp-d16
 607              	xQueueGetMutexHolderFromISR:
 608              	.LFB11:
 581:../../../../dependencies/freertos/FreeRTOSv10.4.1/FreeRTOS/Source/queue.c **** 
 582:../../../../dependencies/freertos/FreeRTOSv10.4.1/FreeRTOS/Source/queue.c **** #endif /* if ( ( configUSE_MUTEXES == 1 ) && ( INCLUDE_xSemaphoreGetMutexHolder == 1 ) ) */
 583:../../../../dependencies/freertos/FreeRTOSv10.4.1/FreeRTOS/Source/queue.c **** /*-----------------------------------------------------------*/
 584:../../../../dependencies/freertos/FreeRTOSv10.4.1/FreeRTOS/Source/queue.c **** 
 585:../../../../dependencies/freertos/FreeRTOSv10.4.1/FreeRTOS/Source/queue.c **** #if ( ( configUSE_MUTEXES == 1 ) && ( INCLUDE_xSemaphoreGetMutexHolder == 1 ) )
 586:../../../../dependencies/freertos/FreeRTOSv10.4.1/FreeRTOS/Source/queue.c **** 
 587:../../../../dependencies/freertos/FreeRTOSv10.4.1/FreeRTOS/Source/queue.c ****     TaskHandle_t xQueueGetMutexHolderFromISR( QueueHandle_t xSemaphore )
 588:../../../../dependencies/freertos/FreeRTOSv10.4.1/FreeRTOS/Source/queue.c ****     {
 609              		.loc 1 588 5
 610              		.cfi_startproc
 611              		@ args = 0, pretend = 0, frame = 16
 612              		@ frame_needed = 1, uses_anonymous_args = 0
 613              		@ link register save eliminated.
 614 0000 80B4     		push	{r7}
 615              	.LCFI30:
 616              		.cfi_def_cfa_offset 4
 617              		.cfi_offset 7, -4
 618 0002 85B0     		sub	sp, sp, #20
 619              	.LCFI31:
 620              		.cfi_def_cfa_offset 24
 621 0004 00AF     		add	r7, sp, #0
 622              	.LCFI32:
 623              		.cfi_def_cfa_register 7
 624 0006 7860     		str	r0, [r7, #4]
 589:../../../../dependencies/freertos/FreeRTOSv10.4.1/FreeRTOS/Source/queue.c ****         TaskHandle_t pxReturn;
 590:../../../../dependencies/freertos/FreeRTOSv10.4.1/FreeRTOS/Source/queue.c **** 
 591:../../../../dependencies/freertos/FreeRTOSv10.4.1/FreeRTOS/Source/queue.c ****         configASSERT( xSemaphore );
 625              		.loc 1 591 9
 626 0008 7B68     		ldr	r3, [r7, #4]
 627 000a 002B     		cmp	r3, #0
 628 000c 0AD1     		bne	.L32
 629              	.LBB117:
 630              	.LBB118:
 197:../../../../dependencies/freertos/FreeRTOSv10.4.1/FreeRTOS/Source/portable/GCC/ARM_CM4F/portmacro.h ****         (
 631              		.loc 2 197 9
 632              		.syntax unified
 633              	@ 197 "../../../../dependencies/freertos/FreeRTOSv10.4.1/FreeRTOS/Source/portable/GCC/ARM_CM4F/port
 634 000e 4FF05003 			mov r3, #80												
 635 0012 83F31188 		msr basepri, r3											
 636 0016 BFF36F8F 		isb														
 637 001a BFF34F8F 		dsb														
 638              	
 639              	@ 0 "" 2
ARM GAS  /var/folders/kj/yzqgq53j3dg15vgwwwwgf5s00000gn/T//ccGgwidk.s 			page 26


 640              		.thumb
 641              		.syntax unified
 642 001e BB60     		str	r3, [r7, #8]
 643              		.loc 2 205 5
 644 0020 00BF     		nop
 645              	.L33:
 646              	.LBE118:
 647              	.LBE117:
 648              		.loc 1 591 9 discriminator 1
 649 0022 FEE7     		b	.L33
 650              	.L32:
 592:../../../../dependencies/freertos/FreeRTOSv10.4.1/FreeRTOS/Source/queue.c **** 
 593:../../../../dependencies/freertos/FreeRTOSv10.4.1/FreeRTOS/Source/queue.c ****         /* Mutexes cannot be used in interrupt service routines, so the mutex
 594:../../../../dependencies/freertos/FreeRTOSv10.4.1/FreeRTOS/Source/queue.c ****          * holder should not change in an ISR, and therefore a critical section is
 595:../../../../dependencies/freertos/FreeRTOSv10.4.1/FreeRTOS/Source/queue.c ****          * not required here. */
 596:../../../../dependencies/freertos/FreeRTOSv10.4.1/FreeRTOS/Source/queue.c ****         if( ( ( Queue_t * ) xSemaphore )->uxQueueType == queueQUEUE_IS_MUTEX )
 651              		.loc 1 596 41
 652 0024 7B68     		ldr	r3, [r7, #4]
 653 0026 1B68     		ldr	r3, [r3]
 654              		.loc 1 596 11
 655 0028 002B     		cmp	r3, #0
 656 002a 03D1     		bne	.L34
 597:../../../../dependencies/freertos/FreeRTOSv10.4.1/FreeRTOS/Source/queue.c ****         {
 598:../../../../dependencies/freertos/FreeRTOSv10.4.1/FreeRTOS/Source/queue.c ****             pxReturn = ( ( Queue_t * ) xSemaphore )->u.xSemaphore.xMutexHolder;
 657              		.loc 1 598 22
 658 002c 7B68     		ldr	r3, [r7, #4]
 659 002e 9B68     		ldr	r3, [r3, #8]
 660 0030 FB60     		str	r3, [r7, #12]
 661 0032 01E0     		b	.L35
 662              	.L34:
 599:../../../../dependencies/freertos/FreeRTOSv10.4.1/FreeRTOS/Source/queue.c ****         }
 600:../../../../dependencies/freertos/FreeRTOSv10.4.1/FreeRTOS/Source/queue.c ****         else
 601:../../../../dependencies/freertos/FreeRTOSv10.4.1/FreeRTOS/Source/queue.c ****         {
 602:../../../../dependencies/freertos/FreeRTOSv10.4.1/FreeRTOS/Source/queue.c ****             pxReturn = NULL;
 663              		.loc 1 602 22
 664 0034 0023     		movs	r3, #0
 665 0036 FB60     		str	r3, [r7, #12]
 666              	.L35:
 603:../../../../dependencies/freertos/FreeRTOSv10.4.1/FreeRTOS/Source/queue.c ****         }
 604:../../../../dependencies/freertos/FreeRTOSv10.4.1/FreeRTOS/Source/queue.c **** 
 605:../../../../dependencies/freertos/FreeRTOSv10.4.1/FreeRTOS/Source/queue.c ****         return pxReturn;
 667              		.loc 1 605 16
 668 0038 FB68     		ldr	r3, [r7, #12]
 606:../../../../dependencies/freertos/FreeRTOSv10.4.1/FreeRTOS/Source/queue.c ****     } /*lint !e818 xSemaphore cannot be a pointer to const because it is a typedef. */
 669              		.loc 1 606 5
 670 003a 1846     		mov	r0, r3
 671 003c 1437     		adds	r7, r7, #20
 672              	.LCFI33:
 673              		.cfi_def_cfa_offset 4
 674 003e BD46     		mov	sp, r7
 675              	.LCFI34:
 676              		.cfi_def_cfa_register 13
 677              		@ sp needed
 678 0040 5DF8047B 		ldr	r7, [sp], #4
 679              	.LCFI35:
 680              		.cfi_restore 7
 681              		.cfi_def_cfa_offset 0
ARM GAS  /var/folders/kj/yzqgq53j3dg15vgwwwwgf5s00000gn/T//ccGgwidk.s 			page 27


 682 0044 7047     		bx	lr
 683              		.cfi_endproc
 684              	.LFE11:
 686              		.section	.text.xQueueGiveMutexRecursive,"ax",%progbits
 687              		.align	1
 688              		.global	xQueueGiveMutexRecursive
 689              		.syntax unified
 690              		.thumb
 691              		.thumb_func
 692              		.fpu fpv4-sp-d16
 694              	xQueueGiveMutexRecursive:
 695              	.LFB12:
 607:../../../../dependencies/freertos/FreeRTOSv10.4.1/FreeRTOS/Source/queue.c **** 
 608:../../../../dependencies/freertos/FreeRTOSv10.4.1/FreeRTOS/Source/queue.c **** #endif /* if ( ( configUSE_MUTEXES == 1 ) && ( INCLUDE_xSemaphoreGetMutexHolder == 1 ) ) */
 609:../../../../dependencies/freertos/FreeRTOSv10.4.1/FreeRTOS/Source/queue.c **** /*-----------------------------------------------------------*/
 610:../../../../dependencies/freertos/FreeRTOSv10.4.1/FreeRTOS/Source/queue.c **** 
 611:../../../../dependencies/freertos/FreeRTOSv10.4.1/FreeRTOS/Source/queue.c **** #if ( configUSE_RECURSIVE_MUTEXES == 1 )
 612:../../../../dependencies/freertos/FreeRTOSv10.4.1/FreeRTOS/Source/queue.c **** 
 613:../../../../dependencies/freertos/FreeRTOSv10.4.1/FreeRTOS/Source/queue.c ****     BaseType_t xQueueGiveMutexRecursive( QueueHandle_t xMutex )
 614:../../../../dependencies/freertos/FreeRTOSv10.4.1/FreeRTOS/Source/queue.c ****     {
 696              		.loc 1 614 5
 697              		.cfi_startproc
 698              		@ args = 0, pretend = 0, frame = 24
 699              		@ frame_needed = 1, uses_anonymous_args = 0
 700 0000 90B5     		push	{r4, r7, lr}
 701              	.LCFI36:
 702              		.cfi_def_cfa_offset 12
 703              		.cfi_offset 4, -12
 704              		.cfi_offset 7, -8
 705              		.cfi_offset 14, -4
 706 0002 87B0     		sub	sp, sp, #28
 707              	.LCFI37:
 708              		.cfi_def_cfa_offset 40
 709 0004 00AF     		add	r7, sp, #0
 710              	.LCFI38:
 711              		.cfi_def_cfa_register 7
 712 0006 7860     		str	r0, [r7, #4]
 615:../../../../dependencies/freertos/FreeRTOSv10.4.1/FreeRTOS/Source/queue.c ****         BaseType_t xReturn;
 616:../../../../dependencies/freertos/FreeRTOSv10.4.1/FreeRTOS/Source/queue.c ****         Queue_t * const pxMutex = ( Queue_t * ) xMutex;
 713              		.loc 1 616 25
 714 0008 7B68     		ldr	r3, [r7, #4]
 715 000a 3B61     		str	r3, [r7, #16]
 617:../../../../dependencies/freertos/FreeRTOSv10.4.1/FreeRTOS/Source/queue.c **** 
 618:../../../../dependencies/freertos/FreeRTOSv10.4.1/FreeRTOS/Source/queue.c ****         configASSERT( pxMutex );
 716              		.loc 1 618 9
 717 000c 3B69     		ldr	r3, [r7, #16]
 718 000e 002B     		cmp	r3, #0
 719 0010 0AD1     		bne	.L38
 720              	.LBB119:
 721              	.LBB120:
 197:../../../../dependencies/freertos/FreeRTOSv10.4.1/FreeRTOS/Source/portable/GCC/ARM_CM4F/portmacro.h ****         (
 722              		.loc 2 197 9
 723              		.syntax unified
 724              	@ 197 "../../../../dependencies/freertos/FreeRTOSv10.4.1/FreeRTOS/Source/portable/GCC/ARM_CM4F/port
 725 0012 4FF05003 			mov r3, #80												
 726 0016 83F31188 		msr basepri, r3											
 727 001a BFF36F8F 		isb														
ARM GAS  /var/folders/kj/yzqgq53j3dg15vgwwwwgf5s00000gn/T//ccGgwidk.s 			page 28


 728 001e BFF34F8F 		dsb														
 729              	
 730              	@ 0 "" 2
 731              		.thumb
 732              		.syntax unified
 733 0022 FB60     		str	r3, [r7, #12]
 734              		.loc 2 205 5
 735 0024 00BF     		nop
 736              	.L39:
 737              	.LBE120:
 738              	.LBE119:
 739              		.loc 1 618 9 discriminator 1
 740 0026 FEE7     		b	.L39
 741              	.L38:
 619:../../../../dependencies/freertos/FreeRTOSv10.4.1/FreeRTOS/Source/queue.c **** 
 620:../../../../dependencies/freertos/FreeRTOSv10.4.1/FreeRTOS/Source/queue.c ****         /* If this is the task that holds the mutex then xMutexHolder will not
 621:../../../../dependencies/freertos/FreeRTOSv10.4.1/FreeRTOS/Source/queue.c ****          * change outside of this task.  If this task does not hold the mutex then
 622:../../../../dependencies/freertos/FreeRTOSv10.4.1/FreeRTOS/Source/queue.c ****          * pxMutexHolder can never coincidentally equal the tasks handle, and as
 623:../../../../dependencies/freertos/FreeRTOSv10.4.1/FreeRTOS/Source/queue.c ****          * this is the only condition we are interested in it does not matter if
 624:../../../../dependencies/freertos/FreeRTOSv10.4.1/FreeRTOS/Source/queue.c ****          * pxMutexHolder is accessed simultaneously by another task.  Therefore no
 625:../../../../dependencies/freertos/FreeRTOSv10.4.1/FreeRTOS/Source/queue.c ****          * mutual exclusion is required to test the pxMutexHolder variable. */
 626:../../../../dependencies/freertos/FreeRTOSv10.4.1/FreeRTOS/Source/queue.c ****         if( pxMutex->u.xSemaphore.xMutexHolder == xTaskGetCurrentTaskHandle() )
 742              		.loc 1 626 34
 743 0028 3B69     		ldr	r3, [r7, #16]
 744 002a 9C68     		ldr	r4, [r3, #8]
 745              		.loc 1 626 51
 746 002c FFF7FEFF 		bl	xTaskGetCurrentTaskHandle
 747 0030 0346     		mov	r3, r0
 748              		.loc 1 626 11
 749 0032 9C42     		cmp	r4, r3
 750 0034 11D1     		bne	.L40
 627:../../../../dependencies/freertos/FreeRTOSv10.4.1/FreeRTOS/Source/queue.c ****         {
 628:../../../../dependencies/freertos/FreeRTOSv10.4.1/FreeRTOS/Source/queue.c ****             traceGIVE_MUTEX_RECURSIVE( pxMutex );
 629:../../../../dependencies/freertos/FreeRTOSv10.4.1/FreeRTOS/Source/queue.c **** 
 630:../../../../dependencies/freertos/FreeRTOSv10.4.1/FreeRTOS/Source/queue.c ****             /* uxRecursiveCallCount cannot be zero if xMutexHolder is equal to
 631:../../../../dependencies/freertos/FreeRTOSv10.4.1/FreeRTOS/Source/queue.c ****              * the task handle, therefore no underflow check is required.  Also,
 632:../../../../dependencies/freertos/FreeRTOSv10.4.1/FreeRTOS/Source/queue.c ****              * uxRecursiveCallCount is only modified by the mutex holder, and as
 633:../../../../dependencies/freertos/FreeRTOSv10.4.1/FreeRTOS/Source/queue.c ****              * there can only be one, no mutual exclusion is required to modify the
 634:../../../../dependencies/freertos/FreeRTOSv10.4.1/FreeRTOS/Source/queue.c ****              * uxRecursiveCallCount member. */
 635:../../../../dependencies/freertos/FreeRTOSv10.4.1/FreeRTOS/Source/queue.c ****             ( pxMutex->u.xSemaphore.uxRecursiveCallCount )--;
 751              		.loc 1 635 36
 752 0036 3B69     		ldr	r3, [r7, #16]
 753 0038 DB68     		ldr	r3, [r3, #12]
 754              		.loc 1 635 59
 755 003a 5A1E     		subs	r2, r3, #1
 756 003c 3B69     		ldr	r3, [r7, #16]
 757 003e DA60     		str	r2, [r3, #12]
 636:../../../../dependencies/freertos/FreeRTOSv10.4.1/FreeRTOS/Source/queue.c **** 
 637:../../../../dependencies/freertos/FreeRTOSv10.4.1/FreeRTOS/Source/queue.c ****             /* Has the recursive call count unwound to 0? */
 638:../../../../dependencies/freertos/FreeRTOSv10.4.1/FreeRTOS/Source/queue.c ****             if( pxMutex->u.xSemaphore.uxRecursiveCallCount == ( UBaseType_t ) 0 )
 758              		.loc 1 638 38
 759 0040 3B69     		ldr	r3, [r7, #16]
 760 0042 DB68     		ldr	r3, [r3, #12]
 761              		.loc 1 638 15
 762 0044 002B     		cmp	r3, #0
 763 0046 05D1     		bne	.L41
 639:../../../../dependencies/freertos/FreeRTOSv10.4.1/FreeRTOS/Source/queue.c ****             {
ARM GAS  /var/folders/kj/yzqgq53j3dg15vgwwwwgf5s00000gn/T//ccGgwidk.s 			page 29


 640:../../../../dependencies/freertos/FreeRTOSv10.4.1/FreeRTOS/Source/queue.c ****                 /* Return the mutex.  This will automatically unblock any other
 641:../../../../dependencies/freertos/FreeRTOSv10.4.1/FreeRTOS/Source/queue.c ****                  * task that might be waiting to access the mutex. */
 642:../../../../dependencies/freertos/FreeRTOSv10.4.1/FreeRTOS/Source/queue.c ****                 ( void ) xQueueGenericSend( pxMutex, NULL, queueMUTEX_GIVE_BLOCK_TIME, queueSEND_TO
 764              		.loc 1 642 26
 765 0048 0023     		movs	r3, #0
 766 004a 0022     		movs	r2, #0
 767 004c 0021     		movs	r1, #0
 768 004e 3869     		ldr	r0, [r7, #16]
 769 0050 FFF7FEFF 		bl	xQueueGenericSend
 770              	.L41:
 643:../../../../dependencies/freertos/FreeRTOSv10.4.1/FreeRTOS/Source/queue.c ****             }
 644:../../../../dependencies/freertos/FreeRTOSv10.4.1/FreeRTOS/Source/queue.c ****             else
 645:../../../../dependencies/freertos/FreeRTOSv10.4.1/FreeRTOS/Source/queue.c ****             {
 646:../../../../dependencies/freertos/FreeRTOSv10.4.1/FreeRTOS/Source/queue.c ****                 mtCOVERAGE_TEST_MARKER();
 647:../../../../dependencies/freertos/FreeRTOSv10.4.1/FreeRTOS/Source/queue.c ****             }
 648:../../../../dependencies/freertos/FreeRTOSv10.4.1/FreeRTOS/Source/queue.c **** 
 649:../../../../dependencies/freertos/FreeRTOSv10.4.1/FreeRTOS/Source/queue.c ****             xReturn = pdPASS;
 771              		.loc 1 649 21
 772 0054 0123     		movs	r3, #1
 773 0056 7B61     		str	r3, [r7, #20]
 774 0058 01E0     		b	.L42
 775              	.L40:
 650:../../../../dependencies/freertos/FreeRTOSv10.4.1/FreeRTOS/Source/queue.c ****         }
 651:../../../../dependencies/freertos/FreeRTOSv10.4.1/FreeRTOS/Source/queue.c ****         else
 652:../../../../dependencies/freertos/FreeRTOSv10.4.1/FreeRTOS/Source/queue.c ****         {
 653:../../../../dependencies/freertos/FreeRTOSv10.4.1/FreeRTOS/Source/queue.c ****             /* The mutex cannot be given because the calling task is not the
 654:../../../../dependencies/freertos/FreeRTOSv10.4.1/FreeRTOS/Source/queue.c ****              * holder. */
 655:../../../../dependencies/freertos/FreeRTOSv10.4.1/FreeRTOS/Source/queue.c ****             xReturn = pdFAIL;
 776              		.loc 1 655 21
 777 005a 0023     		movs	r3, #0
 778 005c 7B61     		str	r3, [r7, #20]
 779              	.L42:
 656:../../../../dependencies/freertos/FreeRTOSv10.4.1/FreeRTOS/Source/queue.c **** 
 657:../../../../dependencies/freertos/FreeRTOSv10.4.1/FreeRTOS/Source/queue.c ****             traceGIVE_MUTEX_RECURSIVE_FAILED( pxMutex );
 658:../../../../dependencies/freertos/FreeRTOSv10.4.1/FreeRTOS/Source/queue.c ****         }
 659:../../../../dependencies/freertos/FreeRTOSv10.4.1/FreeRTOS/Source/queue.c **** 
 660:../../../../dependencies/freertos/FreeRTOSv10.4.1/FreeRTOS/Source/queue.c ****         return xReturn;
 780              		.loc 1 660 16
 781 005e 7B69     		ldr	r3, [r7, #20]
 661:../../../../dependencies/freertos/FreeRTOSv10.4.1/FreeRTOS/Source/queue.c ****     }
 782              		.loc 1 661 5
 783 0060 1846     		mov	r0, r3
 784 0062 1C37     		adds	r7, r7, #28
 785              	.LCFI39:
 786              		.cfi_def_cfa_offset 12
 787 0064 BD46     		mov	sp, r7
 788              	.LCFI40:
 789              		.cfi_def_cfa_register 13
 790              		@ sp needed
 791 0066 90BD     		pop	{r4, r7, pc}
 792              		.cfi_endproc
 793              	.LFE12:
 795              		.section	.text.xQueueTakeMutexRecursive,"ax",%progbits
 796              		.align	1
 797              		.global	xQueueTakeMutexRecursive
 798              		.syntax unified
 799              		.thumb
ARM GAS  /var/folders/kj/yzqgq53j3dg15vgwwwwgf5s00000gn/T//ccGgwidk.s 			page 30


 800              		.thumb_func
 801              		.fpu fpv4-sp-d16
 803              	xQueueTakeMutexRecursive:
 804              	.LFB13:
 662:../../../../dependencies/freertos/FreeRTOSv10.4.1/FreeRTOS/Source/queue.c **** 
 663:../../../../dependencies/freertos/FreeRTOSv10.4.1/FreeRTOS/Source/queue.c **** #endif /* configUSE_RECURSIVE_MUTEXES */
 664:../../../../dependencies/freertos/FreeRTOSv10.4.1/FreeRTOS/Source/queue.c **** /*-----------------------------------------------------------*/
 665:../../../../dependencies/freertos/FreeRTOSv10.4.1/FreeRTOS/Source/queue.c **** 
 666:../../../../dependencies/freertos/FreeRTOSv10.4.1/FreeRTOS/Source/queue.c **** #if ( configUSE_RECURSIVE_MUTEXES == 1 )
 667:../../../../dependencies/freertos/FreeRTOSv10.4.1/FreeRTOS/Source/queue.c **** 
 668:../../../../dependencies/freertos/FreeRTOSv10.4.1/FreeRTOS/Source/queue.c ****     BaseType_t xQueueTakeMutexRecursive( QueueHandle_t xMutex,
 669:../../../../dependencies/freertos/FreeRTOSv10.4.1/FreeRTOS/Source/queue.c ****                                          TickType_t xTicksToWait )
 670:../../../../dependencies/freertos/FreeRTOSv10.4.1/FreeRTOS/Source/queue.c ****     {
 805              		.loc 1 670 5
 806              		.cfi_startproc
 807              		@ args = 0, pretend = 0, frame = 24
 808              		@ frame_needed = 1, uses_anonymous_args = 0
 809 0000 90B5     		push	{r4, r7, lr}
 810              	.LCFI41:
 811              		.cfi_def_cfa_offset 12
 812              		.cfi_offset 4, -12
 813              		.cfi_offset 7, -8
 814              		.cfi_offset 14, -4
 815 0002 87B0     		sub	sp, sp, #28
 816              	.LCFI42:
 817              		.cfi_def_cfa_offset 40
 818 0004 00AF     		add	r7, sp, #0
 819              	.LCFI43:
 820              		.cfi_def_cfa_register 7
 821 0006 7860     		str	r0, [r7, #4]
 822 0008 3960     		str	r1, [r7]
 671:../../../../dependencies/freertos/FreeRTOSv10.4.1/FreeRTOS/Source/queue.c ****         BaseType_t xReturn;
 672:../../../../dependencies/freertos/FreeRTOSv10.4.1/FreeRTOS/Source/queue.c ****         Queue_t * const pxMutex = ( Queue_t * ) xMutex;
 823              		.loc 1 672 25
 824 000a 7B68     		ldr	r3, [r7, #4]
 825 000c 3B61     		str	r3, [r7, #16]
 673:../../../../dependencies/freertos/FreeRTOSv10.4.1/FreeRTOS/Source/queue.c **** 
 674:../../../../dependencies/freertos/FreeRTOSv10.4.1/FreeRTOS/Source/queue.c ****         configASSERT( pxMutex );
 826              		.loc 1 674 9
 827 000e 3B69     		ldr	r3, [r7, #16]
 828 0010 002B     		cmp	r3, #0
 829 0012 0AD1     		bne	.L45
 830              	.LBB121:
 831              	.LBB122:
 197:../../../../dependencies/freertos/FreeRTOSv10.4.1/FreeRTOS/Source/portable/GCC/ARM_CM4F/portmacro.h ****         (
 832              		.loc 2 197 9
 833              		.syntax unified
 834              	@ 197 "../../../../dependencies/freertos/FreeRTOSv10.4.1/FreeRTOS/Source/portable/GCC/ARM_CM4F/port
 835 0014 4FF05003 			mov r3, #80												
 836 0018 83F31188 		msr basepri, r3											
 837 001c BFF36F8F 		isb														
 838 0020 BFF34F8F 		dsb														
 839              	
 840              	@ 0 "" 2
 841              		.thumb
 842              		.syntax unified
 843 0024 FB60     		str	r3, [r7, #12]
ARM GAS  /var/folders/kj/yzqgq53j3dg15vgwwwwgf5s00000gn/T//ccGgwidk.s 			page 31


 844              		.loc 2 205 5
 845 0026 00BF     		nop
 846              	.L46:
 847              	.LBE122:
 848              	.LBE121:
 849              		.loc 1 674 9 discriminator 1
 850 0028 FEE7     		b	.L46
 851              	.L45:
 675:../../../../dependencies/freertos/FreeRTOSv10.4.1/FreeRTOS/Source/queue.c **** 
 676:../../../../dependencies/freertos/FreeRTOSv10.4.1/FreeRTOS/Source/queue.c ****         /* Comments regarding mutual exclusion as per those within
 677:../../../../dependencies/freertos/FreeRTOSv10.4.1/FreeRTOS/Source/queue.c ****          * xQueueGiveMutexRecursive(). */
 678:../../../../dependencies/freertos/FreeRTOSv10.4.1/FreeRTOS/Source/queue.c **** 
 679:../../../../dependencies/freertos/FreeRTOSv10.4.1/FreeRTOS/Source/queue.c ****         traceTAKE_MUTEX_RECURSIVE( pxMutex );
 680:../../../../dependencies/freertos/FreeRTOSv10.4.1/FreeRTOS/Source/queue.c **** 
 681:../../../../dependencies/freertos/FreeRTOSv10.4.1/FreeRTOS/Source/queue.c ****         if( pxMutex->u.xSemaphore.xMutexHolder == xTaskGetCurrentTaskHandle() )
 852              		.loc 1 681 34
 853 002a 3B69     		ldr	r3, [r7, #16]
 854 002c 9C68     		ldr	r4, [r3, #8]
 855              		.loc 1 681 51
 856 002e FFF7FEFF 		bl	xTaskGetCurrentTaskHandle
 857 0032 0346     		mov	r3, r0
 858              		.loc 1 681 11
 859 0034 9C42     		cmp	r4, r3
 860 0036 07D1     		bne	.L47
 682:../../../../dependencies/freertos/FreeRTOSv10.4.1/FreeRTOS/Source/queue.c ****         {
 683:../../../../dependencies/freertos/FreeRTOSv10.4.1/FreeRTOS/Source/queue.c ****             ( pxMutex->u.xSemaphore.uxRecursiveCallCount )++;
 861              		.loc 1 683 36
 862 0038 3B69     		ldr	r3, [r7, #16]
 863 003a DB68     		ldr	r3, [r3, #12]
 864              		.loc 1 683 59
 865 003c 5A1C     		adds	r2, r3, #1
 866 003e 3B69     		ldr	r3, [r7, #16]
 867 0040 DA60     		str	r2, [r3, #12]
 684:../../../../dependencies/freertos/FreeRTOSv10.4.1/FreeRTOS/Source/queue.c ****             xReturn = pdPASS;
 868              		.loc 1 684 21
 869 0042 0123     		movs	r3, #1
 870 0044 7B61     		str	r3, [r7, #20]
 871 0046 0CE0     		b	.L48
 872              	.L47:
 685:../../../../dependencies/freertos/FreeRTOSv10.4.1/FreeRTOS/Source/queue.c ****         }
 686:../../../../dependencies/freertos/FreeRTOSv10.4.1/FreeRTOS/Source/queue.c ****         else
 687:../../../../dependencies/freertos/FreeRTOSv10.4.1/FreeRTOS/Source/queue.c ****         {
 688:../../../../dependencies/freertos/FreeRTOSv10.4.1/FreeRTOS/Source/queue.c ****             xReturn = xQueueSemaphoreTake( pxMutex, xTicksToWait );
 873              		.loc 1 688 23
 874 0048 3968     		ldr	r1, [r7]
 875 004a 3869     		ldr	r0, [r7, #16]
 876 004c FFF7FEFF 		bl	xQueueSemaphoreTake
 877 0050 7861     		str	r0, [r7, #20]
 689:../../../../dependencies/freertos/FreeRTOSv10.4.1/FreeRTOS/Source/queue.c **** 
 690:../../../../dependencies/freertos/FreeRTOSv10.4.1/FreeRTOS/Source/queue.c ****             /* pdPASS will only be returned if the mutex was successfully
 691:../../../../dependencies/freertos/FreeRTOSv10.4.1/FreeRTOS/Source/queue.c ****              * obtained.  The calling task may have entered the Blocked state
 692:../../../../dependencies/freertos/FreeRTOSv10.4.1/FreeRTOS/Source/queue.c ****              * before reaching here. */
 693:../../../../dependencies/freertos/FreeRTOSv10.4.1/FreeRTOS/Source/queue.c ****             if( xReturn != pdFAIL )
 878              		.loc 1 693 15
 879 0052 7B69     		ldr	r3, [r7, #20]
 880 0054 002B     		cmp	r3, #0
 881 0056 04D0     		beq	.L48
ARM GAS  /var/folders/kj/yzqgq53j3dg15vgwwwwgf5s00000gn/T//ccGgwidk.s 			page 32


 694:../../../../dependencies/freertos/FreeRTOSv10.4.1/FreeRTOS/Source/queue.c ****             {
 695:../../../../dependencies/freertos/FreeRTOSv10.4.1/FreeRTOS/Source/queue.c ****                 ( pxMutex->u.xSemaphore.uxRecursiveCallCount )++;
 882              		.loc 1 695 40
 883 0058 3B69     		ldr	r3, [r7, #16]
 884 005a DB68     		ldr	r3, [r3, #12]
 885              		.loc 1 695 63
 886 005c 5A1C     		adds	r2, r3, #1
 887 005e 3B69     		ldr	r3, [r7, #16]
 888 0060 DA60     		str	r2, [r3, #12]
 889              	.L48:
 696:../../../../dependencies/freertos/FreeRTOSv10.4.1/FreeRTOS/Source/queue.c ****             }
 697:../../../../dependencies/freertos/FreeRTOSv10.4.1/FreeRTOS/Source/queue.c ****             else
 698:../../../../dependencies/freertos/FreeRTOSv10.4.1/FreeRTOS/Source/queue.c ****             {
 699:../../../../dependencies/freertos/FreeRTOSv10.4.1/FreeRTOS/Source/queue.c ****                 traceTAKE_MUTEX_RECURSIVE_FAILED( pxMutex );
 700:../../../../dependencies/freertos/FreeRTOSv10.4.1/FreeRTOS/Source/queue.c ****             }
 701:../../../../dependencies/freertos/FreeRTOSv10.4.1/FreeRTOS/Source/queue.c ****         }
 702:../../../../dependencies/freertos/FreeRTOSv10.4.1/FreeRTOS/Source/queue.c **** 
 703:../../../../dependencies/freertos/FreeRTOSv10.4.1/FreeRTOS/Source/queue.c ****         return xReturn;
 890              		.loc 1 703 16
 891 0062 7B69     		ldr	r3, [r7, #20]
 704:../../../../dependencies/freertos/FreeRTOSv10.4.1/FreeRTOS/Source/queue.c ****     }
 892              		.loc 1 704 5
 893 0064 1846     		mov	r0, r3
 894 0066 1C37     		adds	r7, r7, #28
 895              	.LCFI44:
 896              		.cfi_def_cfa_offset 12
 897 0068 BD46     		mov	sp, r7
 898              	.LCFI45:
 899              		.cfi_def_cfa_register 13
 900              		@ sp needed
 901 006a 90BD     		pop	{r4, r7, pc}
 902              		.cfi_endproc
 903              	.LFE13:
 905              		.section	.text.xQueueCreateCountingSemaphore,"ax",%progbits
 906              		.align	1
 907              		.global	xQueueCreateCountingSemaphore
 908              		.syntax unified
 909              		.thumb
 910              		.thumb_func
 911              		.fpu fpv4-sp-d16
 913              	xQueueCreateCountingSemaphore:
 914              	.LFB14:
 705:../../../../dependencies/freertos/FreeRTOSv10.4.1/FreeRTOS/Source/queue.c **** 
 706:../../../../dependencies/freertos/FreeRTOSv10.4.1/FreeRTOS/Source/queue.c **** #endif /* configUSE_RECURSIVE_MUTEXES */
 707:../../../../dependencies/freertos/FreeRTOSv10.4.1/FreeRTOS/Source/queue.c **** /*-----------------------------------------------------------*/
 708:../../../../dependencies/freertos/FreeRTOSv10.4.1/FreeRTOS/Source/queue.c **** 
 709:../../../../dependencies/freertos/FreeRTOSv10.4.1/FreeRTOS/Source/queue.c **** #if ( ( configUSE_COUNTING_SEMAPHORES == 1 ) && ( configSUPPORT_STATIC_ALLOCATION == 1 ) )
 710:../../../../dependencies/freertos/FreeRTOSv10.4.1/FreeRTOS/Source/queue.c **** 
 711:../../../../dependencies/freertos/FreeRTOSv10.4.1/FreeRTOS/Source/queue.c ****     QueueHandle_t xQueueCreateCountingSemaphoreStatic( const UBaseType_t uxMaxCount,
 712:../../../../dependencies/freertos/FreeRTOSv10.4.1/FreeRTOS/Source/queue.c ****                                                        const UBaseType_t uxInitialCount,
 713:../../../../dependencies/freertos/FreeRTOSv10.4.1/FreeRTOS/Source/queue.c ****                                                        StaticQueue_t * pxStaticQueue )
 714:../../../../dependencies/freertos/FreeRTOSv10.4.1/FreeRTOS/Source/queue.c ****     {
 715:../../../../dependencies/freertos/FreeRTOSv10.4.1/FreeRTOS/Source/queue.c ****         QueueHandle_t xHandle;
 716:../../../../dependencies/freertos/FreeRTOSv10.4.1/FreeRTOS/Source/queue.c **** 
 717:../../../../dependencies/freertos/FreeRTOSv10.4.1/FreeRTOS/Source/queue.c ****         configASSERT( uxMaxCount != 0 );
 718:../../../../dependencies/freertos/FreeRTOSv10.4.1/FreeRTOS/Source/queue.c ****         configASSERT( uxInitialCount <= uxMaxCount );
 719:../../../../dependencies/freertos/FreeRTOSv10.4.1/FreeRTOS/Source/queue.c **** 
ARM GAS  /var/folders/kj/yzqgq53j3dg15vgwwwwgf5s00000gn/T//ccGgwidk.s 			page 33


 720:../../../../dependencies/freertos/FreeRTOSv10.4.1/FreeRTOS/Source/queue.c ****         xHandle = xQueueGenericCreateStatic( uxMaxCount, queueSEMAPHORE_QUEUE_ITEM_LENGTH, NULL, px
 721:../../../../dependencies/freertos/FreeRTOSv10.4.1/FreeRTOS/Source/queue.c **** 
 722:../../../../dependencies/freertos/FreeRTOSv10.4.1/FreeRTOS/Source/queue.c ****         if( xHandle != NULL )
 723:../../../../dependencies/freertos/FreeRTOSv10.4.1/FreeRTOS/Source/queue.c ****         {
 724:../../../../dependencies/freertos/FreeRTOSv10.4.1/FreeRTOS/Source/queue.c ****             ( ( Queue_t * ) xHandle )->uxMessagesWaiting = uxInitialCount;
 725:../../../../dependencies/freertos/FreeRTOSv10.4.1/FreeRTOS/Source/queue.c **** 
 726:../../../../dependencies/freertos/FreeRTOSv10.4.1/FreeRTOS/Source/queue.c ****             traceCREATE_COUNTING_SEMAPHORE();
 727:../../../../dependencies/freertos/FreeRTOSv10.4.1/FreeRTOS/Source/queue.c ****         }
 728:../../../../dependencies/freertos/FreeRTOSv10.4.1/FreeRTOS/Source/queue.c ****         else
 729:../../../../dependencies/freertos/FreeRTOSv10.4.1/FreeRTOS/Source/queue.c ****         {
 730:../../../../dependencies/freertos/FreeRTOSv10.4.1/FreeRTOS/Source/queue.c ****             traceCREATE_COUNTING_SEMAPHORE_FAILED();
 731:../../../../dependencies/freertos/FreeRTOSv10.4.1/FreeRTOS/Source/queue.c ****         }
 732:../../../../dependencies/freertos/FreeRTOSv10.4.1/FreeRTOS/Source/queue.c **** 
 733:../../../../dependencies/freertos/FreeRTOSv10.4.1/FreeRTOS/Source/queue.c ****         return xHandle;
 734:../../../../dependencies/freertos/FreeRTOSv10.4.1/FreeRTOS/Source/queue.c ****     }
 735:../../../../dependencies/freertos/FreeRTOSv10.4.1/FreeRTOS/Source/queue.c **** 
 736:../../../../dependencies/freertos/FreeRTOSv10.4.1/FreeRTOS/Source/queue.c **** #endif /* ( ( configUSE_COUNTING_SEMAPHORES == 1 ) && ( configSUPPORT_DYNAMIC_ALLOCATION == 1 ) ) *
 737:../../../../dependencies/freertos/FreeRTOSv10.4.1/FreeRTOS/Source/queue.c **** /*-----------------------------------------------------------*/
 738:../../../../dependencies/freertos/FreeRTOSv10.4.1/FreeRTOS/Source/queue.c **** 
 739:../../../../dependencies/freertos/FreeRTOSv10.4.1/FreeRTOS/Source/queue.c **** #if ( ( configUSE_COUNTING_SEMAPHORES == 1 ) && ( configSUPPORT_DYNAMIC_ALLOCATION == 1 ) )
 740:../../../../dependencies/freertos/FreeRTOSv10.4.1/FreeRTOS/Source/queue.c **** 
 741:../../../../dependencies/freertos/FreeRTOSv10.4.1/FreeRTOS/Source/queue.c ****     QueueHandle_t xQueueCreateCountingSemaphore( const UBaseType_t uxMaxCount,
 742:../../../../dependencies/freertos/FreeRTOSv10.4.1/FreeRTOS/Source/queue.c ****                                                  const UBaseType_t uxInitialCount )
 743:../../../../dependencies/freertos/FreeRTOSv10.4.1/FreeRTOS/Source/queue.c ****     {
 915              		.loc 1 743 5
 916              		.cfi_startproc
 917              		@ args = 0, pretend = 0, frame = 24
 918              		@ frame_needed = 1, uses_anonymous_args = 0
 919 0000 80B5     		push	{r7, lr}
 920              	.LCFI46:
 921              		.cfi_def_cfa_offset 8
 922              		.cfi_offset 7, -8
 923              		.cfi_offset 14, -4
 924 0002 86B0     		sub	sp, sp, #24
 925              	.LCFI47:
 926              		.cfi_def_cfa_offset 32
 927 0004 00AF     		add	r7, sp, #0
 928              	.LCFI48:
 929              		.cfi_def_cfa_register 7
 930 0006 7860     		str	r0, [r7, #4]
 931 0008 3960     		str	r1, [r7]
 744:../../../../dependencies/freertos/FreeRTOSv10.4.1/FreeRTOS/Source/queue.c ****         QueueHandle_t xHandle;
 745:../../../../dependencies/freertos/FreeRTOSv10.4.1/FreeRTOS/Source/queue.c **** 
 746:../../../../dependencies/freertos/FreeRTOSv10.4.1/FreeRTOS/Source/queue.c ****         configASSERT( uxMaxCount != 0 );
 932              		.loc 1 746 9
 933 000a 7B68     		ldr	r3, [r7, #4]
 934 000c 002B     		cmp	r3, #0
 935 000e 0AD1     		bne	.L51
 936              	.LBB123:
 937              	.LBB124:
 197:../../../../dependencies/freertos/FreeRTOSv10.4.1/FreeRTOS/Source/portable/GCC/ARM_CM4F/portmacro.h ****         (
 938              		.loc 2 197 9
 939              		.syntax unified
 940              	@ 197 "../../../../dependencies/freertos/FreeRTOSv10.4.1/FreeRTOS/Source/portable/GCC/ARM_CM4F/port
 941 0010 4FF05003 			mov r3, #80												
 942 0014 83F31188 		msr basepri, r3											
 943 0018 BFF36F8F 		isb														
ARM GAS  /var/folders/kj/yzqgq53j3dg15vgwwwwgf5s00000gn/T//ccGgwidk.s 			page 34


 944 001c BFF34F8F 		dsb														
 945              	
 946              	@ 0 "" 2
 947              		.thumb
 948              		.syntax unified
 949 0020 3B61     		str	r3, [r7, #16]
 950              		.loc 2 205 5
 951 0022 00BF     		nop
 952              	.L52:
 953              	.LBE124:
 954              	.LBE123:
 955              		.loc 1 746 9 discriminator 1
 956 0024 FEE7     		b	.L52
 957              	.L51:
 747:../../../../dependencies/freertos/FreeRTOSv10.4.1/FreeRTOS/Source/queue.c ****         configASSERT( uxInitialCount <= uxMaxCount );
 958              		.loc 1 747 9
 959 0026 3A68     		ldr	r2, [r7]
 960 0028 7B68     		ldr	r3, [r7, #4]
 961 002a 9A42     		cmp	r2, r3
 962 002c 0AD9     		bls	.L53
 963              	.LBB125:
 964              	.LBB126:
 197:../../../../dependencies/freertos/FreeRTOSv10.4.1/FreeRTOS/Source/portable/GCC/ARM_CM4F/portmacro.h ****         (
 965              		.loc 2 197 9
 966              		.syntax unified
 967              	@ 197 "../../../../dependencies/freertos/FreeRTOSv10.4.1/FreeRTOS/Source/portable/GCC/ARM_CM4F/port
 968 002e 4FF05003 			mov r3, #80												
 969 0032 83F31188 		msr basepri, r3											
 970 0036 BFF36F8F 		isb														
 971 003a BFF34F8F 		dsb														
 972              	
 973              	@ 0 "" 2
 974              		.thumb
 975              		.syntax unified
 976 003e FB60     		str	r3, [r7, #12]
 977              		.loc 2 205 5
 978 0040 00BF     		nop
 979              	.L54:
 980              	.LBE126:
 981              	.LBE125:
 982              		.loc 1 747 9 discriminator 2
 983 0042 FEE7     		b	.L54
 984              	.L53:
 748:../../../../dependencies/freertos/FreeRTOSv10.4.1/FreeRTOS/Source/queue.c **** 
 749:../../../../dependencies/freertos/FreeRTOSv10.4.1/FreeRTOS/Source/queue.c ****         xHandle = xQueueGenericCreate( uxMaxCount, queueSEMAPHORE_QUEUE_ITEM_LENGTH, queueQUEUE_TYP
 985              		.loc 1 749 19
 986 0044 0222     		movs	r2, #2
 987 0046 0021     		movs	r1, #0
 988 0048 7868     		ldr	r0, [r7, #4]
 989 004a FFF7FEFF 		bl	xQueueGenericCreate
 990 004e 7861     		str	r0, [r7, #20]
 750:../../../../dependencies/freertos/FreeRTOSv10.4.1/FreeRTOS/Source/queue.c **** 
 751:../../../../dependencies/freertos/FreeRTOSv10.4.1/FreeRTOS/Source/queue.c ****         if( xHandle != NULL )
 991              		.loc 1 751 11
 992 0050 7B69     		ldr	r3, [r7, #20]
 993 0052 002B     		cmp	r3, #0
 994 0054 02D0     		beq	.L55
ARM GAS  /var/folders/kj/yzqgq53j3dg15vgwwwwgf5s00000gn/T//ccGgwidk.s 			page 35


 752:../../../../dependencies/freertos/FreeRTOSv10.4.1/FreeRTOS/Source/queue.c ****         {
 753:../../../../dependencies/freertos/FreeRTOSv10.4.1/FreeRTOS/Source/queue.c ****             ( ( Queue_t * ) xHandle )->uxMessagesWaiting = uxInitialCount;
 995              		.loc 1 753 58
 996 0056 7B69     		ldr	r3, [r7, #20]
 997 0058 3A68     		ldr	r2, [r7]
 998 005a 9A63     		str	r2, [r3, #56]
 999              	.L55:
 754:../../../../dependencies/freertos/FreeRTOSv10.4.1/FreeRTOS/Source/queue.c **** 
 755:../../../../dependencies/freertos/FreeRTOSv10.4.1/FreeRTOS/Source/queue.c ****             traceCREATE_COUNTING_SEMAPHORE();
 756:../../../../dependencies/freertos/FreeRTOSv10.4.1/FreeRTOS/Source/queue.c ****         }
 757:../../../../dependencies/freertos/FreeRTOSv10.4.1/FreeRTOS/Source/queue.c ****         else
 758:../../../../dependencies/freertos/FreeRTOSv10.4.1/FreeRTOS/Source/queue.c ****         {
 759:../../../../dependencies/freertos/FreeRTOSv10.4.1/FreeRTOS/Source/queue.c ****             traceCREATE_COUNTING_SEMAPHORE_FAILED();
 760:../../../../dependencies/freertos/FreeRTOSv10.4.1/FreeRTOS/Source/queue.c ****         }
 761:../../../../dependencies/freertos/FreeRTOSv10.4.1/FreeRTOS/Source/queue.c **** 
 762:../../../../dependencies/freertos/FreeRTOSv10.4.1/FreeRTOS/Source/queue.c ****         return xHandle;
 1000              		.loc 1 762 16
 1001 005c 7B69     		ldr	r3, [r7, #20]
 763:../../../../dependencies/freertos/FreeRTOSv10.4.1/FreeRTOS/Source/queue.c ****     }
 1002              		.loc 1 763 5
 1003 005e 1846     		mov	r0, r3
 1004 0060 1837     		adds	r7, r7, #24
 1005              	.LCFI49:
 1006              		.cfi_def_cfa_offset 8
 1007 0062 BD46     		mov	sp, r7
 1008              	.LCFI50:
 1009              		.cfi_def_cfa_register 13
 1010              		@ sp needed
 1011 0064 80BD     		pop	{r7, pc}
 1012              		.cfi_endproc
 1013              	.LFE14:
 1015              		.section	.text.xQueueGenericSend,"ax",%progbits
 1016              		.align	1
 1017              		.global	xQueueGenericSend
 1018              		.syntax unified
 1019              		.thumb
 1020              		.thumb_func
 1021              		.fpu fpv4-sp-d16
 1023              	xQueueGenericSend:
 1024              	.LFB15:
 764:../../../../dependencies/freertos/FreeRTOSv10.4.1/FreeRTOS/Source/queue.c **** 
 765:../../../../dependencies/freertos/FreeRTOSv10.4.1/FreeRTOS/Source/queue.c **** #endif /* ( ( configUSE_COUNTING_SEMAPHORES == 1 ) && ( configSUPPORT_DYNAMIC_ALLOCATION == 1 ) ) *
 766:../../../../dependencies/freertos/FreeRTOSv10.4.1/FreeRTOS/Source/queue.c **** /*-----------------------------------------------------------*/
 767:../../../../dependencies/freertos/FreeRTOSv10.4.1/FreeRTOS/Source/queue.c **** 
 768:../../../../dependencies/freertos/FreeRTOSv10.4.1/FreeRTOS/Source/queue.c **** BaseType_t xQueueGenericSend( QueueHandle_t xQueue,
 769:../../../../dependencies/freertos/FreeRTOSv10.4.1/FreeRTOS/Source/queue.c ****                               const void * const pvItemToQueue,
 770:../../../../dependencies/freertos/FreeRTOSv10.4.1/FreeRTOS/Source/queue.c ****                               TickType_t xTicksToWait,
 771:../../../../dependencies/freertos/FreeRTOSv10.4.1/FreeRTOS/Source/queue.c ****                               const BaseType_t xCopyPosition )
 772:../../../../dependencies/freertos/FreeRTOSv10.4.1/FreeRTOS/Source/queue.c **** {
 1025              		.loc 1 772 1
 1026              		.cfi_startproc
 1027              		@ args = 0, pretend = 0, frame = 56
 1028              		@ frame_needed = 1, uses_anonymous_args = 0
 1029 0000 80B5     		push	{r7, lr}
 1030              	.LCFI51:
 1031              		.cfi_def_cfa_offset 8
 1032              		.cfi_offset 7, -8
ARM GAS  /var/folders/kj/yzqgq53j3dg15vgwwwwgf5s00000gn/T//ccGgwidk.s 			page 36


 1033              		.cfi_offset 14, -4
 1034 0002 8EB0     		sub	sp, sp, #56
 1035              	.LCFI52:
 1036              		.cfi_def_cfa_offset 64
 1037 0004 00AF     		add	r7, sp, #0
 1038              	.LCFI53:
 1039              		.cfi_def_cfa_register 7
 1040 0006 F860     		str	r0, [r7, #12]
 1041 0008 B960     		str	r1, [r7, #8]
 1042 000a 7A60     		str	r2, [r7, #4]
 1043 000c 3B60     		str	r3, [r7]
 773:../../../../dependencies/freertos/FreeRTOSv10.4.1/FreeRTOS/Source/queue.c ****     BaseType_t xEntryTimeSet = pdFALSE, xYieldRequired;
 1044              		.loc 1 773 16
 1045 000e 0023     		movs	r3, #0
 1046 0010 7B63     		str	r3, [r7, #52]
 774:../../../../dependencies/freertos/FreeRTOSv10.4.1/FreeRTOS/Source/queue.c ****     TimeOut_t xTimeOut;
 775:../../../../dependencies/freertos/FreeRTOSv10.4.1/FreeRTOS/Source/queue.c ****     Queue_t * const pxQueue = xQueue;
 1047              		.loc 1 775 21
 1048 0012 FB68     		ldr	r3, [r7, #12]
 1049 0014 3B63     		str	r3, [r7, #48]
 776:../../../../dependencies/freertos/FreeRTOSv10.4.1/FreeRTOS/Source/queue.c **** 
 777:../../../../dependencies/freertos/FreeRTOSv10.4.1/FreeRTOS/Source/queue.c ****     configASSERT( pxQueue );
 1050              		.loc 1 777 5
 1051 0016 3B6B     		ldr	r3, [r7, #48]
 1052 0018 002B     		cmp	r3, #0
 1053 001a 0AD1     		bne	.L58
 1054              	.LBB127:
 1055              	.LBB128:
 197:../../../../dependencies/freertos/FreeRTOSv10.4.1/FreeRTOS/Source/portable/GCC/ARM_CM4F/portmacro.h ****         (
 1056              		.loc 2 197 9
 1057              		.syntax unified
 1058              	@ 197 "../../../../dependencies/freertos/FreeRTOSv10.4.1/FreeRTOS/Source/portable/GCC/ARM_CM4F/port
 1059 001c 4FF05003 			mov r3, #80												
 1060 0020 83F31188 		msr basepri, r3											
 1061 0024 BFF36F8F 		isb														
 1062 0028 BFF34F8F 		dsb														
 1063              	
 1064              	@ 0 "" 2
 1065              		.thumb
 1066              		.syntax unified
 1067 002c BB62     		str	r3, [r7, #40]
 1068              		.loc 2 205 5
 1069 002e 00BF     		nop
 1070              	.L59:
 1071              	.LBE128:
 1072              	.LBE127:
 1073              		.loc 1 777 5 discriminator 1
 1074 0030 FEE7     		b	.L59
 1075              	.L58:
 778:../../../../dependencies/freertos/FreeRTOSv10.4.1/FreeRTOS/Source/queue.c ****     configASSERT( !( ( pvItemToQueue == NULL ) && ( pxQueue->uxItemSize != ( UBaseType_t ) 0U ) ) )
 1076              		.loc 1 778 5
 1077 0032 BB68     		ldr	r3, [r7, #8]
 1078 0034 002B     		cmp	r3, #0
 1079 0036 03D1     		bne	.L60
 1080              		.loc 1 778 5 is_stmt 0 discriminator 2
 1081 0038 3B6B     		ldr	r3, [r7, #48]
 1082 003a 1B6C     		ldr	r3, [r3, #64]
ARM GAS  /var/folders/kj/yzqgq53j3dg15vgwwwwgf5s00000gn/T//ccGgwidk.s 			page 37


 1083 003c 002B     		cmp	r3, #0
 1084 003e 01D1     		bne	.L61
 1085              	.L60:
 1086              		.loc 1 778 5 discriminator 3
 1087 0040 0123     		movs	r3, #1
 1088 0042 00E0     		b	.L62
 1089              	.L61:
 1090              		.loc 1 778 5 discriminator 4
 1091 0044 0023     		movs	r3, #0
 1092              	.L62:
 1093              		.loc 1 778 5 discriminator 6
 1094 0046 002B     		cmp	r3, #0
 1095 0048 0AD1     		bne	.L63
 1096              	.LBB129:
 1097              	.LBB130:
 197:../../../../dependencies/freertos/FreeRTOSv10.4.1/FreeRTOS/Source/portable/GCC/ARM_CM4F/portmacro.h ****         (
 1098              		.loc 2 197 9 is_stmt 1
 1099              		.syntax unified
 1100              	@ 197 "../../../../dependencies/freertos/FreeRTOSv10.4.1/FreeRTOS/Source/portable/GCC/ARM_CM4F/port
 1101 004a 4FF05003 			mov r3, #80												
 1102 004e 83F31188 		msr basepri, r3											
 1103 0052 BFF36F8F 		isb														
 1104 0056 BFF34F8F 		dsb														
 1105              	
 1106              	@ 0 "" 2
 1107              		.thumb
 1108              		.syntax unified
 1109 005a 7B62     		str	r3, [r7, #36]
 1110              		.loc 2 205 5
 1111 005c 00BF     		nop
 1112              	.L64:
 1113              	.LBE130:
 1114              	.LBE129:
 1115              		.loc 1 778 5 discriminator 2
 1116 005e FEE7     		b	.L64
 1117              	.L63:
 779:../../../../dependencies/freertos/FreeRTOSv10.4.1/FreeRTOS/Source/queue.c ****     configASSERT( !( ( xCopyPosition == queueOVERWRITE ) && ( pxQueue->uxLength != 1 ) ) );
 1118              		.loc 1 779 5
 1119 0060 3B68     		ldr	r3, [r7]
 1120 0062 022B     		cmp	r3, #2
 1121 0064 03D1     		bne	.L65
 1122              		.loc 1 779 5 is_stmt 0 discriminator 2
 1123 0066 3B6B     		ldr	r3, [r7, #48]
 1124 0068 DB6B     		ldr	r3, [r3, #60]
 1125 006a 012B     		cmp	r3, #1
 1126 006c 01D1     		bne	.L66
 1127              	.L65:
 1128              		.loc 1 779 5 discriminator 3
 1129 006e 0123     		movs	r3, #1
 1130 0070 00E0     		b	.L67
 1131              	.L66:
 1132              		.loc 1 779 5 discriminator 4
 1133 0072 0023     		movs	r3, #0
 1134              	.L67:
 1135              		.loc 1 779 5 discriminator 6
 1136 0074 002B     		cmp	r3, #0
 1137 0076 0AD1     		bne	.L68
ARM GAS  /var/folders/kj/yzqgq53j3dg15vgwwwwgf5s00000gn/T//ccGgwidk.s 			page 38


 1138              	.LBB131:
 1139              	.LBB132:
 197:../../../../dependencies/freertos/FreeRTOSv10.4.1/FreeRTOS/Source/portable/GCC/ARM_CM4F/portmacro.h ****         (
 1140              		.loc 2 197 9 is_stmt 1
 1141              		.syntax unified
 1142              	@ 197 "../../../../dependencies/freertos/FreeRTOSv10.4.1/FreeRTOS/Source/portable/GCC/ARM_CM4F/port
 1143 0078 4FF05003 			mov r3, #80												
 1144 007c 83F31188 		msr basepri, r3											
 1145 0080 BFF36F8F 		isb														
 1146 0084 BFF34F8F 		dsb														
 1147              	
 1148              	@ 0 "" 2
 1149              		.thumb
 1150              		.syntax unified
 1151 0088 3B62     		str	r3, [r7, #32]
 1152              		.loc 2 205 5
 1153 008a 00BF     		nop
 1154              	.L69:
 1155              	.LBE132:
 1156              	.LBE131:
 1157              		.loc 1 779 5 discriminator 3
 1158 008c FEE7     		b	.L69
 1159              	.L68:
 780:../../../../dependencies/freertos/FreeRTOSv10.4.1/FreeRTOS/Source/queue.c ****     #if ( ( INCLUDE_xTaskGetSchedulerState == 1 ) || ( configUSE_TIMERS == 1 ) )
 781:../../../../dependencies/freertos/FreeRTOSv10.4.1/FreeRTOS/Source/queue.c ****         {
 782:../../../../dependencies/freertos/FreeRTOSv10.4.1/FreeRTOS/Source/queue.c ****             configASSERT( !( ( xTaskGetSchedulerState() == taskSCHEDULER_SUSPENDED ) && ( xTicksToW
 1160              		.loc 1 782 13
 1161 008e FFF7FEFF 		bl	xTaskGetSchedulerState
 1162 0092 0346     		mov	r3, r0
 1163 0094 002B     		cmp	r3, #0
 1164 0096 02D1     		bne	.L70
 1165              		.loc 1 782 13 is_stmt 0 discriminator 2
 1166 0098 7B68     		ldr	r3, [r7, #4]
 1167 009a 002B     		cmp	r3, #0
 1168 009c 01D1     		bne	.L71
 1169              	.L70:
 1170              		.loc 1 782 13 discriminator 3
 1171 009e 0123     		movs	r3, #1
 1172 00a0 00E0     		b	.L72
 1173              	.L71:
 1174              		.loc 1 782 13 discriminator 4
 1175 00a2 0023     		movs	r3, #0
 1176              	.L72:
 1177              		.loc 1 782 13 discriminator 6
 1178 00a4 002B     		cmp	r3, #0
 1179 00a6 0AD1     		bne	.L73
 1180              	.LBB133:
 1181              	.LBB134:
 197:../../../../dependencies/freertos/FreeRTOSv10.4.1/FreeRTOS/Source/portable/GCC/ARM_CM4F/portmacro.h ****         (
 1182              		.loc 2 197 9 is_stmt 1
 1183              		.syntax unified
 1184              	@ 197 "../../../../dependencies/freertos/FreeRTOSv10.4.1/FreeRTOS/Source/portable/GCC/ARM_CM4F/port
 1185 00a8 4FF05003 			mov r3, #80												
 1186 00ac 83F31188 		msr basepri, r3											
 1187 00b0 BFF36F8F 		isb														
 1188 00b4 BFF34F8F 		dsb														
 1189              	
ARM GAS  /var/folders/kj/yzqgq53j3dg15vgwwwwgf5s00000gn/T//ccGgwidk.s 			page 39


 1190              	@ 0 "" 2
 1191              		.thumb
 1192              		.syntax unified
 1193 00b8 FB61     		str	r3, [r7, #28]
 1194              		.loc 2 205 5
 1195 00ba 00BF     		nop
 1196              	.L74:
 1197              	.LBE134:
 1198              	.LBE133:
 1199              		.loc 1 782 13 discriminator 4
 1200 00bc FEE7     		b	.L74
 1201              	.L73:
 783:../../../../dependencies/freertos/FreeRTOSv10.4.1/FreeRTOS/Source/queue.c ****         }
 784:../../../../dependencies/freertos/FreeRTOSv10.4.1/FreeRTOS/Source/queue.c ****     #endif
 785:../../../../dependencies/freertos/FreeRTOSv10.4.1/FreeRTOS/Source/queue.c **** 
 786:../../../../dependencies/freertos/FreeRTOSv10.4.1/FreeRTOS/Source/queue.c ****     /*lint -save -e904 This function relaxes the coding standard somewhat to
 787:../../../../dependencies/freertos/FreeRTOSv10.4.1/FreeRTOS/Source/queue.c ****      * allow return statements within the function itself.  This is done in the
 788:../../../../dependencies/freertos/FreeRTOSv10.4.1/FreeRTOS/Source/queue.c ****      * interest of execution time efficiency. */
 789:../../../../dependencies/freertos/FreeRTOSv10.4.1/FreeRTOS/Source/queue.c ****     for( ; ; )
 790:../../../../dependencies/freertos/FreeRTOSv10.4.1/FreeRTOS/Source/queue.c ****     {
 791:../../../../dependencies/freertos/FreeRTOSv10.4.1/FreeRTOS/Source/queue.c ****         taskENTER_CRITICAL();
 1202              		.loc 1 791 9
 1203 00be FFF7FEFF 		bl	vPortEnterCritical
 792:../../../../dependencies/freertos/FreeRTOSv10.4.1/FreeRTOS/Source/queue.c ****         {
 793:../../../../dependencies/freertos/FreeRTOSv10.4.1/FreeRTOS/Source/queue.c ****             /* Is there room on the queue now?  The running task must be the
 794:../../../../dependencies/freertos/FreeRTOSv10.4.1/FreeRTOS/Source/queue.c ****              * highest priority task wanting to access the queue.  If the head item
 795:../../../../dependencies/freertos/FreeRTOSv10.4.1/FreeRTOS/Source/queue.c ****              * in the queue is to be overwritten then it does not matter if the
 796:../../../../dependencies/freertos/FreeRTOSv10.4.1/FreeRTOS/Source/queue.c ****              * queue is full. */
 797:../../../../dependencies/freertos/FreeRTOSv10.4.1/FreeRTOS/Source/queue.c ****             if( ( pxQueue->uxMessagesWaiting < pxQueue->uxLength ) || ( xCopyPosition == queueOVERW
 1204              		.loc 1 797 26
 1205 00c2 3B6B     		ldr	r3, [r7, #48]
 1206 00c4 9A6B     		ldr	r2, [r3, #56]
 1207              		.loc 1 797 55
 1208 00c6 3B6B     		ldr	r3, [r7, #48]
 1209 00c8 DB6B     		ldr	r3, [r3, #60]
 1210              		.loc 1 797 15
 1211 00ca 9A42     		cmp	r2, r3
 1212 00cc 02D3     		bcc	.L75
 1213              		.loc 1 797 68 discriminator 1
 1214 00ce 3B68     		ldr	r3, [r7]
 1215 00d0 022B     		cmp	r3, #2
 1216 00d2 29D1     		bne	.L76
 1217              	.L75:
 798:../../../../dependencies/freertos/FreeRTOSv10.4.1/FreeRTOS/Source/queue.c ****             {
 799:../../../../dependencies/freertos/FreeRTOSv10.4.1/FreeRTOS/Source/queue.c ****                 traceQUEUE_SEND( pxQueue );
 800:../../../../dependencies/freertos/FreeRTOSv10.4.1/FreeRTOS/Source/queue.c **** 
 801:../../../../dependencies/freertos/FreeRTOSv10.4.1/FreeRTOS/Source/queue.c ****                 #if ( configUSE_QUEUE_SETS == 1 )
 802:../../../../dependencies/freertos/FreeRTOSv10.4.1/FreeRTOS/Source/queue.c ****                     {
 803:../../../../dependencies/freertos/FreeRTOSv10.4.1/FreeRTOS/Source/queue.c ****                         const UBaseType_t uxPreviousMessagesWaiting = pxQueue->uxMessagesWaiting;
 804:../../../../dependencies/freertos/FreeRTOSv10.4.1/FreeRTOS/Source/queue.c **** 
 805:../../../../dependencies/freertos/FreeRTOSv10.4.1/FreeRTOS/Source/queue.c ****                         xYieldRequired = prvCopyDataToQueue( pxQueue, pvItemToQueue, xCopyPosition 
 806:../../../../dependencies/freertos/FreeRTOSv10.4.1/FreeRTOS/Source/queue.c **** 
 807:../../../../dependencies/freertos/FreeRTOSv10.4.1/FreeRTOS/Source/queue.c ****                         if( pxQueue->pxQueueSetContainer != NULL )
 808:../../../../dependencies/freertos/FreeRTOSv10.4.1/FreeRTOS/Source/queue.c ****                         {
 809:../../../../dependencies/freertos/FreeRTOSv10.4.1/FreeRTOS/Source/queue.c ****                             if( ( xCopyPosition == queueOVERWRITE ) && ( uxPreviousMessagesWaiting 
 810:../../../../dependencies/freertos/FreeRTOSv10.4.1/FreeRTOS/Source/queue.c ****                             {
 811:../../../../dependencies/freertos/FreeRTOSv10.4.1/FreeRTOS/Source/queue.c ****                                 /* Do not notify the queue set as an existing item
ARM GAS  /var/folders/kj/yzqgq53j3dg15vgwwwwgf5s00000gn/T//ccGgwidk.s 			page 40


 812:../../../../dependencies/freertos/FreeRTOSv10.4.1/FreeRTOS/Source/queue.c ****                                  * was overwritten in the queue so the number of items
 813:../../../../dependencies/freertos/FreeRTOSv10.4.1/FreeRTOS/Source/queue.c ****                                  * in the queue has not changed. */
 814:../../../../dependencies/freertos/FreeRTOSv10.4.1/FreeRTOS/Source/queue.c ****                                 mtCOVERAGE_TEST_MARKER();
 815:../../../../dependencies/freertos/FreeRTOSv10.4.1/FreeRTOS/Source/queue.c ****                             }
 816:../../../../dependencies/freertos/FreeRTOSv10.4.1/FreeRTOS/Source/queue.c ****                             else if( prvNotifyQueueSetContainer( pxQueue ) != pdFALSE )
 817:../../../../dependencies/freertos/FreeRTOSv10.4.1/FreeRTOS/Source/queue.c ****                             {
 818:../../../../dependencies/freertos/FreeRTOSv10.4.1/FreeRTOS/Source/queue.c ****                                 /* The queue is a member of a queue set, and posting
 819:../../../../dependencies/freertos/FreeRTOSv10.4.1/FreeRTOS/Source/queue.c ****                                  * to the queue set caused a higher priority task to
 820:../../../../dependencies/freertos/FreeRTOSv10.4.1/FreeRTOS/Source/queue.c ****                                  * unblock. A context switch is required. */
 821:../../../../dependencies/freertos/FreeRTOSv10.4.1/FreeRTOS/Source/queue.c ****                                 queueYIELD_IF_USING_PREEMPTION();
 822:../../../../dependencies/freertos/FreeRTOSv10.4.1/FreeRTOS/Source/queue.c ****                             }
 823:../../../../dependencies/freertos/FreeRTOSv10.4.1/FreeRTOS/Source/queue.c ****                             else
 824:../../../../dependencies/freertos/FreeRTOSv10.4.1/FreeRTOS/Source/queue.c ****                             {
 825:../../../../dependencies/freertos/FreeRTOSv10.4.1/FreeRTOS/Source/queue.c ****                                 mtCOVERAGE_TEST_MARKER();
 826:../../../../dependencies/freertos/FreeRTOSv10.4.1/FreeRTOS/Source/queue.c ****                             }
 827:../../../../dependencies/freertos/FreeRTOSv10.4.1/FreeRTOS/Source/queue.c ****                         }
 828:../../../../dependencies/freertos/FreeRTOSv10.4.1/FreeRTOS/Source/queue.c ****                         else
 829:../../../../dependencies/freertos/FreeRTOSv10.4.1/FreeRTOS/Source/queue.c ****                         {
 830:../../../../dependencies/freertos/FreeRTOSv10.4.1/FreeRTOS/Source/queue.c ****                             /* If there was a task waiting for data to arrive on the
 831:../../../../dependencies/freertos/FreeRTOSv10.4.1/FreeRTOS/Source/queue.c ****                              * queue then unblock it now. */
 832:../../../../dependencies/freertos/FreeRTOSv10.4.1/FreeRTOS/Source/queue.c ****                             if( listLIST_IS_EMPTY( &( pxQueue->xTasksWaitingToReceive ) ) == pdFALS
 833:../../../../dependencies/freertos/FreeRTOSv10.4.1/FreeRTOS/Source/queue.c ****                             {
 834:../../../../dependencies/freertos/FreeRTOSv10.4.1/FreeRTOS/Source/queue.c ****                                 if( xTaskRemoveFromEventList( &( pxQueue->xTasksWaitingToReceive ) 
 835:../../../../dependencies/freertos/FreeRTOSv10.4.1/FreeRTOS/Source/queue.c ****                                 {
 836:../../../../dependencies/freertos/FreeRTOSv10.4.1/FreeRTOS/Source/queue.c ****                                     /* The unblocked task has a priority higher than
 837:../../../../dependencies/freertos/FreeRTOSv10.4.1/FreeRTOS/Source/queue.c ****                                      * our own so yield immediately.  Yes it is ok to
 838:../../../../dependencies/freertos/FreeRTOSv10.4.1/FreeRTOS/Source/queue.c ****                                      * do this from within the critical section - the
 839:../../../../dependencies/freertos/FreeRTOSv10.4.1/FreeRTOS/Source/queue.c ****                                      * kernel takes care of that. */
 840:../../../../dependencies/freertos/FreeRTOSv10.4.1/FreeRTOS/Source/queue.c ****                                     queueYIELD_IF_USING_PREEMPTION();
 841:../../../../dependencies/freertos/FreeRTOSv10.4.1/FreeRTOS/Source/queue.c ****                                 }
 842:../../../../dependencies/freertos/FreeRTOSv10.4.1/FreeRTOS/Source/queue.c ****                                 else
 843:../../../../dependencies/freertos/FreeRTOSv10.4.1/FreeRTOS/Source/queue.c ****                                 {
 844:../../../../dependencies/freertos/FreeRTOSv10.4.1/FreeRTOS/Source/queue.c ****                                     mtCOVERAGE_TEST_MARKER();
 845:../../../../dependencies/freertos/FreeRTOSv10.4.1/FreeRTOS/Source/queue.c ****                                 }
 846:../../../../dependencies/freertos/FreeRTOSv10.4.1/FreeRTOS/Source/queue.c ****                             }
 847:../../../../dependencies/freertos/FreeRTOSv10.4.1/FreeRTOS/Source/queue.c ****                             else if( xYieldRequired != pdFALSE )
 848:../../../../dependencies/freertos/FreeRTOSv10.4.1/FreeRTOS/Source/queue.c ****                             {
 849:../../../../dependencies/freertos/FreeRTOSv10.4.1/FreeRTOS/Source/queue.c ****                                 /* This path is a special case that will only get
 850:../../../../dependencies/freertos/FreeRTOSv10.4.1/FreeRTOS/Source/queue.c ****                                  * executed if the task was holding multiple mutexes
 851:../../../../dependencies/freertos/FreeRTOSv10.4.1/FreeRTOS/Source/queue.c ****                                  * and the mutexes were given back in an order that is
 852:../../../../dependencies/freertos/FreeRTOSv10.4.1/FreeRTOS/Source/queue.c ****                                  * different to that in which they were taken. */
 853:../../../../dependencies/freertos/FreeRTOSv10.4.1/FreeRTOS/Source/queue.c ****                                 queueYIELD_IF_USING_PREEMPTION();
 854:../../../../dependencies/freertos/FreeRTOSv10.4.1/FreeRTOS/Source/queue.c ****                             }
 855:../../../../dependencies/freertos/FreeRTOSv10.4.1/FreeRTOS/Source/queue.c ****                             else
 856:../../../../dependencies/freertos/FreeRTOSv10.4.1/FreeRTOS/Source/queue.c ****                             {
 857:../../../../dependencies/freertos/FreeRTOSv10.4.1/FreeRTOS/Source/queue.c ****                                 mtCOVERAGE_TEST_MARKER();
 858:../../../../dependencies/freertos/FreeRTOSv10.4.1/FreeRTOS/Source/queue.c ****                             }
 859:../../../../dependencies/freertos/FreeRTOSv10.4.1/FreeRTOS/Source/queue.c ****                         }
 860:../../../../dependencies/freertos/FreeRTOSv10.4.1/FreeRTOS/Source/queue.c ****                     }
 861:../../../../dependencies/freertos/FreeRTOSv10.4.1/FreeRTOS/Source/queue.c ****                 #else /* configUSE_QUEUE_SETS */
 862:../../../../dependencies/freertos/FreeRTOSv10.4.1/FreeRTOS/Source/queue.c ****                     {
 863:../../../../dependencies/freertos/FreeRTOSv10.4.1/FreeRTOS/Source/queue.c ****                         xYieldRequired = prvCopyDataToQueue( pxQueue, pvItemToQueue, xCopyPosition 
 1218              		.loc 1 863 42
 1219 00d4 3A68     		ldr	r2, [r7]
 1220 00d6 B968     		ldr	r1, [r7, #8]
 1221 00d8 386B     		ldr	r0, [r7, #48]
 1222 00da FFF7FEFF 		bl	prvCopyDataToQueue
ARM GAS  /var/folders/kj/yzqgq53j3dg15vgwwwwgf5s00000gn/T//ccGgwidk.s 			page 41


 1223 00de F862     		str	r0, [r7, #44]
 864:../../../../dependencies/freertos/FreeRTOSv10.4.1/FreeRTOS/Source/queue.c **** 
 865:../../../../dependencies/freertos/FreeRTOSv10.4.1/FreeRTOS/Source/queue.c ****                         /* If there was a task waiting for data to arrive on the
 866:../../../../dependencies/freertos/FreeRTOSv10.4.1/FreeRTOS/Source/queue.c ****                          * queue then unblock it now. */
 867:../../../../dependencies/freertos/FreeRTOSv10.4.1/FreeRTOS/Source/queue.c ****                         if( listLIST_IS_EMPTY( &( pxQueue->xTasksWaitingToReceive ) ) == pdFALSE )
 1224              		.loc 1 867 29
 1225 00e0 3B6B     		ldr	r3, [r7, #48]
 1226 00e2 5B6A     		ldr	r3, [r3, #36]
 1227              		.loc 1 867 27
 1228 00e4 002B     		cmp	r3, #0
 1229 00e6 10D0     		beq	.L77
 868:../../../../dependencies/freertos/FreeRTOSv10.4.1/FreeRTOS/Source/queue.c ****                         {
 869:../../../../dependencies/freertos/FreeRTOSv10.4.1/FreeRTOS/Source/queue.c ****                             if( xTaskRemoveFromEventList( &( pxQueue->xTasksWaitingToReceive ) ) !=
 1230              		.loc 1 869 59
 1231 00e8 3B6B     		ldr	r3, [r7, #48]
 1232 00ea 2433     		adds	r3, r3, #36
 1233              		.loc 1 869 33
 1234 00ec 1846     		mov	r0, r3
 1235 00ee FFF7FEFF 		bl	xTaskRemoveFromEventList
 1236 00f2 0346     		mov	r3, r0
 1237              		.loc 1 869 31
 1238 00f4 002B     		cmp	r3, #0
 1239 00f6 13D0     		beq	.L78
 870:../../../../dependencies/freertos/FreeRTOSv10.4.1/FreeRTOS/Source/queue.c ****                             {
 871:../../../../dependencies/freertos/FreeRTOSv10.4.1/FreeRTOS/Source/queue.c ****                                 /* The unblocked task has a priority higher than
 872:../../../../dependencies/freertos/FreeRTOSv10.4.1/FreeRTOS/Source/queue.c ****                                  * our own so yield immediately.  Yes it is ok to do
 873:../../../../dependencies/freertos/FreeRTOSv10.4.1/FreeRTOS/Source/queue.c ****                                  * this from within the critical section - the kernel
 874:../../../../dependencies/freertos/FreeRTOSv10.4.1/FreeRTOS/Source/queue.c ****                                  * takes care of that. */
 875:../../../../dependencies/freertos/FreeRTOSv10.4.1/FreeRTOS/Source/queue.c ****                                 queueYIELD_IF_USING_PREEMPTION();
 1240              		.loc 1 875 33
 1241 00f8 3F4B     		ldr	r3, .L88
 1242 00fa 4FF08052 		mov	r2, #268435456
 1243 00fe 1A60     		str	r2, [r3]
 1244              		.syntax unified
 1245              	@ 875 "../../../../dependencies/freertos/FreeRTOSv10.4.1/FreeRTOS/Source/queue.c" 1
 1246 0100 BFF34F8F 		dsb
 1247              	@ 0 "" 2
 1248              	@ 875 "../../../../dependencies/freertos/FreeRTOSv10.4.1/FreeRTOS/Source/queue.c" 1
 1249 0104 BFF36F8F 		isb
 1250              	@ 0 "" 2
 1251              		.thumb
 1252              		.syntax unified
 1253 0108 0AE0     		b	.L78
 1254              	.L77:
 876:../../../../dependencies/freertos/FreeRTOSv10.4.1/FreeRTOS/Source/queue.c ****                             }
 877:../../../../dependencies/freertos/FreeRTOSv10.4.1/FreeRTOS/Source/queue.c ****                             else
 878:../../../../dependencies/freertos/FreeRTOSv10.4.1/FreeRTOS/Source/queue.c ****                             {
 879:../../../../dependencies/freertos/FreeRTOSv10.4.1/FreeRTOS/Source/queue.c ****                                 mtCOVERAGE_TEST_MARKER();
 880:../../../../dependencies/freertos/FreeRTOSv10.4.1/FreeRTOS/Source/queue.c ****                             }
 881:../../../../dependencies/freertos/FreeRTOSv10.4.1/FreeRTOS/Source/queue.c ****                         }
 882:../../../../dependencies/freertos/FreeRTOSv10.4.1/FreeRTOS/Source/queue.c ****                         else if( xYieldRequired != pdFALSE )
 1255              		.loc 1 882 32
 1256 010a FB6A     		ldr	r3, [r7, #44]
 1257 010c 002B     		cmp	r3, #0
 1258 010e 07D0     		beq	.L78
 883:../../../../dependencies/freertos/FreeRTOSv10.4.1/FreeRTOS/Source/queue.c ****                         {
 884:../../../../dependencies/freertos/FreeRTOSv10.4.1/FreeRTOS/Source/queue.c ****                             /* This path is a special case that will only get
ARM GAS  /var/folders/kj/yzqgq53j3dg15vgwwwwgf5s00000gn/T//ccGgwidk.s 			page 42


 885:../../../../dependencies/freertos/FreeRTOSv10.4.1/FreeRTOS/Source/queue.c ****                              * executed if the task was holding multiple mutexes and
 886:../../../../dependencies/freertos/FreeRTOSv10.4.1/FreeRTOS/Source/queue.c ****                              * the mutexes were given back in an order that is
 887:../../../../dependencies/freertos/FreeRTOSv10.4.1/FreeRTOS/Source/queue.c ****                              * different to that in which they were taken. */
 888:../../../../dependencies/freertos/FreeRTOSv10.4.1/FreeRTOS/Source/queue.c ****                             queueYIELD_IF_USING_PREEMPTION();
 1259              		.loc 1 888 29
 1260 0110 394B     		ldr	r3, .L88
 1261 0112 4FF08052 		mov	r2, #268435456
 1262 0116 1A60     		str	r2, [r3]
 1263              		.syntax unified
 1264              	@ 888 "../../../../dependencies/freertos/FreeRTOSv10.4.1/FreeRTOS/Source/queue.c" 1
 1265 0118 BFF34F8F 		dsb
 1266              	@ 0 "" 2
 1267              	@ 888 "../../../../dependencies/freertos/FreeRTOSv10.4.1/FreeRTOS/Source/queue.c" 1
 1268 011c BFF36F8F 		isb
 1269              	@ 0 "" 2
 1270              		.thumb
 1271              		.syntax unified
 1272              	.L78:
 889:../../../../dependencies/freertos/FreeRTOSv10.4.1/FreeRTOS/Source/queue.c ****                         }
 890:../../../../dependencies/freertos/FreeRTOSv10.4.1/FreeRTOS/Source/queue.c ****                         else
 891:../../../../dependencies/freertos/FreeRTOSv10.4.1/FreeRTOS/Source/queue.c ****                         {
 892:../../../../dependencies/freertos/FreeRTOSv10.4.1/FreeRTOS/Source/queue.c ****                             mtCOVERAGE_TEST_MARKER();
 893:../../../../dependencies/freertos/FreeRTOSv10.4.1/FreeRTOS/Source/queue.c ****                         }
 894:../../../../dependencies/freertos/FreeRTOSv10.4.1/FreeRTOS/Source/queue.c ****                     }
 895:../../../../dependencies/freertos/FreeRTOSv10.4.1/FreeRTOS/Source/queue.c ****                 #endif /* configUSE_QUEUE_SETS */
 896:../../../../dependencies/freertos/FreeRTOSv10.4.1/FreeRTOS/Source/queue.c **** 
 897:../../../../dependencies/freertos/FreeRTOSv10.4.1/FreeRTOS/Source/queue.c ****                 taskEXIT_CRITICAL();
 1273              		.loc 1 897 17
 1274 0120 FFF7FEFF 		bl	vPortExitCritical
 898:../../../../dependencies/freertos/FreeRTOSv10.4.1/FreeRTOS/Source/queue.c ****                 return pdPASS;
 1275              		.loc 1 898 24
 1276 0124 0123     		movs	r3, #1
 1277 0126 63E0     		b	.L87
 1278              	.L76:
 899:../../../../dependencies/freertos/FreeRTOSv10.4.1/FreeRTOS/Source/queue.c ****             }
 900:../../../../dependencies/freertos/FreeRTOSv10.4.1/FreeRTOS/Source/queue.c ****             else
 901:../../../../dependencies/freertos/FreeRTOSv10.4.1/FreeRTOS/Source/queue.c ****             {
 902:../../../../dependencies/freertos/FreeRTOSv10.4.1/FreeRTOS/Source/queue.c ****                 if( xTicksToWait == ( TickType_t ) 0 )
 1279              		.loc 1 902 34
 1280 0128 7B68     		ldr	r3, [r7, #4]
 1281              		.loc 1 902 19
 1282 012a 002B     		cmp	r3, #0
 1283 012c 03D1     		bne	.L80
 903:../../../../dependencies/freertos/FreeRTOSv10.4.1/FreeRTOS/Source/queue.c ****                 {
 904:../../../../dependencies/freertos/FreeRTOSv10.4.1/FreeRTOS/Source/queue.c ****                     /* The queue was full and no block time is specified (or
 905:../../../../dependencies/freertos/FreeRTOSv10.4.1/FreeRTOS/Source/queue.c ****                      * the block time has expired) so leave now. */
 906:../../../../dependencies/freertos/FreeRTOSv10.4.1/FreeRTOS/Source/queue.c ****                     taskEXIT_CRITICAL();
 1284              		.loc 1 906 21
 1285 012e FFF7FEFF 		bl	vPortExitCritical
 907:../../../../dependencies/freertos/FreeRTOSv10.4.1/FreeRTOS/Source/queue.c **** 
 908:../../../../dependencies/freertos/FreeRTOSv10.4.1/FreeRTOS/Source/queue.c ****                     /* Return to the original privilege level before exiting
 909:../../../../dependencies/freertos/FreeRTOSv10.4.1/FreeRTOS/Source/queue.c ****                      * the function. */
 910:../../../../dependencies/freertos/FreeRTOSv10.4.1/FreeRTOS/Source/queue.c ****                     traceQUEUE_SEND_FAILED( pxQueue );
 911:../../../../dependencies/freertos/FreeRTOSv10.4.1/FreeRTOS/Source/queue.c ****                     return errQUEUE_FULL;
 1286              		.loc 1 911 28
 1287 0132 0023     		movs	r3, #0
 1288 0134 5CE0     		b	.L87
ARM GAS  /var/folders/kj/yzqgq53j3dg15vgwwwwgf5s00000gn/T//ccGgwidk.s 			page 43


 1289              	.L80:
 912:../../../../dependencies/freertos/FreeRTOSv10.4.1/FreeRTOS/Source/queue.c ****                 }
 913:../../../../dependencies/freertos/FreeRTOSv10.4.1/FreeRTOS/Source/queue.c ****                 else if( xEntryTimeSet == pdFALSE )
 1290              		.loc 1 913 24
 1291 0136 7B6B     		ldr	r3, [r7, #52]
 1292 0138 002B     		cmp	r3, #0
 1293 013a 06D1     		bne	.L81
 914:../../../../dependencies/freertos/FreeRTOSv10.4.1/FreeRTOS/Source/queue.c ****                 {
 915:../../../../dependencies/freertos/FreeRTOSv10.4.1/FreeRTOS/Source/queue.c ****                     /* The queue was full and a block time was specified so
 916:../../../../dependencies/freertos/FreeRTOSv10.4.1/FreeRTOS/Source/queue.c ****                      * configure the timeout structure. */
 917:../../../../dependencies/freertos/FreeRTOSv10.4.1/FreeRTOS/Source/queue.c ****                     vTaskInternalSetTimeOutState( &xTimeOut );
 1294              		.loc 1 917 21
 1295 013c 07F11403 		add	r3, r7, #20
 1296 0140 1846     		mov	r0, r3
 1297 0142 FFF7FEFF 		bl	vTaskInternalSetTimeOutState
 918:../../../../dependencies/freertos/FreeRTOSv10.4.1/FreeRTOS/Source/queue.c ****                     xEntryTimeSet = pdTRUE;
 1298              		.loc 1 918 35
 1299 0146 0123     		movs	r3, #1
 1300 0148 7B63     		str	r3, [r7, #52]
 1301              	.L81:
 919:../../../../dependencies/freertos/FreeRTOSv10.4.1/FreeRTOS/Source/queue.c ****                 }
 920:../../../../dependencies/freertos/FreeRTOSv10.4.1/FreeRTOS/Source/queue.c ****                 else
 921:../../../../dependencies/freertos/FreeRTOSv10.4.1/FreeRTOS/Source/queue.c ****                 {
 922:../../../../dependencies/freertos/FreeRTOSv10.4.1/FreeRTOS/Source/queue.c ****                     /* Entry time was already set. */
 923:../../../../dependencies/freertos/FreeRTOSv10.4.1/FreeRTOS/Source/queue.c ****                     mtCOVERAGE_TEST_MARKER();
 924:../../../../dependencies/freertos/FreeRTOSv10.4.1/FreeRTOS/Source/queue.c ****                 }
 925:../../../../dependencies/freertos/FreeRTOSv10.4.1/FreeRTOS/Source/queue.c ****             }
 926:../../../../dependencies/freertos/FreeRTOSv10.4.1/FreeRTOS/Source/queue.c ****         }
 927:../../../../dependencies/freertos/FreeRTOSv10.4.1/FreeRTOS/Source/queue.c ****         taskEXIT_CRITICAL();
 1302              		.loc 1 927 9
 1303 014a FFF7FEFF 		bl	vPortExitCritical
 928:../../../../dependencies/freertos/FreeRTOSv10.4.1/FreeRTOS/Source/queue.c **** 
 929:../../../../dependencies/freertos/FreeRTOSv10.4.1/FreeRTOS/Source/queue.c ****         /* Interrupts and other tasks can send to and receive from the queue
 930:../../../../dependencies/freertos/FreeRTOSv10.4.1/FreeRTOS/Source/queue.c ****          * now the critical section has been exited. */
 931:../../../../dependencies/freertos/FreeRTOSv10.4.1/FreeRTOS/Source/queue.c **** 
 932:../../../../dependencies/freertos/FreeRTOSv10.4.1/FreeRTOS/Source/queue.c ****         vTaskSuspendAll();
 1304              		.loc 1 932 9
 1305 014e FFF7FEFF 		bl	vTaskSuspendAll
 933:../../../../dependencies/freertos/FreeRTOSv10.4.1/FreeRTOS/Source/queue.c ****         prvLockQueue( pxQueue );
 1306              		.loc 1 933 9
 1307 0152 FFF7FEFF 		bl	vPortEnterCritical
 1308 0156 3B6B     		ldr	r3, [r7, #48]
 1309 0158 93F84430 		ldrb	r3, [r3, #68]
 1310 015c 5BB2     		sxtb	r3, r3
 1311 015e B3F1FF3F 		cmp	r3, #-1
 1312 0162 03D1     		bne	.L82
 1313              		.loc 1 933 9 is_stmt 0 discriminator 1
 1314 0164 3B6B     		ldr	r3, [r7, #48]
 1315 0166 0022     		movs	r2, #0
 1316 0168 83F84420 		strb	r2, [r3, #68]
 1317              	.L82:
 1318              		.loc 1 933 9 discriminator 3
 1319 016c 3B6B     		ldr	r3, [r7, #48]
 1320 016e 93F84530 		ldrb	r3, [r3, #69]
 1321 0172 5BB2     		sxtb	r3, r3
 1322 0174 B3F1FF3F 		cmp	r3, #-1
 1323 0178 03D1     		bne	.L83
ARM GAS  /var/folders/kj/yzqgq53j3dg15vgwwwwgf5s00000gn/T//ccGgwidk.s 			page 44


 1324              		.loc 1 933 9 discriminator 4
 1325 017a 3B6B     		ldr	r3, [r7, #48]
 1326 017c 0022     		movs	r2, #0
 1327 017e 83F84520 		strb	r2, [r3, #69]
 1328              	.L83:
 1329              		.loc 1 933 9 discriminator 6
 1330 0182 FFF7FEFF 		bl	vPortExitCritical
 934:../../../../dependencies/freertos/FreeRTOSv10.4.1/FreeRTOS/Source/queue.c **** 
 935:../../../../dependencies/freertos/FreeRTOSv10.4.1/FreeRTOS/Source/queue.c ****         /* Update the timeout state to see if it has expired yet. */
 936:../../../../dependencies/freertos/FreeRTOSv10.4.1/FreeRTOS/Source/queue.c ****         if( xTaskCheckForTimeOut( &xTimeOut, &xTicksToWait ) == pdFALSE )
 1331              		.loc 1 936 13 is_stmt 1 discriminator 6
 1332 0186 3A1D     		adds	r2, r7, #4
 1333 0188 07F11403 		add	r3, r7, #20
 1334 018c 1146     		mov	r1, r2
 1335 018e 1846     		mov	r0, r3
 1336 0190 FFF7FEFF 		bl	xTaskCheckForTimeOut
 1337 0194 0346     		mov	r3, r0
 1338              		.loc 1 936 11 discriminator 6
 1339 0196 002B     		cmp	r3, #0
 1340 0198 24D1     		bne	.L84
 937:../../../../dependencies/freertos/FreeRTOSv10.4.1/FreeRTOS/Source/queue.c ****         {
 938:../../../../dependencies/freertos/FreeRTOSv10.4.1/FreeRTOS/Source/queue.c ****             if( prvIsQueueFull( pxQueue ) != pdFALSE )
 1341              		.loc 1 938 17
 1342 019a 386B     		ldr	r0, [r7, #48]
 1343 019c FFF7FEFF 		bl	prvIsQueueFull
 1344 01a0 0346     		mov	r3, r0
 1345              		.loc 1 938 15
 1346 01a2 002B     		cmp	r3, #0
 1347 01a4 18D0     		beq	.L85
 939:../../../../dependencies/freertos/FreeRTOSv10.4.1/FreeRTOS/Source/queue.c ****             {
 940:../../../../dependencies/freertos/FreeRTOSv10.4.1/FreeRTOS/Source/queue.c ****                 traceBLOCKING_ON_QUEUE_SEND( pxQueue );
 941:../../../../dependencies/freertos/FreeRTOSv10.4.1/FreeRTOS/Source/queue.c ****                 vTaskPlaceOnEventList( &( pxQueue->xTasksWaitingToSend ), xTicksToWait );
 1348              		.loc 1 941 17
 1349 01a6 3B6B     		ldr	r3, [r7, #48]
 1350 01a8 1033     		adds	r3, r3, #16
 1351 01aa 7A68     		ldr	r2, [r7, #4]
 1352 01ac 1146     		mov	r1, r2
 1353 01ae 1846     		mov	r0, r3
 1354 01b0 FFF7FEFF 		bl	vTaskPlaceOnEventList
 942:../../../../dependencies/freertos/FreeRTOSv10.4.1/FreeRTOS/Source/queue.c **** 
 943:../../../../dependencies/freertos/FreeRTOSv10.4.1/FreeRTOS/Source/queue.c ****                 /* Unlocking the queue means queue events can effect the
 944:../../../../dependencies/freertos/FreeRTOSv10.4.1/FreeRTOS/Source/queue.c ****                  * event list.  It is possible that interrupts occurring now
 945:../../../../dependencies/freertos/FreeRTOSv10.4.1/FreeRTOS/Source/queue.c ****                  * remove this task from the event list again - but as the
 946:../../../../dependencies/freertos/FreeRTOSv10.4.1/FreeRTOS/Source/queue.c ****                  * scheduler is suspended the task will go onto the pending
 947:../../../../dependencies/freertos/FreeRTOSv10.4.1/FreeRTOS/Source/queue.c ****                  * ready last instead of the actual ready list. */
 948:../../../../dependencies/freertos/FreeRTOSv10.4.1/FreeRTOS/Source/queue.c ****                 prvUnlockQueue( pxQueue );
 1355              		.loc 1 948 17
 1356 01b4 386B     		ldr	r0, [r7, #48]
 1357 01b6 FFF7FEFF 		bl	prvUnlockQueue
 949:../../../../dependencies/freertos/FreeRTOSv10.4.1/FreeRTOS/Source/queue.c **** 
 950:../../../../dependencies/freertos/FreeRTOSv10.4.1/FreeRTOS/Source/queue.c ****                 /* Resuming the scheduler will move tasks from the pending
 951:../../../../dependencies/freertos/FreeRTOSv10.4.1/FreeRTOS/Source/queue.c ****                  * ready list into the ready list - so it is feasible that this
 952:../../../../dependencies/freertos/FreeRTOSv10.4.1/FreeRTOS/Source/queue.c ****                  * task is already in a ready list before it yields - in which
 953:../../../../dependencies/freertos/FreeRTOSv10.4.1/FreeRTOS/Source/queue.c ****                  * case the yield will not cause a context switch unless there
 954:../../../../dependencies/freertos/FreeRTOSv10.4.1/FreeRTOS/Source/queue.c ****                  * is also a higher priority task in the pending ready list. */
 955:../../../../dependencies/freertos/FreeRTOSv10.4.1/FreeRTOS/Source/queue.c ****                 if( xTaskResumeAll() == pdFALSE )
 1358              		.loc 1 955 21
ARM GAS  /var/folders/kj/yzqgq53j3dg15vgwwwwgf5s00000gn/T//ccGgwidk.s 			page 45


 1359 01ba FFF7FEFF 		bl	xTaskResumeAll
 1360 01be 0346     		mov	r3, r0
 1361              		.loc 1 955 19
 1362 01c0 002B     		cmp	r3, #0
 1363 01c2 7FF47CAF 		bne	.L73
 956:../../../../dependencies/freertos/FreeRTOSv10.4.1/FreeRTOS/Source/queue.c ****                 {
 957:../../../../dependencies/freertos/FreeRTOSv10.4.1/FreeRTOS/Source/queue.c ****                     portYIELD_WITHIN_API();
 1364              		.loc 1 957 21
 1365 01c6 0C4B     		ldr	r3, .L88
 1366 01c8 4FF08052 		mov	r2, #268435456
 1367 01cc 1A60     		str	r2, [r3]
 1368              		.syntax unified
 1369              	@ 957 "../../../../dependencies/freertos/FreeRTOSv10.4.1/FreeRTOS/Source/queue.c" 1
 1370 01ce BFF34F8F 		dsb
 1371              	@ 0 "" 2
 1372              	@ 957 "../../../../dependencies/freertos/FreeRTOSv10.4.1/FreeRTOS/Source/queue.c" 1
 1373 01d2 BFF36F8F 		isb
 1374              	@ 0 "" 2
 1375              		.thumb
 1376              		.syntax unified
 1377 01d6 72E7     		b	.L73
 1378              	.L85:
 958:../../../../dependencies/freertos/FreeRTOSv10.4.1/FreeRTOS/Source/queue.c ****                 }
 959:../../../../dependencies/freertos/FreeRTOSv10.4.1/FreeRTOS/Source/queue.c ****             }
 960:../../../../dependencies/freertos/FreeRTOSv10.4.1/FreeRTOS/Source/queue.c ****             else
 961:../../../../dependencies/freertos/FreeRTOSv10.4.1/FreeRTOS/Source/queue.c ****             {
 962:../../../../dependencies/freertos/FreeRTOSv10.4.1/FreeRTOS/Source/queue.c ****                 /* Try again. */
 963:../../../../dependencies/freertos/FreeRTOSv10.4.1/FreeRTOS/Source/queue.c ****                 prvUnlockQueue( pxQueue );
 1379              		.loc 1 963 17
 1380 01d8 386B     		ldr	r0, [r7, #48]
 1381 01da FFF7FEFF 		bl	prvUnlockQueue
 964:../../../../dependencies/freertos/FreeRTOSv10.4.1/FreeRTOS/Source/queue.c ****                 ( void ) xTaskResumeAll();
 1382              		.loc 1 964 26
 1383 01de FFF7FEFF 		bl	xTaskResumeAll
 1384 01e2 6CE7     		b	.L73
 1385              	.L84:
 965:../../../../dependencies/freertos/FreeRTOSv10.4.1/FreeRTOS/Source/queue.c ****             }
 966:../../../../dependencies/freertos/FreeRTOSv10.4.1/FreeRTOS/Source/queue.c ****         }
 967:../../../../dependencies/freertos/FreeRTOSv10.4.1/FreeRTOS/Source/queue.c ****         else
 968:../../../../dependencies/freertos/FreeRTOSv10.4.1/FreeRTOS/Source/queue.c ****         {
 969:../../../../dependencies/freertos/FreeRTOSv10.4.1/FreeRTOS/Source/queue.c ****             /* The timeout has expired. */
 970:../../../../dependencies/freertos/FreeRTOSv10.4.1/FreeRTOS/Source/queue.c ****             prvUnlockQueue( pxQueue );
 1386              		.loc 1 970 13
 1387 01e4 386B     		ldr	r0, [r7, #48]
 1388 01e6 FFF7FEFF 		bl	prvUnlockQueue
 971:../../../../dependencies/freertos/FreeRTOSv10.4.1/FreeRTOS/Source/queue.c ****             ( void ) xTaskResumeAll();
 1389              		.loc 1 971 22
 1390 01ea FFF7FEFF 		bl	xTaskResumeAll
 972:../../../../dependencies/freertos/FreeRTOSv10.4.1/FreeRTOS/Source/queue.c **** 
 973:../../../../dependencies/freertos/FreeRTOSv10.4.1/FreeRTOS/Source/queue.c ****             traceQUEUE_SEND_FAILED( pxQueue );
 974:../../../../dependencies/freertos/FreeRTOSv10.4.1/FreeRTOS/Source/queue.c ****             return errQUEUE_FULL;
 1391              		.loc 1 974 20
 1392 01ee 0023     		movs	r3, #0
 1393              	.L87:
 975:../../../../dependencies/freertos/FreeRTOSv10.4.1/FreeRTOS/Source/queue.c ****         }
 976:../../../../dependencies/freertos/FreeRTOSv10.4.1/FreeRTOS/Source/queue.c ****     } /*lint -restore */
 977:../../../../dependencies/freertos/FreeRTOSv10.4.1/FreeRTOS/Source/queue.c **** }
ARM GAS  /var/folders/kj/yzqgq53j3dg15vgwwwwgf5s00000gn/T//ccGgwidk.s 			page 46


 1394              		.loc 1 977 1 discriminator 7
 1395 01f0 1846     		mov	r0, r3
 1396 01f2 3837     		adds	r7, r7, #56
 1397              	.LCFI54:
 1398              		.cfi_def_cfa_offset 8
 1399 01f4 BD46     		mov	sp, r7
 1400              	.LCFI55:
 1401              		.cfi_def_cfa_register 13
 1402              		@ sp needed
 1403 01f6 80BD     		pop	{r7, pc}
 1404              	.L89:
 1405              		.align	2
 1406              	.L88:
 1407 01f8 04ED00E0 		.word	-536810236
 1408              		.cfi_endproc
 1409              	.LFE15:
 1411              		.section	.text.xQueueGenericSendFromISR,"ax",%progbits
 1412              		.align	1
 1413              		.global	xQueueGenericSendFromISR
 1414              		.syntax unified
 1415              		.thumb
 1416              		.thumb_func
 1417              		.fpu fpv4-sp-d16
 1419              	xQueueGenericSendFromISR:
 1420              	.LFB16:
 978:../../../../dependencies/freertos/FreeRTOSv10.4.1/FreeRTOS/Source/queue.c **** /*-----------------------------------------------------------*/
 979:../../../../dependencies/freertos/FreeRTOSv10.4.1/FreeRTOS/Source/queue.c **** 
 980:../../../../dependencies/freertos/FreeRTOSv10.4.1/FreeRTOS/Source/queue.c **** BaseType_t xQueueGenericSendFromISR( QueueHandle_t xQueue,
 981:../../../../dependencies/freertos/FreeRTOSv10.4.1/FreeRTOS/Source/queue.c ****                                      const void * const pvItemToQueue,
 982:../../../../dependencies/freertos/FreeRTOSv10.4.1/FreeRTOS/Source/queue.c ****                                      BaseType_t * const pxHigherPriorityTaskWoken,
 983:../../../../dependencies/freertos/FreeRTOSv10.4.1/FreeRTOS/Source/queue.c ****                                      const BaseType_t xCopyPosition )
 984:../../../../dependencies/freertos/FreeRTOSv10.4.1/FreeRTOS/Source/queue.c **** {
 1421              		.loc 1 984 1
 1422              		.cfi_startproc
 1423              		@ args = 0, pretend = 0, frame = 64
 1424              		@ frame_needed = 1, uses_anonymous_args = 0
 1425 0000 80B5     		push	{r7, lr}
 1426              	.LCFI56:
 1427              		.cfi_def_cfa_offset 8
 1428              		.cfi_offset 7, -8
 1429              		.cfi_offset 14, -4
 1430 0002 90B0     		sub	sp, sp, #64
 1431              	.LCFI57:
 1432              		.cfi_def_cfa_offset 72
 1433 0004 00AF     		add	r7, sp, #0
 1434              	.LCFI58:
 1435              		.cfi_def_cfa_register 7
 1436 0006 F860     		str	r0, [r7, #12]
 1437 0008 B960     		str	r1, [r7, #8]
 1438 000a 7A60     		str	r2, [r7, #4]
 1439 000c 3B60     		str	r3, [r7]
 985:../../../../dependencies/freertos/FreeRTOSv10.4.1/FreeRTOS/Source/queue.c ****     BaseType_t xReturn;
 986:../../../../dependencies/freertos/FreeRTOSv10.4.1/FreeRTOS/Source/queue.c ****     UBaseType_t uxSavedInterruptStatus;
 987:../../../../dependencies/freertos/FreeRTOSv10.4.1/FreeRTOS/Source/queue.c ****     Queue_t * const pxQueue = xQueue;
 1440              		.loc 1 987 21
 1441 000e FB68     		ldr	r3, [r7, #12]
 1442 0010 BB63     		str	r3, [r7, #56]
ARM GAS  /var/folders/kj/yzqgq53j3dg15vgwwwwgf5s00000gn/T//ccGgwidk.s 			page 47


 988:../../../../dependencies/freertos/FreeRTOSv10.4.1/FreeRTOS/Source/queue.c **** 
 989:../../../../dependencies/freertos/FreeRTOSv10.4.1/FreeRTOS/Source/queue.c ****     configASSERT( pxQueue );
 1443              		.loc 1 989 5
 1444 0012 BB6B     		ldr	r3, [r7, #56]
 1445 0014 002B     		cmp	r3, #0
 1446 0016 0AD1     		bne	.L91
 1447              	.LBB135:
 1448              	.LBB136:
 197:../../../../dependencies/freertos/FreeRTOSv10.4.1/FreeRTOS/Source/portable/GCC/ARM_CM4F/portmacro.h ****         (
 1449              		.loc 2 197 9
 1450              		.syntax unified
 1451              	@ 197 "../../../../dependencies/freertos/FreeRTOSv10.4.1/FreeRTOS/Source/portable/GCC/ARM_CM4F/port
 1452 0018 4FF05003 			mov r3, #80												
 1453 001c 83F31188 		msr basepri, r3											
 1454 0020 BFF36F8F 		isb														
 1455 0024 BFF34F8F 		dsb														
 1456              	
 1457              	@ 0 "" 2
 1458              		.thumb
 1459              		.syntax unified
 1460 0028 BB62     		str	r3, [r7, #40]
 1461              		.loc 2 205 5
 1462 002a 00BF     		nop
 1463              	.L92:
 1464              	.LBE136:
 1465              	.LBE135:
 1466              		.loc 1 989 5 discriminator 1
 1467 002c FEE7     		b	.L92
 1468              	.L91:
 990:../../../../dependencies/freertos/FreeRTOSv10.4.1/FreeRTOS/Source/queue.c ****     configASSERT( !( ( pvItemToQueue == NULL ) && ( pxQueue->uxItemSize != ( UBaseType_t ) 0U ) ) )
 1469              		.loc 1 990 5
 1470 002e BB68     		ldr	r3, [r7, #8]
 1471 0030 002B     		cmp	r3, #0
 1472 0032 03D1     		bne	.L93
 1473              		.loc 1 990 5 is_stmt 0 discriminator 2
 1474 0034 BB6B     		ldr	r3, [r7, #56]
 1475 0036 1B6C     		ldr	r3, [r3, #64]
 1476 0038 002B     		cmp	r3, #0
 1477 003a 01D1     		bne	.L94
 1478              	.L93:
 1479              		.loc 1 990 5 discriminator 3
 1480 003c 0123     		movs	r3, #1
 1481 003e 00E0     		b	.L95
 1482              	.L94:
 1483              		.loc 1 990 5 discriminator 4
 1484 0040 0023     		movs	r3, #0
 1485              	.L95:
 1486              		.loc 1 990 5 discriminator 6
 1487 0042 002B     		cmp	r3, #0
 1488 0044 0AD1     		bne	.L96
 1489              	.LBB137:
 1490              	.LBB138:
 197:../../../../dependencies/freertos/FreeRTOSv10.4.1/FreeRTOS/Source/portable/GCC/ARM_CM4F/portmacro.h ****         (
 1491              		.loc 2 197 9 is_stmt 1
 1492              		.syntax unified
 1493              	@ 197 "../../../../dependencies/freertos/FreeRTOSv10.4.1/FreeRTOS/Source/portable/GCC/ARM_CM4F/port
 1494 0046 4FF05003 			mov r3, #80												
ARM GAS  /var/folders/kj/yzqgq53j3dg15vgwwwwgf5s00000gn/T//ccGgwidk.s 			page 48


 1495 004a 83F31188 		msr basepri, r3											
 1496 004e BFF36F8F 		isb														
 1497 0052 BFF34F8F 		dsb														
 1498              	
 1499              	@ 0 "" 2
 1500              		.thumb
 1501              		.syntax unified
 1502 0056 7B62     		str	r3, [r7, #36]
 1503              		.loc 2 205 5
 1504 0058 00BF     		nop
 1505              	.L97:
 1506              	.LBE138:
 1507              	.LBE137:
 1508              		.loc 1 990 5 discriminator 2
 1509 005a FEE7     		b	.L97
 1510              	.L96:
 991:../../../../dependencies/freertos/FreeRTOSv10.4.1/FreeRTOS/Source/queue.c ****     configASSERT( !( ( xCopyPosition == queueOVERWRITE ) && ( pxQueue->uxLength != 1 ) ) );
 1511              		.loc 1 991 5
 1512 005c 3B68     		ldr	r3, [r7]
 1513 005e 022B     		cmp	r3, #2
 1514 0060 03D1     		bne	.L98
 1515              		.loc 1 991 5 is_stmt 0 discriminator 2
 1516 0062 BB6B     		ldr	r3, [r7, #56]
 1517 0064 DB6B     		ldr	r3, [r3, #60]
 1518 0066 012B     		cmp	r3, #1
 1519 0068 01D1     		bne	.L99
 1520              	.L98:
 1521              		.loc 1 991 5 discriminator 3
 1522 006a 0123     		movs	r3, #1
 1523 006c 00E0     		b	.L100
 1524              	.L99:
 1525              		.loc 1 991 5 discriminator 4
 1526 006e 0023     		movs	r3, #0
 1527              	.L100:
 1528              		.loc 1 991 5 discriminator 6
 1529 0070 002B     		cmp	r3, #0
 1530 0072 0AD1     		bne	.L101
 1531              	.LBB139:
 1532              	.LBB140:
 197:../../../../dependencies/freertos/FreeRTOSv10.4.1/FreeRTOS/Source/portable/GCC/ARM_CM4F/portmacro.h ****         (
 1533              		.loc 2 197 9 is_stmt 1
 1534              		.syntax unified
 1535              	@ 197 "../../../../dependencies/freertos/FreeRTOSv10.4.1/FreeRTOS/Source/portable/GCC/ARM_CM4F/port
 1536 0074 4FF05003 			mov r3, #80												
 1537 0078 83F31188 		msr basepri, r3											
 1538 007c BFF36F8F 		isb														
 1539 0080 BFF34F8F 		dsb														
 1540              	
 1541              	@ 0 "" 2
 1542              		.thumb
 1543              		.syntax unified
 1544 0084 3B62     		str	r3, [r7, #32]
 1545              		.loc 2 205 5
 1546 0086 00BF     		nop
 1547              	.L102:
 1548              	.LBE140:
 1549              	.LBE139:
ARM GAS  /var/folders/kj/yzqgq53j3dg15vgwwwwgf5s00000gn/T//ccGgwidk.s 			page 49


 1550              		.loc 1 991 5 discriminator 3
 1551 0088 FEE7     		b	.L102
 1552              	.L101:
 992:../../../../dependencies/freertos/FreeRTOSv10.4.1/FreeRTOS/Source/queue.c **** 
 993:../../../../dependencies/freertos/FreeRTOSv10.4.1/FreeRTOS/Source/queue.c ****     /* RTOS ports that support interrupt nesting have the concept of a maximum
 994:../../../../dependencies/freertos/FreeRTOSv10.4.1/FreeRTOS/Source/queue.c ****      * system call (or maximum API call) interrupt priority.  Interrupts that are
 995:../../../../dependencies/freertos/FreeRTOSv10.4.1/FreeRTOS/Source/queue.c ****      * above the maximum system call priority are kept permanently enabled, even
 996:../../../../dependencies/freertos/FreeRTOSv10.4.1/FreeRTOS/Source/queue.c ****      * when the RTOS kernel is in a critical section, but cannot make any calls to
 997:../../../../dependencies/freertos/FreeRTOSv10.4.1/FreeRTOS/Source/queue.c ****      * FreeRTOS API functions.  If configASSERT() is defined in FreeRTOSConfig.h
 998:../../../../dependencies/freertos/FreeRTOSv10.4.1/FreeRTOS/Source/queue.c ****      * then portASSERT_IF_INTERRUPT_PRIORITY_INVALID() will result in an assertion
 999:../../../../dependencies/freertos/FreeRTOSv10.4.1/FreeRTOS/Source/queue.c ****      * failure if a FreeRTOS API function is called from an interrupt that has been
1000:../../../../dependencies/freertos/FreeRTOSv10.4.1/FreeRTOS/Source/queue.c ****      * assigned a priority above the configured maximum system call priority.
1001:../../../../dependencies/freertos/FreeRTOSv10.4.1/FreeRTOS/Source/queue.c ****      * Only FreeRTOS functions that end in FromISR can be called from interrupts
1002:../../../../dependencies/freertos/FreeRTOSv10.4.1/FreeRTOS/Source/queue.c ****      * that have been assigned a priority at or (logically) below the maximum
1003:../../../../dependencies/freertos/FreeRTOSv10.4.1/FreeRTOS/Source/queue.c ****      * system call interrupt priority.  FreeRTOS maintains a separate interrupt
1004:../../../../dependencies/freertos/FreeRTOSv10.4.1/FreeRTOS/Source/queue.c ****      * safe API to ensure interrupt entry is as fast and as simple as possible.
1005:../../../../dependencies/freertos/FreeRTOSv10.4.1/FreeRTOS/Source/queue.c ****      * More information (albeit Cortex-M specific) is provided on the following
1006:../../../../dependencies/freertos/FreeRTOSv10.4.1/FreeRTOS/Source/queue.c ****      * link: https://www.FreeRTOS.org/RTOS-Cortex-M3-M4.html */
1007:../../../../dependencies/freertos/FreeRTOSv10.4.1/FreeRTOS/Source/queue.c ****     portASSERT_IF_INTERRUPT_PRIORITY_INVALID();
 1553              		.loc 1 1007 5
 1554 008a FFF7FEFF 		bl	vPortValidateInterruptPriority
 1555              	.LBB141:
 1556              	.LBB142:
 206:../../../../dependencies/freertos/FreeRTOSv10.4.1/FreeRTOS/Source/portable/GCC/ARM_CM4F/portmacro.h **** 
 207:../../../../dependencies/freertos/FreeRTOSv10.4.1/FreeRTOS/Source/portable/GCC/ARM_CM4F/portmacro.h **** /*-----------------------------------------------------------*/
 208:../../../../dependencies/freertos/FreeRTOSv10.4.1/FreeRTOS/Source/portable/GCC/ARM_CM4F/portmacro.h **** 
 209:../../../../dependencies/freertos/FreeRTOSv10.4.1/FreeRTOS/Source/portable/GCC/ARM_CM4F/portmacro.h ****     portFORCE_INLINE static uint32_t ulPortRaiseBASEPRI( void )
 210:../../../../dependencies/freertos/FreeRTOSv10.4.1/FreeRTOS/Source/portable/GCC/ARM_CM4F/portmacro.h ****     {
 211:../../../../dependencies/freertos/FreeRTOSv10.4.1/FreeRTOS/Source/portable/GCC/ARM_CM4F/portmacro.h ****         uint32_t ulOriginalBASEPRI, ulNewBASEPRI;
 212:../../../../dependencies/freertos/FreeRTOSv10.4.1/FreeRTOS/Source/portable/GCC/ARM_CM4F/portmacro.h **** 
 213:../../../../dependencies/freertos/FreeRTOSv10.4.1/FreeRTOS/Source/portable/GCC/ARM_CM4F/portmacro.h ****         __asm volatile
 1557              		.loc 2 213 9
 1558              		.syntax unified
 1559              	@ 213 "../../../../dependencies/freertos/FreeRTOSv10.4.1/FreeRTOS/Source/portable/GCC/ARM_CM4F/port
 1560 008e EFF31182 			mrs r2, basepri											
 1561 0092 4FF05003 		mov r3, #80												
 1562 0096 83F31188 		msr basepri, r3											
 1563 009a BFF36F8F 		isb														
 1564 009e BFF34F8F 		dsb														
 1565              	
 1566              	@ 0 "" 2
 1567              		.thumb
 1568              		.syntax unified
 1569 00a2 FA61     		str	r2, [r7, #28]
 1570 00a4 BB61     		str	r3, [r7, #24]
 214:../../../../dependencies/freertos/FreeRTOSv10.4.1/FreeRTOS/Source/portable/GCC/ARM_CM4F/portmacro.h ****         (
 215:../../../../dependencies/freertos/FreeRTOSv10.4.1/FreeRTOS/Source/portable/GCC/ARM_CM4F/portmacro.h ****             "	mrs %0, basepri											\n"\
 216:../../../../dependencies/freertos/FreeRTOSv10.4.1/FreeRTOS/Source/portable/GCC/ARM_CM4F/portmacro.h ****             "	mov %1, %2												\n"\
 217:../../../../dependencies/freertos/FreeRTOSv10.4.1/FreeRTOS/Source/portable/GCC/ARM_CM4F/portmacro.h ****             "	msr basepri, %1											\n"\
 218:../../../../dependencies/freertos/FreeRTOSv10.4.1/FreeRTOS/Source/portable/GCC/ARM_CM4F/portmacro.h ****             "	isb														\n"\
 219:../../../../dependencies/freertos/FreeRTOSv10.4.1/FreeRTOS/Source/portable/GCC/ARM_CM4F/portmacro.h ****             "	dsb														\n"\
 220:../../../../dependencies/freertos/FreeRTOSv10.4.1/FreeRTOS/Source/portable/GCC/ARM_CM4F/portmacro.h ****             : "=r" ( ulOriginalBASEPRI ), "=r" ( ulNewBASEPRI ) : "i" ( configMAX_SYSCALL_INTERRUPT
 221:../../../../dependencies/freertos/FreeRTOSv10.4.1/FreeRTOS/Source/portable/GCC/ARM_CM4F/portmacro.h ****         );
 222:../../../../dependencies/freertos/FreeRTOSv10.4.1/FreeRTOS/Source/portable/GCC/ARM_CM4F/portmacro.h **** 
 223:../../../../dependencies/freertos/FreeRTOSv10.4.1/FreeRTOS/Source/portable/GCC/ARM_CM4F/portmacro.h ****         /* This return will not be reached but is necessary to prevent compiler
 224:../../../../dependencies/freertos/FreeRTOSv10.4.1/FreeRTOS/Source/portable/GCC/ARM_CM4F/portmacro.h ****          * warnings. */
 225:../../../../dependencies/freertos/FreeRTOSv10.4.1/FreeRTOS/Source/portable/GCC/ARM_CM4F/portmacro.h ****         return ulOriginalBASEPRI;
ARM GAS  /var/folders/kj/yzqgq53j3dg15vgwwwwgf5s00000gn/T//ccGgwidk.s 			page 50


 1571              		.loc 2 225 16
 1572 00a6 FB69     		ldr	r3, [r7, #28]
 1573              	.LBE142:
 1574              	.LBE141:
1008:../../../../dependencies/freertos/FreeRTOSv10.4.1/FreeRTOS/Source/queue.c **** 
1009:../../../../dependencies/freertos/FreeRTOSv10.4.1/FreeRTOS/Source/queue.c ****     /* Similar to xQueueGenericSend, except without blocking if there is no room
1010:../../../../dependencies/freertos/FreeRTOSv10.4.1/FreeRTOS/Source/queue.c ****      * in the queue.  Also don't directly wake a task that was blocked on a queue
1011:../../../../dependencies/freertos/FreeRTOSv10.4.1/FreeRTOS/Source/queue.c ****      * read, instead return a flag to say whether a context switch is required or
1012:../../../../dependencies/freertos/FreeRTOSv10.4.1/FreeRTOS/Source/queue.c ****      * not (i.e. has a task with a higher priority than us been woken by this
1013:../../../../dependencies/freertos/FreeRTOSv10.4.1/FreeRTOS/Source/queue.c ****      * post). */
1014:../../../../dependencies/freertos/FreeRTOSv10.4.1/FreeRTOS/Source/queue.c ****     uxSavedInterruptStatus = portSET_INTERRUPT_MASK_FROM_ISR();
 1575              		.loc 1 1014 30
 1576 00a8 7B63     		str	r3, [r7, #52]
1015:../../../../dependencies/freertos/FreeRTOSv10.4.1/FreeRTOS/Source/queue.c ****     {
1016:../../../../dependencies/freertos/FreeRTOSv10.4.1/FreeRTOS/Source/queue.c ****         if( ( pxQueue->uxMessagesWaiting < pxQueue->uxLength ) || ( xCopyPosition == queueOVERWRITE
 1577              		.loc 1 1016 22
 1578 00aa BB6B     		ldr	r3, [r7, #56]
 1579 00ac 9A6B     		ldr	r2, [r3, #56]
 1580              		.loc 1 1016 51
 1581 00ae BB6B     		ldr	r3, [r7, #56]
 1582 00b0 DB6B     		ldr	r3, [r3, #60]
 1583              		.loc 1 1016 11
 1584 00b2 9A42     		cmp	r2, r3
 1585 00b4 02D3     		bcc	.L104
 1586              		.loc 1 1016 64 discriminator 1
 1587 00b6 3B68     		ldr	r3, [r7]
 1588 00b8 022B     		cmp	r3, #2
 1589 00ba 3ED1     		bne	.L105
 1590              	.L104:
 1591              	.LBB143:
1017:../../../../dependencies/freertos/FreeRTOSv10.4.1/FreeRTOS/Source/queue.c ****         {
1018:../../../../dependencies/freertos/FreeRTOSv10.4.1/FreeRTOS/Source/queue.c ****             const int8_t cTxLock = pxQueue->cTxLock;
 1592              		.loc 1 1018 26
 1593 00bc BB6B     		ldr	r3, [r7, #56]
 1594 00be 93F84530 		ldrb	r3, [r3, #69]
 1595 00c2 87F83330 		strb	r3, [r7, #51]
1019:../../../../dependencies/freertos/FreeRTOSv10.4.1/FreeRTOS/Source/queue.c ****             const UBaseType_t uxPreviousMessagesWaiting = pxQueue->uxMessagesWaiting;
 1596              		.loc 1 1019 31
 1597 00c6 BB6B     		ldr	r3, [r7, #56]
 1598 00c8 9B6B     		ldr	r3, [r3, #56]
 1599 00ca FB62     		str	r3, [r7, #44]
1020:../../../../dependencies/freertos/FreeRTOSv10.4.1/FreeRTOS/Source/queue.c **** 
1021:../../../../dependencies/freertos/FreeRTOSv10.4.1/FreeRTOS/Source/queue.c ****             traceQUEUE_SEND_FROM_ISR( pxQueue );
1022:../../../../dependencies/freertos/FreeRTOSv10.4.1/FreeRTOS/Source/queue.c **** 
1023:../../../../dependencies/freertos/FreeRTOSv10.4.1/FreeRTOS/Source/queue.c ****             /* Semaphores use xQueueGiveFromISR(), so pxQueue will not be a
1024:../../../../dependencies/freertos/FreeRTOSv10.4.1/FreeRTOS/Source/queue.c ****              *  semaphore or mutex.  That means prvCopyDataToQueue() cannot result
1025:../../../../dependencies/freertos/FreeRTOSv10.4.1/FreeRTOS/Source/queue.c ****              *  in a task disinheriting a priority and prvCopyDataToQueue() can be
1026:../../../../dependencies/freertos/FreeRTOSv10.4.1/FreeRTOS/Source/queue.c ****              *  called here even though the disinherit function does not check if
1027:../../../../dependencies/freertos/FreeRTOSv10.4.1/FreeRTOS/Source/queue.c ****              *  the scheduler is suspended before accessing the ready lists. */
1028:../../../../dependencies/freertos/FreeRTOSv10.4.1/FreeRTOS/Source/queue.c ****             ( void ) prvCopyDataToQueue( pxQueue, pvItemToQueue, xCopyPosition );
 1600              		.loc 1 1028 22
 1601 00cc 3A68     		ldr	r2, [r7]
 1602 00ce B968     		ldr	r1, [r7, #8]
 1603 00d0 B86B     		ldr	r0, [r7, #56]
 1604 00d2 FFF7FEFF 		bl	prvCopyDataToQueue
1029:../../../../dependencies/freertos/FreeRTOSv10.4.1/FreeRTOS/Source/queue.c **** 
1030:../../../../dependencies/freertos/FreeRTOSv10.4.1/FreeRTOS/Source/queue.c ****             /* The event list is not altered if the queue is locked.  This will
ARM GAS  /var/folders/kj/yzqgq53j3dg15vgwwwwgf5s00000gn/T//ccGgwidk.s 			page 51


1031:../../../../dependencies/freertos/FreeRTOSv10.4.1/FreeRTOS/Source/queue.c ****              * be done when the queue is unlocked later. */
1032:../../../../dependencies/freertos/FreeRTOSv10.4.1/FreeRTOS/Source/queue.c ****             if( cTxLock == queueUNLOCKED )
 1605              		.loc 1 1032 15
 1606 00d6 97F93330 		ldrsb	r3, [r7, #51]
 1607 00da B3F1FF3F 		cmp	r3, #-1
 1608 00de 12D1     		bne	.L106
1033:../../../../dependencies/freertos/FreeRTOSv10.4.1/FreeRTOS/Source/queue.c ****             {
1034:../../../../dependencies/freertos/FreeRTOSv10.4.1/FreeRTOS/Source/queue.c ****                 #if ( configUSE_QUEUE_SETS == 1 )
1035:../../../../dependencies/freertos/FreeRTOSv10.4.1/FreeRTOS/Source/queue.c ****                     {
1036:../../../../dependencies/freertos/FreeRTOSv10.4.1/FreeRTOS/Source/queue.c ****                         if( pxQueue->pxQueueSetContainer != NULL )
1037:../../../../dependencies/freertos/FreeRTOSv10.4.1/FreeRTOS/Source/queue.c ****                         {
1038:../../../../dependencies/freertos/FreeRTOSv10.4.1/FreeRTOS/Source/queue.c ****                             if( ( xCopyPosition == queueOVERWRITE ) && ( uxPreviousMessagesWaiting 
1039:../../../../dependencies/freertos/FreeRTOSv10.4.1/FreeRTOS/Source/queue.c ****                             {
1040:../../../../dependencies/freertos/FreeRTOSv10.4.1/FreeRTOS/Source/queue.c ****                                 /* Do not notify the queue set as an existing item
1041:../../../../dependencies/freertos/FreeRTOSv10.4.1/FreeRTOS/Source/queue.c ****                                  * was overwritten in the queue so the number of items
1042:../../../../dependencies/freertos/FreeRTOSv10.4.1/FreeRTOS/Source/queue.c ****                                  * in the queue has not changed. */
1043:../../../../dependencies/freertos/FreeRTOSv10.4.1/FreeRTOS/Source/queue.c ****                                 mtCOVERAGE_TEST_MARKER();
1044:../../../../dependencies/freertos/FreeRTOSv10.4.1/FreeRTOS/Source/queue.c ****                             }
1045:../../../../dependencies/freertos/FreeRTOSv10.4.1/FreeRTOS/Source/queue.c ****                             else if( prvNotifyQueueSetContainer( pxQueue ) != pdFALSE )
1046:../../../../dependencies/freertos/FreeRTOSv10.4.1/FreeRTOS/Source/queue.c ****                             {
1047:../../../../dependencies/freertos/FreeRTOSv10.4.1/FreeRTOS/Source/queue.c ****                                 /* The queue is a member of a queue set, and posting
1048:../../../../dependencies/freertos/FreeRTOSv10.4.1/FreeRTOS/Source/queue.c ****                                  * to the queue set caused a higher priority task to
1049:../../../../dependencies/freertos/FreeRTOSv10.4.1/FreeRTOS/Source/queue.c ****                                  * unblock.  A context switch is required. */
1050:../../../../dependencies/freertos/FreeRTOSv10.4.1/FreeRTOS/Source/queue.c ****                                 if( pxHigherPriorityTaskWoken != NULL )
1051:../../../../dependencies/freertos/FreeRTOSv10.4.1/FreeRTOS/Source/queue.c ****                                 {
1052:../../../../dependencies/freertos/FreeRTOSv10.4.1/FreeRTOS/Source/queue.c ****                                     *pxHigherPriorityTaskWoken = pdTRUE;
1053:../../../../dependencies/freertos/FreeRTOSv10.4.1/FreeRTOS/Source/queue.c ****                                 }
1054:../../../../dependencies/freertos/FreeRTOSv10.4.1/FreeRTOS/Source/queue.c ****                                 else
1055:../../../../dependencies/freertos/FreeRTOSv10.4.1/FreeRTOS/Source/queue.c ****                                 {
1056:../../../../dependencies/freertos/FreeRTOSv10.4.1/FreeRTOS/Source/queue.c ****                                     mtCOVERAGE_TEST_MARKER();
1057:../../../../dependencies/freertos/FreeRTOSv10.4.1/FreeRTOS/Source/queue.c ****                                 }
1058:../../../../dependencies/freertos/FreeRTOSv10.4.1/FreeRTOS/Source/queue.c ****                             }
1059:../../../../dependencies/freertos/FreeRTOSv10.4.1/FreeRTOS/Source/queue.c ****                             else
1060:../../../../dependencies/freertos/FreeRTOSv10.4.1/FreeRTOS/Source/queue.c ****                             {
1061:../../../../dependencies/freertos/FreeRTOSv10.4.1/FreeRTOS/Source/queue.c ****                                 mtCOVERAGE_TEST_MARKER();
1062:../../../../dependencies/freertos/FreeRTOSv10.4.1/FreeRTOS/Source/queue.c ****                             }
1063:../../../../dependencies/freertos/FreeRTOSv10.4.1/FreeRTOS/Source/queue.c ****                         }
1064:../../../../dependencies/freertos/FreeRTOSv10.4.1/FreeRTOS/Source/queue.c ****                         else
1065:../../../../dependencies/freertos/FreeRTOSv10.4.1/FreeRTOS/Source/queue.c ****                         {
1066:../../../../dependencies/freertos/FreeRTOSv10.4.1/FreeRTOS/Source/queue.c ****                             if( listLIST_IS_EMPTY( &( pxQueue->xTasksWaitingToReceive ) ) == pdFALS
1067:../../../../dependencies/freertos/FreeRTOSv10.4.1/FreeRTOS/Source/queue.c ****                             {
1068:../../../../dependencies/freertos/FreeRTOSv10.4.1/FreeRTOS/Source/queue.c ****                                 if( xTaskRemoveFromEventList( &( pxQueue->xTasksWaitingToReceive ) 
1069:../../../../dependencies/freertos/FreeRTOSv10.4.1/FreeRTOS/Source/queue.c ****                                 {
1070:../../../../dependencies/freertos/FreeRTOSv10.4.1/FreeRTOS/Source/queue.c ****                                     /* The task waiting has a higher priority so
1071:../../../../dependencies/freertos/FreeRTOSv10.4.1/FreeRTOS/Source/queue.c ****                                      *  record that a context switch is required. */
1072:../../../../dependencies/freertos/FreeRTOSv10.4.1/FreeRTOS/Source/queue.c ****                                     if( pxHigherPriorityTaskWoken != NULL )
1073:../../../../dependencies/freertos/FreeRTOSv10.4.1/FreeRTOS/Source/queue.c ****                                     {
1074:../../../../dependencies/freertos/FreeRTOSv10.4.1/FreeRTOS/Source/queue.c ****                                         *pxHigherPriorityTaskWoken = pdTRUE;
1075:../../../../dependencies/freertos/FreeRTOSv10.4.1/FreeRTOS/Source/queue.c ****                                     }
1076:../../../../dependencies/freertos/FreeRTOSv10.4.1/FreeRTOS/Source/queue.c ****                                     else
1077:../../../../dependencies/freertos/FreeRTOSv10.4.1/FreeRTOS/Source/queue.c ****                                     {
1078:../../../../dependencies/freertos/FreeRTOSv10.4.1/FreeRTOS/Source/queue.c ****                                         mtCOVERAGE_TEST_MARKER();
1079:../../../../dependencies/freertos/FreeRTOSv10.4.1/FreeRTOS/Source/queue.c ****                                     }
1080:../../../../dependencies/freertos/FreeRTOSv10.4.1/FreeRTOS/Source/queue.c ****                                 }
1081:../../../../dependencies/freertos/FreeRTOSv10.4.1/FreeRTOS/Source/queue.c ****                                 else
1082:../../../../dependencies/freertos/FreeRTOSv10.4.1/FreeRTOS/Source/queue.c ****                                 {
1083:../../../../dependencies/freertos/FreeRTOSv10.4.1/FreeRTOS/Source/queue.c ****                                     mtCOVERAGE_TEST_MARKER();
ARM GAS  /var/folders/kj/yzqgq53j3dg15vgwwwwgf5s00000gn/T//ccGgwidk.s 			page 52


1084:../../../../dependencies/freertos/FreeRTOSv10.4.1/FreeRTOS/Source/queue.c ****                                 }
1085:../../../../dependencies/freertos/FreeRTOSv10.4.1/FreeRTOS/Source/queue.c ****                             }
1086:../../../../dependencies/freertos/FreeRTOSv10.4.1/FreeRTOS/Source/queue.c ****                             else
1087:../../../../dependencies/freertos/FreeRTOSv10.4.1/FreeRTOS/Source/queue.c ****                             {
1088:../../../../dependencies/freertos/FreeRTOSv10.4.1/FreeRTOS/Source/queue.c ****                                 mtCOVERAGE_TEST_MARKER();
1089:../../../../dependencies/freertos/FreeRTOSv10.4.1/FreeRTOS/Source/queue.c ****                             }
1090:../../../../dependencies/freertos/FreeRTOSv10.4.1/FreeRTOS/Source/queue.c ****                         }
1091:../../../../dependencies/freertos/FreeRTOSv10.4.1/FreeRTOS/Source/queue.c ****                     }
1092:../../../../dependencies/freertos/FreeRTOSv10.4.1/FreeRTOS/Source/queue.c ****                 #else /* configUSE_QUEUE_SETS */
1093:../../../../dependencies/freertos/FreeRTOSv10.4.1/FreeRTOS/Source/queue.c ****                     {
1094:../../../../dependencies/freertos/FreeRTOSv10.4.1/FreeRTOS/Source/queue.c ****                         if( listLIST_IS_EMPTY( &( pxQueue->xTasksWaitingToReceive ) ) == pdFALSE )
 1609              		.loc 1 1094 29
 1610 00e0 BB6B     		ldr	r3, [r7, #56]
 1611 00e2 5B6A     		ldr	r3, [r3, #36]
 1612              		.loc 1 1094 27
 1613 00e4 002B     		cmp	r3, #0
 1614 00e6 25D0     		beq	.L107
1095:../../../../dependencies/freertos/FreeRTOSv10.4.1/FreeRTOS/Source/queue.c ****                         {
1096:../../../../dependencies/freertos/FreeRTOSv10.4.1/FreeRTOS/Source/queue.c ****                             if( xTaskRemoveFromEventList( &( pxQueue->xTasksWaitingToReceive ) ) !=
 1615              		.loc 1 1096 59
 1616 00e8 BB6B     		ldr	r3, [r7, #56]
 1617 00ea 2433     		adds	r3, r3, #36
 1618              		.loc 1 1096 33
 1619 00ec 1846     		mov	r0, r3
 1620 00ee FFF7FEFF 		bl	xTaskRemoveFromEventList
 1621 00f2 0346     		mov	r3, r0
 1622              		.loc 1 1096 31
 1623 00f4 002B     		cmp	r3, #0
 1624 00f6 1DD0     		beq	.L107
1097:../../../../dependencies/freertos/FreeRTOSv10.4.1/FreeRTOS/Source/queue.c ****                             {
1098:../../../../dependencies/freertos/FreeRTOSv10.4.1/FreeRTOS/Source/queue.c ****                                 /* The task waiting has a higher priority so record that a
1099:../../../../dependencies/freertos/FreeRTOSv10.4.1/FreeRTOS/Source/queue.c ****                                  * context switch is required. */
1100:../../../../dependencies/freertos/FreeRTOSv10.4.1/FreeRTOS/Source/queue.c ****                                 if( pxHigherPriorityTaskWoken != NULL )
 1625              		.loc 1 1100 35
 1626 00f8 7B68     		ldr	r3, [r7, #4]
 1627 00fa 002B     		cmp	r3, #0
 1628 00fc 1AD0     		beq	.L107
1101:../../../../dependencies/freertos/FreeRTOSv10.4.1/FreeRTOS/Source/queue.c ****                                 {
1102:../../../../dependencies/freertos/FreeRTOSv10.4.1/FreeRTOS/Source/queue.c ****                                     *pxHigherPriorityTaskWoken = pdTRUE;
 1629              		.loc 1 1102 64
 1630 00fe 7B68     		ldr	r3, [r7, #4]
 1631 0100 0122     		movs	r2, #1
 1632 0102 1A60     		str	r2, [r3]
 1633 0104 16E0     		b	.L107
 1634              	.L106:
1103:../../../../dependencies/freertos/FreeRTOSv10.4.1/FreeRTOS/Source/queue.c ****                                 }
1104:../../../../dependencies/freertos/FreeRTOSv10.4.1/FreeRTOS/Source/queue.c ****                                 else
1105:../../../../dependencies/freertos/FreeRTOSv10.4.1/FreeRTOS/Source/queue.c ****                                 {
1106:../../../../dependencies/freertos/FreeRTOSv10.4.1/FreeRTOS/Source/queue.c ****                                     mtCOVERAGE_TEST_MARKER();
1107:../../../../dependencies/freertos/FreeRTOSv10.4.1/FreeRTOS/Source/queue.c ****                                 }
1108:../../../../dependencies/freertos/FreeRTOSv10.4.1/FreeRTOS/Source/queue.c ****                             }
1109:../../../../dependencies/freertos/FreeRTOSv10.4.1/FreeRTOS/Source/queue.c ****                             else
1110:../../../../dependencies/freertos/FreeRTOSv10.4.1/FreeRTOS/Source/queue.c ****                             {
1111:../../../../dependencies/freertos/FreeRTOSv10.4.1/FreeRTOS/Source/queue.c ****                                 mtCOVERAGE_TEST_MARKER();
1112:../../../../dependencies/freertos/FreeRTOSv10.4.1/FreeRTOS/Source/queue.c ****                             }
1113:../../../../dependencies/freertos/FreeRTOSv10.4.1/FreeRTOS/Source/queue.c ****                         }
1114:../../../../dependencies/freertos/FreeRTOSv10.4.1/FreeRTOS/Source/queue.c ****                         else
ARM GAS  /var/folders/kj/yzqgq53j3dg15vgwwwwgf5s00000gn/T//ccGgwidk.s 			page 53


1115:../../../../dependencies/freertos/FreeRTOSv10.4.1/FreeRTOS/Source/queue.c ****                         {
1116:../../../../dependencies/freertos/FreeRTOSv10.4.1/FreeRTOS/Source/queue.c ****                             mtCOVERAGE_TEST_MARKER();
1117:../../../../dependencies/freertos/FreeRTOSv10.4.1/FreeRTOS/Source/queue.c ****                         }
1118:../../../../dependencies/freertos/FreeRTOSv10.4.1/FreeRTOS/Source/queue.c **** 
1119:../../../../dependencies/freertos/FreeRTOSv10.4.1/FreeRTOS/Source/queue.c ****                         /* Not used in this path. */
1120:../../../../dependencies/freertos/FreeRTOSv10.4.1/FreeRTOS/Source/queue.c ****                         ( void ) uxPreviousMessagesWaiting;
1121:../../../../dependencies/freertos/FreeRTOSv10.4.1/FreeRTOS/Source/queue.c ****                     }
1122:../../../../dependencies/freertos/FreeRTOSv10.4.1/FreeRTOS/Source/queue.c ****                 #endif /* configUSE_QUEUE_SETS */
1123:../../../../dependencies/freertos/FreeRTOSv10.4.1/FreeRTOS/Source/queue.c ****             }
1124:../../../../dependencies/freertos/FreeRTOSv10.4.1/FreeRTOS/Source/queue.c ****             else
1125:../../../../dependencies/freertos/FreeRTOSv10.4.1/FreeRTOS/Source/queue.c ****             {
1126:../../../../dependencies/freertos/FreeRTOSv10.4.1/FreeRTOS/Source/queue.c ****                 /* Increment the lock count so the task that unlocks the queue
1127:../../../../dependencies/freertos/FreeRTOSv10.4.1/FreeRTOS/Source/queue.c ****                  * knows that data was posted while it was locked. */
1128:../../../../dependencies/freertos/FreeRTOSv10.4.1/FreeRTOS/Source/queue.c ****                 configASSERT( cTxLock != queueINT8_MAX );
 1635              		.loc 1 1128 17
 1636 0106 97F93330 		ldrsb	r3, [r7, #51]
 1637 010a 7F2B     		cmp	r3, #127
 1638 010c 0AD1     		bne	.L108
 1639              	.LBB144:
 1640              	.LBB145:
 197:../../../../dependencies/freertos/FreeRTOSv10.4.1/FreeRTOS/Source/portable/GCC/ARM_CM4F/portmacro.h ****         (
 1641              		.loc 2 197 9
 1642              		.syntax unified
 1643              	@ 197 "../../../../dependencies/freertos/FreeRTOSv10.4.1/FreeRTOS/Source/portable/GCC/ARM_CM4F/port
 1644 010e 4FF05003 			mov r3, #80												
 1645 0112 83F31188 		msr basepri, r3											
 1646 0116 BFF36F8F 		isb														
 1647 011a BFF34F8F 		dsb														
 1648              	
 1649              	@ 0 "" 2
 1650              		.thumb
 1651              		.syntax unified
 1652 011e 7B61     		str	r3, [r7, #20]
 205:../../../../dependencies/freertos/FreeRTOSv10.4.1/FreeRTOS/Source/portable/GCC/ARM_CM4F/portmacro.h **** 
 1653              		.loc 2 205 5
 1654 0120 00BF     		nop
 1655              	.L109:
 1656              	.LBE145:
 1657              	.LBE144:
 1658              		.loc 1 1128 17 discriminator 6
 1659 0122 FEE7     		b	.L109
 1660              	.L108:
1129:../../../../dependencies/freertos/FreeRTOSv10.4.1/FreeRTOS/Source/queue.c **** 
1130:../../../../dependencies/freertos/FreeRTOSv10.4.1/FreeRTOS/Source/queue.c ****                 pxQueue->cTxLock = ( int8_t ) ( cTxLock + 1 );
 1661              		.loc 1 1130 57
 1662 0124 97F83330 		ldrb	r3, [r7, #51]	@ zero_extendqisi2
 1663 0128 0133     		adds	r3, r3, #1
 1664 012a DBB2     		uxtb	r3, r3
 1665              		.loc 1 1130 36
 1666 012c 5AB2     		sxtb	r2, r3
 1667              		.loc 1 1130 34
 1668 012e BB6B     		ldr	r3, [r7, #56]
 1669 0130 83F84520 		strb	r2, [r3, #69]
 1670              	.L107:
1131:../../../../dependencies/freertos/FreeRTOSv10.4.1/FreeRTOS/Source/queue.c ****             }
1132:../../../../dependencies/freertos/FreeRTOSv10.4.1/FreeRTOS/Source/queue.c **** 
1133:../../../../dependencies/freertos/FreeRTOSv10.4.1/FreeRTOS/Source/queue.c ****             xReturn = pdPASS;
ARM GAS  /var/folders/kj/yzqgq53j3dg15vgwwwwgf5s00000gn/T//ccGgwidk.s 			page 54


 1671              		.loc 1 1133 21
 1672 0134 0123     		movs	r3, #1
 1673 0136 FB63     		str	r3, [r7, #60]
 1674              	.LBE143:
1017:../../../../dependencies/freertos/FreeRTOSv10.4.1/FreeRTOS/Source/queue.c ****             const int8_t cTxLock = pxQueue->cTxLock;
 1675              		.loc 1 1017 9
 1676 0138 01E0     		b	.L110
 1677              	.L105:
1134:../../../../dependencies/freertos/FreeRTOSv10.4.1/FreeRTOS/Source/queue.c ****         }
1135:../../../../dependencies/freertos/FreeRTOSv10.4.1/FreeRTOS/Source/queue.c ****         else
1136:../../../../dependencies/freertos/FreeRTOSv10.4.1/FreeRTOS/Source/queue.c ****         {
1137:../../../../dependencies/freertos/FreeRTOSv10.4.1/FreeRTOS/Source/queue.c ****             traceQUEUE_SEND_FROM_ISR_FAILED( pxQueue );
1138:../../../../dependencies/freertos/FreeRTOSv10.4.1/FreeRTOS/Source/queue.c ****             xReturn = errQUEUE_FULL;
 1678              		.loc 1 1138 21
 1679 013a 0023     		movs	r3, #0
 1680 013c FB63     		str	r3, [r7, #60]
 1681              	.L110:
 1682 013e 7B6B     		ldr	r3, [r7, #52]
 1683 0140 3B61     		str	r3, [r7, #16]
 1684              	.LBB146:
 1685              	.LBB147:
 226:../../../../dependencies/freertos/FreeRTOSv10.4.1/FreeRTOS/Source/portable/GCC/ARM_CM4F/portmacro.h ****     }
 227:../../../../dependencies/freertos/FreeRTOSv10.4.1/FreeRTOS/Source/portable/GCC/ARM_CM4F/portmacro.h **** /*-----------------------------------------------------------*/
 228:../../../../dependencies/freertos/FreeRTOSv10.4.1/FreeRTOS/Source/portable/GCC/ARM_CM4F/portmacro.h **** 
 229:../../../../dependencies/freertos/FreeRTOSv10.4.1/FreeRTOS/Source/portable/GCC/ARM_CM4F/portmacro.h ****     portFORCE_INLINE static void vPortSetBASEPRI( uint32_t ulNewMaskValue )
 230:../../../../dependencies/freertos/FreeRTOSv10.4.1/FreeRTOS/Source/portable/GCC/ARM_CM4F/portmacro.h ****     {
 231:../../../../dependencies/freertos/FreeRTOSv10.4.1/FreeRTOS/Source/portable/GCC/ARM_CM4F/portmacro.h ****         __asm volatile
 1686              		.loc 2 231 9
 1687 0142 3B69     		ldr	r3, [r7, #16]
 1688              		.syntax unified
 1689              	@ 231 "../../../../dependencies/freertos/FreeRTOSv10.4.1/FreeRTOS/Source/portable/GCC/ARM_CM4F/port
 1690 0144 83F31188 			msr basepri, r3	
 1691              	@ 0 "" 2
 232:../../../../dependencies/freertos/FreeRTOSv10.4.1/FreeRTOS/Source/portable/GCC/ARM_CM4F/portmacro.h ****         (
 233:../../../../dependencies/freertos/FreeRTOSv10.4.1/FreeRTOS/Source/portable/GCC/ARM_CM4F/portmacro.h ****             "	msr basepri, %0	"::"r" ( ulNewMaskValue ) : "memory"
 234:../../../../dependencies/freertos/FreeRTOSv10.4.1/FreeRTOS/Source/portable/GCC/ARM_CM4F/portmacro.h ****         );
 235:../../../../dependencies/freertos/FreeRTOSv10.4.1/FreeRTOS/Source/portable/GCC/ARM_CM4F/portmacro.h ****     }
 1692              		.loc 2 235 5
 1693              		.thumb
 1694              		.syntax unified
 1695 0148 00BF     		nop
 1696              	.LBE147:
 1697              	.LBE146:
1139:../../../../dependencies/freertos/FreeRTOSv10.4.1/FreeRTOS/Source/queue.c ****         }
1140:../../../../dependencies/freertos/FreeRTOSv10.4.1/FreeRTOS/Source/queue.c ****     }
1141:../../../../dependencies/freertos/FreeRTOSv10.4.1/FreeRTOS/Source/queue.c ****     portCLEAR_INTERRUPT_MASK_FROM_ISR( uxSavedInterruptStatus );
1142:../../../../dependencies/freertos/FreeRTOSv10.4.1/FreeRTOS/Source/queue.c **** 
1143:../../../../dependencies/freertos/FreeRTOSv10.4.1/FreeRTOS/Source/queue.c ****     return xReturn;
 1698              		.loc 1 1143 12
 1699 014a FB6B     		ldr	r3, [r7, #60]
1144:../../../../dependencies/freertos/FreeRTOSv10.4.1/FreeRTOS/Source/queue.c **** }
 1700              		.loc 1 1144 1
 1701 014c 1846     		mov	r0, r3
 1702 014e 4037     		adds	r7, r7, #64
 1703              	.LCFI59:
 1704              		.cfi_def_cfa_offset 8
 1705 0150 BD46     		mov	sp, r7
ARM GAS  /var/folders/kj/yzqgq53j3dg15vgwwwwgf5s00000gn/T//ccGgwidk.s 			page 55


 1706              	.LCFI60:
 1707              		.cfi_def_cfa_register 13
 1708              		@ sp needed
 1709 0152 80BD     		pop	{r7, pc}
 1710              		.cfi_endproc
 1711              	.LFE16:
 1713              		.section	.text.xQueueGiveFromISR,"ax",%progbits
 1714              		.align	1
 1715              		.global	xQueueGiveFromISR
 1716              		.syntax unified
 1717              		.thumb
 1718              		.thumb_func
 1719              		.fpu fpv4-sp-d16
 1721              	xQueueGiveFromISR:
 1722              	.LFB17:
1145:../../../../dependencies/freertos/FreeRTOSv10.4.1/FreeRTOS/Source/queue.c **** /*-----------------------------------------------------------*/
1146:../../../../dependencies/freertos/FreeRTOSv10.4.1/FreeRTOS/Source/queue.c **** 
1147:../../../../dependencies/freertos/FreeRTOSv10.4.1/FreeRTOS/Source/queue.c **** BaseType_t xQueueGiveFromISR( QueueHandle_t xQueue,
1148:../../../../dependencies/freertos/FreeRTOSv10.4.1/FreeRTOS/Source/queue.c ****                               BaseType_t * const pxHigherPriorityTaskWoken )
1149:../../../../dependencies/freertos/FreeRTOSv10.4.1/FreeRTOS/Source/queue.c **** {
 1723              		.loc 1 1149 1
 1724              		.cfi_startproc
 1725              		@ args = 0, pretend = 0, frame = 56
 1726              		@ frame_needed = 1, uses_anonymous_args = 0
 1727 0000 80B5     		push	{r7, lr}
 1728              	.LCFI61:
 1729              		.cfi_def_cfa_offset 8
 1730              		.cfi_offset 7, -8
 1731              		.cfi_offset 14, -4
 1732 0002 8EB0     		sub	sp, sp, #56
 1733              	.LCFI62:
 1734              		.cfi_def_cfa_offset 64
 1735 0004 00AF     		add	r7, sp, #0
 1736              	.LCFI63:
 1737              		.cfi_def_cfa_register 7
 1738 0006 7860     		str	r0, [r7, #4]
 1739 0008 3960     		str	r1, [r7]
1150:../../../../dependencies/freertos/FreeRTOSv10.4.1/FreeRTOS/Source/queue.c ****     BaseType_t xReturn;
1151:../../../../dependencies/freertos/FreeRTOSv10.4.1/FreeRTOS/Source/queue.c ****     UBaseType_t uxSavedInterruptStatus;
1152:../../../../dependencies/freertos/FreeRTOSv10.4.1/FreeRTOS/Source/queue.c ****     Queue_t * const pxQueue = xQueue;
 1740              		.loc 1 1152 21
 1741 000a 7B68     		ldr	r3, [r7, #4]
 1742 000c 3B63     		str	r3, [r7, #48]
1153:../../../../dependencies/freertos/FreeRTOSv10.4.1/FreeRTOS/Source/queue.c **** 
1154:../../../../dependencies/freertos/FreeRTOSv10.4.1/FreeRTOS/Source/queue.c ****     /* Similar to xQueueGenericSendFromISR() but used with semaphores where the
1155:../../../../dependencies/freertos/FreeRTOSv10.4.1/FreeRTOS/Source/queue.c ****      * item size is 0.  Don't directly wake a task that was blocked on a queue
1156:../../../../dependencies/freertos/FreeRTOSv10.4.1/FreeRTOS/Source/queue.c ****      * read, instead return a flag to say whether a context switch is required or
1157:../../../../dependencies/freertos/FreeRTOSv10.4.1/FreeRTOS/Source/queue.c ****      * not (i.e. has a task with a higher priority than us been woken by this
1158:../../../../dependencies/freertos/FreeRTOSv10.4.1/FreeRTOS/Source/queue.c ****      * post). */
1159:../../../../dependencies/freertos/FreeRTOSv10.4.1/FreeRTOS/Source/queue.c **** 
1160:../../../../dependencies/freertos/FreeRTOSv10.4.1/FreeRTOS/Source/queue.c ****     configASSERT( pxQueue );
 1743              		.loc 1 1160 5
 1744 000e 3B6B     		ldr	r3, [r7, #48]
 1745 0010 002B     		cmp	r3, #0
 1746 0012 0AD1     		bne	.L113
 1747              	.LBB148:
 1748              	.LBB149:
ARM GAS  /var/folders/kj/yzqgq53j3dg15vgwwwwgf5s00000gn/T//ccGgwidk.s 			page 56


 197:../../../../dependencies/freertos/FreeRTOSv10.4.1/FreeRTOS/Source/portable/GCC/ARM_CM4F/portmacro.h ****         (
 1749              		.loc 2 197 9
 1750              		.syntax unified
 1751              	@ 197 "../../../../dependencies/freertos/FreeRTOSv10.4.1/FreeRTOS/Source/portable/GCC/ARM_CM4F/port
 1752 0014 4FF05003 			mov r3, #80												
 1753 0018 83F31188 		msr basepri, r3											
 1754 001c BFF36F8F 		isb														
 1755 0020 BFF34F8F 		dsb														
 1756              	
 1757              	@ 0 "" 2
 1758              		.thumb
 1759              		.syntax unified
 1760 0024 3B62     		str	r3, [r7, #32]
 205:../../../../dependencies/freertos/FreeRTOSv10.4.1/FreeRTOS/Source/portable/GCC/ARM_CM4F/portmacro.h **** 
 1761              		.loc 2 205 5
 1762 0026 00BF     		nop
 1763              	.L114:
 1764              	.LBE149:
 1765              	.LBE148:
 1766              		.loc 1 1160 5 discriminator 1
 1767 0028 FEE7     		b	.L114
 1768              	.L113:
1161:../../../../dependencies/freertos/FreeRTOSv10.4.1/FreeRTOS/Source/queue.c **** 
1162:../../../../dependencies/freertos/FreeRTOSv10.4.1/FreeRTOS/Source/queue.c ****     /* xQueueGenericSendFromISR() should be used instead of xQueueGiveFromISR()
1163:../../../../dependencies/freertos/FreeRTOSv10.4.1/FreeRTOS/Source/queue.c ****      * if the item size is not 0. */
1164:../../../../dependencies/freertos/FreeRTOSv10.4.1/FreeRTOS/Source/queue.c ****     configASSERT( pxQueue->uxItemSize == 0 );
 1769              		.loc 1 1164 5
 1770 002a 3B6B     		ldr	r3, [r7, #48]
 1771 002c 1B6C     		ldr	r3, [r3, #64]
 1772 002e 002B     		cmp	r3, #0
 1773 0030 0AD0     		beq	.L115
 1774              	.LBB150:
 1775              	.LBB151:
 197:../../../../dependencies/freertos/FreeRTOSv10.4.1/FreeRTOS/Source/portable/GCC/ARM_CM4F/portmacro.h ****         (
 1776              		.loc 2 197 9
 1777              		.syntax unified
 1778              	@ 197 "../../../../dependencies/freertos/FreeRTOSv10.4.1/FreeRTOS/Source/portable/GCC/ARM_CM4F/port
 1779 0032 4FF05003 			mov r3, #80												
 1780 0036 83F31188 		msr basepri, r3											
 1781 003a BFF36F8F 		isb														
 1782 003e BFF34F8F 		dsb														
 1783              	
 1784              	@ 0 "" 2
 1785              		.thumb
 1786              		.syntax unified
 1787 0042 FB61     		str	r3, [r7, #28]
 205:../../../../dependencies/freertos/FreeRTOSv10.4.1/FreeRTOS/Source/portable/GCC/ARM_CM4F/portmacro.h **** 
 1788              		.loc 2 205 5
 1789 0044 00BF     		nop
 1790              	.L116:
 1791              	.LBE151:
 1792              	.LBE150:
 1793              		.loc 1 1164 5 discriminator 2
 1794 0046 FEE7     		b	.L116
 1795              	.L115:
1165:../../../../dependencies/freertos/FreeRTOSv10.4.1/FreeRTOS/Source/queue.c **** 
1166:../../../../dependencies/freertos/FreeRTOSv10.4.1/FreeRTOS/Source/queue.c ****     /* Normally a mutex would not be given from an interrupt, especially if
ARM GAS  /var/folders/kj/yzqgq53j3dg15vgwwwwgf5s00000gn/T//ccGgwidk.s 			page 57


1167:../../../../dependencies/freertos/FreeRTOSv10.4.1/FreeRTOS/Source/queue.c ****      * there is a mutex holder, as priority inheritance makes no sense for an
1168:../../../../dependencies/freertos/FreeRTOSv10.4.1/FreeRTOS/Source/queue.c ****      * interrupts, only tasks. */
1169:../../../../dependencies/freertos/FreeRTOSv10.4.1/FreeRTOS/Source/queue.c ****     configASSERT( !( ( pxQueue->uxQueueType == queueQUEUE_IS_MUTEX ) && ( pxQueue->u.xSemaphore.xMu
 1796              		.loc 1 1169 5
 1797 0048 3B6B     		ldr	r3, [r7, #48]
 1798 004a 1B68     		ldr	r3, [r3]
 1799 004c 002B     		cmp	r3, #0
 1800 004e 03D1     		bne	.L117
 1801              		.loc 1 1169 5 is_stmt 0 discriminator 2
 1802 0050 3B6B     		ldr	r3, [r7, #48]
 1803 0052 9B68     		ldr	r3, [r3, #8]
 1804 0054 002B     		cmp	r3, #0
 1805 0056 01D1     		bne	.L118
 1806              	.L117:
 1807              		.loc 1 1169 5 discriminator 3
 1808 0058 0123     		movs	r3, #1
 1809 005a 00E0     		b	.L119
 1810              	.L118:
 1811              		.loc 1 1169 5 discriminator 4
 1812 005c 0023     		movs	r3, #0
 1813              	.L119:
 1814              		.loc 1 1169 5 discriminator 6
 1815 005e 002B     		cmp	r3, #0
 1816 0060 0AD1     		bne	.L120
 1817              	.LBB152:
 1818              	.LBB153:
 197:../../../../dependencies/freertos/FreeRTOSv10.4.1/FreeRTOS/Source/portable/GCC/ARM_CM4F/portmacro.h ****         (
 1819              		.loc 2 197 9 is_stmt 1
 1820              		.syntax unified
 1821              	@ 197 "../../../../dependencies/freertos/FreeRTOSv10.4.1/FreeRTOS/Source/portable/GCC/ARM_CM4F/port
 1822 0062 4FF05003 			mov r3, #80												
 1823 0066 83F31188 		msr basepri, r3											
 1824 006a BFF36F8F 		isb														
 1825 006e BFF34F8F 		dsb														
 1826              	
 1827              	@ 0 "" 2
 1828              		.thumb
 1829              		.syntax unified
 1830 0072 BB61     		str	r3, [r7, #24]
 205:../../../../dependencies/freertos/FreeRTOSv10.4.1/FreeRTOS/Source/portable/GCC/ARM_CM4F/portmacro.h **** 
 1831              		.loc 2 205 5
 1832 0074 00BF     		nop
 1833              	.L121:
 1834              	.LBE153:
 1835              	.LBE152:
 1836              		.loc 1 1169 5 discriminator 3
 1837 0076 FEE7     		b	.L121
 1838              	.L120:
1170:../../../../dependencies/freertos/FreeRTOSv10.4.1/FreeRTOS/Source/queue.c **** 
1171:../../../../dependencies/freertos/FreeRTOSv10.4.1/FreeRTOS/Source/queue.c ****     /* RTOS ports that support interrupt nesting have the concept of a maximum
1172:../../../../dependencies/freertos/FreeRTOSv10.4.1/FreeRTOS/Source/queue.c ****      * system call (or maximum API call) interrupt priority.  Interrupts that are
1173:../../../../dependencies/freertos/FreeRTOSv10.4.1/FreeRTOS/Source/queue.c ****      * above the maximum system call priority are kept permanently enabled, even
1174:../../../../dependencies/freertos/FreeRTOSv10.4.1/FreeRTOS/Source/queue.c ****      * when the RTOS kernel is in a critical section, but cannot make any calls to
1175:../../../../dependencies/freertos/FreeRTOSv10.4.1/FreeRTOS/Source/queue.c ****      * FreeRTOS API functions.  If configASSERT() is defined in FreeRTOSConfig.h
1176:../../../../dependencies/freertos/FreeRTOSv10.4.1/FreeRTOS/Source/queue.c ****      * then portASSERT_IF_INTERRUPT_PRIORITY_INVALID() will result in an assertion
1177:../../../../dependencies/freertos/FreeRTOSv10.4.1/FreeRTOS/Source/queue.c ****      * failure if a FreeRTOS API function is called from an interrupt that has been
1178:../../../../dependencies/freertos/FreeRTOSv10.4.1/FreeRTOS/Source/queue.c ****      * assigned a priority above the configured maximum system call priority.
ARM GAS  /var/folders/kj/yzqgq53j3dg15vgwwwwgf5s00000gn/T//ccGgwidk.s 			page 58


1179:../../../../dependencies/freertos/FreeRTOSv10.4.1/FreeRTOS/Source/queue.c ****      * Only FreeRTOS functions that end in FromISR can be called from interrupts
1180:../../../../dependencies/freertos/FreeRTOSv10.4.1/FreeRTOS/Source/queue.c ****      * that have been assigned a priority at or (logically) below the maximum
1181:../../../../dependencies/freertos/FreeRTOSv10.4.1/FreeRTOS/Source/queue.c ****      * system call interrupt priority.  FreeRTOS maintains a separate interrupt
1182:../../../../dependencies/freertos/FreeRTOSv10.4.1/FreeRTOS/Source/queue.c ****      * safe API to ensure interrupt entry is as fast and as simple as possible.
1183:../../../../dependencies/freertos/FreeRTOSv10.4.1/FreeRTOS/Source/queue.c ****      * More information (albeit Cortex-M specific) is provided on the following
1184:../../../../dependencies/freertos/FreeRTOSv10.4.1/FreeRTOS/Source/queue.c ****      * link: https://www.FreeRTOS.org/RTOS-Cortex-M3-M4.html */
1185:../../../../dependencies/freertos/FreeRTOSv10.4.1/FreeRTOS/Source/queue.c ****     portASSERT_IF_INTERRUPT_PRIORITY_INVALID();
 1839              		.loc 1 1185 5
 1840 0078 FFF7FEFF 		bl	vPortValidateInterruptPriority
 1841              	.LBB154:
 1842              	.LBB155:
 213:../../../../dependencies/freertos/FreeRTOSv10.4.1/FreeRTOS/Source/portable/GCC/ARM_CM4F/portmacro.h ****         (
 1843              		.loc 2 213 9
 1844              		.syntax unified
 1845              	@ 213 "../../../../dependencies/freertos/FreeRTOSv10.4.1/FreeRTOS/Source/portable/GCC/ARM_CM4F/port
 1846 007c EFF31182 			mrs r2, basepri											
 1847 0080 4FF05003 		mov r3, #80												
 1848 0084 83F31188 		msr basepri, r3											
 1849 0088 BFF36F8F 		isb														
 1850 008c BFF34F8F 		dsb														
 1851              	
 1852              	@ 0 "" 2
 1853              		.thumb
 1854              		.syntax unified
 1855 0090 7A61     		str	r2, [r7, #20]
 1856 0092 3B61     		str	r3, [r7, #16]
 225:../../../../dependencies/freertos/FreeRTOSv10.4.1/FreeRTOS/Source/portable/GCC/ARM_CM4F/portmacro.h ****     }
 1857              		.loc 2 225 16
 1858 0094 7B69     		ldr	r3, [r7, #20]
 1859              	.LBE155:
 1860              	.LBE154:
1186:../../../../dependencies/freertos/FreeRTOSv10.4.1/FreeRTOS/Source/queue.c **** 
1187:../../../../dependencies/freertos/FreeRTOSv10.4.1/FreeRTOS/Source/queue.c ****     uxSavedInterruptStatus = portSET_INTERRUPT_MASK_FROM_ISR();
 1861              		.loc 1 1187 30
 1862 0096 FB62     		str	r3, [r7, #44]
 1863              	.LBB156:
1188:../../../../dependencies/freertos/FreeRTOSv10.4.1/FreeRTOS/Source/queue.c ****     {
1189:../../../../dependencies/freertos/FreeRTOSv10.4.1/FreeRTOS/Source/queue.c ****         const UBaseType_t uxMessagesWaiting = pxQueue->uxMessagesWaiting;
 1864              		.loc 1 1189 27
 1865 0098 3B6B     		ldr	r3, [r7, #48]
 1866 009a 9B6B     		ldr	r3, [r3, #56]
 1867 009c BB62     		str	r3, [r7, #40]
1190:../../../../dependencies/freertos/FreeRTOSv10.4.1/FreeRTOS/Source/queue.c **** 
1191:../../../../dependencies/freertos/FreeRTOSv10.4.1/FreeRTOS/Source/queue.c ****         /* When the queue is used to implement a semaphore no data is ever
1192:../../../../dependencies/freertos/FreeRTOSv10.4.1/FreeRTOS/Source/queue.c ****          * moved through the queue but it is still valid to see if the queue 'has
1193:../../../../dependencies/freertos/FreeRTOSv10.4.1/FreeRTOS/Source/queue.c ****          * space'. */
1194:../../../../dependencies/freertos/FreeRTOSv10.4.1/FreeRTOS/Source/queue.c ****         if( uxMessagesWaiting < pxQueue->uxLength )
 1868              		.loc 1 1194 40
 1869 009e 3B6B     		ldr	r3, [r7, #48]
 1870 00a0 DB6B     		ldr	r3, [r3, #60]
 1871              		.loc 1 1194 11
 1872 00a2 BA6A     		ldr	r2, [r7, #40]
 1873 00a4 9A42     		cmp	r2, r3
 1874 00a6 3AD2     		bcs	.L123
 1875              	.LBB157:
1195:../../../../dependencies/freertos/FreeRTOSv10.4.1/FreeRTOS/Source/queue.c ****         {
1196:../../../../dependencies/freertos/FreeRTOSv10.4.1/FreeRTOS/Source/queue.c ****             const int8_t cTxLock = pxQueue->cTxLock;
ARM GAS  /var/folders/kj/yzqgq53j3dg15vgwwwwgf5s00000gn/T//ccGgwidk.s 			page 59


 1876              		.loc 1 1196 26
 1877 00a8 3B6B     		ldr	r3, [r7, #48]
 1878 00aa 93F84530 		ldrb	r3, [r3, #69]
 1879 00ae 87F82730 		strb	r3, [r7, #39]
1197:../../../../dependencies/freertos/FreeRTOSv10.4.1/FreeRTOS/Source/queue.c **** 
1198:../../../../dependencies/freertos/FreeRTOSv10.4.1/FreeRTOS/Source/queue.c ****             traceQUEUE_SEND_FROM_ISR( pxQueue );
1199:../../../../dependencies/freertos/FreeRTOSv10.4.1/FreeRTOS/Source/queue.c **** 
1200:../../../../dependencies/freertos/FreeRTOSv10.4.1/FreeRTOS/Source/queue.c ****             /* A task can only have an inherited priority if it is a mutex
1201:../../../../dependencies/freertos/FreeRTOSv10.4.1/FreeRTOS/Source/queue.c ****              * holder - and if there is a mutex holder then the mutex cannot be
1202:../../../../dependencies/freertos/FreeRTOSv10.4.1/FreeRTOS/Source/queue.c ****              * given from an ISR.  As this is the ISR version of the function it
1203:../../../../dependencies/freertos/FreeRTOSv10.4.1/FreeRTOS/Source/queue.c ****              * can be assumed there is no mutex holder and no need to determine if
1204:../../../../dependencies/freertos/FreeRTOSv10.4.1/FreeRTOS/Source/queue.c ****              * priority disinheritance is needed.  Simply increase the count of
1205:../../../../dependencies/freertos/FreeRTOSv10.4.1/FreeRTOS/Source/queue.c ****              * messages (semaphores) available. */
1206:../../../../dependencies/freertos/FreeRTOSv10.4.1/FreeRTOS/Source/queue.c ****             pxQueue->uxMessagesWaiting = uxMessagesWaiting + ( UBaseType_t ) 1;
 1880              		.loc 1 1206 60
 1881 00b2 BB6A     		ldr	r3, [r7, #40]
 1882 00b4 5A1C     		adds	r2, r3, #1
 1883              		.loc 1 1206 40
 1884 00b6 3B6B     		ldr	r3, [r7, #48]
 1885 00b8 9A63     		str	r2, [r3, #56]
1207:../../../../dependencies/freertos/FreeRTOSv10.4.1/FreeRTOS/Source/queue.c **** 
1208:../../../../dependencies/freertos/FreeRTOSv10.4.1/FreeRTOS/Source/queue.c ****             /* The event list is not altered if the queue is locked.  This will
1209:../../../../dependencies/freertos/FreeRTOSv10.4.1/FreeRTOS/Source/queue.c ****              * be done when the queue is unlocked later. */
1210:../../../../dependencies/freertos/FreeRTOSv10.4.1/FreeRTOS/Source/queue.c ****             if( cTxLock == queueUNLOCKED )
 1886              		.loc 1 1210 15
 1887 00ba 97F92730 		ldrsb	r3, [r7, #39]
 1888 00be B3F1FF3F 		cmp	r3, #-1
 1889 00c2 12D1     		bne	.L124
1211:../../../../dependencies/freertos/FreeRTOSv10.4.1/FreeRTOS/Source/queue.c ****             {
1212:../../../../dependencies/freertos/FreeRTOSv10.4.1/FreeRTOS/Source/queue.c ****                 #if ( configUSE_QUEUE_SETS == 1 )
1213:../../../../dependencies/freertos/FreeRTOSv10.4.1/FreeRTOS/Source/queue.c ****                     {
1214:../../../../dependencies/freertos/FreeRTOSv10.4.1/FreeRTOS/Source/queue.c ****                         if( pxQueue->pxQueueSetContainer != NULL )
1215:../../../../dependencies/freertos/FreeRTOSv10.4.1/FreeRTOS/Source/queue.c ****                         {
1216:../../../../dependencies/freertos/FreeRTOSv10.4.1/FreeRTOS/Source/queue.c ****                             if( prvNotifyQueueSetContainer( pxQueue ) != pdFALSE )
1217:../../../../dependencies/freertos/FreeRTOSv10.4.1/FreeRTOS/Source/queue.c ****                             {
1218:../../../../dependencies/freertos/FreeRTOSv10.4.1/FreeRTOS/Source/queue.c ****                                 /* The semaphore is a member of a queue set, and
1219:../../../../dependencies/freertos/FreeRTOSv10.4.1/FreeRTOS/Source/queue.c ****                                  * posting to the queue set caused a higher priority
1220:../../../../dependencies/freertos/FreeRTOSv10.4.1/FreeRTOS/Source/queue.c ****                                  * task to unblock.  A context switch is required. */
1221:../../../../dependencies/freertos/FreeRTOSv10.4.1/FreeRTOS/Source/queue.c ****                                 if( pxHigherPriorityTaskWoken != NULL )
1222:../../../../dependencies/freertos/FreeRTOSv10.4.1/FreeRTOS/Source/queue.c ****                                 {
1223:../../../../dependencies/freertos/FreeRTOSv10.4.1/FreeRTOS/Source/queue.c ****                                     *pxHigherPriorityTaskWoken = pdTRUE;
1224:../../../../dependencies/freertos/FreeRTOSv10.4.1/FreeRTOS/Source/queue.c ****                                 }
1225:../../../../dependencies/freertos/FreeRTOSv10.4.1/FreeRTOS/Source/queue.c ****                                 else
1226:../../../../dependencies/freertos/FreeRTOSv10.4.1/FreeRTOS/Source/queue.c ****                                 {
1227:../../../../dependencies/freertos/FreeRTOSv10.4.1/FreeRTOS/Source/queue.c ****                                     mtCOVERAGE_TEST_MARKER();
1228:../../../../dependencies/freertos/FreeRTOSv10.4.1/FreeRTOS/Source/queue.c ****                                 }
1229:../../../../dependencies/freertos/FreeRTOSv10.4.1/FreeRTOS/Source/queue.c ****                             }
1230:../../../../dependencies/freertos/FreeRTOSv10.4.1/FreeRTOS/Source/queue.c ****                             else
1231:../../../../dependencies/freertos/FreeRTOSv10.4.1/FreeRTOS/Source/queue.c ****                             {
1232:../../../../dependencies/freertos/FreeRTOSv10.4.1/FreeRTOS/Source/queue.c ****                                 mtCOVERAGE_TEST_MARKER();
1233:../../../../dependencies/freertos/FreeRTOSv10.4.1/FreeRTOS/Source/queue.c ****                             }
1234:../../../../dependencies/freertos/FreeRTOSv10.4.1/FreeRTOS/Source/queue.c ****                         }
1235:../../../../dependencies/freertos/FreeRTOSv10.4.1/FreeRTOS/Source/queue.c ****                         else
1236:../../../../dependencies/freertos/FreeRTOSv10.4.1/FreeRTOS/Source/queue.c ****                         {
1237:../../../../dependencies/freertos/FreeRTOSv10.4.1/FreeRTOS/Source/queue.c ****                             if( listLIST_IS_EMPTY( &( pxQueue->xTasksWaitingToReceive ) ) == pdFALS
1238:../../../../dependencies/freertos/FreeRTOSv10.4.1/FreeRTOS/Source/queue.c ****                             {
1239:../../../../dependencies/freertos/FreeRTOSv10.4.1/FreeRTOS/Source/queue.c ****                                 if( xTaskRemoveFromEventList( &( pxQueue->xTasksWaitingToReceive ) 
ARM GAS  /var/folders/kj/yzqgq53j3dg15vgwwwwgf5s00000gn/T//ccGgwidk.s 			page 60


1240:../../../../dependencies/freertos/FreeRTOSv10.4.1/FreeRTOS/Source/queue.c ****                                 {
1241:../../../../dependencies/freertos/FreeRTOSv10.4.1/FreeRTOS/Source/queue.c ****                                     /* The task waiting has a higher priority so
1242:../../../../dependencies/freertos/FreeRTOSv10.4.1/FreeRTOS/Source/queue.c ****                                      *  record that a context switch is required. */
1243:../../../../dependencies/freertos/FreeRTOSv10.4.1/FreeRTOS/Source/queue.c ****                                     if( pxHigherPriorityTaskWoken != NULL )
1244:../../../../dependencies/freertos/FreeRTOSv10.4.1/FreeRTOS/Source/queue.c ****                                     {
1245:../../../../dependencies/freertos/FreeRTOSv10.4.1/FreeRTOS/Source/queue.c ****                                         *pxHigherPriorityTaskWoken = pdTRUE;
1246:../../../../dependencies/freertos/FreeRTOSv10.4.1/FreeRTOS/Source/queue.c ****                                     }
1247:../../../../dependencies/freertos/FreeRTOSv10.4.1/FreeRTOS/Source/queue.c ****                                     else
1248:../../../../dependencies/freertos/FreeRTOSv10.4.1/FreeRTOS/Source/queue.c ****                                     {
1249:../../../../dependencies/freertos/FreeRTOSv10.4.1/FreeRTOS/Source/queue.c ****                                         mtCOVERAGE_TEST_MARKER();
1250:../../../../dependencies/freertos/FreeRTOSv10.4.1/FreeRTOS/Source/queue.c ****                                     }
1251:../../../../dependencies/freertos/FreeRTOSv10.4.1/FreeRTOS/Source/queue.c ****                                 }
1252:../../../../dependencies/freertos/FreeRTOSv10.4.1/FreeRTOS/Source/queue.c ****                                 else
1253:../../../../dependencies/freertos/FreeRTOSv10.4.1/FreeRTOS/Source/queue.c ****                                 {
1254:../../../../dependencies/freertos/FreeRTOSv10.4.1/FreeRTOS/Source/queue.c ****                                     mtCOVERAGE_TEST_MARKER();
1255:../../../../dependencies/freertos/FreeRTOSv10.4.1/FreeRTOS/Source/queue.c ****                                 }
1256:../../../../dependencies/freertos/FreeRTOSv10.4.1/FreeRTOS/Source/queue.c ****                             }
1257:../../../../dependencies/freertos/FreeRTOSv10.4.1/FreeRTOS/Source/queue.c ****                             else
1258:../../../../dependencies/freertos/FreeRTOSv10.4.1/FreeRTOS/Source/queue.c ****                             {
1259:../../../../dependencies/freertos/FreeRTOSv10.4.1/FreeRTOS/Source/queue.c ****                                 mtCOVERAGE_TEST_MARKER();
1260:../../../../dependencies/freertos/FreeRTOSv10.4.1/FreeRTOS/Source/queue.c ****                             }
1261:../../../../dependencies/freertos/FreeRTOSv10.4.1/FreeRTOS/Source/queue.c ****                         }
1262:../../../../dependencies/freertos/FreeRTOSv10.4.1/FreeRTOS/Source/queue.c ****                     }
1263:../../../../dependencies/freertos/FreeRTOSv10.4.1/FreeRTOS/Source/queue.c ****                 #else /* configUSE_QUEUE_SETS */
1264:../../../../dependencies/freertos/FreeRTOSv10.4.1/FreeRTOS/Source/queue.c ****                     {
1265:../../../../dependencies/freertos/FreeRTOSv10.4.1/FreeRTOS/Source/queue.c ****                         if( listLIST_IS_EMPTY( &( pxQueue->xTasksWaitingToReceive ) ) == pdFALSE )
 1890              		.loc 1 1265 29
 1891 00c4 3B6B     		ldr	r3, [r7, #48]
 1892 00c6 5B6A     		ldr	r3, [r3, #36]
 1893              		.loc 1 1265 27
 1894 00c8 002B     		cmp	r3, #0
 1895 00ca 25D0     		beq	.L125
1266:../../../../dependencies/freertos/FreeRTOSv10.4.1/FreeRTOS/Source/queue.c ****                         {
1267:../../../../dependencies/freertos/FreeRTOSv10.4.1/FreeRTOS/Source/queue.c ****                             if( xTaskRemoveFromEventList( &( pxQueue->xTasksWaitingToReceive ) ) !=
 1896              		.loc 1 1267 59
 1897 00cc 3B6B     		ldr	r3, [r7, #48]
 1898 00ce 2433     		adds	r3, r3, #36
 1899              		.loc 1 1267 33
 1900 00d0 1846     		mov	r0, r3
 1901 00d2 FFF7FEFF 		bl	xTaskRemoveFromEventList
 1902 00d6 0346     		mov	r3, r0
 1903              		.loc 1 1267 31
 1904 00d8 002B     		cmp	r3, #0
 1905 00da 1DD0     		beq	.L125
1268:../../../../dependencies/freertos/FreeRTOSv10.4.1/FreeRTOS/Source/queue.c ****                             {
1269:../../../../dependencies/freertos/FreeRTOSv10.4.1/FreeRTOS/Source/queue.c ****                                 /* The task waiting has a higher priority so record that a
1270:../../../../dependencies/freertos/FreeRTOSv10.4.1/FreeRTOS/Source/queue.c ****                                  * context switch is required. */
1271:../../../../dependencies/freertos/FreeRTOSv10.4.1/FreeRTOS/Source/queue.c ****                                 if( pxHigherPriorityTaskWoken != NULL )
 1906              		.loc 1 1271 35
 1907 00dc 3B68     		ldr	r3, [r7]
 1908 00de 002B     		cmp	r3, #0
 1909 00e0 1AD0     		beq	.L125
1272:../../../../dependencies/freertos/FreeRTOSv10.4.1/FreeRTOS/Source/queue.c ****                                 {
1273:../../../../dependencies/freertos/FreeRTOSv10.4.1/FreeRTOS/Source/queue.c ****                                     *pxHigherPriorityTaskWoken = pdTRUE;
 1910              		.loc 1 1273 64
 1911 00e2 3B68     		ldr	r3, [r7]
 1912 00e4 0122     		movs	r2, #1
ARM GAS  /var/folders/kj/yzqgq53j3dg15vgwwwwgf5s00000gn/T//ccGgwidk.s 			page 61


 1913 00e6 1A60     		str	r2, [r3]
 1914 00e8 16E0     		b	.L125
 1915              	.L124:
1274:../../../../dependencies/freertos/FreeRTOSv10.4.1/FreeRTOS/Source/queue.c ****                                 }
1275:../../../../dependencies/freertos/FreeRTOSv10.4.1/FreeRTOS/Source/queue.c ****                                 else
1276:../../../../dependencies/freertos/FreeRTOSv10.4.1/FreeRTOS/Source/queue.c ****                                 {
1277:../../../../dependencies/freertos/FreeRTOSv10.4.1/FreeRTOS/Source/queue.c ****                                     mtCOVERAGE_TEST_MARKER();
1278:../../../../dependencies/freertos/FreeRTOSv10.4.1/FreeRTOS/Source/queue.c ****                                 }
1279:../../../../dependencies/freertos/FreeRTOSv10.4.1/FreeRTOS/Source/queue.c ****                             }
1280:../../../../dependencies/freertos/FreeRTOSv10.4.1/FreeRTOS/Source/queue.c ****                             else
1281:../../../../dependencies/freertos/FreeRTOSv10.4.1/FreeRTOS/Source/queue.c ****                             {
1282:../../../../dependencies/freertos/FreeRTOSv10.4.1/FreeRTOS/Source/queue.c ****                                 mtCOVERAGE_TEST_MARKER();
1283:../../../../dependencies/freertos/FreeRTOSv10.4.1/FreeRTOS/Source/queue.c ****                             }
1284:../../../../dependencies/freertos/FreeRTOSv10.4.1/FreeRTOS/Source/queue.c ****                         }
1285:../../../../dependencies/freertos/FreeRTOSv10.4.1/FreeRTOS/Source/queue.c ****                         else
1286:../../../../dependencies/freertos/FreeRTOSv10.4.1/FreeRTOS/Source/queue.c ****                         {
1287:../../../../dependencies/freertos/FreeRTOSv10.4.1/FreeRTOS/Source/queue.c ****                             mtCOVERAGE_TEST_MARKER();
1288:../../../../dependencies/freertos/FreeRTOSv10.4.1/FreeRTOS/Source/queue.c ****                         }
1289:../../../../dependencies/freertos/FreeRTOSv10.4.1/FreeRTOS/Source/queue.c ****                     }
1290:../../../../dependencies/freertos/FreeRTOSv10.4.1/FreeRTOS/Source/queue.c ****                 #endif /* configUSE_QUEUE_SETS */
1291:../../../../dependencies/freertos/FreeRTOSv10.4.1/FreeRTOS/Source/queue.c ****             }
1292:../../../../dependencies/freertos/FreeRTOSv10.4.1/FreeRTOS/Source/queue.c ****             else
1293:../../../../dependencies/freertos/FreeRTOSv10.4.1/FreeRTOS/Source/queue.c ****             {
1294:../../../../dependencies/freertos/FreeRTOSv10.4.1/FreeRTOS/Source/queue.c ****                 /* Increment the lock count so the task that unlocks the queue
1295:../../../../dependencies/freertos/FreeRTOSv10.4.1/FreeRTOS/Source/queue.c ****                  * knows that data was posted while it was locked. */
1296:../../../../dependencies/freertos/FreeRTOSv10.4.1/FreeRTOS/Source/queue.c ****                 configASSERT( cTxLock != queueINT8_MAX );
 1916              		.loc 1 1296 17
 1917 00ea 97F92730 		ldrsb	r3, [r7, #39]
 1918 00ee 7F2B     		cmp	r3, #127
 1919 00f0 0AD1     		bne	.L126
 1920              	.LBB158:
 1921              	.LBB159:
 197:../../../../dependencies/freertos/FreeRTOSv10.4.1/FreeRTOS/Source/portable/GCC/ARM_CM4F/portmacro.h ****         (
 1922              		.loc 2 197 9
 1923              		.syntax unified
 1924              	@ 197 "../../../../dependencies/freertos/FreeRTOSv10.4.1/FreeRTOS/Source/portable/GCC/ARM_CM4F/port
 1925 00f2 4FF05003 			mov r3, #80												
 1926 00f6 83F31188 		msr basepri, r3											
 1927 00fa BFF36F8F 		isb														
 1928 00fe BFF34F8F 		dsb														
 1929              	
 1930              	@ 0 "" 2
 1931              		.thumb
 1932              		.syntax unified
 1933 0102 FB60     		str	r3, [r7, #12]
 205:../../../../dependencies/freertos/FreeRTOSv10.4.1/FreeRTOS/Source/portable/GCC/ARM_CM4F/portmacro.h **** 
 1934              		.loc 2 205 5
 1935 0104 00BF     		nop
 1936              	.L127:
 1937              	.LBE159:
 1938              	.LBE158:
 1939              		.loc 1 1296 17 discriminator 6
 1940 0106 FEE7     		b	.L127
 1941              	.L126:
1297:../../../../dependencies/freertos/FreeRTOSv10.4.1/FreeRTOS/Source/queue.c **** 
1298:../../../../dependencies/freertos/FreeRTOSv10.4.1/FreeRTOS/Source/queue.c ****                 pxQueue->cTxLock = ( int8_t ) ( cTxLock + 1 );
 1942              		.loc 1 1298 57
ARM GAS  /var/folders/kj/yzqgq53j3dg15vgwwwwgf5s00000gn/T//ccGgwidk.s 			page 62


 1943 0108 97F82730 		ldrb	r3, [r7, #39]	@ zero_extendqisi2
 1944 010c 0133     		adds	r3, r3, #1
 1945 010e DBB2     		uxtb	r3, r3
 1946              		.loc 1 1298 36
 1947 0110 5AB2     		sxtb	r2, r3
 1948              		.loc 1 1298 34
 1949 0112 3B6B     		ldr	r3, [r7, #48]
 1950 0114 83F84520 		strb	r2, [r3, #69]
 1951              	.L125:
1299:../../../../dependencies/freertos/FreeRTOSv10.4.1/FreeRTOS/Source/queue.c ****             }
1300:../../../../dependencies/freertos/FreeRTOSv10.4.1/FreeRTOS/Source/queue.c **** 
1301:../../../../dependencies/freertos/FreeRTOSv10.4.1/FreeRTOS/Source/queue.c ****             xReturn = pdPASS;
 1952              		.loc 1 1301 21
 1953 0118 0123     		movs	r3, #1
 1954 011a 7B63     		str	r3, [r7, #52]
 1955              	.LBE157:
 1956 011c 01E0     		b	.L128
 1957              	.L123:
1302:../../../../dependencies/freertos/FreeRTOSv10.4.1/FreeRTOS/Source/queue.c ****         }
1303:../../../../dependencies/freertos/FreeRTOSv10.4.1/FreeRTOS/Source/queue.c ****         else
1304:../../../../dependencies/freertos/FreeRTOSv10.4.1/FreeRTOS/Source/queue.c ****         {
1305:../../../../dependencies/freertos/FreeRTOSv10.4.1/FreeRTOS/Source/queue.c ****             traceQUEUE_SEND_FROM_ISR_FAILED( pxQueue );
1306:../../../../dependencies/freertos/FreeRTOSv10.4.1/FreeRTOS/Source/queue.c ****             xReturn = errQUEUE_FULL;
 1958              		.loc 1 1306 21
 1959 011e 0023     		movs	r3, #0
 1960 0120 7B63     		str	r3, [r7, #52]
 1961              	.L128:
 1962 0122 FB6A     		ldr	r3, [r7, #44]
 1963 0124 BB60     		str	r3, [r7, #8]
 1964              	.LBE156:
 1965              	.LBB160:
 1966              	.LBB161:
 231:../../../../dependencies/freertos/FreeRTOSv10.4.1/FreeRTOS/Source/portable/GCC/ARM_CM4F/portmacro.h ****         (
 1967              		.loc 2 231 9
 1968 0126 BB68     		ldr	r3, [r7, #8]
 1969              		.syntax unified
 1970              	@ 231 "../../../../dependencies/freertos/FreeRTOSv10.4.1/FreeRTOS/Source/portable/GCC/ARM_CM4F/port
 1971 0128 83F31188 			msr basepri, r3	
 1972              	@ 0 "" 2
 1973              		.loc 2 235 5
 1974              		.thumb
 1975              		.syntax unified
 1976 012c 00BF     		nop
 1977              	.LBE161:
 1978              	.LBE160:
1307:../../../../dependencies/freertos/FreeRTOSv10.4.1/FreeRTOS/Source/queue.c ****         }
1308:../../../../dependencies/freertos/FreeRTOSv10.4.1/FreeRTOS/Source/queue.c ****     }
1309:../../../../dependencies/freertos/FreeRTOSv10.4.1/FreeRTOS/Source/queue.c ****     portCLEAR_INTERRUPT_MASK_FROM_ISR( uxSavedInterruptStatus );
1310:../../../../dependencies/freertos/FreeRTOSv10.4.1/FreeRTOS/Source/queue.c **** 
1311:../../../../dependencies/freertos/FreeRTOSv10.4.1/FreeRTOS/Source/queue.c ****     return xReturn;
 1979              		.loc 1 1311 12
 1980 012e 7B6B     		ldr	r3, [r7, #52]
1312:../../../../dependencies/freertos/FreeRTOSv10.4.1/FreeRTOS/Source/queue.c **** }
 1981              		.loc 1 1312 1
 1982 0130 1846     		mov	r0, r3
 1983 0132 3837     		adds	r7, r7, #56
 1984              	.LCFI64:
ARM GAS  /var/folders/kj/yzqgq53j3dg15vgwwwwgf5s00000gn/T//ccGgwidk.s 			page 63


 1985              		.cfi_def_cfa_offset 8
 1986 0134 BD46     		mov	sp, r7
 1987              	.LCFI65:
 1988              		.cfi_def_cfa_register 13
 1989              		@ sp needed
 1990 0136 80BD     		pop	{r7, pc}
 1991              		.cfi_endproc
 1992              	.LFE17:
 1994              		.section	.text.xQueueReceive,"ax",%progbits
 1995              		.align	1
 1996              		.global	xQueueReceive
 1997              		.syntax unified
 1998              		.thumb
 1999              		.thumb_func
 2000              		.fpu fpv4-sp-d16
 2002              	xQueueReceive:
 2003              	.LFB18:
1313:../../../../dependencies/freertos/FreeRTOSv10.4.1/FreeRTOS/Source/queue.c **** /*-----------------------------------------------------------*/
1314:../../../../dependencies/freertos/FreeRTOSv10.4.1/FreeRTOS/Source/queue.c **** 
1315:../../../../dependencies/freertos/FreeRTOSv10.4.1/FreeRTOS/Source/queue.c **** BaseType_t xQueueReceive( QueueHandle_t xQueue,
1316:../../../../dependencies/freertos/FreeRTOSv10.4.1/FreeRTOS/Source/queue.c ****                           void * const pvBuffer,
1317:../../../../dependencies/freertos/FreeRTOSv10.4.1/FreeRTOS/Source/queue.c ****                           TickType_t xTicksToWait )
1318:../../../../dependencies/freertos/FreeRTOSv10.4.1/FreeRTOS/Source/queue.c **** {
 2004              		.loc 1 1318 1
 2005              		.cfi_startproc
 2006              		@ args = 0, pretend = 0, frame = 48
 2007              		@ frame_needed = 1, uses_anonymous_args = 0
 2008 0000 80B5     		push	{r7, lr}
 2009              	.LCFI66:
 2010              		.cfi_def_cfa_offset 8
 2011              		.cfi_offset 7, -8
 2012              		.cfi_offset 14, -4
 2013 0002 8CB0     		sub	sp, sp, #48
 2014              	.LCFI67:
 2015              		.cfi_def_cfa_offset 56
 2016 0004 00AF     		add	r7, sp, #0
 2017              	.LCFI68:
 2018              		.cfi_def_cfa_register 7
 2019 0006 F860     		str	r0, [r7, #12]
 2020 0008 B960     		str	r1, [r7, #8]
 2021 000a 7A60     		str	r2, [r7, #4]
1319:../../../../dependencies/freertos/FreeRTOSv10.4.1/FreeRTOS/Source/queue.c ****     BaseType_t xEntryTimeSet = pdFALSE;
 2022              		.loc 1 1319 16
 2023 000c 0023     		movs	r3, #0
 2024 000e FB62     		str	r3, [r7, #44]
1320:../../../../dependencies/freertos/FreeRTOSv10.4.1/FreeRTOS/Source/queue.c ****     TimeOut_t xTimeOut;
1321:../../../../dependencies/freertos/FreeRTOSv10.4.1/FreeRTOS/Source/queue.c ****     Queue_t * const pxQueue = xQueue;
 2025              		.loc 1 1321 21
 2026 0010 FB68     		ldr	r3, [r7, #12]
 2027 0012 BB62     		str	r3, [r7, #40]
1322:../../../../dependencies/freertos/FreeRTOSv10.4.1/FreeRTOS/Source/queue.c **** 
1323:../../../../dependencies/freertos/FreeRTOSv10.4.1/FreeRTOS/Source/queue.c ****     /* Check the pointer is not NULL. */
1324:../../../../dependencies/freertos/FreeRTOSv10.4.1/FreeRTOS/Source/queue.c ****     configASSERT( ( pxQueue ) );
 2028              		.loc 1 1324 5
 2029 0014 BB6A     		ldr	r3, [r7, #40]
 2030 0016 002B     		cmp	r3, #0
 2031 0018 0AD1     		bne	.L131
ARM GAS  /var/folders/kj/yzqgq53j3dg15vgwwwwgf5s00000gn/T//ccGgwidk.s 			page 64


 2032              	.LBB162:
 2033              	.LBB163:
 197:../../../../dependencies/freertos/FreeRTOSv10.4.1/FreeRTOS/Source/portable/GCC/ARM_CM4F/portmacro.h ****         (
 2034              		.loc 2 197 9
 2035              		.syntax unified
 2036              	@ 197 "../../../../dependencies/freertos/FreeRTOSv10.4.1/FreeRTOS/Source/portable/GCC/ARM_CM4F/port
 2037 001a 4FF05003 			mov r3, #80												
 2038 001e 83F31188 		msr basepri, r3											
 2039 0022 BFF36F8F 		isb														
 2040 0026 BFF34F8F 		dsb														
 2041              	
 2042              	@ 0 "" 2
 2043              		.thumb
 2044              		.syntax unified
 2045 002a 3B62     		str	r3, [r7, #32]
 205:../../../../dependencies/freertos/FreeRTOSv10.4.1/FreeRTOS/Source/portable/GCC/ARM_CM4F/portmacro.h **** 
 2046              		.loc 2 205 5
 2047 002c 00BF     		nop
 2048              	.L132:
 2049              	.LBE163:
 2050              	.LBE162:
 2051              		.loc 1 1324 5 discriminator 1
 2052 002e FEE7     		b	.L132
 2053              	.L131:
1325:../../../../dependencies/freertos/FreeRTOSv10.4.1/FreeRTOS/Source/queue.c **** 
1326:../../../../dependencies/freertos/FreeRTOSv10.4.1/FreeRTOS/Source/queue.c ****     /* The buffer into which data is received can only be NULL if the data size
1327:../../../../dependencies/freertos/FreeRTOSv10.4.1/FreeRTOS/Source/queue.c ****      * is zero (so no data is copied into the buffer). */
1328:../../../../dependencies/freertos/FreeRTOSv10.4.1/FreeRTOS/Source/queue.c ****     configASSERT( !( ( ( pvBuffer ) == NULL ) && ( ( pxQueue )->uxItemSize != ( UBaseType_t ) 0U ) 
 2054              		.loc 1 1328 5
 2055 0030 BB68     		ldr	r3, [r7, #8]
 2056 0032 002B     		cmp	r3, #0
 2057 0034 03D1     		bne	.L133
 2058              		.loc 1 1328 5 is_stmt 0 discriminator 2
 2059 0036 BB6A     		ldr	r3, [r7, #40]
 2060 0038 1B6C     		ldr	r3, [r3, #64]
 2061 003a 002B     		cmp	r3, #0
 2062 003c 01D1     		bne	.L134
 2063              	.L133:
 2064              		.loc 1 1328 5 discriminator 3
 2065 003e 0123     		movs	r3, #1
 2066 0040 00E0     		b	.L135
 2067              	.L134:
 2068              		.loc 1 1328 5 discriminator 4
 2069 0042 0023     		movs	r3, #0
 2070              	.L135:
 2071              		.loc 1 1328 5 discriminator 6
 2072 0044 002B     		cmp	r3, #0
 2073 0046 0AD1     		bne	.L136
 2074              	.LBB164:
 2075              	.LBB165:
 197:../../../../dependencies/freertos/FreeRTOSv10.4.1/FreeRTOS/Source/portable/GCC/ARM_CM4F/portmacro.h ****         (
 2076              		.loc 2 197 9 is_stmt 1
 2077              		.syntax unified
 2078              	@ 197 "../../../../dependencies/freertos/FreeRTOSv10.4.1/FreeRTOS/Source/portable/GCC/ARM_CM4F/port
 2079 0048 4FF05003 			mov r3, #80												
 2080 004c 83F31188 		msr basepri, r3											
 2081 0050 BFF36F8F 		isb														
ARM GAS  /var/folders/kj/yzqgq53j3dg15vgwwwwgf5s00000gn/T//ccGgwidk.s 			page 65


 2082 0054 BFF34F8F 		dsb														
 2083              	
 2084              	@ 0 "" 2
 2085              		.thumb
 2086              		.syntax unified
 2087 0058 FB61     		str	r3, [r7, #28]
 205:../../../../dependencies/freertos/FreeRTOSv10.4.1/FreeRTOS/Source/portable/GCC/ARM_CM4F/portmacro.h **** 
 2088              		.loc 2 205 5
 2089 005a 00BF     		nop
 2090              	.L137:
 2091              	.LBE165:
 2092              	.LBE164:
 2093              		.loc 1 1328 5 discriminator 2
 2094 005c FEE7     		b	.L137
 2095              	.L136:
1329:../../../../dependencies/freertos/FreeRTOSv10.4.1/FreeRTOS/Source/queue.c **** 
1330:../../../../dependencies/freertos/FreeRTOSv10.4.1/FreeRTOS/Source/queue.c ****     /* Cannot block if the scheduler is suspended. */
1331:../../../../dependencies/freertos/FreeRTOSv10.4.1/FreeRTOS/Source/queue.c ****     #if ( ( INCLUDE_xTaskGetSchedulerState == 1 ) || ( configUSE_TIMERS == 1 ) )
1332:../../../../dependencies/freertos/FreeRTOSv10.4.1/FreeRTOS/Source/queue.c ****         {
1333:../../../../dependencies/freertos/FreeRTOSv10.4.1/FreeRTOS/Source/queue.c ****             configASSERT( !( ( xTaskGetSchedulerState() == taskSCHEDULER_SUSPENDED ) && ( xTicksToW
 2096              		.loc 1 1333 13
 2097 005e FFF7FEFF 		bl	xTaskGetSchedulerState
 2098 0062 0346     		mov	r3, r0
 2099 0064 002B     		cmp	r3, #0
 2100 0066 02D1     		bne	.L138
 2101              		.loc 1 1333 13 is_stmt 0 discriminator 2
 2102 0068 7B68     		ldr	r3, [r7, #4]
 2103 006a 002B     		cmp	r3, #0
 2104 006c 01D1     		bne	.L139
 2105              	.L138:
 2106              		.loc 1 1333 13 discriminator 3
 2107 006e 0123     		movs	r3, #1
 2108 0070 00E0     		b	.L140
 2109              	.L139:
 2110              		.loc 1 1333 13 discriminator 4
 2111 0072 0023     		movs	r3, #0
 2112              	.L140:
 2113              		.loc 1 1333 13 discriminator 6
 2114 0074 002B     		cmp	r3, #0
 2115 0076 0AD1     		bne	.L141
 2116              	.LBB166:
 2117              	.LBB167:
 197:../../../../dependencies/freertos/FreeRTOSv10.4.1/FreeRTOS/Source/portable/GCC/ARM_CM4F/portmacro.h ****         (
 2118              		.loc 2 197 9 is_stmt 1
 2119              		.syntax unified
 2120              	@ 197 "../../../../dependencies/freertos/FreeRTOSv10.4.1/FreeRTOS/Source/portable/GCC/ARM_CM4F/port
 2121 0078 4FF05003 			mov r3, #80												
 2122 007c 83F31188 		msr basepri, r3											
 2123 0080 BFF36F8F 		isb														
 2124 0084 BFF34F8F 		dsb														
 2125              	
 2126              	@ 0 "" 2
 2127              		.thumb
 2128              		.syntax unified
 2129 0088 BB61     		str	r3, [r7, #24]
 205:../../../../dependencies/freertos/FreeRTOSv10.4.1/FreeRTOS/Source/portable/GCC/ARM_CM4F/portmacro.h **** 
 2130              		.loc 2 205 5
ARM GAS  /var/folders/kj/yzqgq53j3dg15vgwwwwgf5s00000gn/T//ccGgwidk.s 			page 66


 2131 008a 00BF     		nop
 2132              	.L142:
 2133              	.LBE167:
 2134              	.LBE166:
 2135              		.loc 1 1333 13 discriminator 3
 2136 008c FEE7     		b	.L142
 2137              	.L141:
1334:../../../../dependencies/freertos/FreeRTOSv10.4.1/FreeRTOS/Source/queue.c ****         }
1335:../../../../dependencies/freertos/FreeRTOSv10.4.1/FreeRTOS/Source/queue.c ****     #endif
1336:../../../../dependencies/freertos/FreeRTOSv10.4.1/FreeRTOS/Source/queue.c **** 
1337:../../../../dependencies/freertos/FreeRTOSv10.4.1/FreeRTOS/Source/queue.c ****     /*lint -save -e904  This function relaxes the coding standard somewhat to
1338:../../../../dependencies/freertos/FreeRTOSv10.4.1/FreeRTOS/Source/queue.c ****      * allow return statements within the function itself.  This is done in the
1339:../../../../dependencies/freertos/FreeRTOSv10.4.1/FreeRTOS/Source/queue.c ****      * interest of execution time efficiency. */
1340:../../../../dependencies/freertos/FreeRTOSv10.4.1/FreeRTOS/Source/queue.c ****     for( ; ; )
1341:../../../../dependencies/freertos/FreeRTOSv10.4.1/FreeRTOS/Source/queue.c ****     {
1342:../../../../dependencies/freertos/FreeRTOSv10.4.1/FreeRTOS/Source/queue.c ****         taskENTER_CRITICAL();
 2138              		.loc 1 1342 9
 2139 008e FFF7FEFF 		bl	vPortEnterCritical
 2140              	.LBB168:
1343:../../../../dependencies/freertos/FreeRTOSv10.4.1/FreeRTOS/Source/queue.c ****         {
1344:../../../../dependencies/freertos/FreeRTOSv10.4.1/FreeRTOS/Source/queue.c ****             const UBaseType_t uxMessagesWaiting = pxQueue->uxMessagesWaiting;
 2141              		.loc 1 1344 31
 2142 0092 BB6A     		ldr	r3, [r7, #40]
 2143 0094 9B6B     		ldr	r3, [r3, #56]
 2144 0096 7B62     		str	r3, [r7, #36]
1345:../../../../dependencies/freertos/FreeRTOSv10.4.1/FreeRTOS/Source/queue.c **** 
1346:../../../../dependencies/freertos/FreeRTOSv10.4.1/FreeRTOS/Source/queue.c ****             /* Is there data in the queue now?  To be running the calling task
1347:../../../../dependencies/freertos/FreeRTOSv10.4.1/FreeRTOS/Source/queue.c ****              * must be the highest priority task wanting to access the queue. */
1348:../../../../dependencies/freertos/FreeRTOSv10.4.1/FreeRTOS/Source/queue.c ****             if( uxMessagesWaiting > ( UBaseType_t ) 0 )
 2145              		.loc 1 1348 15
 2146 0098 7B6A     		ldr	r3, [r7, #36]
 2147 009a 002B     		cmp	r3, #0
 2148 009c 1FD0     		beq	.L143
1349:../../../../dependencies/freertos/FreeRTOSv10.4.1/FreeRTOS/Source/queue.c ****             {
1350:../../../../dependencies/freertos/FreeRTOSv10.4.1/FreeRTOS/Source/queue.c ****                 /* Data available, remove one item. */
1351:../../../../dependencies/freertos/FreeRTOSv10.4.1/FreeRTOS/Source/queue.c ****                 prvCopyDataFromQueue( pxQueue, pvBuffer );
 2149              		.loc 1 1351 17
 2150 009e B968     		ldr	r1, [r7, #8]
 2151 00a0 B86A     		ldr	r0, [r7, #40]
 2152 00a2 FFF7FEFF 		bl	prvCopyDataFromQueue
1352:../../../../dependencies/freertos/FreeRTOSv10.4.1/FreeRTOS/Source/queue.c ****                 traceQUEUE_RECEIVE( pxQueue );
1353:../../../../dependencies/freertos/FreeRTOSv10.4.1/FreeRTOS/Source/queue.c ****                 pxQueue->uxMessagesWaiting = uxMessagesWaiting - ( UBaseType_t ) 1;
 2153              		.loc 1 1353 64
 2154 00a6 7B6A     		ldr	r3, [r7, #36]
 2155 00a8 5A1E     		subs	r2, r3, #1
 2156              		.loc 1 1353 44
 2157 00aa BB6A     		ldr	r3, [r7, #40]
 2158 00ac 9A63     		str	r2, [r3, #56]
1354:../../../../dependencies/freertos/FreeRTOSv10.4.1/FreeRTOS/Source/queue.c **** 
1355:../../../../dependencies/freertos/FreeRTOSv10.4.1/FreeRTOS/Source/queue.c ****                 /* There is now space in the queue, were any tasks waiting to
1356:../../../../dependencies/freertos/FreeRTOSv10.4.1/FreeRTOS/Source/queue.c ****                  * post to the queue?  If so, unblock the highest priority waiting
1357:../../../../dependencies/freertos/FreeRTOSv10.4.1/FreeRTOS/Source/queue.c ****                  * task. */
1358:../../../../dependencies/freertos/FreeRTOSv10.4.1/FreeRTOS/Source/queue.c ****                 if( listLIST_IS_EMPTY( &( pxQueue->xTasksWaitingToSend ) ) == pdFALSE )
 2159              		.loc 1 1358 21
 2160 00ae BB6A     		ldr	r3, [r7, #40]
 2161 00b0 1B69     		ldr	r3, [r3, #16]
 2162              		.loc 1 1358 19
ARM GAS  /var/folders/kj/yzqgq53j3dg15vgwwwwgf5s00000gn/T//ccGgwidk.s 			page 67


 2163 00b2 002B     		cmp	r3, #0
 2164 00b4 0FD0     		beq	.L144
1359:../../../../dependencies/freertos/FreeRTOSv10.4.1/FreeRTOS/Source/queue.c ****                 {
1360:../../../../dependencies/freertos/FreeRTOSv10.4.1/FreeRTOS/Source/queue.c ****                     if( xTaskRemoveFromEventList( &( pxQueue->xTasksWaitingToSend ) ) != pdFALSE )
 2165              		.loc 1 1360 51
 2166 00b6 BB6A     		ldr	r3, [r7, #40]
 2167 00b8 1033     		adds	r3, r3, #16
 2168              		.loc 1 1360 25
 2169 00ba 1846     		mov	r0, r3
 2170 00bc FFF7FEFF 		bl	xTaskRemoveFromEventList
 2171 00c0 0346     		mov	r3, r0
 2172              		.loc 1 1360 23
 2173 00c2 002B     		cmp	r3, #0
 2174 00c4 07D0     		beq	.L144
1361:../../../../dependencies/freertos/FreeRTOSv10.4.1/FreeRTOS/Source/queue.c ****                     {
1362:../../../../dependencies/freertos/FreeRTOSv10.4.1/FreeRTOS/Source/queue.c ****                         queueYIELD_IF_USING_PREEMPTION();
 2175              		.loc 1 1362 25
 2176 00c6 3D4B     		ldr	r3, .L154
 2177 00c8 4FF08052 		mov	r2, #268435456
 2178 00cc 1A60     		str	r2, [r3]
 2179              		.syntax unified
 2180              	@ 1362 "../../../../dependencies/freertos/FreeRTOSv10.4.1/FreeRTOS/Source/queue.c" 1
 2181 00ce BFF34F8F 		dsb
 2182              	@ 0 "" 2
 2183              	@ 1362 "../../../../dependencies/freertos/FreeRTOSv10.4.1/FreeRTOS/Source/queue.c" 1
 2184 00d2 BFF36F8F 		isb
 2185              	@ 0 "" 2
 2186              		.thumb
 2187              		.syntax unified
 2188              	.L144:
1363:../../../../dependencies/freertos/FreeRTOSv10.4.1/FreeRTOS/Source/queue.c ****                     }
1364:../../../../dependencies/freertos/FreeRTOSv10.4.1/FreeRTOS/Source/queue.c ****                     else
1365:../../../../dependencies/freertos/FreeRTOSv10.4.1/FreeRTOS/Source/queue.c ****                     {
1366:../../../../dependencies/freertos/FreeRTOSv10.4.1/FreeRTOS/Source/queue.c ****                         mtCOVERAGE_TEST_MARKER();
1367:../../../../dependencies/freertos/FreeRTOSv10.4.1/FreeRTOS/Source/queue.c ****                     }
1368:../../../../dependencies/freertos/FreeRTOSv10.4.1/FreeRTOS/Source/queue.c ****                 }
1369:../../../../dependencies/freertos/FreeRTOSv10.4.1/FreeRTOS/Source/queue.c ****                 else
1370:../../../../dependencies/freertos/FreeRTOSv10.4.1/FreeRTOS/Source/queue.c ****                 {
1371:../../../../dependencies/freertos/FreeRTOSv10.4.1/FreeRTOS/Source/queue.c ****                     mtCOVERAGE_TEST_MARKER();
1372:../../../../dependencies/freertos/FreeRTOSv10.4.1/FreeRTOS/Source/queue.c ****                 }
1373:../../../../dependencies/freertos/FreeRTOSv10.4.1/FreeRTOS/Source/queue.c **** 
1374:../../../../dependencies/freertos/FreeRTOSv10.4.1/FreeRTOS/Source/queue.c ****                 taskEXIT_CRITICAL();
 2189              		.loc 1 1374 17
 2190 00d6 FFF7FEFF 		bl	vPortExitCritical
1375:../../../../dependencies/freertos/FreeRTOSv10.4.1/FreeRTOS/Source/queue.c ****                 return pdPASS;
 2191              		.loc 1 1375 24
 2192 00da 0123     		movs	r3, #1
 2193 00dc 69E0     		b	.L153
 2194              	.L143:
1376:../../../../dependencies/freertos/FreeRTOSv10.4.1/FreeRTOS/Source/queue.c ****             }
1377:../../../../dependencies/freertos/FreeRTOSv10.4.1/FreeRTOS/Source/queue.c ****             else
1378:../../../../dependencies/freertos/FreeRTOSv10.4.1/FreeRTOS/Source/queue.c ****             {
1379:../../../../dependencies/freertos/FreeRTOSv10.4.1/FreeRTOS/Source/queue.c ****                 if( xTicksToWait == ( TickType_t ) 0 )
 2195              		.loc 1 1379 34
 2196 00de 7B68     		ldr	r3, [r7, #4]
 2197              		.loc 1 1379 19
 2198 00e0 002B     		cmp	r3, #0
ARM GAS  /var/folders/kj/yzqgq53j3dg15vgwwwwgf5s00000gn/T//ccGgwidk.s 			page 68


 2199 00e2 03D1     		bne	.L146
1380:../../../../dependencies/freertos/FreeRTOSv10.4.1/FreeRTOS/Source/queue.c ****                 {
1381:../../../../dependencies/freertos/FreeRTOSv10.4.1/FreeRTOS/Source/queue.c ****                     /* The queue was empty and no block time is specified (or
1382:../../../../dependencies/freertos/FreeRTOSv10.4.1/FreeRTOS/Source/queue.c ****                      * the block time has expired) so leave now. */
1383:../../../../dependencies/freertos/FreeRTOSv10.4.1/FreeRTOS/Source/queue.c ****                     taskEXIT_CRITICAL();
 2200              		.loc 1 1383 21
 2201 00e4 FFF7FEFF 		bl	vPortExitCritical
1384:../../../../dependencies/freertos/FreeRTOSv10.4.1/FreeRTOS/Source/queue.c ****                     traceQUEUE_RECEIVE_FAILED( pxQueue );
1385:../../../../dependencies/freertos/FreeRTOSv10.4.1/FreeRTOS/Source/queue.c ****                     return errQUEUE_EMPTY;
 2202              		.loc 1 1385 28
 2203 00e8 0023     		movs	r3, #0
 2204 00ea 62E0     		b	.L153
 2205              	.L146:
1386:../../../../dependencies/freertos/FreeRTOSv10.4.1/FreeRTOS/Source/queue.c ****                 }
1387:../../../../dependencies/freertos/FreeRTOSv10.4.1/FreeRTOS/Source/queue.c ****                 else if( xEntryTimeSet == pdFALSE )
 2206              		.loc 1 1387 24
 2207 00ec FB6A     		ldr	r3, [r7, #44]
 2208 00ee 002B     		cmp	r3, #0
 2209 00f0 06D1     		bne	.L147
1388:../../../../dependencies/freertos/FreeRTOSv10.4.1/FreeRTOS/Source/queue.c ****                 {
1389:../../../../dependencies/freertos/FreeRTOSv10.4.1/FreeRTOS/Source/queue.c ****                     /* The queue was empty and a block time was specified so
1390:../../../../dependencies/freertos/FreeRTOSv10.4.1/FreeRTOS/Source/queue.c ****                      * configure the timeout structure. */
1391:../../../../dependencies/freertos/FreeRTOSv10.4.1/FreeRTOS/Source/queue.c ****                     vTaskInternalSetTimeOutState( &xTimeOut );
 2210              		.loc 1 1391 21
 2211 00f2 07F11003 		add	r3, r7, #16
 2212 00f6 1846     		mov	r0, r3
 2213 00f8 FFF7FEFF 		bl	vTaskInternalSetTimeOutState
1392:../../../../dependencies/freertos/FreeRTOSv10.4.1/FreeRTOS/Source/queue.c ****                     xEntryTimeSet = pdTRUE;
 2214              		.loc 1 1392 35
 2215 00fc 0123     		movs	r3, #1
 2216 00fe FB62     		str	r3, [r7, #44]
 2217              	.L147:
 2218              	.LBE168:
1393:../../../../dependencies/freertos/FreeRTOSv10.4.1/FreeRTOS/Source/queue.c ****                 }
1394:../../../../dependencies/freertos/FreeRTOSv10.4.1/FreeRTOS/Source/queue.c ****                 else
1395:../../../../dependencies/freertos/FreeRTOSv10.4.1/FreeRTOS/Source/queue.c ****                 {
1396:../../../../dependencies/freertos/FreeRTOSv10.4.1/FreeRTOS/Source/queue.c ****                     /* Entry time was already set. */
1397:../../../../dependencies/freertos/FreeRTOSv10.4.1/FreeRTOS/Source/queue.c ****                     mtCOVERAGE_TEST_MARKER();
1398:../../../../dependencies/freertos/FreeRTOSv10.4.1/FreeRTOS/Source/queue.c ****                 }
1399:../../../../dependencies/freertos/FreeRTOSv10.4.1/FreeRTOS/Source/queue.c ****             }
1400:../../../../dependencies/freertos/FreeRTOSv10.4.1/FreeRTOS/Source/queue.c ****         }
1401:../../../../dependencies/freertos/FreeRTOSv10.4.1/FreeRTOS/Source/queue.c ****         taskEXIT_CRITICAL();
 2219              		.loc 1 1401 9
 2220 0100 FFF7FEFF 		bl	vPortExitCritical
1402:../../../../dependencies/freertos/FreeRTOSv10.4.1/FreeRTOS/Source/queue.c **** 
1403:../../../../dependencies/freertos/FreeRTOSv10.4.1/FreeRTOS/Source/queue.c ****         /* Interrupts and other tasks can send to and receive from the queue
1404:../../../../dependencies/freertos/FreeRTOSv10.4.1/FreeRTOS/Source/queue.c ****          * now the critical section has been exited. */
1405:../../../../dependencies/freertos/FreeRTOSv10.4.1/FreeRTOS/Source/queue.c **** 
1406:../../../../dependencies/freertos/FreeRTOSv10.4.1/FreeRTOS/Source/queue.c ****         vTaskSuspendAll();
 2221              		.loc 1 1406 9
 2222 0104 FFF7FEFF 		bl	vTaskSuspendAll
1407:../../../../dependencies/freertos/FreeRTOSv10.4.1/FreeRTOS/Source/queue.c ****         prvLockQueue( pxQueue );
 2223              		.loc 1 1407 9
 2224 0108 FFF7FEFF 		bl	vPortEnterCritical
 2225 010c BB6A     		ldr	r3, [r7, #40]
 2226 010e 93F84430 		ldrb	r3, [r3, #68]
 2227 0112 5BB2     		sxtb	r3, r3
ARM GAS  /var/folders/kj/yzqgq53j3dg15vgwwwwgf5s00000gn/T//ccGgwidk.s 			page 69


 2228 0114 B3F1FF3F 		cmp	r3, #-1
 2229 0118 03D1     		bne	.L148
 2230              		.loc 1 1407 9 is_stmt 0 discriminator 1
 2231 011a BB6A     		ldr	r3, [r7, #40]
 2232 011c 0022     		movs	r2, #0
 2233 011e 83F84420 		strb	r2, [r3, #68]
 2234              	.L148:
 2235              		.loc 1 1407 9 discriminator 3
 2236 0122 BB6A     		ldr	r3, [r7, #40]
 2237 0124 93F84530 		ldrb	r3, [r3, #69]
 2238 0128 5BB2     		sxtb	r3, r3
 2239 012a B3F1FF3F 		cmp	r3, #-1
 2240 012e 03D1     		bne	.L149
 2241              		.loc 1 1407 9 discriminator 4
 2242 0130 BB6A     		ldr	r3, [r7, #40]
 2243 0132 0022     		movs	r2, #0
 2244 0134 83F84520 		strb	r2, [r3, #69]
 2245              	.L149:
 2246              		.loc 1 1407 9 discriminator 6
 2247 0138 FFF7FEFF 		bl	vPortExitCritical
1408:../../../../dependencies/freertos/FreeRTOSv10.4.1/FreeRTOS/Source/queue.c **** 
1409:../../../../dependencies/freertos/FreeRTOSv10.4.1/FreeRTOS/Source/queue.c ****         /* Update the timeout state to see if it has expired yet. */
1410:../../../../dependencies/freertos/FreeRTOSv10.4.1/FreeRTOS/Source/queue.c ****         if( xTaskCheckForTimeOut( &xTimeOut, &xTicksToWait ) == pdFALSE )
 2248              		.loc 1 1410 13 is_stmt 1 discriminator 6
 2249 013c 3A1D     		adds	r2, r7, #4
 2250 013e 07F11003 		add	r3, r7, #16
 2251 0142 1146     		mov	r1, r2
 2252 0144 1846     		mov	r0, r3
 2253 0146 FFF7FEFF 		bl	xTaskCheckForTimeOut
 2254 014a 0346     		mov	r3, r0
 2255              		.loc 1 1410 11 discriminator 6
 2256 014c 002B     		cmp	r3, #0
 2257 014e 23D1     		bne	.L150
1411:../../../../dependencies/freertos/FreeRTOSv10.4.1/FreeRTOS/Source/queue.c ****         {
1412:../../../../dependencies/freertos/FreeRTOSv10.4.1/FreeRTOS/Source/queue.c ****             /* The timeout has not expired.  If the queue is still empty place
1413:../../../../dependencies/freertos/FreeRTOSv10.4.1/FreeRTOS/Source/queue.c ****              * the task on the list of tasks waiting to receive from the queue. */
1414:../../../../dependencies/freertos/FreeRTOSv10.4.1/FreeRTOS/Source/queue.c ****             if( prvIsQueueEmpty( pxQueue ) != pdFALSE )
 2258              		.loc 1 1414 17
 2259 0150 B86A     		ldr	r0, [r7, #40]
 2260 0152 FFF7FEFF 		bl	prvIsQueueEmpty
 2261 0156 0346     		mov	r3, r0
 2262              		.loc 1 1414 15
 2263 0158 002B     		cmp	r3, #0
 2264 015a 17D0     		beq	.L151
1415:../../../../dependencies/freertos/FreeRTOSv10.4.1/FreeRTOS/Source/queue.c ****             {
1416:../../../../dependencies/freertos/FreeRTOSv10.4.1/FreeRTOS/Source/queue.c ****                 traceBLOCKING_ON_QUEUE_RECEIVE( pxQueue );
1417:../../../../dependencies/freertos/FreeRTOSv10.4.1/FreeRTOS/Source/queue.c ****                 vTaskPlaceOnEventList( &( pxQueue->xTasksWaitingToReceive ), xTicksToWait );
 2265              		.loc 1 1417 17
 2266 015c BB6A     		ldr	r3, [r7, #40]
 2267 015e 2433     		adds	r3, r3, #36
 2268 0160 7A68     		ldr	r2, [r7, #4]
 2269 0162 1146     		mov	r1, r2
 2270 0164 1846     		mov	r0, r3
 2271 0166 FFF7FEFF 		bl	vTaskPlaceOnEventList
1418:../../../../dependencies/freertos/FreeRTOSv10.4.1/FreeRTOS/Source/queue.c ****                 prvUnlockQueue( pxQueue );
 2272              		.loc 1 1418 17
 2273 016a B86A     		ldr	r0, [r7, #40]
ARM GAS  /var/folders/kj/yzqgq53j3dg15vgwwwwgf5s00000gn/T//ccGgwidk.s 			page 70


 2274 016c FFF7FEFF 		bl	prvUnlockQueue
1419:../../../../dependencies/freertos/FreeRTOSv10.4.1/FreeRTOS/Source/queue.c **** 
1420:../../../../dependencies/freertos/FreeRTOSv10.4.1/FreeRTOS/Source/queue.c ****                 if( xTaskResumeAll() == pdFALSE )
 2275              		.loc 1 1420 21
 2276 0170 FFF7FEFF 		bl	xTaskResumeAll
 2277 0174 0346     		mov	r3, r0
 2278              		.loc 1 1420 19
 2279 0176 002B     		cmp	r3, #0
 2280 0178 89D1     		bne	.L141
1421:../../../../dependencies/freertos/FreeRTOSv10.4.1/FreeRTOS/Source/queue.c ****                 {
1422:../../../../dependencies/freertos/FreeRTOSv10.4.1/FreeRTOS/Source/queue.c ****                     portYIELD_WITHIN_API();
 2281              		.loc 1 1422 21
 2282 017a 104B     		ldr	r3, .L154
 2283 017c 4FF08052 		mov	r2, #268435456
 2284 0180 1A60     		str	r2, [r3]
 2285              		.syntax unified
 2286              	@ 1422 "../../../../dependencies/freertos/FreeRTOSv10.4.1/FreeRTOS/Source/queue.c" 1
 2287 0182 BFF34F8F 		dsb
 2288              	@ 0 "" 2
 2289              	@ 1422 "../../../../dependencies/freertos/FreeRTOSv10.4.1/FreeRTOS/Source/queue.c" 1
 2290 0186 BFF36F8F 		isb
 2291              	@ 0 "" 2
 2292              		.thumb
 2293              		.syntax unified
 2294 018a 80E7     		b	.L141
 2295              	.L151:
1423:../../../../dependencies/freertos/FreeRTOSv10.4.1/FreeRTOS/Source/queue.c ****                 }
1424:../../../../dependencies/freertos/FreeRTOSv10.4.1/FreeRTOS/Source/queue.c ****                 else
1425:../../../../dependencies/freertos/FreeRTOSv10.4.1/FreeRTOS/Source/queue.c ****                 {
1426:../../../../dependencies/freertos/FreeRTOSv10.4.1/FreeRTOS/Source/queue.c ****                     mtCOVERAGE_TEST_MARKER();
1427:../../../../dependencies/freertos/FreeRTOSv10.4.1/FreeRTOS/Source/queue.c ****                 }
1428:../../../../dependencies/freertos/FreeRTOSv10.4.1/FreeRTOS/Source/queue.c ****             }
1429:../../../../dependencies/freertos/FreeRTOSv10.4.1/FreeRTOS/Source/queue.c ****             else
1430:../../../../dependencies/freertos/FreeRTOSv10.4.1/FreeRTOS/Source/queue.c ****             {
1431:../../../../dependencies/freertos/FreeRTOSv10.4.1/FreeRTOS/Source/queue.c ****                 /* The queue contains data again.  Loop back to try and read the
1432:../../../../dependencies/freertos/FreeRTOSv10.4.1/FreeRTOS/Source/queue.c ****                  * data. */
1433:../../../../dependencies/freertos/FreeRTOSv10.4.1/FreeRTOS/Source/queue.c ****                 prvUnlockQueue( pxQueue );
 2296              		.loc 1 1433 17
 2297 018c B86A     		ldr	r0, [r7, #40]
 2298 018e FFF7FEFF 		bl	prvUnlockQueue
1434:../../../../dependencies/freertos/FreeRTOSv10.4.1/FreeRTOS/Source/queue.c ****                 ( void ) xTaskResumeAll();
 2299              		.loc 1 1434 26
 2300 0192 FFF7FEFF 		bl	xTaskResumeAll
 2301 0196 7AE7     		b	.L141
 2302              	.L150:
1435:../../../../dependencies/freertos/FreeRTOSv10.4.1/FreeRTOS/Source/queue.c ****             }
1436:../../../../dependencies/freertos/FreeRTOSv10.4.1/FreeRTOS/Source/queue.c ****         }
1437:../../../../dependencies/freertos/FreeRTOSv10.4.1/FreeRTOS/Source/queue.c ****         else
1438:../../../../dependencies/freertos/FreeRTOSv10.4.1/FreeRTOS/Source/queue.c ****         {
1439:../../../../dependencies/freertos/FreeRTOSv10.4.1/FreeRTOS/Source/queue.c ****             /* Timed out.  If there is no data in the queue exit, otherwise loop
1440:../../../../dependencies/freertos/FreeRTOSv10.4.1/FreeRTOS/Source/queue.c ****              * back and attempt to read the data. */
1441:../../../../dependencies/freertos/FreeRTOSv10.4.1/FreeRTOS/Source/queue.c ****             prvUnlockQueue( pxQueue );
 2303              		.loc 1 1441 13
 2304 0198 B86A     		ldr	r0, [r7, #40]
 2305 019a FFF7FEFF 		bl	prvUnlockQueue
1442:../../../../dependencies/freertos/FreeRTOSv10.4.1/FreeRTOS/Source/queue.c ****             ( void ) xTaskResumeAll();
 2306              		.loc 1 1442 22
ARM GAS  /var/folders/kj/yzqgq53j3dg15vgwwwwgf5s00000gn/T//ccGgwidk.s 			page 71


 2307 019e FFF7FEFF 		bl	xTaskResumeAll
1443:../../../../dependencies/freertos/FreeRTOSv10.4.1/FreeRTOS/Source/queue.c **** 
1444:../../../../dependencies/freertos/FreeRTOSv10.4.1/FreeRTOS/Source/queue.c ****             if( prvIsQueueEmpty( pxQueue ) != pdFALSE )
 2308              		.loc 1 1444 17
 2309 01a2 B86A     		ldr	r0, [r7, #40]
 2310 01a4 FFF7FEFF 		bl	prvIsQueueEmpty
 2311 01a8 0346     		mov	r3, r0
 2312              		.loc 1 1444 15
 2313 01aa 002B     		cmp	r3, #0
 2314 01ac 3FF46FAF 		beq	.L141
1445:../../../../dependencies/freertos/FreeRTOSv10.4.1/FreeRTOS/Source/queue.c ****             {
1446:../../../../dependencies/freertos/FreeRTOSv10.4.1/FreeRTOS/Source/queue.c ****                 traceQUEUE_RECEIVE_FAILED( pxQueue );
1447:../../../../dependencies/freertos/FreeRTOSv10.4.1/FreeRTOS/Source/queue.c ****                 return errQUEUE_EMPTY;
 2315              		.loc 1 1447 24
 2316 01b0 0023     		movs	r3, #0
 2317              	.L153:
1448:../../../../dependencies/freertos/FreeRTOSv10.4.1/FreeRTOS/Source/queue.c ****             }
1449:../../../../dependencies/freertos/FreeRTOSv10.4.1/FreeRTOS/Source/queue.c ****             else
1450:../../../../dependencies/freertos/FreeRTOSv10.4.1/FreeRTOS/Source/queue.c ****             {
1451:../../../../dependencies/freertos/FreeRTOSv10.4.1/FreeRTOS/Source/queue.c ****                 mtCOVERAGE_TEST_MARKER();
1452:../../../../dependencies/freertos/FreeRTOSv10.4.1/FreeRTOS/Source/queue.c ****             }
1453:../../../../dependencies/freertos/FreeRTOSv10.4.1/FreeRTOS/Source/queue.c ****         }
1454:../../../../dependencies/freertos/FreeRTOSv10.4.1/FreeRTOS/Source/queue.c ****     } /*lint -restore */
1455:../../../../dependencies/freertos/FreeRTOSv10.4.1/FreeRTOS/Source/queue.c **** }
 2318              		.loc 1 1455 1 discriminator 6
 2319 01b2 1846     		mov	r0, r3
 2320 01b4 3037     		adds	r7, r7, #48
 2321              	.LCFI69:
 2322              		.cfi_def_cfa_offset 8
 2323 01b6 BD46     		mov	sp, r7
 2324              	.LCFI70:
 2325              		.cfi_def_cfa_register 13
 2326              		@ sp needed
 2327 01b8 80BD     		pop	{r7, pc}
 2328              	.L155:
 2329 01ba 00BF     		.align	2
 2330              	.L154:
 2331 01bc 04ED00E0 		.word	-536810236
 2332              		.cfi_endproc
 2333              	.LFE18:
 2335              		.section	.text.xQueueSemaphoreTake,"ax",%progbits
 2336              		.align	1
 2337              		.global	xQueueSemaphoreTake
 2338              		.syntax unified
 2339              		.thumb
 2340              		.thumb_func
 2341              		.fpu fpv4-sp-d16
 2343              	xQueueSemaphoreTake:
 2344              	.LFB19:
1456:../../../../dependencies/freertos/FreeRTOSv10.4.1/FreeRTOS/Source/queue.c **** /*-----------------------------------------------------------*/
1457:../../../../dependencies/freertos/FreeRTOSv10.4.1/FreeRTOS/Source/queue.c **** 
1458:../../../../dependencies/freertos/FreeRTOSv10.4.1/FreeRTOS/Source/queue.c **** BaseType_t xQueueSemaphoreTake( QueueHandle_t xQueue,
1459:../../../../dependencies/freertos/FreeRTOSv10.4.1/FreeRTOS/Source/queue.c ****                                 TickType_t xTicksToWait )
1460:../../../../dependencies/freertos/FreeRTOSv10.4.1/FreeRTOS/Source/queue.c **** {
 2345              		.loc 1 1460 1
 2346              		.cfi_startproc
 2347              		@ args = 0, pretend = 0, frame = 56
ARM GAS  /var/folders/kj/yzqgq53j3dg15vgwwwwgf5s00000gn/T//ccGgwidk.s 			page 72


 2348              		@ frame_needed = 1, uses_anonymous_args = 0
 2349 0000 80B5     		push	{r7, lr}
 2350              	.LCFI71:
 2351              		.cfi_def_cfa_offset 8
 2352              		.cfi_offset 7, -8
 2353              		.cfi_offset 14, -4
 2354 0002 8EB0     		sub	sp, sp, #56
 2355              	.LCFI72:
 2356              		.cfi_def_cfa_offset 64
 2357 0004 00AF     		add	r7, sp, #0
 2358              	.LCFI73:
 2359              		.cfi_def_cfa_register 7
 2360 0006 7860     		str	r0, [r7, #4]
 2361 0008 3960     		str	r1, [r7]
1461:../../../../dependencies/freertos/FreeRTOSv10.4.1/FreeRTOS/Source/queue.c ****     BaseType_t xEntryTimeSet = pdFALSE;
 2362              		.loc 1 1461 16
 2363 000a 0023     		movs	r3, #0
 2364 000c 7B63     		str	r3, [r7, #52]
1462:../../../../dependencies/freertos/FreeRTOSv10.4.1/FreeRTOS/Source/queue.c ****     TimeOut_t xTimeOut;
1463:../../../../dependencies/freertos/FreeRTOSv10.4.1/FreeRTOS/Source/queue.c ****     Queue_t * const pxQueue = xQueue;
 2365              		.loc 1 1463 21
 2366 000e 7B68     		ldr	r3, [r7, #4]
 2367 0010 FB62     		str	r3, [r7, #44]
1464:../../../../dependencies/freertos/FreeRTOSv10.4.1/FreeRTOS/Source/queue.c **** 
1465:../../../../dependencies/freertos/FreeRTOSv10.4.1/FreeRTOS/Source/queue.c ****     #if ( configUSE_MUTEXES == 1 )
1466:../../../../dependencies/freertos/FreeRTOSv10.4.1/FreeRTOS/Source/queue.c ****         BaseType_t xInheritanceOccurred = pdFALSE;
 2368              		.loc 1 1466 20
 2369 0012 0023     		movs	r3, #0
 2370 0014 3B63     		str	r3, [r7, #48]
1467:../../../../dependencies/freertos/FreeRTOSv10.4.1/FreeRTOS/Source/queue.c ****     #endif
1468:../../../../dependencies/freertos/FreeRTOSv10.4.1/FreeRTOS/Source/queue.c **** 
1469:../../../../dependencies/freertos/FreeRTOSv10.4.1/FreeRTOS/Source/queue.c ****     /* Check the queue pointer is not NULL. */
1470:../../../../dependencies/freertos/FreeRTOSv10.4.1/FreeRTOS/Source/queue.c ****     configASSERT( ( pxQueue ) );
 2371              		.loc 1 1470 5
 2372 0016 FB6A     		ldr	r3, [r7, #44]
 2373 0018 002B     		cmp	r3, #0
 2374 001a 0AD1     		bne	.L157
 2375              	.LBB169:
 2376              	.LBB170:
 197:../../../../dependencies/freertos/FreeRTOSv10.4.1/FreeRTOS/Source/portable/GCC/ARM_CM4F/portmacro.h ****         (
 2377              		.loc 2 197 9
 2378              		.syntax unified
 2379              	@ 197 "../../../../dependencies/freertos/FreeRTOSv10.4.1/FreeRTOS/Source/portable/GCC/ARM_CM4F/port
 2380 001c 4FF05003 			mov r3, #80												
 2381 0020 83F31188 		msr basepri, r3											
 2382 0024 BFF36F8F 		isb														
 2383 0028 BFF34F8F 		dsb														
 2384              	
 2385              	@ 0 "" 2
 2386              		.thumb
 2387              		.syntax unified
 2388 002c 3B62     		str	r3, [r7, #32]
 205:../../../../dependencies/freertos/FreeRTOSv10.4.1/FreeRTOS/Source/portable/GCC/ARM_CM4F/portmacro.h **** 
 2389              		.loc 2 205 5
 2390 002e 00BF     		nop
 2391              	.L158:
 2392              	.LBE170:
ARM GAS  /var/folders/kj/yzqgq53j3dg15vgwwwwgf5s00000gn/T//ccGgwidk.s 			page 73


 2393              	.LBE169:
 2394              		.loc 1 1470 5 discriminator 1
 2395 0030 FEE7     		b	.L158
 2396              	.L157:
1471:../../../../dependencies/freertos/FreeRTOSv10.4.1/FreeRTOS/Source/queue.c **** 
1472:../../../../dependencies/freertos/FreeRTOSv10.4.1/FreeRTOS/Source/queue.c ****     /* Check this really is a semaphore, in which case the item size will be
1473:../../../../dependencies/freertos/FreeRTOSv10.4.1/FreeRTOS/Source/queue.c ****      * 0. */
1474:../../../../dependencies/freertos/FreeRTOSv10.4.1/FreeRTOS/Source/queue.c ****     configASSERT( pxQueue->uxItemSize == 0 );
 2397              		.loc 1 1474 5
 2398 0032 FB6A     		ldr	r3, [r7, #44]
 2399 0034 1B6C     		ldr	r3, [r3, #64]
 2400 0036 002B     		cmp	r3, #0
 2401 0038 0AD0     		beq	.L159
 2402              	.LBB171:
 2403              	.LBB172:
 197:../../../../dependencies/freertos/FreeRTOSv10.4.1/FreeRTOS/Source/portable/GCC/ARM_CM4F/portmacro.h ****         (
 2404              		.loc 2 197 9
 2405              		.syntax unified
 2406              	@ 197 "../../../../dependencies/freertos/FreeRTOSv10.4.1/FreeRTOS/Source/portable/GCC/ARM_CM4F/port
 2407 003a 4FF05003 			mov r3, #80												
 2408 003e 83F31188 		msr basepri, r3											
 2409 0042 BFF36F8F 		isb														
 2410 0046 BFF34F8F 		dsb														
 2411              	
 2412              	@ 0 "" 2
 2413              		.thumb
 2414              		.syntax unified
 2415 004a FB61     		str	r3, [r7, #28]
 205:../../../../dependencies/freertos/FreeRTOSv10.4.1/FreeRTOS/Source/portable/GCC/ARM_CM4F/portmacro.h **** 
 2416              		.loc 2 205 5
 2417 004c 00BF     		nop
 2418              	.L160:
 2419              	.LBE172:
 2420              	.LBE171:
 2421              		.loc 1 1474 5 discriminator 2
 2422 004e FEE7     		b	.L160
 2423              	.L159:
1475:../../../../dependencies/freertos/FreeRTOSv10.4.1/FreeRTOS/Source/queue.c **** 
1476:../../../../dependencies/freertos/FreeRTOSv10.4.1/FreeRTOS/Source/queue.c ****     /* Cannot block if the scheduler is suspended. */
1477:../../../../dependencies/freertos/FreeRTOSv10.4.1/FreeRTOS/Source/queue.c ****     #if ( ( INCLUDE_xTaskGetSchedulerState == 1 ) || ( configUSE_TIMERS == 1 ) )
1478:../../../../dependencies/freertos/FreeRTOSv10.4.1/FreeRTOS/Source/queue.c ****         {
1479:../../../../dependencies/freertos/FreeRTOSv10.4.1/FreeRTOS/Source/queue.c ****             configASSERT( !( ( xTaskGetSchedulerState() == taskSCHEDULER_SUSPENDED ) && ( xTicksToW
 2424              		.loc 1 1479 13
 2425 0050 FFF7FEFF 		bl	xTaskGetSchedulerState
 2426 0054 0346     		mov	r3, r0
 2427 0056 002B     		cmp	r3, #0
 2428 0058 02D1     		bne	.L161
 2429              		.loc 1 1479 13 is_stmt 0 discriminator 2
 2430 005a 3B68     		ldr	r3, [r7]
 2431 005c 002B     		cmp	r3, #0
 2432 005e 01D1     		bne	.L162
 2433              	.L161:
 2434              		.loc 1 1479 13 discriminator 3
 2435 0060 0123     		movs	r3, #1
 2436 0062 00E0     		b	.L163
 2437              	.L162:
 2438              		.loc 1 1479 13 discriminator 4
ARM GAS  /var/folders/kj/yzqgq53j3dg15vgwwwwgf5s00000gn/T//ccGgwidk.s 			page 74


 2439 0064 0023     		movs	r3, #0
 2440              	.L163:
 2441              		.loc 1 1479 13 discriminator 6
 2442 0066 002B     		cmp	r3, #0
 2443 0068 0AD1     		bne	.L164
 2444              	.LBB173:
 2445              	.LBB174:
 197:../../../../dependencies/freertos/FreeRTOSv10.4.1/FreeRTOS/Source/portable/GCC/ARM_CM4F/portmacro.h ****         (
 2446              		.loc 2 197 9 is_stmt 1
 2447              		.syntax unified
 2448              	@ 197 "../../../../dependencies/freertos/FreeRTOSv10.4.1/FreeRTOS/Source/portable/GCC/ARM_CM4F/port
 2449 006a 4FF05003 			mov r3, #80												
 2450 006e 83F31188 		msr basepri, r3											
 2451 0072 BFF36F8F 		isb														
 2452 0076 BFF34F8F 		dsb														
 2453              	
 2454              	@ 0 "" 2
 2455              		.thumb
 2456              		.syntax unified
 2457 007a BB61     		str	r3, [r7, #24]
 205:../../../../dependencies/freertos/FreeRTOSv10.4.1/FreeRTOS/Source/portable/GCC/ARM_CM4F/portmacro.h **** 
 2458              		.loc 2 205 5
 2459 007c 00BF     		nop
 2460              	.L165:
 2461              	.LBE174:
 2462              	.LBE173:
 2463              		.loc 1 1479 13 discriminator 3
 2464 007e FEE7     		b	.L165
 2465              	.L164:
1480:../../../../dependencies/freertos/FreeRTOSv10.4.1/FreeRTOS/Source/queue.c ****         }
1481:../../../../dependencies/freertos/FreeRTOSv10.4.1/FreeRTOS/Source/queue.c ****     #endif
1482:../../../../dependencies/freertos/FreeRTOSv10.4.1/FreeRTOS/Source/queue.c **** 
1483:../../../../dependencies/freertos/FreeRTOSv10.4.1/FreeRTOS/Source/queue.c ****     /*lint -save -e904 This function relaxes the coding standard somewhat to allow return
1484:../../../../dependencies/freertos/FreeRTOSv10.4.1/FreeRTOS/Source/queue.c ****      * statements within the function itself.  This is done in the interest
1485:../../../../dependencies/freertos/FreeRTOSv10.4.1/FreeRTOS/Source/queue.c ****      * of execution time efficiency. */
1486:../../../../dependencies/freertos/FreeRTOSv10.4.1/FreeRTOS/Source/queue.c ****     for( ; ; )
1487:../../../../dependencies/freertos/FreeRTOSv10.4.1/FreeRTOS/Source/queue.c ****     {
1488:../../../../dependencies/freertos/FreeRTOSv10.4.1/FreeRTOS/Source/queue.c ****         taskENTER_CRITICAL();
 2466              		.loc 1 1488 9
 2467 0080 FFF7FEFF 		bl	vPortEnterCritical
 2468              	.LBB175:
1489:../../../../dependencies/freertos/FreeRTOSv10.4.1/FreeRTOS/Source/queue.c ****         {
1490:../../../../dependencies/freertos/FreeRTOSv10.4.1/FreeRTOS/Source/queue.c ****             /* Semaphores are queues with an item size of 0, and where the
1491:../../../../dependencies/freertos/FreeRTOSv10.4.1/FreeRTOS/Source/queue.c ****              * number of messages in the queue is the semaphore's count value. */
1492:../../../../dependencies/freertos/FreeRTOSv10.4.1/FreeRTOS/Source/queue.c ****             const UBaseType_t uxSemaphoreCount = pxQueue->uxMessagesWaiting;
 2469              		.loc 1 1492 31
 2470 0084 FB6A     		ldr	r3, [r7, #44]
 2471 0086 9B6B     		ldr	r3, [r3, #56]
 2472 0088 BB62     		str	r3, [r7, #40]
1493:../../../../dependencies/freertos/FreeRTOSv10.4.1/FreeRTOS/Source/queue.c **** 
1494:../../../../dependencies/freertos/FreeRTOSv10.4.1/FreeRTOS/Source/queue.c ****             /* Is there data in the queue now?  To be running the calling task
1495:../../../../dependencies/freertos/FreeRTOSv10.4.1/FreeRTOS/Source/queue.c ****              * must be the highest priority task wanting to access the queue. */
1496:../../../../dependencies/freertos/FreeRTOSv10.4.1/FreeRTOS/Source/queue.c ****             if( uxSemaphoreCount > ( UBaseType_t ) 0 )
 2473              		.loc 1 1496 15
 2474 008a BB6A     		ldr	r3, [r7, #40]
 2475 008c 002B     		cmp	r3, #0
 2476 008e 24D0     		beq	.L166
ARM GAS  /var/folders/kj/yzqgq53j3dg15vgwwwwgf5s00000gn/T//ccGgwidk.s 			page 75


1497:../../../../dependencies/freertos/FreeRTOSv10.4.1/FreeRTOS/Source/queue.c ****             {
1498:../../../../dependencies/freertos/FreeRTOSv10.4.1/FreeRTOS/Source/queue.c ****                 traceQUEUE_RECEIVE( pxQueue );
1499:../../../../dependencies/freertos/FreeRTOSv10.4.1/FreeRTOS/Source/queue.c **** 
1500:../../../../dependencies/freertos/FreeRTOSv10.4.1/FreeRTOS/Source/queue.c ****                 /* Semaphores are queues with a data size of zero and where the
1501:../../../../dependencies/freertos/FreeRTOSv10.4.1/FreeRTOS/Source/queue.c ****                  * messages waiting is the semaphore's count.  Reduce the count. */
1502:../../../../dependencies/freertos/FreeRTOSv10.4.1/FreeRTOS/Source/queue.c ****                 pxQueue->uxMessagesWaiting = uxSemaphoreCount - ( UBaseType_t ) 1;
 2477              		.loc 1 1502 63
 2478 0090 BB6A     		ldr	r3, [r7, #40]
 2479 0092 5A1E     		subs	r2, r3, #1
 2480              		.loc 1 1502 44
 2481 0094 FB6A     		ldr	r3, [r7, #44]
 2482 0096 9A63     		str	r2, [r3, #56]
1503:../../../../dependencies/freertos/FreeRTOSv10.4.1/FreeRTOS/Source/queue.c **** 
1504:../../../../dependencies/freertos/FreeRTOSv10.4.1/FreeRTOS/Source/queue.c ****                 #if ( configUSE_MUTEXES == 1 )
1505:../../../../dependencies/freertos/FreeRTOSv10.4.1/FreeRTOS/Source/queue.c ****                     {
1506:../../../../dependencies/freertos/FreeRTOSv10.4.1/FreeRTOS/Source/queue.c ****                         if( pxQueue->uxQueueType == queueQUEUE_IS_MUTEX )
 2483              		.loc 1 1506 36
 2484 0098 FB6A     		ldr	r3, [r7, #44]
 2485 009a 1B68     		ldr	r3, [r3]
 2486              		.loc 1 1506 27
 2487 009c 002B     		cmp	r3, #0
 2488 009e 04D1     		bne	.L167
1507:../../../../dependencies/freertos/FreeRTOSv10.4.1/FreeRTOS/Source/queue.c ****                         {
1508:../../../../dependencies/freertos/FreeRTOSv10.4.1/FreeRTOS/Source/queue.c ****                             /* Record the information required to implement
1509:../../../../dependencies/freertos/FreeRTOSv10.4.1/FreeRTOS/Source/queue.c ****                              * priority inheritance should it become necessary. */
1510:../../../../dependencies/freertos/FreeRTOSv10.4.1/FreeRTOS/Source/queue.c ****                             pxQueue->u.xSemaphore.xMutexHolder = pvTaskIncrementMutexHeldCount();
 2489              		.loc 1 1510 66
 2490 00a0 FFF7FEFF 		bl	pvTaskIncrementMutexHeldCount
 2491 00a4 0246     		mov	r2, r0
 2492              		.loc 1 1510 64
 2493 00a6 FB6A     		ldr	r3, [r7, #44]
 2494 00a8 9A60     		str	r2, [r3, #8]
 2495              	.L167:
1511:../../../../dependencies/freertos/FreeRTOSv10.4.1/FreeRTOS/Source/queue.c ****                         }
1512:../../../../dependencies/freertos/FreeRTOSv10.4.1/FreeRTOS/Source/queue.c ****                         else
1513:../../../../dependencies/freertos/FreeRTOSv10.4.1/FreeRTOS/Source/queue.c ****                         {
1514:../../../../dependencies/freertos/FreeRTOSv10.4.1/FreeRTOS/Source/queue.c ****                             mtCOVERAGE_TEST_MARKER();
1515:../../../../dependencies/freertos/FreeRTOSv10.4.1/FreeRTOS/Source/queue.c ****                         }
1516:../../../../dependencies/freertos/FreeRTOSv10.4.1/FreeRTOS/Source/queue.c ****                     }
1517:../../../../dependencies/freertos/FreeRTOSv10.4.1/FreeRTOS/Source/queue.c ****                 #endif /* configUSE_MUTEXES */
1518:../../../../dependencies/freertos/FreeRTOSv10.4.1/FreeRTOS/Source/queue.c **** 
1519:../../../../dependencies/freertos/FreeRTOSv10.4.1/FreeRTOS/Source/queue.c ****                 /* Check to see if other tasks are blocked waiting to give the
1520:../../../../dependencies/freertos/FreeRTOSv10.4.1/FreeRTOS/Source/queue.c ****                  * semaphore, and if so, unblock the highest priority such task. */
1521:../../../../dependencies/freertos/FreeRTOSv10.4.1/FreeRTOS/Source/queue.c ****                 if( listLIST_IS_EMPTY( &( pxQueue->xTasksWaitingToSend ) ) == pdFALSE )
 2496              		.loc 1 1521 21
 2497 00aa FB6A     		ldr	r3, [r7, #44]
 2498 00ac 1B69     		ldr	r3, [r3, #16]
 2499              		.loc 1 1521 19
 2500 00ae 002B     		cmp	r3, #0
 2501 00b0 0FD0     		beq	.L168
1522:../../../../dependencies/freertos/FreeRTOSv10.4.1/FreeRTOS/Source/queue.c ****                 {
1523:../../../../dependencies/freertos/FreeRTOSv10.4.1/FreeRTOS/Source/queue.c ****                     if( xTaskRemoveFromEventList( &( pxQueue->xTasksWaitingToSend ) ) != pdFALSE )
 2502              		.loc 1 1523 51
 2503 00b2 FB6A     		ldr	r3, [r7, #44]
 2504 00b4 1033     		adds	r3, r3, #16
 2505              		.loc 1 1523 25
 2506 00b6 1846     		mov	r0, r3
ARM GAS  /var/folders/kj/yzqgq53j3dg15vgwwwwgf5s00000gn/T//ccGgwidk.s 			page 76


 2507 00b8 FFF7FEFF 		bl	xTaskRemoveFromEventList
 2508 00bc 0346     		mov	r3, r0
 2509              		.loc 1 1523 23
 2510 00be 002B     		cmp	r3, #0
 2511 00c0 07D0     		beq	.L168
1524:../../../../dependencies/freertos/FreeRTOSv10.4.1/FreeRTOS/Source/queue.c ****                     {
1525:../../../../dependencies/freertos/FreeRTOSv10.4.1/FreeRTOS/Source/queue.c ****                         queueYIELD_IF_USING_PREEMPTION();
 2512              		.loc 1 1525 25
 2513 00c2 544B     		ldr	r3, .L182
 2514 00c4 4FF08052 		mov	r2, #268435456
 2515 00c8 1A60     		str	r2, [r3]
 2516              		.syntax unified
 2517              	@ 1525 "../../../../dependencies/freertos/FreeRTOSv10.4.1/FreeRTOS/Source/queue.c" 1
 2518 00ca BFF34F8F 		dsb
 2519              	@ 0 "" 2
 2520              	@ 1525 "../../../../dependencies/freertos/FreeRTOSv10.4.1/FreeRTOS/Source/queue.c" 1
 2521 00ce BFF36F8F 		isb
 2522              	@ 0 "" 2
 2523              		.thumb
 2524              		.syntax unified
 2525              	.L168:
1526:../../../../dependencies/freertos/FreeRTOSv10.4.1/FreeRTOS/Source/queue.c ****                     }
1527:../../../../dependencies/freertos/FreeRTOSv10.4.1/FreeRTOS/Source/queue.c ****                     else
1528:../../../../dependencies/freertos/FreeRTOSv10.4.1/FreeRTOS/Source/queue.c ****                     {
1529:../../../../dependencies/freertos/FreeRTOSv10.4.1/FreeRTOS/Source/queue.c ****                         mtCOVERAGE_TEST_MARKER();
1530:../../../../dependencies/freertos/FreeRTOSv10.4.1/FreeRTOS/Source/queue.c ****                     }
1531:../../../../dependencies/freertos/FreeRTOSv10.4.1/FreeRTOS/Source/queue.c ****                 }
1532:../../../../dependencies/freertos/FreeRTOSv10.4.1/FreeRTOS/Source/queue.c ****                 else
1533:../../../../dependencies/freertos/FreeRTOSv10.4.1/FreeRTOS/Source/queue.c ****                 {
1534:../../../../dependencies/freertos/FreeRTOSv10.4.1/FreeRTOS/Source/queue.c ****                     mtCOVERAGE_TEST_MARKER();
1535:../../../../dependencies/freertos/FreeRTOSv10.4.1/FreeRTOS/Source/queue.c ****                 }
1536:../../../../dependencies/freertos/FreeRTOSv10.4.1/FreeRTOS/Source/queue.c **** 
1537:../../../../dependencies/freertos/FreeRTOSv10.4.1/FreeRTOS/Source/queue.c ****                 taskEXIT_CRITICAL();
 2526              		.loc 1 1537 17
 2527 00d2 FFF7FEFF 		bl	vPortExitCritical
1538:../../../../dependencies/freertos/FreeRTOSv10.4.1/FreeRTOS/Source/queue.c ****                 return pdPASS;
 2528              		.loc 1 1538 24
 2529 00d6 0123     		movs	r3, #1
 2530 00d8 97E0     		b	.L181
 2531              	.L166:
1539:../../../../dependencies/freertos/FreeRTOSv10.4.1/FreeRTOS/Source/queue.c ****             }
1540:../../../../dependencies/freertos/FreeRTOSv10.4.1/FreeRTOS/Source/queue.c ****             else
1541:../../../../dependencies/freertos/FreeRTOSv10.4.1/FreeRTOS/Source/queue.c ****             {
1542:../../../../dependencies/freertos/FreeRTOSv10.4.1/FreeRTOS/Source/queue.c ****                 if( xTicksToWait == ( TickType_t ) 0 )
 2532              		.loc 1 1542 34
 2533 00da 3B68     		ldr	r3, [r7]
 2534              		.loc 1 1542 19
 2535 00dc 002B     		cmp	r3, #0
 2536 00de 11D1     		bne	.L170
1543:../../../../dependencies/freertos/FreeRTOSv10.4.1/FreeRTOS/Source/queue.c ****                 {
1544:../../../../dependencies/freertos/FreeRTOSv10.4.1/FreeRTOS/Source/queue.c ****                     /* For inheritance to have occurred there must have been an
1545:../../../../dependencies/freertos/FreeRTOSv10.4.1/FreeRTOS/Source/queue.c ****                      * initial timeout, and an adjusted timeout cannot become 0, as
1546:../../../../dependencies/freertos/FreeRTOSv10.4.1/FreeRTOS/Source/queue.c ****                      * if it were 0 the function would have exited. */
1547:../../../../dependencies/freertos/FreeRTOSv10.4.1/FreeRTOS/Source/queue.c ****                     #if ( configUSE_MUTEXES == 1 )
1548:../../../../dependencies/freertos/FreeRTOSv10.4.1/FreeRTOS/Source/queue.c ****                         {
1549:../../../../dependencies/freertos/FreeRTOSv10.4.1/FreeRTOS/Source/queue.c ****                             configASSERT( xInheritanceOccurred == pdFALSE );
 2537              		.loc 1 1549 29
ARM GAS  /var/folders/kj/yzqgq53j3dg15vgwwwwgf5s00000gn/T//ccGgwidk.s 			page 77


 2538 00e0 3B6B     		ldr	r3, [r7, #48]
 2539 00e2 002B     		cmp	r3, #0
 2540 00e4 0AD0     		beq	.L171
 2541              	.LBB176:
 2542              	.LBB177:
 197:../../../../dependencies/freertos/FreeRTOSv10.4.1/FreeRTOS/Source/portable/GCC/ARM_CM4F/portmacro.h ****         (
 2543              		.loc 2 197 9
 2544              		.syntax unified
 2545              	@ 197 "../../../../dependencies/freertos/FreeRTOSv10.4.1/FreeRTOS/Source/portable/GCC/ARM_CM4F/port
 2546 00e6 4FF05003 			mov r3, #80												
 2547 00ea 83F31188 		msr basepri, r3											
 2548 00ee BFF36F8F 		isb														
 2549 00f2 BFF34F8F 		dsb														
 2550              	
 2551              	@ 0 "" 2
 2552              		.thumb
 2553              		.syntax unified
 2554 00f6 7B61     		str	r3, [r7, #20]
 205:../../../../dependencies/freertos/FreeRTOSv10.4.1/FreeRTOS/Source/portable/GCC/ARM_CM4F/portmacro.h **** 
 2555              		.loc 2 205 5
 2556 00f8 00BF     		nop
 2557              	.L172:
 2558              	.LBE177:
 2559              	.LBE176:
 2560              		.loc 1 1549 29 discriminator 4
 2561 00fa FEE7     		b	.L172
 2562              	.L171:
1550:../../../../dependencies/freertos/FreeRTOSv10.4.1/FreeRTOS/Source/queue.c ****                         }
1551:../../../../dependencies/freertos/FreeRTOSv10.4.1/FreeRTOS/Source/queue.c ****                     #endif /* configUSE_MUTEXES */
1552:../../../../dependencies/freertos/FreeRTOSv10.4.1/FreeRTOS/Source/queue.c **** 
1553:../../../../dependencies/freertos/FreeRTOSv10.4.1/FreeRTOS/Source/queue.c ****                     /* The semaphore count was 0 and no block time is specified
1554:../../../../dependencies/freertos/FreeRTOSv10.4.1/FreeRTOS/Source/queue.c ****                      * (or the block time has expired) so exit now. */
1555:../../../../dependencies/freertos/FreeRTOSv10.4.1/FreeRTOS/Source/queue.c ****                     taskEXIT_CRITICAL();
 2563              		.loc 1 1555 21
 2564 00fc FFF7FEFF 		bl	vPortExitCritical
1556:../../../../dependencies/freertos/FreeRTOSv10.4.1/FreeRTOS/Source/queue.c ****                     traceQUEUE_RECEIVE_FAILED( pxQueue );
1557:../../../../dependencies/freertos/FreeRTOSv10.4.1/FreeRTOS/Source/queue.c ****                     return errQUEUE_EMPTY;
 2565              		.loc 1 1557 28
 2566 0100 0023     		movs	r3, #0
 2567 0102 82E0     		b	.L181
 2568              	.L170:
1558:../../../../dependencies/freertos/FreeRTOSv10.4.1/FreeRTOS/Source/queue.c ****                 }
1559:../../../../dependencies/freertos/FreeRTOSv10.4.1/FreeRTOS/Source/queue.c ****                 else if( xEntryTimeSet == pdFALSE )
 2569              		.loc 1 1559 24
 2570 0104 7B6B     		ldr	r3, [r7, #52]
 2571 0106 002B     		cmp	r3, #0
 2572 0108 06D1     		bne	.L173
1560:../../../../dependencies/freertos/FreeRTOSv10.4.1/FreeRTOS/Source/queue.c ****                 {
1561:../../../../dependencies/freertos/FreeRTOSv10.4.1/FreeRTOS/Source/queue.c ****                     /* The semaphore count was 0 and a block time was specified
1562:../../../../dependencies/freertos/FreeRTOSv10.4.1/FreeRTOS/Source/queue.c ****                      * so configure the timeout structure ready to block. */
1563:../../../../dependencies/freertos/FreeRTOSv10.4.1/FreeRTOS/Source/queue.c ****                     vTaskInternalSetTimeOutState( &xTimeOut );
 2573              		.loc 1 1563 21
 2574 010a 07F10C03 		add	r3, r7, #12
 2575 010e 1846     		mov	r0, r3
 2576 0110 FFF7FEFF 		bl	vTaskInternalSetTimeOutState
1564:../../../../dependencies/freertos/FreeRTOSv10.4.1/FreeRTOS/Source/queue.c ****                     xEntryTimeSet = pdTRUE;
 2577              		.loc 1 1564 35
ARM GAS  /var/folders/kj/yzqgq53j3dg15vgwwwwgf5s00000gn/T//ccGgwidk.s 			page 78


 2578 0114 0123     		movs	r3, #1
 2579 0116 7B63     		str	r3, [r7, #52]
 2580              	.L173:
 2581              	.LBE175:
1565:../../../../dependencies/freertos/FreeRTOSv10.4.1/FreeRTOS/Source/queue.c ****                 }
1566:../../../../dependencies/freertos/FreeRTOSv10.4.1/FreeRTOS/Source/queue.c ****                 else
1567:../../../../dependencies/freertos/FreeRTOSv10.4.1/FreeRTOS/Source/queue.c ****                 {
1568:../../../../dependencies/freertos/FreeRTOSv10.4.1/FreeRTOS/Source/queue.c ****                     /* Entry time was already set. */
1569:../../../../dependencies/freertos/FreeRTOSv10.4.1/FreeRTOS/Source/queue.c ****                     mtCOVERAGE_TEST_MARKER();
1570:../../../../dependencies/freertos/FreeRTOSv10.4.1/FreeRTOS/Source/queue.c ****                 }
1571:../../../../dependencies/freertos/FreeRTOSv10.4.1/FreeRTOS/Source/queue.c ****             }
1572:../../../../dependencies/freertos/FreeRTOSv10.4.1/FreeRTOS/Source/queue.c ****         }
1573:../../../../dependencies/freertos/FreeRTOSv10.4.1/FreeRTOS/Source/queue.c ****         taskEXIT_CRITICAL();
 2582              		.loc 1 1573 9
 2583 0118 FFF7FEFF 		bl	vPortExitCritical
1574:../../../../dependencies/freertos/FreeRTOSv10.4.1/FreeRTOS/Source/queue.c **** 
1575:../../../../dependencies/freertos/FreeRTOSv10.4.1/FreeRTOS/Source/queue.c ****         /* Interrupts and other tasks can give to and take from the semaphore
1576:../../../../dependencies/freertos/FreeRTOSv10.4.1/FreeRTOS/Source/queue.c ****          * now the critical section has been exited. */
1577:../../../../dependencies/freertos/FreeRTOSv10.4.1/FreeRTOS/Source/queue.c **** 
1578:../../../../dependencies/freertos/FreeRTOSv10.4.1/FreeRTOS/Source/queue.c ****         vTaskSuspendAll();
 2584              		.loc 1 1578 9
 2585 011c FFF7FEFF 		bl	vTaskSuspendAll
1579:../../../../dependencies/freertos/FreeRTOSv10.4.1/FreeRTOS/Source/queue.c ****         prvLockQueue( pxQueue );
 2586              		.loc 1 1579 9
 2587 0120 FFF7FEFF 		bl	vPortEnterCritical
 2588 0124 FB6A     		ldr	r3, [r7, #44]
 2589 0126 93F84430 		ldrb	r3, [r3, #68]
 2590 012a 5BB2     		sxtb	r3, r3
 2591 012c B3F1FF3F 		cmp	r3, #-1
 2592 0130 03D1     		bne	.L174
 2593              		.loc 1 1579 9 is_stmt 0 discriminator 1
 2594 0132 FB6A     		ldr	r3, [r7, #44]
 2595 0134 0022     		movs	r2, #0
 2596 0136 83F84420 		strb	r2, [r3, #68]
 2597              	.L174:
 2598              		.loc 1 1579 9 discriminator 3
 2599 013a FB6A     		ldr	r3, [r7, #44]
 2600 013c 93F84530 		ldrb	r3, [r3, #69]
 2601 0140 5BB2     		sxtb	r3, r3
 2602 0142 B3F1FF3F 		cmp	r3, #-1
 2603 0146 03D1     		bne	.L175
 2604              		.loc 1 1579 9 discriminator 4
 2605 0148 FB6A     		ldr	r3, [r7, #44]
 2606 014a 0022     		movs	r2, #0
 2607 014c 83F84520 		strb	r2, [r3, #69]
 2608              	.L175:
 2609              		.loc 1 1579 9 discriminator 6
 2610 0150 FFF7FEFF 		bl	vPortExitCritical
1580:../../../../dependencies/freertos/FreeRTOSv10.4.1/FreeRTOS/Source/queue.c **** 
1581:../../../../dependencies/freertos/FreeRTOSv10.4.1/FreeRTOS/Source/queue.c ****         /* Update the timeout state to see if it has expired yet. */
1582:../../../../dependencies/freertos/FreeRTOSv10.4.1/FreeRTOS/Source/queue.c ****         if( xTaskCheckForTimeOut( &xTimeOut, &xTicksToWait ) == pdFALSE )
 2611              		.loc 1 1582 13 is_stmt 1 discriminator 6
 2612 0154 3A46     		mov	r2, r7
 2613 0156 07F10C03 		add	r3, r7, #12
 2614 015a 1146     		mov	r1, r2
 2615 015c 1846     		mov	r0, r3
 2616 015e FFF7FEFF 		bl	xTaskCheckForTimeOut
ARM GAS  /var/folders/kj/yzqgq53j3dg15vgwwwwgf5s00000gn/T//ccGgwidk.s 			page 79


 2617 0162 0346     		mov	r3, r0
 2618              		.loc 1 1582 11 discriminator 6
 2619 0164 002B     		cmp	r3, #0
 2620 0166 32D1     		bne	.L176
1583:../../../../dependencies/freertos/FreeRTOSv10.4.1/FreeRTOS/Source/queue.c ****         {
1584:../../../../dependencies/freertos/FreeRTOSv10.4.1/FreeRTOS/Source/queue.c ****             /* A block time is specified and not expired.  If the semaphore
1585:../../../../dependencies/freertos/FreeRTOSv10.4.1/FreeRTOS/Source/queue.c ****              * count is 0 then enter the Blocked state to wait for a semaphore to
1586:../../../../dependencies/freertos/FreeRTOSv10.4.1/FreeRTOS/Source/queue.c ****              * become available.  As semaphores are implemented with queues the
1587:../../../../dependencies/freertos/FreeRTOSv10.4.1/FreeRTOS/Source/queue.c ****              * queue being empty is equivalent to the semaphore count being 0. */
1588:../../../../dependencies/freertos/FreeRTOSv10.4.1/FreeRTOS/Source/queue.c ****             if( prvIsQueueEmpty( pxQueue ) != pdFALSE )
 2621              		.loc 1 1588 17
 2622 0168 F86A     		ldr	r0, [r7, #44]
 2623 016a FFF7FEFF 		bl	prvIsQueueEmpty
 2624 016e 0346     		mov	r3, r0
 2625              		.loc 1 1588 15
 2626 0170 002B     		cmp	r3, #0
 2627 0172 26D0     		beq	.L177
1589:../../../../dependencies/freertos/FreeRTOSv10.4.1/FreeRTOS/Source/queue.c ****             {
1590:../../../../dependencies/freertos/FreeRTOSv10.4.1/FreeRTOS/Source/queue.c ****                 traceBLOCKING_ON_QUEUE_RECEIVE( pxQueue );
1591:../../../../dependencies/freertos/FreeRTOSv10.4.1/FreeRTOS/Source/queue.c **** 
1592:../../../../dependencies/freertos/FreeRTOSv10.4.1/FreeRTOS/Source/queue.c ****                 #if ( configUSE_MUTEXES == 1 )
1593:../../../../dependencies/freertos/FreeRTOSv10.4.1/FreeRTOS/Source/queue.c ****                     {
1594:../../../../dependencies/freertos/FreeRTOSv10.4.1/FreeRTOS/Source/queue.c ****                         if( pxQueue->uxQueueType == queueQUEUE_IS_MUTEX )
 2628              		.loc 1 1594 36
 2629 0174 FB6A     		ldr	r3, [r7, #44]
 2630 0176 1B68     		ldr	r3, [r3]
 2631              		.loc 1 1594 27
 2632 0178 002B     		cmp	r3, #0
 2633 017a 09D1     		bne	.L178
1595:../../../../dependencies/freertos/FreeRTOSv10.4.1/FreeRTOS/Source/queue.c ****                         {
1596:../../../../dependencies/freertos/FreeRTOSv10.4.1/FreeRTOS/Source/queue.c ****                             taskENTER_CRITICAL();
 2634              		.loc 1 1596 29
 2635 017c FFF7FEFF 		bl	vPortEnterCritical
1597:../../../../dependencies/freertos/FreeRTOSv10.4.1/FreeRTOS/Source/queue.c ****                             {
1598:../../../../dependencies/freertos/FreeRTOSv10.4.1/FreeRTOS/Source/queue.c ****                                 xInheritanceOccurred = xTaskPriorityInherit( pxQueue->u.xSemaphore.
 2636              		.loc 1 1598 56
 2637 0180 FB6A     		ldr	r3, [r7, #44]
 2638 0182 9B68     		ldr	r3, [r3, #8]
 2639 0184 1846     		mov	r0, r3
 2640 0186 FFF7FEFF 		bl	xTaskPriorityInherit
 2641 018a 3863     		str	r0, [r7, #48]
1599:../../../../dependencies/freertos/FreeRTOSv10.4.1/FreeRTOS/Source/queue.c ****                             }
1600:../../../../dependencies/freertos/FreeRTOSv10.4.1/FreeRTOS/Source/queue.c ****                             taskEXIT_CRITICAL();
 2642              		.loc 1 1600 29
 2643 018c FFF7FEFF 		bl	vPortExitCritical
 2644              	.L178:
1601:../../../../dependencies/freertos/FreeRTOSv10.4.1/FreeRTOS/Source/queue.c ****                         }
1602:../../../../dependencies/freertos/FreeRTOSv10.4.1/FreeRTOS/Source/queue.c ****                         else
1603:../../../../dependencies/freertos/FreeRTOSv10.4.1/FreeRTOS/Source/queue.c ****                         {
1604:../../../../dependencies/freertos/FreeRTOSv10.4.1/FreeRTOS/Source/queue.c ****                             mtCOVERAGE_TEST_MARKER();
1605:../../../../dependencies/freertos/FreeRTOSv10.4.1/FreeRTOS/Source/queue.c ****                         }
1606:../../../../dependencies/freertos/FreeRTOSv10.4.1/FreeRTOS/Source/queue.c ****                     }
1607:../../../../dependencies/freertos/FreeRTOSv10.4.1/FreeRTOS/Source/queue.c ****                 #endif /* if ( configUSE_MUTEXES == 1 ) */
1608:../../../../dependencies/freertos/FreeRTOSv10.4.1/FreeRTOS/Source/queue.c **** 
1609:../../../../dependencies/freertos/FreeRTOSv10.4.1/FreeRTOS/Source/queue.c ****                 vTaskPlaceOnEventList( &( pxQueue->xTasksWaitingToReceive ), xTicksToWait );
 2645              		.loc 1 1609 17
 2646 0190 FB6A     		ldr	r3, [r7, #44]
ARM GAS  /var/folders/kj/yzqgq53j3dg15vgwwwwgf5s00000gn/T//ccGgwidk.s 			page 80


 2647 0192 2433     		adds	r3, r3, #36
 2648 0194 3A68     		ldr	r2, [r7]
 2649 0196 1146     		mov	r1, r2
 2650 0198 1846     		mov	r0, r3
 2651 019a FFF7FEFF 		bl	vTaskPlaceOnEventList
1610:../../../../dependencies/freertos/FreeRTOSv10.4.1/FreeRTOS/Source/queue.c ****                 prvUnlockQueue( pxQueue );
 2652              		.loc 1 1610 17
 2653 019e F86A     		ldr	r0, [r7, #44]
 2654 01a0 FFF7FEFF 		bl	prvUnlockQueue
1611:../../../../dependencies/freertos/FreeRTOSv10.4.1/FreeRTOS/Source/queue.c **** 
1612:../../../../dependencies/freertos/FreeRTOSv10.4.1/FreeRTOS/Source/queue.c ****                 if( xTaskResumeAll() == pdFALSE )
 2655              		.loc 1 1612 21
 2656 01a4 FFF7FEFF 		bl	xTaskResumeAll
 2657 01a8 0346     		mov	r3, r0
 2658              		.loc 1 1612 19
 2659 01aa 002B     		cmp	r3, #0
 2660 01ac 7FF468AF 		bne	.L164
1613:../../../../dependencies/freertos/FreeRTOSv10.4.1/FreeRTOS/Source/queue.c ****                 {
1614:../../../../dependencies/freertos/FreeRTOSv10.4.1/FreeRTOS/Source/queue.c ****                     portYIELD_WITHIN_API();
 2661              		.loc 1 1614 21
 2662 01b0 184B     		ldr	r3, .L182
 2663 01b2 4FF08052 		mov	r2, #268435456
 2664 01b6 1A60     		str	r2, [r3]
 2665              		.syntax unified
 2666              	@ 1614 "../../../../dependencies/freertos/FreeRTOSv10.4.1/FreeRTOS/Source/queue.c" 1
 2667 01b8 BFF34F8F 		dsb
 2668              	@ 0 "" 2
 2669              	@ 1614 "../../../../dependencies/freertos/FreeRTOSv10.4.1/FreeRTOS/Source/queue.c" 1
 2670 01bc BFF36F8F 		isb
 2671              	@ 0 "" 2
 2672              		.thumb
 2673              		.syntax unified
 2674 01c0 5EE7     		b	.L164
 2675              	.L177:
1615:../../../../dependencies/freertos/FreeRTOSv10.4.1/FreeRTOS/Source/queue.c ****                 }
1616:../../../../dependencies/freertos/FreeRTOSv10.4.1/FreeRTOS/Source/queue.c ****                 else
1617:../../../../dependencies/freertos/FreeRTOSv10.4.1/FreeRTOS/Source/queue.c ****                 {
1618:../../../../dependencies/freertos/FreeRTOSv10.4.1/FreeRTOS/Source/queue.c ****                     mtCOVERAGE_TEST_MARKER();
1619:../../../../dependencies/freertos/FreeRTOSv10.4.1/FreeRTOS/Source/queue.c ****                 }
1620:../../../../dependencies/freertos/FreeRTOSv10.4.1/FreeRTOS/Source/queue.c ****             }
1621:../../../../dependencies/freertos/FreeRTOSv10.4.1/FreeRTOS/Source/queue.c ****             else
1622:../../../../dependencies/freertos/FreeRTOSv10.4.1/FreeRTOS/Source/queue.c ****             {
1623:../../../../dependencies/freertos/FreeRTOSv10.4.1/FreeRTOS/Source/queue.c ****                 /* There was no timeout and the semaphore count was not 0, so
1624:../../../../dependencies/freertos/FreeRTOSv10.4.1/FreeRTOS/Source/queue.c ****                  * attempt to take the semaphore again. */
1625:../../../../dependencies/freertos/FreeRTOSv10.4.1/FreeRTOS/Source/queue.c ****                 prvUnlockQueue( pxQueue );
 2676              		.loc 1 1625 17
 2677 01c2 F86A     		ldr	r0, [r7, #44]
 2678 01c4 FFF7FEFF 		bl	prvUnlockQueue
1626:../../../../dependencies/freertos/FreeRTOSv10.4.1/FreeRTOS/Source/queue.c ****                 ( void ) xTaskResumeAll();
 2679              		.loc 1 1626 26
 2680 01c8 FFF7FEFF 		bl	xTaskResumeAll
 2681 01cc 58E7     		b	.L164
 2682              	.L176:
1627:../../../../dependencies/freertos/FreeRTOSv10.4.1/FreeRTOS/Source/queue.c ****             }
1628:../../../../dependencies/freertos/FreeRTOSv10.4.1/FreeRTOS/Source/queue.c ****         }
1629:../../../../dependencies/freertos/FreeRTOSv10.4.1/FreeRTOS/Source/queue.c ****         else
1630:../../../../dependencies/freertos/FreeRTOSv10.4.1/FreeRTOS/Source/queue.c ****         {
ARM GAS  /var/folders/kj/yzqgq53j3dg15vgwwwwgf5s00000gn/T//ccGgwidk.s 			page 81


1631:../../../../dependencies/freertos/FreeRTOSv10.4.1/FreeRTOS/Source/queue.c ****             /* Timed out. */
1632:../../../../dependencies/freertos/FreeRTOSv10.4.1/FreeRTOS/Source/queue.c ****             prvUnlockQueue( pxQueue );
 2683              		.loc 1 1632 13
 2684 01ce F86A     		ldr	r0, [r7, #44]
 2685 01d0 FFF7FEFF 		bl	prvUnlockQueue
1633:../../../../dependencies/freertos/FreeRTOSv10.4.1/FreeRTOS/Source/queue.c ****             ( void ) xTaskResumeAll();
 2686              		.loc 1 1633 22
 2687 01d4 FFF7FEFF 		bl	xTaskResumeAll
1634:../../../../dependencies/freertos/FreeRTOSv10.4.1/FreeRTOS/Source/queue.c **** 
1635:../../../../dependencies/freertos/FreeRTOSv10.4.1/FreeRTOS/Source/queue.c ****             /* If the semaphore count is 0 exit now as the timeout has
1636:../../../../dependencies/freertos/FreeRTOSv10.4.1/FreeRTOS/Source/queue.c ****              * expired.  Otherwise return to attempt to take the semaphore that is
1637:../../../../dependencies/freertos/FreeRTOSv10.4.1/FreeRTOS/Source/queue.c ****              * known to be available.  As semaphores are implemented by queues the
1638:../../../../dependencies/freertos/FreeRTOSv10.4.1/FreeRTOS/Source/queue.c ****              * queue being empty is equivalent to the semaphore count being 0. */
1639:../../../../dependencies/freertos/FreeRTOSv10.4.1/FreeRTOS/Source/queue.c ****             if( prvIsQueueEmpty( pxQueue ) != pdFALSE )
 2688              		.loc 1 1639 17
 2689 01d8 F86A     		ldr	r0, [r7, #44]
 2690 01da FFF7FEFF 		bl	prvIsQueueEmpty
 2691 01de 0346     		mov	r3, r0
 2692              		.loc 1 1639 15
 2693 01e0 002B     		cmp	r3, #0
 2694 01e2 3FF44DAF 		beq	.L164
1640:../../../../dependencies/freertos/FreeRTOSv10.4.1/FreeRTOS/Source/queue.c ****             {
1641:../../../../dependencies/freertos/FreeRTOSv10.4.1/FreeRTOS/Source/queue.c ****                 #if ( configUSE_MUTEXES == 1 )
1642:../../../../dependencies/freertos/FreeRTOSv10.4.1/FreeRTOS/Source/queue.c ****                     {
1643:../../../../dependencies/freertos/FreeRTOSv10.4.1/FreeRTOS/Source/queue.c ****                         /* xInheritanceOccurred could only have be set if
1644:../../../../dependencies/freertos/FreeRTOSv10.4.1/FreeRTOS/Source/queue.c ****                          * pxQueue->uxQueueType == queueQUEUE_IS_MUTEX so no need to
1645:../../../../dependencies/freertos/FreeRTOSv10.4.1/FreeRTOS/Source/queue.c ****                          * test the mutex type again to check it is actually a mutex. */
1646:../../../../dependencies/freertos/FreeRTOSv10.4.1/FreeRTOS/Source/queue.c ****                         if( xInheritanceOccurred != pdFALSE )
 2695              		.loc 1 1646 27
 2696 01e6 3B6B     		ldr	r3, [r7, #48]
 2697 01e8 002B     		cmp	r3, #0
 2698 01ea 0DD0     		beq	.L180
1647:../../../../dependencies/freertos/FreeRTOSv10.4.1/FreeRTOS/Source/queue.c ****                         {
1648:../../../../dependencies/freertos/FreeRTOSv10.4.1/FreeRTOS/Source/queue.c ****                             taskENTER_CRITICAL();
 2699              		.loc 1 1648 29
 2700 01ec FFF7FEFF 		bl	vPortEnterCritical
 2701              	.LBB178:
1649:../../../../dependencies/freertos/FreeRTOSv10.4.1/FreeRTOS/Source/queue.c ****                             {
1650:../../../../dependencies/freertos/FreeRTOSv10.4.1/FreeRTOS/Source/queue.c ****                                 UBaseType_t uxHighestWaitingPriority;
1651:../../../../dependencies/freertos/FreeRTOSv10.4.1/FreeRTOS/Source/queue.c **** 
1652:../../../../dependencies/freertos/FreeRTOSv10.4.1/FreeRTOS/Source/queue.c ****                                 /* This task blocking on the mutex caused another
1653:../../../../dependencies/freertos/FreeRTOSv10.4.1/FreeRTOS/Source/queue.c ****                                  * task to inherit this task's priority.  Now this task
1654:../../../../dependencies/freertos/FreeRTOSv10.4.1/FreeRTOS/Source/queue.c ****                                  * has timed out the priority should be disinherited
1655:../../../../dependencies/freertos/FreeRTOSv10.4.1/FreeRTOS/Source/queue.c ****                                  * again, but only as low as the next highest priority
1656:../../../../dependencies/freertos/FreeRTOSv10.4.1/FreeRTOS/Source/queue.c ****                                  * task that is waiting for the same mutex. */
1657:../../../../dependencies/freertos/FreeRTOSv10.4.1/FreeRTOS/Source/queue.c ****                                 uxHighestWaitingPriority = prvGetDisinheritPriorityAfterTimeout( px
 2702              		.loc 1 1657 60
 2703 01f0 F86A     		ldr	r0, [r7, #44]
 2704 01f2 FFF7FEFF 		bl	prvGetDisinheritPriorityAfterTimeout
 2705 01f6 7862     		str	r0, [r7, #36]
1658:../../../../dependencies/freertos/FreeRTOSv10.4.1/FreeRTOS/Source/queue.c ****                                 vTaskPriorityDisinheritAfterTimeout( pxQueue->u.xSemaphore.xMutexHo
 2706              		.loc 1 1658 33
 2707 01f8 FB6A     		ldr	r3, [r7, #44]
 2708 01fa 9B68     		ldr	r3, [r3, #8]
 2709 01fc 796A     		ldr	r1, [r7, #36]
 2710 01fe 1846     		mov	r0, r3
 2711 0200 FFF7FEFF 		bl	vTaskPriorityDisinheritAfterTimeout
ARM GAS  /var/folders/kj/yzqgq53j3dg15vgwwwwgf5s00000gn/T//ccGgwidk.s 			page 82


 2712              	.LBE178:
1659:../../../../dependencies/freertos/FreeRTOSv10.4.1/FreeRTOS/Source/queue.c ****                             }
1660:../../../../dependencies/freertos/FreeRTOSv10.4.1/FreeRTOS/Source/queue.c ****                             taskEXIT_CRITICAL();
 2713              		.loc 1 1660 29
 2714 0204 FFF7FEFF 		bl	vPortExitCritical
 2715              	.L180:
1661:../../../../dependencies/freertos/FreeRTOSv10.4.1/FreeRTOS/Source/queue.c ****                         }
1662:../../../../dependencies/freertos/FreeRTOSv10.4.1/FreeRTOS/Source/queue.c ****                     }
1663:../../../../dependencies/freertos/FreeRTOSv10.4.1/FreeRTOS/Source/queue.c ****                 #endif /* configUSE_MUTEXES */
1664:../../../../dependencies/freertos/FreeRTOSv10.4.1/FreeRTOS/Source/queue.c **** 
1665:../../../../dependencies/freertos/FreeRTOSv10.4.1/FreeRTOS/Source/queue.c ****                 traceQUEUE_RECEIVE_FAILED( pxQueue );
1666:../../../../dependencies/freertos/FreeRTOSv10.4.1/FreeRTOS/Source/queue.c ****                 return errQUEUE_EMPTY;
 2716              		.loc 1 1666 24
 2717 0208 0023     		movs	r3, #0
 2718              	.L181:
1667:../../../../dependencies/freertos/FreeRTOSv10.4.1/FreeRTOS/Source/queue.c ****             }
1668:../../../../dependencies/freertos/FreeRTOSv10.4.1/FreeRTOS/Source/queue.c ****             else
1669:../../../../dependencies/freertos/FreeRTOSv10.4.1/FreeRTOS/Source/queue.c ****             {
1670:../../../../dependencies/freertos/FreeRTOSv10.4.1/FreeRTOS/Source/queue.c ****                 mtCOVERAGE_TEST_MARKER();
1671:../../../../dependencies/freertos/FreeRTOSv10.4.1/FreeRTOS/Source/queue.c ****             }
1672:../../../../dependencies/freertos/FreeRTOSv10.4.1/FreeRTOS/Source/queue.c ****         }
1673:../../../../dependencies/freertos/FreeRTOSv10.4.1/FreeRTOS/Source/queue.c ****     } /*lint -restore */
1674:../../../../dependencies/freertos/FreeRTOSv10.4.1/FreeRTOS/Source/queue.c **** }
 2719              		.loc 1 1674 1 discriminator 7
 2720 020a 1846     		mov	r0, r3
 2721 020c 3837     		adds	r7, r7, #56
 2722              	.LCFI74:
 2723              		.cfi_def_cfa_offset 8
 2724 020e BD46     		mov	sp, r7
 2725              	.LCFI75:
 2726              		.cfi_def_cfa_register 13
 2727              		@ sp needed
 2728 0210 80BD     		pop	{r7, pc}
 2729              	.L183:
 2730 0212 00BF     		.align	2
 2731              	.L182:
 2732 0214 04ED00E0 		.word	-536810236
 2733              		.cfi_endproc
 2734              	.LFE19:
 2736              		.section	.text.xQueuePeek,"ax",%progbits
 2737              		.align	1
 2738              		.global	xQueuePeek
 2739              		.syntax unified
 2740              		.thumb
 2741              		.thumb_func
 2742              		.fpu fpv4-sp-d16
 2744              	xQueuePeek:
 2745              	.LFB20:
1675:../../../../dependencies/freertos/FreeRTOSv10.4.1/FreeRTOS/Source/queue.c **** /*-----------------------------------------------------------*/
1676:../../../../dependencies/freertos/FreeRTOSv10.4.1/FreeRTOS/Source/queue.c **** 
1677:../../../../dependencies/freertos/FreeRTOSv10.4.1/FreeRTOS/Source/queue.c **** BaseType_t xQueuePeek( QueueHandle_t xQueue,
1678:../../../../dependencies/freertos/FreeRTOSv10.4.1/FreeRTOS/Source/queue.c ****                        void * const pvBuffer,
1679:../../../../dependencies/freertos/FreeRTOSv10.4.1/FreeRTOS/Source/queue.c ****                        TickType_t xTicksToWait )
1680:../../../../dependencies/freertos/FreeRTOSv10.4.1/FreeRTOS/Source/queue.c **** {
 2746              		.loc 1 1680 1
 2747              		.cfi_startproc
 2748              		@ args = 0, pretend = 0, frame = 56
ARM GAS  /var/folders/kj/yzqgq53j3dg15vgwwwwgf5s00000gn/T//ccGgwidk.s 			page 83


 2749              		@ frame_needed = 1, uses_anonymous_args = 0
 2750 0000 80B5     		push	{r7, lr}
 2751              	.LCFI76:
 2752              		.cfi_def_cfa_offset 8
 2753              		.cfi_offset 7, -8
 2754              		.cfi_offset 14, -4
 2755 0002 8EB0     		sub	sp, sp, #56
 2756              	.LCFI77:
 2757              		.cfi_def_cfa_offset 64
 2758 0004 00AF     		add	r7, sp, #0
 2759              	.LCFI78:
 2760              		.cfi_def_cfa_register 7
 2761 0006 F860     		str	r0, [r7, #12]
 2762 0008 B960     		str	r1, [r7, #8]
 2763 000a 7A60     		str	r2, [r7, #4]
1681:../../../../dependencies/freertos/FreeRTOSv10.4.1/FreeRTOS/Source/queue.c ****     BaseType_t xEntryTimeSet = pdFALSE;
 2764              		.loc 1 1681 16
 2765 000c 0023     		movs	r3, #0
 2766 000e 7B63     		str	r3, [r7, #52]
1682:../../../../dependencies/freertos/FreeRTOSv10.4.1/FreeRTOS/Source/queue.c ****     TimeOut_t xTimeOut;
1683:../../../../dependencies/freertos/FreeRTOSv10.4.1/FreeRTOS/Source/queue.c ****     int8_t * pcOriginalReadPosition;
1684:../../../../dependencies/freertos/FreeRTOSv10.4.1/FreeRTOS/Source/queue.c ****     Queue_t * const pxQueue = xQueue;
 2767              		.loc 1 1684 21
 2768 0010 FB68     		ldr	r3, [r7, #12]
 2769 0012 3B63     		str	r3, [r7, #48]
1685:../../../../dependencies/freertos/FreeRTOSv10.4.1/FreeRTOS/Source/queue.c **** 
1686:../../../../dependencies/freertos/FreeRTOSv10.4.1/FreeRTOS/Source/queue.c ****     /* Check the pointer is not NULL. */
1687:../../../../dependencies/freertos/FreeRTOSv10.4.1/FreeRTOS/Source/queue.c ****     configASSERT( ( pxQueue ) );
 2770              		.loc 1 1687 5
 2771 0014 3B6B     		ldr	r3, [r7, #48]
 2772 0016 002B     		cmp	r3, #0
 2773 0018 0AD1     		bne	.L185
 2774              	.LBB179:
 2775              	.LBB180:
 197:../../../../dependencies/freertos/FreeRTOSv10.4.1/FreeRTOS/Source/portable/GCC/ARM_CM4F/portmacro.h ****         (
 2776              		.loc 2 197 9
 2777              		.syntax unified
 2778              	@ 197 "../../../../dependencies/freertos/FreeRTOSv10.4.1/FreeRTOS/Source/portable/GCC/ARM_CM4F/port
 2779 001a 4FF05003 			mov r3, #80												
 2780 001e 83F31188 		msr basepri, r3											
 2781 0022 BFF36F8F 		isb														
 2782 0026 BFF34F8F 		dsb														
 2783              	
 2784              	@ 0 "" 2
 2785              		.thumb
 2786              		.syntax unified
 2787 002a 7B62     		str	r3, [r7, #36]
 205:../../../../dependencies/freertos/FreeRTOSv10.4.1/FreeRTOS/Source/portable/GCC/ARM_CM4F/portmacro.h **** 
 2788              		.loc 2 205 5
 2789 002c 00BF     		nop
 2790              	.L186:
 2791              	.LBE180:
 2792              	.LBE179:
 2793              		.loc 1 1687 5 discriminator 1
 2794 002e FEE7     		b	.L186
 2795              	.L185:
1688:../../../../dependencies/freertos/FreeRTOSv10.4.1/FreeRTOS/Source/queue.c **** 
ARM GAS  /var/folders/kj/yzqgq53j3dg15vgwwwwgf5s00000gn/T//ccGgwidk.s 			page 84


1689:../../../../dependencies/freertos/FreeRTOSv10.4.1/FreeRTOS/Source/queue.c ****     /* The buffer into which data is received can only be NULL if the data size
1690:../../../../dependencies/freertos/FreeRTOSv10.4.1/FreeRTOS/Source/queue.c ****      * is zero (so no data is copied into the buffer. */
1691:../../../../dependencies/freertos/FreeRTOSv10.4.1/FreeRTOS/Source/queue.c ****     configASSERT( !( ( ( pvBuffer ) == NULL ) && ( ( pxQueue )->uxItemSize != ( UBaseType_t ) 0U ) 
 2796              		.loc 1 1691 5
 2797 0030 BB68     		ldr	r3, [r7, #8]
 2798 0032 002B     		cmp	r3, #0
 2799 0034 03D1     		bne	.L187
 2800              		.loc 1 1691 5 is_stmt 0 discriminator 2
 2801 0036 3B6B     		ldr	r3, [r7, #48]
 2802 0038 1B6C     		ldr	r3, [r3, #64]
 2803 003a 002B     		cmp	r3, #0
 2804 003c 01D1     		bne	.L188
 2805              	.L187:
 2806              		.loc 1 1691 5 discriminator 3
 2807 003e 0123     		movs	r3, #1
 2808 0040 00E0     		b	.L189
 2809              	.L188:
 2810              		.loc 1 1691 5 discriminator 4
 2811 0042 0023     		movs	r3, #0
 2812              	.L189:
 2813              		.loc 1 1691 5 discriminator 6
 2814 0044 002B     		cmp	r3, #0
 2815 0046 0AD1     		bne	.L190
 2816              	.LBB181:
 2817              	.LBB182:
 197:../../../../dependencies/freertos/FreeRTOSv10.4.1/FreeRTOS/Source/portable/GCC/ARM_CM4F/portmacro.h ****         (
 2818              		.loc 2 197 9 is_stmt 1
 2819              		.syntax unified
 2820              	@ 197 "../../../../dependencies/freertos/FreeRTOSv10.4.1/FreeRTOS/Source/portable/GCC/ARM_CM4F/port
 2821 0048 4FF05003 			mov r3, #80												
 2822 004c 83F31188 		msr basepri, r3											
 2823 0050 BFF36F8F 		isb														
 2824 0054 BFF34F8F 		dsb														
 2825              	
 2826              	@ 0 "" 2
 2827              		.thumb
 2828              		.syntax unified
 2829 0058 3B62     		str	r3, [r7, #32]
 205:../../../../dependencies/freertos/FreeRTOSv10.4.1/FreeRTOS/Source/portable/GCC/ARM_CM4F/portmacro.h **** 
 2830              		.loc 2 205 5
 2831 005a 00BF     		nop
 2832              	.L191:
 2833              	.LBE182:
 2834              	.LBE181:
 2835              		.loc 1 1691 5 discriminator 2
 2836 005c FEE7     		b	.L191
 2837              	.L190:
1692:../../../../dependencies/freertos/FreeRTOSv10.4.1/FreeRTOS/Source/queue.c **** 
1693:../../../../dependencies/freertos/FreeRTOSv10.4.1/FreeRTOS/Source/queue.c ****     /* Cannot block if the scheduler is suspended. */
1694:../../../../dependencies/freertos/FreeRTOSv10.4.1/FreeRTOS/Source/queue.c ****     #if ( ( INCLUDE_xTaskGetSchedulerState == 1 ) || ( configUSE_TIMERS == 1 ) )
1695:../../../../dependencies/freertos/FreeRTOSv10.4.1/FreeRTOS/Source/queue.c ****         {
1696:../../../../dependencies/freertos/FreeRTOSv10.4.1/FreeRTOS/Source/queue.c ****             configASSERT( !( ( xTaskGetSchedulerState() == taskSCHEDULER_SUSPENDED ) && ( xTicksToW
 2838              		.loc 1 1696 13
 2839 005e FFF7FEFF 		bl	xTaskGetSchedulerState
 2840 0062 0346     		mov	r3, r0
 2841 0064 002B     		cmp	r3, #0
 2842 0066 02D1     		bne	.L192
ARM GAS  /var/folders/kj/yzqgq53j3dg15vgwwwwgf5s00000gn/T//ccGgwidk.s 			page 85


 2843              		.loc 1 1696 13 is_stmt 0 discriminator 2
 2844 0068 7B68     		ldr	r3, [r7, #4]
 2845 006a 002B     		cmp	r3, #0
 2846 006c 01D1     		bne	.L193
 2847              	.L192:
 2848              		.loc 1 1696 13 discriminator 3
 2849 006e 0123     		movs	r3, #1
 2850 0070 00E0     		b	.L194
 2851              	.L193:
 2852              		.loc 1 1696 13 discriminator 4
 2853 0072 0023     		movs	r3, #0
 2854              	.L194:
 2855              		.loc 1 1696 13 discriminator 6
 2856 0074 002B     		cmp	r3, #0
 2857 0076 0AD1     		bne	.L195
 2858              	.LBB183:
 2859              	.LBB184:
 197:../../../../dependencies/freertos/FreeRTOSv10.4.1/FreeRTOS/Source/portable/GCC/ARM_CM4F/portmacro.h ****         (
 2860              		.loc 2 197 9 is_stmt 1
 2861              		.syntax unified
 2862              	@ 197 "../../../../dependencies/freertos/FreeRTOSv10.4.1/FreeRTOS/Source/portable/GCC/ARM_CM4F/port
 2863 0078 4FF05003 			mov r3, #80												
 2864 007c 83F31188 		msr basepri, r3											
 2865 0080 BFF36F8F 		isb														
 2866 0084 BFF34F8F 		dsb														
 2867              	
 2868              	@ 0 "" 2
 2869              		.thumb
 2870              		.syntax unified
 2871 0088 FB61     		str	r3, [r7, #28]
 205:../../../../dependencies/freertos/FreeRTOSv10.4.1/FreeRTOS/Source/portable/GCC/ARM_CM4F/portmacro.h **** 
 2872              		.loc 2 205 5
 2873 008a 00BF     		nop
 2874              	.L196:
 2875              	.LBE184:
 2876              	.LBE183:
 2877              		.loc 1 1696 13 discriminator 3
 2878 008c FEE7     		b	.L196
 2879              	.L195:
1697:../../../../dependencies/freertos/FreeRTOSv10.4.1/FreeRTOS/Source/queue.c ****         }
1698:../../../../dependencies/freertos/FreeRTOSv10.4.1/FreeRTOS/Source/queue.c ****     #endif
1699:../../../../dependencies/freertos/FreeRTOSv10.4.1/FreeRTOS/Source/queue.c **** 
1700:../../../../dependencies/freertos/FreeRTOSv10.4.1/FreeRTOS/Source/queue.c ****     /*lint -save -e904  This function relaxes the coding standard somewhat to
1701:../../../../dependencies/freertos/FreeRTOSv10.4.1/FreeRTOS/Source/queue.c ****      * allow return statements within the function itself.  This is done in the
1702:../../../../dependencies/freertos/FreeRTOSv10.4.1/FreeRTOS/Source/queue.c ****      * interest of execution time efficiency. */
1703:../../../../dependencies/freertos/FreeRTOSv10.4.1/FreeRTOS/Source/queue.c ****     for( ; ; )
1704:../../../../dependencies/freertos/FreeRTOSv10.4.1/FreeRTOS/Source/queue.c ****     {
1705:../../../../dependencies/freertos/FreeRTOSv10.4.1/FreeRTOS/Source/queue.c ****         taskENTER_CRITICAL();
 2880              		.loc 1 1705 9
 2881 008e FFF7FEFF 		bl	vPortEnterCritical
 2882              	.LBB185:
1706:../../../../dependencies/freertos/FreeRTOSv10.4.1/FreeRTOS/Source/queue.c ****         {
1707:../../../../dependencies/freertos/FreeRTOSv10.4.1/FreeRTOS/Source/queue.c ****             const UBaseType_t uxMessagesWaiting = pxQueue->uxMessagesWaiting;
 2883              		.loc 1 1707 31
 2884 0092 3B6B     		ldr	r3, [r7, #48]
 2885 0094 9B6B     		ldr	r3, [r3, #56]
 2886 0096 FB62     		str	r3, [r7, #44]
ARM GAS  /var/folders/kj/yzqgq53j3dg15vgwwwwgf5s00000gn/T//ccGgwidk.s 			page 86


1708:../../../../dependencies/freertos/FreeRTOSv10.4.1/FreeRTOS/Source/queue.c **** 
1709:../../../../dependencies/freertos/FreeRTOSv10.4.1/FreeRTOS/Source/queue.c ****             /* Is there data in the queue now?  To be running the calling task
1710:../../../../dependencies/freertos/FreeRTOSv10.4.1/FreeRTOS/Source/queue.c ****              * must be the highest priority task wanting to access the queue. */
1711:../../../../dependencies/freertos/FreeRTOSv10.4.1/FreeRTOS/Source/queue.c ****             if( uxMessagesWaiting > ( UBaseType_t ) 0 )
 2887              		.loc 1 1711 15
 2888 0098 FB6A     		ldr	r3, [r7, #44]
 2889 009a 002B     		cmp	r3, #0
 2890 009c 21D0     		beq	.L197
1712:../../../../dependencies/freertos/FreeRTOSv10.4.1/FreeRTOS/Source/queue.c ****             {
1713:../../../../dependencies/freertos/FreeRTOSv10.4.1/FreeRTOS/Source/queue.c ****                 /* Remember the read position so it can be reset after the data
1714:../../../../dependencies/freertos/FreeRTOSv10.4.1/FreeRTOS/Source/queue.c ****                  * is read from the queue as this function is only peeking the
1715:../../../../dependencies/freertos/FreeRTOSv10.4.1/FreeRTOS/Source/queue.c ****                  * data, not removing it. */
1716:../../../../dependencies/freertos/FreeRTOSv10.4.1/FreeRTOS/Source/queue.c ****                 pcOriginalReadPosition = pxQueue->u.xQueue.pcReadFrom;
 2891              		.loc 1 1716 40
 2892 009e 3B6B     		ldr	r3, [r7, #48]
 2893 00a0 DB68     		ldr	r3, [r3, #12]
 2894 00a2 BB62     		str	r3, [r7, #40]
1717:../../../../dependencies/freertos/FreeRTOSv10.4.1/FreeRTOS/Source/queue.c **** 
1718:../../../../dependencies/freertos/FreeRTOSv10.4.1/FreeRTOS/Source/queue.c ****                 prvCopyDataFromQueue( pxQueue, pvBuffer );
 2895              		.loc 1 1718 17
 2896 00a4 B968     		ldr	r1, [r7, #8]
 2897 00a6 386B     		ldr	r0, [r7, #48]
 2898 00a8 FFF7FEFF 		bl	prvCopyDataFromQueue
1719:../../../../dependencies/freertos/FreeRTOSv10.4.1/FreeRTOS/Source/queue.c ****                 traceQUEUE_PEEK( pxQueue );
1720:../../../../dependencies/freertos/FreeRTOSv10.4.1/FreeRTOS/Source/queue.c **** 
1721:../../../../dependencies/freertos/FreeRTOSv10.4.1/FreeRTOS/Source/queue.c ****                 /* The data is not being removed, so reset the read pointer. */
1722:../../../../dependencies/freertos/FreeRTOSv10.4.1/FreeRTOS/Source/queue.c ****                 pxQueue->u.xQueue.pcReadFrom = pcOriginalReadPosition;
 2899              		.loc 1 1722 46
 2900 00ac 3B6B     		ldr	r3, [r7, #48]
 2901 00ae BA6A     		ldr	r2, [r7, #40]
 2902 00b0 DA60     		str	r2, [r3, #12]
1723:../../../../dependencies/freertos/FreeRTOSv10.4.1/FreeRTOS/Source/queue.c **** 
1724:../../../../dependencies/freertos/FreeRTOSv10.4.1/FreeRTOS/Source/queue.c ****                 /* The data is being left in the queue, so see if there are
1725:../../../../dependencies/freertos/FreeRTOSv10.4.1/FreeRTOS/Source/queue.c ****                  * any other tasks waiting for the data. */
1726:../../../../dependencies/freertos/FreeRTOSv10.4.1/FreeRTOS/Source/queue.c ****                 if( listLIST_IS_EMPTY( &( pxQueue->xTasksWaitingToReceive ) ) == pdFALSE )
 2903              		.loc 1 1726 21
 2904 00b2 3B6B     		ldr	r3, [r7, #48]
 2905 00b4 5B6A     		ldr	r3, [r3, #36]
 2906              		.loc 1 1726 19
 2907 00b6 002B     		cmp	r3, #0
 2908 00b8 0FD0     		beq	.L198
1727:../../../../dependencies/freertos/FreeRTOSv10.4.1/FreeRTOS/Source/queue.c ****                 {
1728:../../../../dependencies/freertos/FreeRTOSv10.4.1/FreeRTOS/Source/queue.c ****                     if( xTaskRemoveFromEventList( &( pxQueue->xTasksWaitingToReceive ) ) != pdFALSE
 2909              		.loc 1 1728 51
 2910 00ba 3B6B     		ldr	r3, [r7, #48]
 2911 00bc 2433     		adds	r3, r3, #36
 2912              		.loc 1 1728 25
 2913 00be 1846     		mov	r0, r3
 2914 00c0 FFF7FEFF 		bl	xTaskRemoveFromEventList
 2915 00c4 0346     		mov	r3, r0
 2916              		.loc 1 1728 23
 2917 00c6 002B     		cmp	r3, #0
 2918 00c8 07D0     		beq	.L198
1729:../../../../dependencies/freertos/FreeRTOSv10.4.1/FreeRTOS/Source/queue.c ****                     {
1730:../../../../dependencies/freertos/FreeRTOSv10.4.1/FreeRTOS/Source/queue.c ****                         /* The task waiting has a higher priority than this task. */
1731:../../../../dependencies/freertos/FreeRTOSv10.4.1/FreeRTOS/Source/queue.c ****                         queueYIELD_IF_USING_PREEMPTION();
 2919              		.loc 1 1731 25
ARM GAS  /var/folders/kj/yzqgq53j3dg15vgwwwwgf5s00000gn/T//ccGgwidk.s 			page 87


 2920 00ca 3D4B     		ldr	r3, .L208
 2921 00cc 4FF08052 		mov	r2, #268435456
 2922 00d0 1A60     		str	r2, [r3]
 2923              		.syntax unified
 2924              	@ 1731 "../../../../dependencies/freertos/FreeRTOSv10.4.1/FreeRTOS/Source/queue.c" 1
 2925 00d2 BFF34F8F 		dsb
 2926              	@ 0 "" 2
 2927              	@ 1731 "../../../../dependencies/freertos/FreeRTOSv10.4.1/FreeRTOS/Source/queue.c" 1
 2928 00d6 BFF36F8F 		isb
 2929              	@ 0 "" 2
 2930              		.thumb
 2931              		.syntax unified
 2932              	.L198:
1732:../../../../dependencies/freertos/FreeRTOSv10.4.1/FreeRTOS/Source/queue.c ****                     }
1733:../../../../dependencies/freertos/FreeRTOSv10.4.1/FreeRTOS/Source/queue.c ****                     else
1734:../../../../dependencies/freertos/FreeRTOSv10.4.1/FreeRTOS/Source/queue.c ****                     {
1735:../../../../dependencies/freertos/FreeRTOSv10.4.1/FreeRTOS/Source/queue.c ****                         mtCOVERAGE_TEST_MARKER();
1736:../../../../dependencies/freertos/FreeRTOSv10.4.1/FreeRTOS/Source/queue.c ****                     }
1737:../../../../dependencies/freertos/FreeRTOSv10.4.1/FreeRTOS/Source/queue.c ****                 }
1738:../../../../dependencies/freertos/FreeRTOSv10.4.1/FreeRTOS/Source/queue.c ****                 else
1739:../../../../dependencies/freertos/FreeRTOSv10.4.1/FreeRTOS/Source/queue.c ****                 {
1740:../../../../dependencies/freertos/FreeRTOSv10.4.1/FreeRTOS/Source/queue.c ****                     mtCOVERAGE_TEST_MARKER();
1741:../../../../dependencies/freertos/FreeRTOSv10.4.1/FreeRTOS/Source/queue.c ****                 }
1742:../../../../dependencies/freertos/FreeRTOSv10.4.1/FreeRTOS/Source/queue.c **** 
1743:../../../../dependencies/freertos/FreeRTOSv10.4.1/FreeRTOS/Source/queue.c ****                 taskEXIT_CRITICAL();
 2933              		.loc 1 1743 17
 2934 00da FFF7FEFF 		bl	vPortExitCritical
1744:../../../../dependencies/freertos/FreeRTOSv10.4.1/FreeRTOS/Source/queue.c ****                 return pdPASS;
 2935              		.loc 1 1744 24
 2936 00de 0123     		movs	r3, #1
 2937 00e0 69E0     		b	.L207
 2938              	.L197:
1745:../../../../dependencies/freertos/FreeRTOSv10.4.1/FreeRTOS/Source/queue.c ****             }
1746:../../../../dependencies/freertos/FreeRTOSv10.4.1/FreeRTOS/Source/queue.c ****             else
1747:../../../../dependencies/freertos/FreeRTOSv10.4.1/FreeRTOS/Source/queue.c ****             {
1748:../../../../dependencies/freertos/FreeRTOSv10.4.1/FreeRTOS/Source/queue.c ****                 if( xTicksToWait == ( TickType_t ) 0 )
 2939              		.loc 1 1748 34
 2940 00e2 7B68     		ldr	r3, [r7, #4]
 2941              		.loc 1 1748 19
 2942 00e4 002B     		cmp	r3, #0
 2943 00e6 03D1     		bne	.L200
1749:../../../../dependencies/freertos/FreeRTOSv10.4.1/FreeRTOS/Source/queue.c ****                 {
1750:../../../../dependencies/freertos/FreeRTOSv10.4.1/FreeRTOS/Source/queue.c ****                     /* The queue was empty and no block time is specified (or
1751:../../../../dependencies/freertos/FreeRTOSv10.4.1/FreeRTOS/Source/queue.c ****                      * the block time has expired) so leave now. */
1752:../../../../dependencies/freertos/FreeRTOSv10.4.1/FreeRTOS/Source/queue.c ****                     taskEXIT_CRITICAL();
 2944              		.loc 1 1752 21
 2945 00e8 FFF7FEFF 		bl	vPortExitCritical
1753:../../../../dependencies/freertos/FreeRTOSv10.4.1/FreeRTOS/Source/queue.c ****                     traceQUEUE_PEEK_FAILED( pxQueue );
1754:../../../../dependencies/freertos/FreeRTOSv10.4.1/FreeRTOS/Source/queue.c ****                     return errQUEUE_EMPTY;
 2946              		.loc 1 1754 28
 2947 00ec 0023     		movs	r3, #0
 2948 00ee 62E0     		b	.L207
 2949              	.L200:
1755:../../../../dependencies/freertos/FreeRTOSv10.4.1/FreeRTOS/Source/queue.c ****                 }
1756:../../../../dependencies/freertos/FreeRTOSv10.4.1/FreeRTOS/Source/queue.c ****                 else if( xEntryTimeSet == pdFALSE )
 2950              		.loc 1 1756 24
 2951 00f0 7B6B     		ldr	r3, [r7, #52]
ARM GAS  /var/folders/kj/yzqgq53j3dg15vgwwwwgf5s00000gn/T//ccGgwidk.s 			page 88


 2952 00f2 002B     		cmp	r3, #0
 2953 00f4 06D1     		bne	.L201
1757:../../../../dependencies/freertos/FreeRTOSv10.4.1/FreeRTOS/Source/queue.c ****                 {
1758:../../../../dependencies/freertos/FreeRTOSv10.4.1/FreeRTOS/Source/queue.c ****                     /* The queue was empty and a block time was specified so
1759:../../../../dependencies/freertos/FreeRTOSv10.4.1/FreeRTOS/Source/queue.c ****                      * configure the timeout structure ready to enter the blocked
1760:../../../../dependencies/freertos/FreeRTOSv10.4.1/FreeRTOS/Source/queue.c ****                      * state. */
1761:../../../../dependencies/freertos/FreeRTOSv10.4.1/FreeRTOS/Source/queue.c ****                     vTaskInternalSetTimeOutState( &xTimeOut );
 2954              		.loc 1 1761 21
 2955 00f6 07F11403 		add	r3, r7, #20
 2956 00fa 1846     		mov	r0, r3
 2957 00fc FFF7FEFF 		bl	vTaskInternalSetTimeOutState
1762:../../../../dependencies/freertos/FreeRTOSv10.4.1/FreeRTOS/Source/queue.c ****                     xEntryTimeSet = pdTRUE;
 2958              		.loc 1 1762 35
 2959 0100 0123     		movs	r3, #1
 2960 0102 7B63     		str	r3, [r7, #52]
 2961              	.L201:
 2962              	.LBE185:
1763:../../../../dependencies/freertos/FreeRTOSv10.4.1/FreeRTOS/Source/queue.c ****                 }
1764:../../../../dependencies/freertos/FreeRTOSv10.4.1/FreeRTOS/Source/queue.c ****                 else
1765:../../../../dependencies/freertos/FreeRTOSv10.4.1/FreeRTOS/Source/queue.c ****                 {
1766:../../../../dependencies/freertos/FreeRTOSv10.4.1/FreeRTOS/Source/queue.c ****                     /* Entry time was already set. */
1767:../../../../dependencies/freertos/FreeRTOSv10.4.1/FreeRTOS/Source/queue.c ****                     mtCOVERAGE_TEST_MARKER();
1768:../../../../dependencies/freertos/FreeRTOSv10.4.1/FreeRTOS/Source/queue.c ****                 }
1769:../../../../dependencies/freertos/FreeRTOSv10.4.1/FreeRTOS/Source/queue.c ****             }
1770:../../../../dependencies/freertos/FreeRTOSv10.4.1/FreeRTOS/Source/queue.c ****         }
1771:../../../../dependencies/freertos/FreeRTOSv10.4.1/FreeRTOS/Source/queue.c ****         taskEXIT_CRITICAL();
 2963              		.loc 1 1771 9
 2964 0104 FFF7FEFF 		bl	vPortExitCritical
1772:../../../../dependencies/freertos/FreeRTOSv10.4.1/FreeRTOS/Source/queue.c **** 
1773:../../../../dependencies/freertos/FreeRTOSv10.4.1/FreeRTOS/Source/queue.c ****         /* Interrupts and other tasks can send to and receive from the queue
1774:../../../../dependencies/freertos/FreeRTOSv10.4.1/FreeRTOS/Source/queue.c ****          * now the critical section has been exited. */
1775:../../../../dependencies/freertos/FreeRTOSv10.4.1/FreeRTOS/Source/queue.c **** 
1776:../../../../dependencies/freertos/FreeRTOSv10.4.1/FreeRTOS/Source/queue.c ****         vTaskSuspendAll();
 2965              		.loc 1 1776 9
 2966 0108 FFF7FEFF 		bl	vTaskSuspendAll
1777:../../../../dependencies/freertos/FreeRTOSv10.4.1/FreeRTOS/Source/queue.c ****         prvLockQueue( pxQueue );
 2967              		.loc 1 1777 9
 2968 010c FFF7FEFF 		bl	vPortEnterCritical
 2969 0110 3B6B     		ldr	r3, [r7, #48]
 2970 0112 93F84430 		ldrb	r3, [r3, #68]
 2971 0116 5BB2     		sxtb	r3, r3
 2972 0118 B3F1FF3F 		cmp	r3, #-1
 2973 011c 03D1     		bne	.L202
 2974              		.loc 1 1777 9 is_stmt 0 discriminator 1
 2975 011e 3B6B     		ldr	r3, [r7, #48]
 2976 0120 0022     		movs	r2, #0
 2977 0122 83F84420 		strb	r2, [r3, #68]
 2978              	.L202:
 2979              		.loc 1 1777 9 discriminator 3
 2980 0126 3B6B     		ldr	r3, [r7, #48]
 2981 0128 93F84530 		ldrb	r3, [r3, #69]
 2982 012c 5BB2     		sxtb	r3, r3
 2983 012e B3F1FF3F 		cmp	r3, #-1
 2984 0132 03D1     		bne	.L203
 2985              		.loc 1 1777 9 discriminator 4
 2986 0134 3B6B     		ldr	r3, [r7, #48]
 2987 0136 0022     		movs	r2, #0
ARM GAS  /var/folders/kj/yzqgq53j3dg15vgwwwwgf5s00000gn/T//ccGgwidk.s 			page 89


 2988 0138 83F84520 		strb	r2, [r3, #69]
 2989              	.L203:
 2990              		.loc 1 1777 9 discriminator 6
 2991 013c FFF7FEFF 		bl	vPortExitCritical
1778:../../../../dependencies/freertos/FreeRTOSv10.4.1/FreeRTOS/Source/queue.c **** 
1779:../../../../dependencies/freertos/FreeRTOSv10.4.1/FreeRTOS/Source/queue.c ****         /* Update the timeout state to see if it has expired yet. */
1780:../../../../dependencies/freertos/FreeRTOSv10.4.1/FreeRTOS/Source/queue.c ****         if( xTaskCheckForTimeOut( &xTimeOut, &xTicksToWait ) == pdFALSE )
 2992              		.loc 1 1780 13 is_stmt 1 discriminator 6
 2993 0140 3A1D     		adds	r2, r7, #4
 2994 0142 07F11403 		add	r3, r7, #20
 2995 0146 1146     		mov	r1, r2
 2996 0148 1846     		mov	r0, r3
 2997 014a FFF7FEFF 		bl	xTaskCheckForTimeOut
 2998 014e 0346     		mov	r3, r0
 2999              		.loc 1 1780 11 discriminator 6
 3000 0150 002B     		cmp	r3, #0
 3001 0152 23D1     		bne	.L204
1781:../../../../dependencies/freertos/FreeRTOSv10.4.1/FreeRTOS/Source/queue.c ****         {
1782:../../../../dependencies/freertos/FreeRTOSv10.4.1/FreeRTOS/Source/queue.c ****             /* Timeout has not expired yet, check to see if there is data in the
1783:../../../../dependencies/freertos/FreeRTOSv10.4.1/FreeRTOS/Source/queue.c ****             * queue now, and if not enter the Blocked state to wait for data. */
1784:../../../../dependencies/freertos/FreeRTOSv10.4.1/FreeRTOS/Source/queue.c ****             if( prvIsQueueEmpty( pxQueue ) != pdFALSE )
 3002              		.loc 1 1784 17
 3003 0154 386B     		ldr	r0, [r7, #48]
 3004 0156 FFF7FEFF 		bl	prvIsQueueEmpty
 3005 015a 0346     		mov	r3, r0
 3006              		.loc 1 1784 15
 3007 015c 002B     		cmp	r3, #0
 3008 015e 17D0     		beq	.L205
1785:../../../../dependencies/freertos/FreeRTOSv10.4.1/FreeRTOS/Source/queue.c ****             {
1786:../../../../dependencies/freertos/FreeRTOSv10.4.1/FreeRTOS/Source/queue.c ****                 traceBLOCKING_ON_QUEUE_PEEK( pxQueue );
1787:../../../../dependencies/freertos/FreeRTOSv10.4.1/FreeRTOS/Source/queue.c ****                 vTaskPlaceOnEventList( &( pxQueue->xTasksWaitingToReceive ), xTicksToWait );
 3009              		.loc 1 1787 17
 3010 0160 3B6B     		ldr	r3, [r7, #48]
 3011 0162 2433     		adds	r3, r3, #36
 3012 0164 7A68     		ldr	r2, [r7, #4]
 3013 0166 1146     		mov	r1, r2
 3014 0168 1846     		mov	r0, r3
 3015 016a FFF7FEFF 		bl	vTaskPlaceOnEventList
1788:../../../../dependencies/freertos/FreeRTOSv10.4.1/FreeRTOS/Source/queue.c ****                 prvUnlockQueue( pxQueue );
 3016              		.loc 1 1788 17
 3017 016e 386B     		ldr	r0, [r7, #48]
 3018 0170 FFF7FEFF 		bl	prvUnlockQueue
1789:../../../../dependencies/freertos/FreeRTOSv10.4.1/FreeRTOS/Source/queue.c **** 
1790:../../../../dependencies/freertos/FreeRTOSv10.4.1/FreeRTOS/Source/queue.c ****                 if( xTaskResumeAll() == pdFALSE )
 3019              		.loc 1 1790 21
 3020 0174 FFF7FEFF 		bl	xTaskResumeAll
 3021 0178 0346     		mov	r3, r0
 3022              		.loc 1 1790 19
 3023 017a 002B     		cmp	r3, #0
 3024 017c 87D1     		bne	.L195
1791:../../../../dependencies/freertos/FreeRTOSv10.4.1/FreeRTOS/Source/queue.c ****                 {
1792:../../../../dependencies/freertos/FreeRTOSv10.4.1/FreeRTOS/Source/queue.c ****                     portYIELD_WITHIN_API();
 3025              		.loc 1 1792 21
 3026 017e 104B     		ldr	r3, .L208
 3027 0180 4FF08052 		mov	r2, #268435456
 3028 0184 1A60     		str	r2, [r3]
 3029              		.syntax unified
ARM GAS  /var/folders/kj/yzqgq53j3dg15vgwwwwgf5s00000gn/T//ccGgwidk.s 			page 90


 3030              	@ 1792 "../../../../dependencies/freertos/FreeRTOSv10.4.1/FreeRTOS/Source/queue.c" 1
 3031 0186 BFF34F8F 		dsb
 3032              	@ 0 "" 2
 3033              	@ 1792 "../../../../dependencies/freertos/FreeRTOSv10.4.1/FreeRTOS/Source/queue.c" 1
 3034 018a BFF36F8F 		isb
 3035              	@ 0 "" 2
 3036              		.thumb
 3037              		.syntax unified
 3038 018e 7EE7     		b	.L195
 3039              	.L205:
1793:../../../../dependencies/freertos/FreeRTOSv10.4.1/FreeRTOS/Source/queue.c ****                 }
1794:../../../../dependencies/freertos/FreeRTOSv10.4.1/FreeRTOS/Source/queue.c ****                 else
1795:../../../../dependencies/freertos/FreeRTOSv10.4.1/FreeRTOS/Source/queue.c ****                 {
1796:../../../../dependencies/freertos/FreeRTOSv10.4.1/FreeRTOS/Source/queue.c ****                     mtCOVERAGE_TEST_MARKER();
1797:../../../../dependencies/freertos/FreeRTOSv10.4.1/FreeRTOS/Source/queue.c ****                 }
1798:../../../../dependencies/freertos/FreeRTOSv10.4.1/FreeRTOS/Source/queue.c ****             }
1799:../../../../dependencies/freertos/FreeRTOSv10.4.1/FreeRTOS/Source/queue.c ****             else
1800:../../../../dependencies/freertos/FreeRTOSv10.4.1/FreeRTOS/Source/queue.c ****             {
1801:../../../../dependencies/freertos/FreeRTOSv10.4.1/FreeRTOS/Source/queue.c ****                 /* There is data in the queue now, so don't enter the blocked
1802:../../../../dependencies/freertos/FreeRTOSv10.4.1/FreeRTOS/Source/queue.c ****                  * state, instead return to try and obtain the data. */
1803:../../../../dependencies/freertos/FreeRTOSv10.4.1/FreeRTOS/Source/queue.c ****                 prvUnlockQueue( pxQueue );
 3040              		.loc 1 1803 17
 3041 0190 386B     		ldr	r0, [r7, #48]
 3042 0192 FFF7FEFF 		bl	prvUnlockQueue
1804:../../../../dependencies/freertos/FreeRTOSv10.4.1/FreeRTOS/Source/queue.c ****                 ( void ) xTaskResumeAll();
 3043              		.loc 1 1804 26
 3044 0196 FFF7FEFF 		bl	xTaskResumeAll
 3045 019a 78E7     		b	.L195
 3046              	.L204:
1805:../../../../dependencies/freertos/FreeRTOSv10.4.1/FreeRTOS/Source/queue.c ****             }
1806:../../../../dependencies/freertos/FreeRTOSv10.4.1/FreeRTOS/Source/queue.c ****         }
1807:../../../../dependencies/freertos/FreeRTOSv10.4.1/FreeRTOS/Source/queue.c ****         else
1808:../../../../dependencies/freertos/FreeRTOSv10.4.1/FreeRTOS/Source/queue.c ****         {
1809:../../../../dependencies/freertos/FreeRTOSv10.4.1/FreeRTOS/Source/queue.c ****             /* The timeout has expired.  If there is still no data in the queue
1810:../../../../dependencies/freertos/FreeRTOSv10.4.1/FreeRTOS/Source/queue.c ****              * exit, otherwise go back and try to read the data again. */
1811:../../../../dependencies/freertos/FreeRTOSv10.4.1/FreeRTOS/Source/queue.c ****             prvUnlockQueue( pxQueue );
 3047              		.loc 1 1811 13
 3048 019c 386B     		ldr	r0, [r7, #48]
 3049 019e FFF7FEFF 		bl	prvUnlockQueue
1812:../../../../dependencies/freertos/FreeRTOSv10.4.1/FreeRTOS/Source/queue.c ****             ( void ) xTaskResumeAll();
 3050              		.loc 1 1812 22
 3051 01a2 FFF7FEFF 		bl	xTaskResumeAll
1813:../../../../dependencies/freertos/FreeRTOSv10.4.1/FreeRTOS/Source/queue.c **** 
1814:../../../../dependencies/freertos/FreeRTOSv10.4.1/FreeRTOS/Source/queue.c ****             if( prvIsQueueEmpty( pxQueue ) != pdFALSE )
 3052              		.loc 1 1814 17
 3053 01a6 386B     		ldr	r0, [r7, #48]
 3054 01a8 FFF7FEFF 		bl	prvIsQueueEmpty
 3055 01ac 0346     		mov	r3, r0
 3056              		.loc 1 1814 15
 3057 01ae 002B     		cmp	r3, #0
 3058 01b0 3FF46DAF 		beq	.L195
1815:../../../../dependencies/freertos/FreeRTOSv10.4.1/FreeRTOS/Source/queue.c ****             {
1816:../../../../dependencies/freertos/FreeRTOSv10.4.1/FreeRTOS/Source/queue.c ****                 traceQUEUE_PEEK_FAILED( pxQueue );
1817:../../../../dependencies/freertos/FreeRTOSv10.4.1/FreeRTOS/Source/queue.c ****                 return errQUEUE_EMPTY;
 3059              		.loc 1 1817 24
 3060 01b4 0023     		movs	r3, #0
 3061              	.L207:
ARM GAS  /var/folders/kj/yzqgq53j3dg15vgwwwwgf5s00000gn/T//ccGgwidk.s 			page 91


1818:../../../../dependencies/freertos/FreeRTOSv10.4.1/FreeRTOS/Source/queue.c ****             }
1819:../../../../dependencies/freertos/FreeRTOSv10.4.1/FreeRTOS/Source/queue.c ****             else
1820:../../../../dependencies/freertos/FreeRTOSv10.4.1/FreeRTOS/Source/queue.c ****             {
1821:../../../../dependencies/freertos/FreeRTOSv10.4.1/FreeRTOS/Source/queue.c ****                 mtCOVERAGE_TEST_MARKER();
1822:../../../../dependencies/freertos/FreeRTOSv10.4.1/FreeRTOS/Source/queue.c ****             }
1823:../../../../dependencies/freertos/FreeRTOSv10.4.1/FreeRTOS/Source/queue.c ****         }
1824:../../../../dependencies/freertos/FreeRTOSv10.4.1/FreeRTOS/Source/queue.c ****     } /*lint -restore */
1825:../../../../dependencies/freertos/FreeRTOSv10.4.1/FreeRTOS/Source/queue.c **** }
 3062              		.loc 1 1825 1 discriminator 6
 3063 01b6 1846     		mov	r0, r3
 3064 01b8 3837     		adds	r7, r7, #56
 3065              	.LCFI79:
 3066              		.cfi_def_cfa_offset 8
 3067 01ba BD46     		mov	sp, r7
 3068              	.LCFI80:
 3069              		.cfi_def_cfa_register 13
 3070              		@ sp needed
 3071 01bc 80BD     		pop	{r7, pc}
 3072              	.L209:
 3073 01be 00BF     		.align	2
 3074              	.L208:
 3075 01c0 04ED00E0 		.word	-536810236
 3076              		.cfi_endproc
 3077              	.LFE20:
 3079              		.section	.text.xQueueReceiveFromISR,"ax",%progbits
 3080              		.align	1
 3081              		.global	xQueueReceiveFromISR
 3082              		.syntax unified
 3083              		.thumb
 3084              		.thumb_func
 3085              		.fpu fpv4-sp-d16
 3087              	xQueueReceiveFromISR:
 3088              	.LFB21:
1826:../../../../dependencies/freertos/FreeRTOSv10.4.1/FreeRTOS/Source/queue.c **** /*-----------------------------------------------------------*/
1827:../../../../dependencies/freertos/FreeRTOSv10.4.1/FreeRTOS/Source/queue.c **** 
1828:../../../../dependencies/freertos/FreeRTOSv10.4.1/FreeRTOS/Source/queue.c **** BaseType_t xQueueReceiveFromISR( QueueHandle_t xQueue,
1829:../../../../dependencies/freertos/FreeRTOSv10.4.1/FreeRTOS/Source/queue.c ****                                  void * const pvBuffer,
1830:../../../../dependencies/freertos/FreeRTOSv10.4.1/FreeRTOS/Source/queue.c ****                                  BaseType_t * const pxHigherPriorityTaskWoken )
1831:../../../../dependencies/freertos/FreeRTOSv10.4.1/FreeRTOS/Source/queue.c **** {
 3089              		.loc 1 1831 1
 3090              		.cfi_startproc
 3091              		@ args = 0, pretend = 0, frame = 64
 3092              		@ frame_needed = 1, uses_anonymous_args = 0
 3093 0000 80B5     		push	{r7, lr}
 3094              	.LCFI81:
 3095              		.cfi_def_cfa_offset 8
 3096              		.cfi_offset 7, -8
 3097              		.cfi_offset 14, -4
 3098 0002 90B0     		sub	sp, sp, #64
 3099              	.LCFI82:
 3100              		.cfi_def_cfa_offset 72
 3101 0004 00AF     		add	r7, sp, #0
 3102              	.LCFI83:
 3103              		.cfi_def_cfa_register 7
 3104 0006 F860     		str	r0, [r7, #12]
 3105 0008 B960     		str	r1, [r7, #8]
 3106 000a 7A60     		str	r2, [r7, #4]
ARM GAS  /var/folders/kj/yzqgq53j3dg15vgwwwwgf5s00000gn/T//ccGgwidk.s 			page 92


1832:../../../../dependencies/freertos/FreeRTOSv10.4.1/FreeRTOS/Source/queue.c ****     BaseType_t xReturn;
1833:../../../../dependencies/freertos/FreeRTOSv10.4.1/FreeRTOS/Source/queue.c ****     UBaseType_t uxSavedInterruptStatus;
1834:../../../../dependencies/freertos/FreeRTOSv10.4.1/FreeRTOS/Source/queue.c ****     Queue_t * const pxQueue = xQueue;
 3107              		.loc 1 1834 21
 3108 000c FB68     		ldr	r3, [r7, #12]
 3109 000e BB63     		str	r3, [r7, #56]
1835:../../../../dependencies/freertos/FreeRTOSv10.4.1/FreeRTOS/Source/queue.c **** 
1836:../../../../dependencies/freertos/FreeRTOSv10.4.1/FreeRTOS/Source/queue.c ****     configASSERT( pxQueue );
 3110              		.loc 1 1836 5
 3111 0010 BB6B     		ldr	r3, [r7, #56]
 3112 0012 002B     		cmp	r3, #0
 3113 0014 0AD1     		bne	.L211
 3114              	.LBB186:
 3115              	.LBB187:
 197:../../../../dependencies/freertos/FreeRTOSv10.4.1/FreeRTOS/Source/portable/GCC/ARM_CM4F/portmacro.h ****         (
 3116              		.loc 2 197 9
 3117              		.syntax unified
 3118              	@ 197 "../../../../dependencies/freertos/FreeRTOSv10.4.1/FreeRTOS/Source/portable/GCC/ARM_CM4F/port
 3119 0016 4FF05003 			mov r3, #80												
 3120 001a 83F31188 		msr basepri, r3											
 3121 001e BFF36F8F 		isb														
 3122 0022 BFF34F8F 		dsb														
 3123              	
 3124              	@ 0 "" 2
 3125              		.thumb
 3126              		.syntax unified
 3127 0026 BB62     		str	r3, [r7, #40]
 205:../../../../dependencies/freertos/FreeRTOSv10.4.1/FreeRTOS/Source/portable/GCC/ARM_CM4F/portmacro.h **** 
 3128              		.loc 2 205 5
 3129 0028 00BF     		nop
 3130              	.L212:
 3131              	.LBE187:
 3132              	.LBE186:
 3133              		.loc 1 1836 5 discriminator 1
 3134 002a FEE7     		b	.L212
 3135              	.L211:
1837:../../../../dependencies/freertos/FreeRTOSv10.4.1/FreeRTOS/Source/queue.c ****     configASSERT( !( ( pvBuffer == NULL ) && ( pxQueue->uxItemSize != ( UBaseType_t ) 0U ) ) );
 3136              		.loc 1 1837 5
 3137 002c BB68     		ldr	r3, [r7, #8]
 3138 002e 002B     		cmp	r3, #0
 3139 0030 03D1     		bne	.L213
 3140              		.loc 1 1837 5 is_stmt 0 discriminator 2
 3141 0032 BB6B     		ldr	r3, [r7, #56]
 3142 0034 1B6C     		ldr	r3, [r3, #64]
 3143 0036 002B     		cmp	r3, #0
 3144 0038 01D1     		bne	.L214
 3145              	.L213:
 3146              		.loc 1 1837 5 discriminator 3
 3147 003a 0123     		movs	r3, #1
 3148 003c 00E0     		b	.L215
 3149              	.L214:
 3150              		.loc 1 1837 5 discriminator 4
 3151 003e 0023     		movs	r3, #0
 3152              	.L215:
 3153              		.loc 1 1837 5 discriminator 6
 3154 0040 002B     		cmp	r3, #0
 3155 0042 0AD1     		bne	.L216
ARM GAS  /var/folders/kj/yzqgq53j3dg15vgwwwwgf5s00000gn/T//ccGgwidk.s 			page 93


 3156              	.LBB188:
 3157              	.LBB189:
 197:../../../../dependencies/freertos/FreeRTOSv10.4.1/FreeRTOS/Source/portable/GCC/ARM_CM4F/portmacro.h ****         (
 3158              		.loc 2 197 9 is_stmt 1
 3159              		.syntax unified
 3160              	@ 197 "../../../../dependencies/freertos/FreeRTOSv10.4.1/FreeRTOS/Source/portable/GCC/ARM_CM4F/port
 3161 0044 4FF05003 			mov r3, #80												
 3162 0048 83F31188 		msr basepri, r3											
 3163 004c BFF36F8F 		isb														
 3164 0050 BFF34F8F 		dsb														
 3165              	
 3166              	@ 0 "" 2
 3167              		.thumb
 3168              		.syntax unified
 3169 0054 7B62     		str	r3, [r7, #36]
 205:../../../../dependencies/freertos/FreeRTOSv10.4.1/FreeRTOS/Source/portable/GCC/ARM_CM4F/portmacro.h **** 
 3170              		.loc 2 205 5
 3171 0056 00BF     		nop
 3172              	.L217:
 3173              	.LBE189:
 3174              	.LBE188:
 3175              		.loc 1 1837 5 discriminator 2
 3176 0058 FEE7     		b	.L217
 3177              	.L216:
1838:../../../../dependencies/freertos/FreeRTOSv10.4.1/FreeRTOS/Source/queue.c **** 
1839:../../../../dependencies/freertos/FreeRTOSv10.4.1/FreeRTOS/Source/queue.c ****     /* RTOS ports that support interrupt nesting have the concept of a maximum
1840:../../../../dependencies/freertos/FreeRTOSv10.4.1/FreeRTOS/Source/queue.c ****      * system call (or maximum API call) interrupt priority.  Interrupts that are
1841:../../../../dependencies/freertos/FreeRTOSv10.4.1/FreeRTOS/Source/queue.c ****      * above the maximum system call priority are kept permanently enabled, even
1842:../../../../dependencies/freertos/FreeRTOSv10.4.1/FreeRTOS/Source/queue.c ****      * when the RTOS kernel is in a critical section, but cannot make any calls to
1843:../../../../dependencies/freertos/FreeRTOSv10.4.1/FreeRTOS/Source/queue.c ****      * FreeRTOS API functions.  If configASSERT() is defined in FreeRTOSConfig.h
1844:../../../../dependencies/freertos/FreeRTOSv10.4.1/FreeRTOS/Source/queue.c ****      * then portASSERT_IF_INTERRUPT_PRIORITY_INVALID() will result in an assertion
1845:../../../../dependencies/freertos/FreeRTOSv10.4.1/FreeRTOS/Source/queue.c ****      * failure if a FreeRTOS API function is called from an interrupt that has been
1846:../../../../dependencies/freertos/FreeRTOSv10.4.1/FreeRTOS/Source/queue.c ****      * assigned a priority above the configured maximum system call priority.
1847:../../../../dependencies/freertos/FreeRTOSv10.4.1/FreeRTOS/Source/queue.c ****      * Only FreeRTOS functions that end in FromISR can be called from interrupts
1848:../../../../dependencies/freertos/FreeRTOSv10.4.1/FreeRTOS/Source/queue.c ****      * that have been assigned a priority at or (logically) below the maximum
1849:../../../../dependencies/freertos/FreeRTOSv10.4.1/FreeRTOS/Source/queue.c ****      * system call interrupt priority.  FreeRTOS maintains a separate interrupt
1850:../../../../dependencies/freertos/FreeRTOSv10.4.1/FreeRTOS/Source/queue.c ****      * safe API to ensure interrupt entry is as fast and as simple as possible.
1851:../../../../dependencies/freertos/FreeRTOSv10.4.1/FreeRTOS/Source/queue.c ****      * More information (albeit Cortex-M specific) is provided on the following
1852:../../../../dependencies/freertos/FreeRTOSv10.4.1/FreeRTOS/Source/queue.c ****      * link: https://www.FreeRTOS.org/RTOS-Cortex-M3-M4.html */
1853:../../../../dependencies/freertos/FreeRTOSv10.4.1/FreeRTOS/Source/queue.c ****     portASSERT_IF_INTERRUPT_PRIORITY_INVALID();
 3178              		.loc 1 1853 5
 3179 005a FFF7FEFF 		bl	vPortValidateInterruptPriority
 3180              	.LBB190:
 3181              	.LBB191:
 213:../../../../dependencies/freertos/FreeRTOSv10.4.1/FreeRTOS/Source/portable/GCC/ARM_CM4F/portmacro.h ****         (
 3182              		.loc 2 213 9
 3183              		.syntax unified
 3184              	@ 213 "../../../../dependencies/freertos/FreeRTOSv10.4.1/FreeRTOS/Source/portable/GCC/ARM_CM4F/port
 3185 005e EFF31182 			mrs r2, basepri											
 3186 0062 4FF05003 		mov r3, #80												
 3187 0066 83F31188 		msr basepri, r3											
 3188 006a BFF36F8F 		isb														
 3189 006e BFF34F8F 		dsb														
 3190              	
 3191              	@ 0 "" 2
 3192              		.thumb
 3193              		.syntax unified
ARM GAS  /var/folders/kj/yzqgq53j3dg15vgwwwwgf5s00000gn/T//ccGgwidk.s 			page 94


 3194 0072 3A62     		str	r2, [r7, #32]
 3195 0074 FB61     		str	r3, [r7, #28]
 225:../../../../dependencies/freertos/FreeRTOSv10.4.1/FreeRTOS/Source/portable/GCC/ARM_CM4F/portmacro.h ****     }
 3196              		.loc 2 225 16
 3197 0076 3B6A     		ldr	r3, [r7, #32]
 3198              	.LBE191:
 3199              	.LBE190:
1854:../../../../dependencies/freertos/FreeRTOSv10.4.1/FreeRTOS/Source/queue.c **** 
1855:../../../../dependencies/freertos/FreeRTOSv10.4.1/FreeRTOS/Source/queue.c ****     uxSavedInterruptStatus = portSET_INTERRUPT_MASK_FROM_ISR();
 3200              		.loc 1 1855 30
 3201 0078 7B63     		str	r3, [r7, #52]
 3202              	.LBB192:
1856:../../../../dependencies/freertos/FreeRTOSv10.4.1/FreeRTOS/Source/queue.c ****     {
1857:../../../../dependencies/freertos/FreeRTOSv10.4.1/FreeRTOS/Source/queue.c ****         const UBaseType_t uxMessagesWaiting = pxQueue->uxMessagesWaiting;
 3203              		.loc 1 1857 27
 3204 007a BB6B     		ldr	r3, [r7, #56]
 3205 007c 9B6B     		ldr	r3, [r3, #56]
 3206 007e 3B63     		str	r3, [r7, #48]
1858:../../../../dependencies/freertos/FreeRTOSv10.4.1/FreeRTOS/Source/queue.c **** 
1859:../../../../dependencies/freertos/FreeRTOSv10.4.1/FreeRTOS/Source/queue.c ****         /* Cannot block in an ISR, so check there is data available. */
1860:../../../../dependencies/freertos/FreeRTOSv10.4.1/FreeRTOS/Source/queue.c ****         if( uxMessagesWaiting > ( UBaseType_t ) 0 )
 3207              		.loc 1 1860 11
 3208 0080 3B6B     		ldr	r3, [r7, #48]
 3209 0082 002B     		cmp	r3, #0
 3210 0084 3ED0     		beq	.L219
 3211              	.LBB193:
1861:../../../../dependencies/freertos/FreeRTOSv10.4.1/FreeRTOS/Source/queue.c ****         {
1862:../../../../dependencies/freertos/FreeRTOSv10.4.1/FreeRTOS/Source/queue.c ****             const int8_t cRxLock = pxQueue->cRxLock;
 3212              		.loc 1 1862 26
 3213 0086 BB6B     		ldr	r3, [r7, #56]
 3214 0088 93F84430 		ldrb	r3, [r3, #68]
 3215 008c 87F82F30 		strb	r3, [r7, #47]
1863:../../../../dependencies/freertos/FreeRTOSv10.4.1/FreeRTOS/Source/queue.c **** 
1864:../../../../dependencies/freertos/FreeRTOSv10.4.1/FreeRTOS/Source/queue.c ****             traceQUEUE_RECEIVE_FROM_ISR( pxQueue );
1865:../../../../dependencies/freertos/FreeRTOSv10.4.1/FreeRTOS/Source/queue.c **** 
1866:../../../../dependencies/freertos/FreeRTOSv10.4.1/FreeRTOS/Source/queue.c ****             prvCopyDataFromQueue( pxQueue, pvBuffer );
 3216              		.loc 1 1866 13
 3217 0090 B968     		ldr	r1, [r7, #8]
 3218 0092 B86B     		ldr	r0, [r7, #56]
 3219 0094 FFF7FEFF 		bl	prvCopyDataFromQueue
1867:../../../../dependencies/freertos/FreeRTOSv10.4.1/FreeRTOS/Source/queue.c ****             pxQueue->uxMessagesWaiting = uxMessagesWaiting - ( UBaseType_t ) 1;
 3220              		.loc 1 1867 60
 3221 0098 3B6B     		ldr	r3, [r7, #48]
 3222 009a 5A1E     		subs	r2, r3, #1
 3223              		.loc 1 1867 40
 3224 009c BB6B     		ldr	r3, [r7, #56]
 3225 009e 9A63     		str	r2, [r3, #56]
1868:../../../../dependencies/freertos/FreeRTOSv10.4.1/FreeRTOS/Source/queue.c **** 
1869:../../../../dependencies/freertos/FreeRTOSv10.4.1/FreeRTOS/Source/queue.c ****             /* If the queue is locked the event list will not be modified.
1870:../../../../dependencies/freertos/FreeRTOSv10.4.1/FreeRTOS/Source/queue.c ****              * Instead update the lock count so the task that unlocks the queue
1871:../../../../dependencies/freertos/FreeRTOSv10.4.1/FreeRTOS/Source/queue.c ****              * will know that an ISR has removed data while the queue was
1872:../../../../dependencies/freertos/FreeRTOSv10.4.1/FreeRTOS/Source/queue.c ****              * locked. */
1873:../../../../dependencies/freertos/FreeRTOSv10.4.1/FreeRTOS/Source/queue.c ****             if( cRxLock == queueUNLOCKED )
 3226              		.loc 1 1873 15
 3227 00a0 97F92F30 		ldrsb	r3, [r7, #47]
 3228 00a4 B3F1FF3F 		cmp	r3, #-1
 3229 00a8 12D1     		bne	.L220
ARM GAS  /var/folders/kj/yzqgq53j3dg15vgwwwwgf5s00000gn/T//ccGgwidk.s 			page 95


1874:../../../../dependencies/freertos/FreeRTOSv10.4.1/FreeRTOS/Source/queue.c ****             {
1875:../../../../dependencies/freertos/FreeRTOSv10.4.1/FreeRTOS/Source/queue.c ****                 if( listLIST_IS_EMPTY( &( pxQueue->xTasksWaitingToSend ) ) == pdFALSE )
 3230              		.loc 1 1875 21
 3231 00aa BB6B     		ldr	r3, [r7, #56]
 3232 00ac 1B69     		ldr	r3, [r3, #16]
 3233              		.loc 1 1875 19
 3234 00ae 002B     		cmp	r3, #0
 3235 00b0 25D0     		beq	.L221
1876:../../../../dependencies/freertos/FreeRTOSv10.4.1/FreeRTOS/Source/queue.c ****                 {
1877:../../../../dependencies/freertos/FreeRTOSv10.4.1/FreeRTOS/Source/queue.c ****                     if( xTaskRemoveFromEventList( &( pxQueue->xTasksWaitingToSend ) ) != pdFALSE )
 3236              		.loc 1 1877 51
 3237 00b2 BB6B     		ldr	r3, [r7, #56]
 3238 00b4 1033     		adds	r3, r3, #16
 3239              		.loc 1 1877 25
 3240 00b6 1846     		mov	r0, r3
 3241 00b8 FFF7FEFF 		bl	xTaskRemoveFromEventList
 3242 00bc 0346     		mov	r3, r0
 3243              		.loc 1 1877 23
 3244 00be 002B     		cmp	r3, #0
 3245 00c0 1DD0     		beq	.L221
1878:../../../../dependencies/freertos/FreeRTOSv10.4.1/FreeRTOS/Source/queue.c ****                     {
1879:../../../../dependencies/freertos/FreeRTOSv10.4.1/FreeRTOS/Source/queue.c ****                         /* The task waiting has a higher priority than us so
1880:../../../../dependencies/freertos/FreeRTOSv10.4.1/FreeRTOS/Source/queue.c ****                          * force a context switch. */
1881:../../../../dependencies/freertos/FreeRTOSv10.4.1/FreeRTOS/Source/queue.c ****                         if( pxHigherPriorityTaskWoken != NULL )
 3246              		.loc 1 1881 27
 3247 00c2 7B68     		ldr	r3, [r7, #4]
 3248 00c4 002B     		cmp	r3, #0
 3249 00c6 1AD0     		beq	.L221
1882:../../../../dependencies/freertos/FreeRTOSv10.4.1/FreeRTOS/Source/queue.c ****                         {
1883:../../../../dependencies/freertos/FreeRTOSv10.4.1/FreeRTOS/Source/queue.c ****                             *pxHigherPriorityTaskWoken = pdTRUE;
 3250              		.loc 1 1883 56
 3251 00c8 7B68     		ldr	r3, [r7, #4]
 3252 00ca 0122     		movs	r2, #1
 3253 00cc 1A60     		str	r2, [r3]
 3254 00ce 16E0     		b	.L221
 3255              	.L220:
1884:../../../../dependencies/freertos/FreeRTOSv10.4.1/FreeRTOS/Source/queue.c ****                         }
1885:../../../../dependencies/freertos/FreeRTOSv10.4.1/FreeRTOS/Source/queue.c ****                         else
1886:../../../../dependencies/freertos/FreeRTOSv10.4.1/FreeRTOS/Source/queue.c ****                         {
1887:../../../../dependencies/freertos/FreeRTOSv10.4.1/FreeRTOS/Source/queue.c ****                             mtCOVERAGE_TEST_MARKER();
1888:../../../../dependencies/freertos/FreeRTOSv10.4.1/FreeRTOS/Source/queue.c ****                         }
1889:../../../../dependencies/freertos/FreeRTOSv10.4.1/FreeRTOS/Source/queue.c ****                     }
1890:../../../../dependencies/freertos/FreeRTOSv10.4.1/FreeRTOS/Source/queue.c ****                     else
1891:../../../../dependencies/freertos/FreeRTOSv10.4.1/FreeRTOS/Source/queue.c ****                     {
1892:../../../../dependencies/freertos/FreeRTOSv10.4.1/FreeRTOS/Source/queue.c ****                         mtCOVERAGE_TEST_MARKER();
1893:../../../../dependencies/freertos/FreeRTOSv10.4.1/FreeRTOS/Source/queue.c ****                     }
1894:../../../../dependencies/freertos/FreeRTOSv10.4.1/FreeRTOS/Source/queue.c ****                 }
1895:../../../../dependencies/freertos/FreeRTOSv10.4.1/FreeRTOS/Source/queue.c ****                 else
1896:../../../../dependencies/freertos/FreeRTOSv10.4.1/FreeRTOS/Source/queue.c ****                 {
1897:../../../../dependencies/freertos/FreeRTOSv10.4.1/FreeRTOS/Source/queue.c ****                     mtCOVERAGE_TEST_MARKER();
1898:../../../../dependencies/freertos/FreeRTOSv10.4.1/FreeRTOS/Source/queue.c ****                 }
1899:../../../../dependencies/freertos/FreeRTOSv10.4.1/FreeRTOS/Source/queue.c ****             }
1900:../../../../dependencies/freertos/FreeRTOSv10.4.1/FreeRTOS/Source/queue.c ****             else
1901:../../../../dependencies/freertos/FreeRTOSv10.4.1/FreeRTOS/Source/queue.c ****             {
1902:../../../../dependencies/freertos/FreeRTOSv10.4.1/FreeRTOS/Source/queue.c ****                 /* Increment the lock count so the task that unlocks the queue
1903:../../../../dependencies/freertos/FreeRTOSv10.4.1/FreeRTOS/Source/queue.c ****                  * knows that data was removed while it was locked. */
1904:../../../../dependencies/freertos/FreeRTOSv10.4.1/FreeRTOS/Source/queue.c ****                 configASSERT( cRxLock != queueINT8_MAX );
ARM GAS  /var/folders/kj/yzqgq53j3dg15vgwwwwgf5s00000gn/T//ccGgwidk.s 			page 96


 3256              		.loc 1 1904 17
 3257 00d0 97F92F30 		ldrsb	r3, [r7, #47]
 3258 00d4 7F2B     		cmp	r3, #127
 3259 00d6 0AD1     		bne	.L222
 3260              	.LBB194:
 3261              	.LBB195:
 197:../../../../dependencies/freertos/FreeRTOSv10.4.1/FreeRTOS/Source/portable/GCC/ARM_CM4F/portmacro.h ****         (
 3262              		.loc 2 197 9
 3263              		.syntax unified
 3264              	@ 197 "../../../../dependencies/freertos/FreeRTOSv10.4.1/FreeRTOS/Source/portable/GCC/ARM_CM4F/port
 3265 00d8 4FF05003 			mov r3, #80												
 3266 00dc 83F31188 		msr basepri, r3											
 3267 00e0 BFF36F8F 		isb														
 3268 00e4 BFF34F8F 		dsb														
 3269              	
 3270              	@ 0 "" 2
 3271              		.thumb
 3272              		.syntax unified
 3273 00e8 BB61     		str	r3, [r7, #24]
 205:../../../../dependencies/freertos/FreeRTOSv10.4.1/FreeRTOS/Source/portable/GCC/ARM_CM4F/portmacro.h **** 
 3274              		.loc 2 205 5
 3275 00ea 00BF     		nop
 3276              	.L223:
 3277              	.LBE195:
 3278              	.LBE194:
 3279              		.loc 1 1904 17 discriminator 5
 3280 00ec FEE7     		b	.L223
 3281              	.L222:
1905:../../../../dependencies/freertos/FreeRTOSv10.4.1/FreeRTOS/Source/queue.c **** 
1906:../../../../dependencies/freertos/FreeRTOSv10.4.1/FreeRTOS/Source/queue.c ****                 pxQueue->cRxLock = ( int8_t ) ( cRxLock + 1 );
 3282              		.loc 1 1906 57
 3283 00ee 97F82F30 		ldrb	r3, [r7, #47]	@ zero_extendqisi2
 3284 00f2 0133     		adds	r3, r3, #1
 3285 00f4 DBB2     		uxtb	r3, r3
 3286              		.loc 1 1906 36
 3287 00f6 5AB2     		sxtb	r2, r3
 3288              		.loc 1 1906 34
 3289 00f8 BB6B     		ldr	r3, [r7, #56]
 3290 00fa 83F84420 		strb	r2, [r3, #68]
 3291              	.L221:
1907:../../../../dependencies/freertos/FreeRTOSv10.4.1/FreeRTOS/Source/queue.c ****             }
1908:../../../../dependencies/freertos/FreeRTOSv10.4.1/FreeRTOS/Source/queue.c **** 
1909:../../../../dependencies/freertos/FreeRTOSv10.4.1/FreeRTOS/Source/queue.c ****             xReturn = pdPASS;
 3292              		.loc 1 1909 21
 3293 00fe 0123     		movs	r3, #1
 3294 0100 FB63     		str	r3, [r7, #60]
 3295              	.LBE193:
 3296 0102 01E0     		b	.L224
 3297              	.L219:
1910:../../../../dependencies/freertos/FreeRTOSv10.4.1/FreeRTOS/Source/queue.c ****         }
1911:../../../../dependencies/freertos/FreeRTOSv10.4.1/FreeRTOS/Source/queue.c ****         else
1912:../../../../dependencies/freertos/FreeRTOSv10.4.1/FreeRTOS/Source/queue.c ****         {
1913:../../../../dependencies/freertos/FreeRTOSv10.4.1/FreeRTOS/Source/queue.c ****             xReturn = pdFAIL;
 3298              		.loc 1 1913 21
 3299 0104 0023     		movs	r3, #0
 3300 0106 FB63     		str	r3, [r7, #60]
 3301              	.L224:
ARM GAS  /var/folders/kj/yzqgq53j3dg15vgwwwwgf5s00000gn/T//ccGgwidk.s 			page 97


 3302 0108 7B6B     		ldr	r3, [r7, #52]
 3303 010a 7B61     		str	r3, [r7, #20]
 3304              	.LBE192:
 3305              	.LBB196:
 3306              	.LBB197:
 231:../../../../dependencies/freertos/FreeRTOSv10.4.1/FreeRTOS/Source/portable/GCC/ARM_CM4F/portmacro.h ****         (
 3307              		.loc 2 231 9
 3308 010c 7B69     		ldr	r3, [r7, #20]
 3309              		.syntax unified
 3310              	@ 231 "../../../../dependencies/freertos/FreeRTOSv10.4.1/FreeRTOS/Source/portable/GCC/ARM_CM4F/port
 3311 010e 83F31188 			msr basepri, r3	
 3312              	@ 0 "" 2
 3313              		.loc 2 235 5
 3314              		.thumb
 3315              		.syntax unified
 3316 0112 00BF     		nop
 3317              	.LBE197:
 3318              	.LBE196:
1914:../../../../dependencies/freertos/FreeRTOSv10.4.1/FreeRTOS/Source/queue.c ****             traceQUEUE_RECEIVE_FROM_ISR_FAILED( pxQueue );
1915:../../../../dependencies/freertos/FreeRTOSv10.4.1/FreeRTOS/Source/queue.c ****         }
1916:../../../../dependencies/freertos/FreeRTOSv10.4.1/FreeRTOS/Source/queue.c ****     }
1917:../../../../dependencies/freertos/FreeRTOSv10.4.1/FreeRTOS/Source/queue.c ****     portCLEAR_INTERRUPT_MASK_FROM_ISR( uxSavedInterruptStatus );
1918:../../../../dependencies/freertos/FreeRTOSv10.4.1/FreeRTOS/Source/queue.c **** 
1919:../../../../dependencies/freertos/FreeRTOSv10.4.1/FreeRTOS/Source/queue.c ****     return xReturn;
 3319              		.loc 1 1919 12
 3320 0114 FB6B     		ldr	r3, [r7, #60]
1920:../../../../dependencies/freertos/FreeRTOSv10.4.1/FreeRTOS/Source/queue.c **** }
 3321              		.loc 1 1920 1
 3322 0116 1846     		mov	r0, r3
 3323 0118 4037     		adds	r7, r7, #64
 3324              	.LCFI84:
 3325              		.cfi_def_cfa_offset 8
 3326 011a BD46     		mov	sp, r7
 3327              	.LCFI85:
 3328              		.cfi_def_cfa_register 13
 3329              		@ sp needed
 3330 011c 80BD     		pop	{r7, pc}
 3331              		.cfi_endproc
 3332              	.LFE21:
 3334              		.section	.text.xQueuePeekFromISR,"ax",%progbits
 3335              		.align	1
 3336              		.global	xQueuePeekFromISR
 3337              		.syntax unified
 3338              		.thumb
 3339              		.thumb_func
 3340              		.fpu fpv4-sp-d16
 3342              	xQueuePeekFromISR:
 3343              	.LFB22:
1921:../../../../dependencies/freertos/FreeRTOSv10.4.1/FreeRTOS/Source/queue.c **** /*-----------------------------------------------------------*/
1922:../../../../dependencies/freertos/FreeRTOSv10.4.1/FreeRTOS/Source/queue.c **** 
1923:../../../../dependencies/freertos/FreeRTOSv10.4.1/FreeRTOS/Source/queue.c **** BaseType_t xQueuePeekFromISR( QueueHandle_t xQueue,
1924:../../../../dependencies/freertos/FreeRTOSv10.4.1/FreeRTOS/Source/queue.c ****                               void * const pvBuffer )
1925:../../../../dependencies/freertos/FreeRTOSv10.4.1/FreeRTOS/Source/queue.c **** {
 3344              		.loc 1 1925 1
 3345              		.cfi_startproc
 3346              		@ args = 0, pretend = 0, frame = 48
 3347              		@ frame_needed = 1, uses_anonymous_args = 0
ARM GAS  /var/folders/kj/yzqgq53j3dg15vgwwwwgf5s00000gn/T//ccGgwidk.s 			page 98


 3348 0000 80B5     		push	{r7, lr}
 3349              	.LCFI86:
 3350              		.cfi_def_cfa_offset 8
 3351              		.cfi_offset 7, -8
 3352              		.cfi_offset 14, -4
 3353 0002 8CB0     		sub	sp, sp, #48
 3354              	.LCFI87:
 3355              		.cfi_def_cfa_offset 56
 3356 0004 00AF     		add	r7, sp, #0
 3357              	.LCFI88:
 3358              		.cfi_def_cfa_register 7
 3359 0006 7860     		str	r0, [r7, #4]
 3360 0008 3960     		str	r1, [r7]
1926:../../../../dependencies/freertos/FreeRTOSv10.4.1/FreeRTOS/Source/queue.c ****     BaseType_t xReturn;
1927:../../../../dependencies/freertos/FreeRTOSv10.4.1/FreeRTOS/Source/queue.c ****     UBaseType_t uxSavedInterruptStatus;
1928:../../../../dependencies/freertos/FreeRTOSv10.4.1/FreeRTOS/Source/queue.c ****     int8_t * pcOriginalReadPosition;
1929:../../../../dependencies/freertos/FreeRTOSv10.4.1/FreeRTOS/Source/queue.c ****     Queue_t * const pxQueue = xQueue;
 3361              		.loc 1 1929 21
 3362 000a 7B68     		ldr	r3, [r7, #4]
 3363 000c BB62     		str	r3, [r7, #40]
1930:../../../../dependencies/freertos/FreeRTOSv10.4.1/FreeRTOS/Source/queue.c **** 
1931:../../../../dependencies/freertos/FreeRTOSv10.4.1/FreeRTOS/Source/queue.c ****     configASSERT( pxQueue );
 3364              		.loc 1 1931 5
 3365 000e BB6A     		ldr	r3, [r7, #40]
 3366 0010 002B     		cmp	r3, #0
 3367 0012 0AD1     		bne	.L227
 3368              	.LBB198:
 3369              	.LBB199:
 197:../../../../dependencies/freertos/FreeRTOSv10.4.1/FreeRTOS/Source/portable/GCC/ARM_CM4F/portmacro.h ****         (
 3370              		.loc 2 197 9
 3371              		.syntax unified
 3372              	@ 197 "../../../../dependencies/freertos/FreeRTOSv10.4.1/FreeRTOS/Source/portable/GCC/ARM_CM4F/port
 3373 0014 4FF05003 			mov r3, #80												
 3374 0018 83F31188 		msr basepri, r3											
 3375 001c BFF36F8F 		isb														
 3376 0020 BFF34F8F 		dsb														
 3377              	
 3378              	@ 0 "" 2
 3379              		.thumb
 3380              		.syntax unified
 3381 0024 FB61     		str	r3, [r7, #28]
 205:../../../../dependencies/freertos/FreeRTOSv10.4.1/FreeRTOS/Source/portable/GCC/ARM_CM4F/portmacro.h **** 
 3382              		.loc 2 205 5
 3383 0026 00BF     		nop
 3384              	.L228:
 3385              	.LBE199:
 3386              	.LBE198:
 3387              		.loc 1 1931 5 discriminator 1
 3388 0028 FEE7     		b	.L228
 3389              	.L227:
1932:../../../../dependencies/freertos/FreeRTOSv10.4.1/FreeRTOS/Source/queue.c ****     configASSERT( !( ( pvBuffer == NULL ) && ( pxQueue->uxItemSize != ( UBaseType_t ) 0U ) ) );
 3390              		.loc 1 1932 5
 3391 002a 3B68     		ldr	r3, [r7]
 3392 002c 002B     		cmp	r3, #0
 3393 002e 03D1     		bne	.L229
 3394              		.loc 1 1932 5 is_stmt 0 discriminator 2
 3395 0030 BB6A     		ldr	r3, [r7, #40]
ARM GAS  /var/folders/kj/yzqgq53j3dg15vgwwwwgf5s00000gn/T//ccGgwidk.s 			page 99


 3396 0032 1B6C     		ldr	r3, [r3, #64]
 3397 0034 002B     		cmp	r3, #0
 3398 0036 01D1     		bne	.L230
 3399              	.L229:
 3400              		.loc 1 1932 5 discriminator 3
 3401 0038 0123     		movs	r3, #1
 3402 003a 00E0     		b	.L231
 3403              	.L230:
 3404              		.loc 1 1932 5 discriminator 4
 3405 003c 0023     		movs	r3, #0
 3406              	.L231:
 3407              		.loc 1 1932 5 discriminator 6
 3408 003e 002B     		cmp	r3, #0
 3409 0040 0AD1     		bne	.L232
 3410              	.LBB200:
 3411              	.LBB201:
 197:../../../../dependencies/freertos/FreeRTOSv10.4.1/FreeRTOS/Source/portable/GCC/ARM_CM4F/portmacro.h ****         (
 3412              		.loc 2 197 9 is_stmt 1
 3413              		.syntax unified
 3414              	@ 197 "../../../../dependencies/freertos/FreeRTOSv10.4.1/FreeRTOS/Source/portable/GCC/ARM_CM4F/port
 3415 0042 4FF05003 			mov r3, #80												
 3416 0046 83F31188 		msr basepri, r3											
 3417 004a BFF36F8F 		isb														
 3418 004e BFF34F8F 		dsb														
 3419              	
 3420              	@ 0 "" 2
 3421              		.thumb
 3422              		.syntax unified
 3423 0052 BB61     		str	r3, [r7, #24]
 205:../../../../dependencies/freertos/FreeRTOSv10.4.1/FreeRTOS/Source/portable/GCC/ARM_CM4F/portmacro.h **** 
 3424              		.loc 2 205 5
 3425 0054 00BF     		nop
 3426              	.L233:
 3427              	.LBE201:
 3428              	.LBE200:
 3429              		.loc 1 1932 5 discriminator 2
 3430 0056 FEE7     		b	.L233
 3431              	.L232:
1933:../../../../dependencies/freertos/FreeRTOSv10.4.1/FreeRTOS/Source/queue.c ****     configASSERT( pxQueue->uxItemSize != 0 ); /* Can't peek a semaphore. */
 3432              		.loc 1 1933 5
 3433 0058 BB6A     		ldr	r3, [r7, #40]
 3434 005a 1B6C     		ldr	r3, [r3, #64]
 3435 005c 002B     		cmp	r3, #0
 3436 005e 0AD1     		bne	.L234
 3437              	.LBB202:
 3438              	.LBB203:
 197:../../../../dependencies/freertos/FreeRTOSv10.4.1/FreeRTOS/Source/portable/GCC/ARM_CM4F/portmacro.h ****         (
 3439              		.loc 2 197 9
 3440              		.syntax unified
 3441              	@ 197 "../../../../dependencies/freertos/FreeRTOSv10.4.1/FreeRTOS/Source/portable/GCC/ARM_CM4F/port
 3442 0060 4FF05003 			mov r3, #80												
 3443 0064 83F31188 		msr basepri, r3											
 3444 0068 BFF36F8F 		isb														
 3445 006c BFF34F8F 		dsb														
 3446              	
 3447              	@ 0 "" 2
 3448              		.thumb
ARM GAS  /var/folders/kj/yzqgq53j3dg15vgwwwwgf5s00000gn/T//ccGgwidk.s 			page 100


 3449              		.syntax unified
 3450 0070 7B61     		str	r3, [r7, #20]
 205:../../../../dependencies/freertos/FreeRTOSv10.4.1/FreeRTOS/Source/portable/GCC/ARM_CM4F/portmacro.h **** 
 3451              		.loc 2 205 5
 3452 0072 00BF     		nop
 3453              	.L235:
 3454              	.LBE203:
 3455              	.LBE202:
 3456              		.loc 1 1933 5 discriminator 3
 3457 0074 FEE7     		b	.L235
 3458              	.L234:
1934:../../../../dependencies/freertos/FreeRTOSv10.4.1/FreeRTOS/Source/queue.c **** 
1935:../../../../dependencies/freertos/FreeRTOSv10.4.1/FreeRTOS/Source/queue.c ****     /* RTOS ports that support interrupt nesting have the concept of a maximum
1936:../../../../dependencies/freertos/FreeRTOSv10.4.1/FreeRTOS/Source/queue.c ****      * system call (or maximum API call) interrupt priority.  Interrupts that are
1937:../../../../dependencies/freertos/FreeRTOSv10.4.1/FreeRTOS/Source/queue.c ****      * above the maximum system call priority are kept permanently enabled, even
1938:../../../../dependencies/freertos/FreeRTOSv10.4.1/FreeRTOS/Source/queue.c ****      * when the RTOS kernel is in a critical section, but cannot make any calls to
1939:../../../../dependencies/freertos/FreeRTOSv10.4.1/FreeRTOS/Source/queue.c ****      * FreeRTOS API functions.  If configASSERT() is defined in FreeRTOSConfig.h
1940:../../../../dependencies/freertos/FreeRTOSv10.4.1/FreeRTOS/Source/queue.c ****      * then portASSERT_IF_INTERRUPT_PRIORITY_INVALID() will result in an assertion
1941:../../../../dependencies/freertos/FreeRTOSv10.4.1/FreeRTOS/Source/queue.c ****      * failure if a FreeRTOS API function is called from an interrupt that has been
1942:../../../../dependencies/freertos/FreeRTOSv10.4.1/FreeRTOS/Source/queue.c ****      * assigned a priority above the configured maximum system call priority.
1943:../../../../dependencies/freertos/FreeRTOSv10.4.1/FreeRTOS/Source/queue.c ****      * Only FreeRTOS functions that end in FromISR can be called from interrupts
1944:../../../../dependencies/freertos/FreeRTOSv10.4.1/FreeRTOS/Source/queue.c ****      * that have been assigned a priority at or (logically) below the maximum
1945:../../../../dependencies/freertos/FreeRTOSv10.4.1/FreeRTOS/Source/queue.c ****      * system call interrupt priority.  FreeRTOS maintains a separate interrupt
1946:../../../../dependencies/freertos/FreeRTOSv10.4.1/FreeRTOS/Source/queue.c ****      * safe API to ensure interrupt entry is as fast and as simple as possible.
1947:../../../../dependencies/freertos/FreeRTOSv10.4.1/FreeRTOS/Source/queue.c ****      * More information (albeit Cortex-M specific) is provided on the following
1948:../../../../dependencies/freertos/FreeRTOSv10.4.1/FreeRTOS/Source/queue.c ****      * link: https://www.FreeRTOS.org/RTOS-Cortex-M3-M4.html */
1949:../../../../dependencies/freertos/FreeRTOSv10.4.1/FreeRTOS/Source/queue.c ****     portASSERT_IF_INTERRUPT_PRIORITY_INVALID();
 3459              		.loc 1 1949 5
 3460 0076 FFF7FEFF 		bl	vPortValidateInterruptPriority
 3461              	.LBB204:
 3462              	.LBB205:
 213:../../../../dependencies/freertos/FreeRTOSv10.4.1/FreeRTOS/Source/portable/GCC/ARM_CM4F/portmacro.h ****         (
 3463              		.loc 2 213 9
 3464              		.syntax unified
 3465              	@ 213 "../../../../dependencies/freertos/FreeRTOSv10.4.1/FreeRTOS/Source/portable/GCC/ARM_CM4F/port
 3466 007a EFF31182 			mrs r2, basepri											
 3467 007e 4FF05003 		mov r3, #80												
 3468 0082 83F31188 		msr basepri, r3											
 3469 0086 BFF36F8F 		isb														
 3470 008a BFF34F8F 		dsb														
 3471              	
 3472              	@ 0 "" 2
 3473              		.thumb
 3474              		.syntax unified
 3475 008e 3A61     		str	r2, [r7, #16]
 3476 0090 FB60     		str	r3, [r7, #12]
 225:../../../../dependencies/freertos/FreeRTOSv10.4.1/FreeRTOS/Source/portable/GCC/ARM_CM4F/portmacro.h ****     }
 3477              		.loc 2 225 16
 3478 0092 3B69     		ldr	r3, [r7, #16]
 3479              	.LBE205:
 3480              	.LBE204:
1950:../../../../dependencies/freertos/FreeRTOSv10.4.1/FreeRTOS/Source/queue.c **** 
1951:../../../../dependencies/freertos/FreeRTOSv10.4.1/FreeRTOS/Source/queue.c ****     uxSavedInterruptStatus = portSET_INTERRUPT_MASK_FROM_ISR();
 3481              		.loc 1 1951 30
 3482 0094 7B62     		str	r3, [r7, #36]
1952:../../../../dependencies/freertos/FreeRTOSv10.4.1/FreeRTOS/Source/queue.c ****     {
1953:../../../../dependencies/freertos/FreeRTOSv10.4.1/FreeRTOS/Source/queue.c ****         /* Cannot block in an ISR, so check there is data available. */
ARM GAS  /var/folders/kj/yzqgq53j3dg15vgwwwwgf5s00000gn/T//ccGgwidk.s 			page 101


1954:../../../../dependencies/freertos/FreeRTOSv10.4.1/FreeRTOS/Source/queue.c ****         if( pxQueue->uxMessagesWaiting > ( UBaseType_t ) 0 )
 3483              		.loc 1 1954 20
 3484 0096 BB6A     		ldr	r3, [r7, #40]
 3485 0098 9B6B     		ldr	r3, [r3, #56]
 3486              		.loc 1 1954 11
 3487 009a 002B     		cmp	r3, #0
 3488 009c 0CD0     		beq	.L237
1955:../../../../dependencies/freertos/FreeRTOSv10.4.1/FreeRTOS/Source/queue.c ****         {
1956:../../../../dependencies/freertos/FreeRTOSv10.4.1/FreeRTOS/Source/queue.c ****             traceQUEUE_PEEK_FROM_ISR( pxQueue );
1957:../../../../dependencies/freertos/FreeRTOSv10.4.1/FreeRTOS/Source/queue.c **** 
1958:../../../../dependencies/freertos/FreeRTOSv10.4.1/FreeRTOS/Source/queue.c ****             /* Remember the read position so it can be reset as nothing is
1959:../../../../dependencies/freertos/FreeRTOSv10.4.1/FreeRTOS/Source/queue.c ****              * actually being removed from the queue. */
1960:../../../../dependencies/freertos/FreeRTOSv10.4.1/FreeRTOS/Source/queue.c ****             pcOriginalReadPosition = pxQueue->u.xQueue.pcReadFrom;
 3489              		.loc 1 1960 36
 3490 009e BB6A     		ldr	r3, [r7, #40]
 3491 00a0 DB68     		ldr	r3, [r3, #12]
 3492 00a2 3B62     		str	r3, [r7, #32]
1961:../../../../dependencies/freertos/FreeRTOSv10.4.1/FreeRTOS/Source/queue.c ****             prvCopyDataFromQueue( pxQueue, pvBuffer );
 3493              		.loc 1 1961 13
 3494 00a4 3968     		ldr	r1, [r7]
 3495 00a6 B86A     		ldr	r0, [r7, #40]
 3496 00a8 FFF7FEFF 		bl	prvCopyDataFromQueue
1962:../../../../dependencies/freertos/FreeRTOSv10.4.1/FreeRTOS/Source/queue.c ****             pxQueue->u.xQueue.pcReadFrom = pcOriginalReadPosition;
 3497              		.loc 1 1962 42
 3498 00ac BB6A     		ldr	r3, [r7, #40]
 3499 00ae 3A6A     		ldr	r2, [r7, #32]
 3500 00b0 DA60     		str	r2, [r3, #12]
1963:../../../../dependencies/freertos/FreeRTOSv10.4.1/FreeRTOS/Source/queue.c **** 
1964:../../../../dependencies/freertos/FreeRTOSv10.4.1/FreeRTOS/Source/queue.c ****             xReturn = pdPASS;
 3501              		.loc 1 1964 21
 3502 00b2 0123     		movs	r3, #1
 3503 00b4 FB62     		str	r3, [r7, #44]
 3504 00b6 01E0     		b	.L238
 3505              	.L237:
1965:../../../../dependencies/freertos/FreeRTOSv10.4.1/FreeRTOS/Source/queue.c ****         }
1966:../../../../dependencies/freertos/FreeRTOSv10.4.1/FreeRTOS/Source/queue.c ****         else
1967:../../../../dependencies/freertos/FreeRTOSv10.4.1/FreeRTOS/Source/queue.c ****         {
1968:../../../../dependencies/freertos/FreeRTOSv10.4.1/FreeRTOS/Source/queue.c ****             xReturn = pdFAIL;
 3506              		.loc 1 1968 21
 3507 00b8 0023     		movs	r3, #0
 3508 00ba FB62     		str	r3, [r7, #44]
 3509              	.L238:
 3510 00bc 7B6A     		ldr	r3, [r7, #36]
 3511 00be BB60     		str	r3, [r7, #8]
 3512              	.LBB206:
 3513              	.LBB207:
 231:../../../../dependencies/freertos/FreeRTOSv10.4.1/FreeRTOS/Source/portable/GCC/ARM_CM4F/portmacro.h ****         (
 3514              		.loc 2 231 9
 3515 00c0 BB68     		ldr	r3, [r7, #8]
 3516              		.syntax unified
 3517              	@ 231 "../../../../dependencies/freertos/FreeRTOSv10.4.1/FreeRTOS/Source/portable/GCC/ARM_CM4F/port
 3518 00c2 83F31188 			msr basepri, r3	
 3519              	@ 0 "" 2
 3520              		.loc 2 235 5
 3521              		.thumb
 3522              		.syntax unified
 3523 00c6 00BF     		nop
ARM GAS  /var/folders/kj/yzqgq53j3dg15vgwwwwgf5s00000gn/T//ccGgwidk.s 			page 102


 3524              	.LBE207:
 3525              	.LBE206:
1969:../../../../dependencies/freertos/FreeRTOSv10.4.1/FreeRTOS/Source/queue.c ****             traceQUEUE_PEEK_FROM_ISR_FAILED( pxQueue );
1970:../../../../dependencies/freertos/FreeRTOSv10.4.1/FreeRTOS/Source/queue.c ****         }
1971:../../../../dependencies/freertos/FreeRTOSv10.4.1/FreeRTOS/Source/queue.c ****     }
1972:../../../../dependencies/freertos/FreeRTOSv10.4.1/FreeRTOS/Source/queue.c ****     portCLEAR_INTERRUPT_MASK_FROM_ISR( uxSavedInterruptStatus );
1973:../../../../dependencies/freertos/FreeRTOSv10.4.1/FreeRTOS/Source/queue.c **** 
1974:../../../../dependencies/freertos/FreeRTOSv10.4.1/FreeRTOS/Source/queue.c ****     return xReturn;
 3526              		.loc 1 1974 12
 3527 00c8 FB6A     		ldr	r3, [r7, #44]
1975:../../../../dependencies/freertos/FreeRTOSv10.4.1/FreeRTOS/Source/queue.c **** }
 3528              		.loc 1 1975 1
 3529 00ca 1846     		mov	r0, r3
 3530 00cc 3037     		adds	r7, r7, #48
 3531              	.LCFI89:
 3532              		.cfi_def_cfa_offset 8
 3533 00ce BD46     		mov	sp, r7
 3534              	.LCFI90:
 3535              		.cfi_def_cfa_register 13
 3536              		@ sp needed
 3537 00d0 80BD     		pop	{r7, pc}
 3538              		.cfi_endproc
 3539              	.LFE22:
 3541              		.section	.text.uxQueueMessagesWaiting,"ax",%progbits
 3542              		.align	1
 3543              		.global	uxQueueMessagesWaiting
 3544              		.syntax unified
 3545              		.thumb
 3546              		.thumb_func
 3547              		.fpu fpv4-sp-d16
 3549              	uxQueueMessagesWaiting:
 3550              	.LFB23:
1976:../../../../dependencies/freertos/FreeRTOSv10.4.1/FreeRTOS/Source/queue.c **** /*-----------------------------------------------------------*/
1977:../../../../dependencies/freertos/FreeRTOSv10.4.1/FreeRTOS/Source/queue.c **** 
1978:../../../../dependencies/freertos/FreeRTOSv10.4.1/FreeRTOS/Source/queue.c **** UBaseType_t uxQueueMessagesWaiting( const QueueHandle_t xQueue )
1979:../../../../dependencies/freertos/FreeRTOSv10.4.1/FreeRTOS/Source/queue.c **** {
 3551              		.loc 1 1979 1
 3552              		.cfi_startproc
 3553              		@ args = 0, pretend = 0, frame = 16
 3554              		@ frame_needed = 1, uses_anonymous_args = 0
 3555 0000 80B5     		push	{r7, lr}
 3556              	.LCFI91:
 3557              		.cfi_def_cfa_offset 8
 3558              		.cfi_offset 7, -8
 3559              		.cfi_offset 14, -4
 3560 0002 84B0     		sub	sp, sp, #16
 3561              	.LCFI92:
 3562              		.cfi_def_cfa_offset 24
 3563 0004 00AF     		add	r7, sp, #0
 3564              	.LCFI93:
 3565              		.cfi_def_cfa_register 7
 3566 0006 7860     		str	r0, [r7, #4]
1980:../../../../dependencies/freertos/FreeRTOSv10.4.1/FreeRTOS/Source/queue.c ****     UBaseType_t uxReturn;
1981:../../../../dependencies/freertos/FreeRTOSv10.4.1/FreeRTOS/Source/queue.c **** 
1982:../../../../dependencies/freertos/FreeRTOSv10.4.1/FreeRTOS/Source/queue.c ****     configASSERT( xQueue );
 3567              		.loc 1 1982 5
 3568 0008 7B68     		ldr	r3, [r7, #4]
ARM GAS  /var/folders/kj/yzqgq53j3dg15vgwwwwgf5s00000gn/T//ccGgwidk.s 			page 103


 3569 000a 002B     		cmp	r3, #0
 3570 000c 0AD1     		bne	.L241
 3571              	.LBB208:
 3572              	.LBB209:
 197:../../../../dependencies/freertos/FreeRTOSv10.4.1/FreeRTOS/Source/portable/GCC/ARM_CM4F/portmacro.h ****         (
 3573              		.loc 2 197 9
 3574              		.syntax unified
 3575              	@ 197 "../../../../dependencies/freertos/FreeRTOSv10.4.1/FreeRTOS/Source/portable/GCC/ARM_CM4F/port
 3576 000e 4FF05003 			mov r3, #80												
 3577 0012 83F31188 		msr basepri, r3											
 3578 0016 BFF36F8F 		isb														
 3579 001a BFF34F8F 		dsb														
 3580              	
 3581              	@ 0 "" 2
 3582              		.thumb
 3583              		.syntax unified
 3584 001e BB60     		str	r3, [r7, #8]
 205:../../../../dependencies/freertos/FreeRTOSv10.4.1/FreeRTOS/Source/portable/GCC/ARM_CM4F/portmacro.h **** 
 3585              		.loc 2 205 5
 3586 0020 00BF     		nop
 3587              	.L242:
 3588              	.LBE209:
 3589              	.LBE208:
 3590              		.loc 1 1982 5 discriminator 1
 3591 0022 FEE7     		b	.L242
 3592              	.L241:
1983:../../../../dependencies/freertos/FreeRTOSv10.4.1/FreeRTOS/Source/queue.c **** 
1984:../../../../dependencies/freertos/FreeRTOSv10.4.1/FreeRTOS/Source/queue.c ****     taskENTER_CRITICAL();
 3593              		.loc 1 1984 5
 3594 0024 FFF7FEFF 		bl	vPortEnterCritical
1985:../../../../dependencies/freertos/FreeRTOSv10.4.1/FreeRTOS/Source/queue.c ****     {
1986:../../../../dependencies/freertos/FreeRTOSv10.4.1/FreeRTOS/Source/queue.c ****         uxReturn = ( ( Queue_t * ) xQueue )->uxMessagesWaiting;
 3595              		.loc 1 1986 18
 3596 0028 7B68     		ldr	r3, [r7, #4]
 3597 002a 9B6B     		ldr	r3, [r3, #56]
 3598 002c FB60     		str	r3, [r7, #12]
1987:../../../../dependencies/freertos/FreeRTOSv10.4.1/FreeRTOS/Source/queue.c ****     }
1988:../../../../dependencies/freertos/FreeRTOSv10.4.1/FreeRTOS/Source/queue.c ****     taskEXIT_CRITICAL();
 3599              		.loc 1 1988 5
 3600 002e FFF7FEFF 		bl	vPortExitCritical
1989:../../../../dependencies/freertos/FreeRTOSv10.4.1/FreeRTOS/Source/queue.c **** 
1990:../../../../dependencies/freertos/FreeRTOSv10.4.1/FreeRTOS/Source/queue.c ****     return uxReturn;
 3601              		.loc 1 1990 12
 3602 0032 FB68     		ldr	r3, [r7, #12]
1991:../../../../dependencies/freertos/FreeRTOSv10.4.1/FreeRTOS/Source/queue.c **** } /*lint !e818 Pointer cannot be declared const as xQueue is a typedef not pointer. */
 3603              		.loc 1 1991 1
 3604 0034 1846     		mov	r0, r3
 3605 0036 1037     		adds	r7, r7, #16
 3606              	.LCFI94:
 3607              		.cfi_def_cfa_offset 8
 3608 0038 BD46     		mov	sp, r7
 3609              	.LCFI95:
 3610              		.cfi_def_cfa_register 13
 3611              		@ sp needed
 3612 003a 80BD     		pop	{r7, pc}
 3613              		.cfi_endproc
 3614              	.LFE23:
ARM GAS  /var/folders/kj/yzqgq53j3dg15vgwwwwgf5s00000gn/T//ccGgwidk.s 			page 104


 3616              		.section	.text.uxQueueSpacesAvailable,"ax",%progbits
 3617              		.align	1
 3618              		.global	uxQueueSpacesAvailable
 3619              		.syntax unified
 3620              		.thumb
 3621              		.thumb_func
 3622              		.fpu fpv4-sp-d16
 3624              	uxQueueSpacesAvailable:
 3625              	.LFB24:
1992:../../../../dependencies/freertos/FreeRTOSv10.4.1/FreeRTOS/Source/queue.c **** /*-----------------------------------------------------------*/
1993:../../../../dependencies/freertos/FreeRTOSv10.4.1/FreeRTOS/Source/queue.c **** 
1994:../../../../dependencies/freertos/FreeRTOSv10.4.1/FreeRTOS/Source/queue.c **** UBaseType_t uxQueueSpacesAvailable( const QueueHandle_t xQueue )
1995:../../../../dependencies/freertos/FreeRTOSv10.4.1/FreeRTOS/Source/queue.c **** {
 3626              		.loc 1 1995 1
 3627              		.cfi_startproc
 3628              		@ args = 0, pretend = 0, frame = 24
 3629              		@ frame_needed = 1, uses_anonymous_args = 0
 3630 0000 80B5     		push	{r7, lr}
 3631              	.LCFI96:
 3632              		.cfi_def_cfa_offset 8
 3633              		.cfi_offset 7, -8
 3634              		.cfi_offset 14, -4
 3635 0002 86B0     		sub	sp, sp, #24
 3636              	.LCFI97:
 3637              		.cfi_def_cfa_offset 32
 3638 0004 00AF     		add	r7, sp, #0
 3639              	.LCFI98:
 3640              		.cfi_def_cfa_register 7
 3641 0006 7860     		str	r0, [r7, #4]
1996:../../../../dependencies/freertos/FreeRTOSv10.4.1/FreeRTOS/Source/queue.c ****     UBaseType_t uxReturn;
1997:../../../../dependencies/freertos/FreeRTOSv10.4.1/FreeRTOS/Source/queue.c ****     Queue_t * const pxQueue = xQueue;
 3642              		.loc 1 1997 21
 3643 0008 7B68     		ldr	r3, [r7, #4]
 3644 000a 7B61     		str	r3, [r7, #20]
1998:../../../../dependencies/freertos/FreeRTOSv10.4.1/FreeRTOS/Source/queue.c **** 
1999:../../../../dependencies/freertos/FreeRTOSv10.4.1/FreeRTOS/Source/queue.c ****     configASSERT( pxQueue );
 3645              		.loc 1 1999 5
 3646 000c 7B69     		ldr	r3, [r7, #20]
 3647 000e 002B     		cmp	r3, #0
 3648 0010 0AD1     		bne	.L245
 3649              	.LBB210:
 3650              	.LBB211:
 197:../../../../dependencies/freertos/FreeRTOSv10.4.1/FreeRTOS/Source/portable/GCC/ARM_CM4F/portmacro.h ****         (
 3651              		.loc 2 197 9
 3652              		.syntax unified
 3653              	@ 197 "../../../../dependencies/freertos/FreeRTOSv10.4.1/FreeRTOS/Source/portable/GCC/ARM_CM4F/port
 3654 0012 4FF05003 			mov r3, #80												
 3655 0016 83F31188 		msr basepri, r3											
 3656 001a BFF36F8F 		isb														
 3657 001e BFF34F8F 		dsb														
 3658              	
 3659              	@ 0 "" 2
 3660              		.thumb
 3661              		.syntax unified
 3662 0022 FB60     		str	r3, [r7, #12]
 205:../../../../dependencies/freertos/FreeRTOSv10.4.1/FreeRTOS/Source/portable/GCC/ARM_CM4F/portmacro.h **** 
 3663              		.loc 2 205 5
ARM GAS  /var/folders/kj/yzqgq53j3dg15vgwwwwgf5s00000gn/T//ccGgwidk.s 			page 105


 3664 0024 00BF     		nop
 3665              	.L246:
 3666              	.LBE211:
 3667              	.LBE210:
 3668              		.loc 1 1999 5 discriminator 1
 3669 0026 FEE7     		b	.L246
 3670              	.L245:
2000:../../../../dependencies/freertos/FreeRTOSv10.4.1/FreeRTOS/Source/queue.c **** 
2001:../../../../dependencies/freertos/FreeRTOSv10.4.1/FreeRTOS/Source/queue.c ****     taskENTER_CRITICAL();
 3671              		.loc 1 2001 5
 3672 0028 FFF7FEFF 		bl	vPortEnterCritical
2002:../../../../dependencies/freertos/FreeRTOSv10.4.1/FreeRTOS/Source/queue.c ****     {
2003:../../../../dependencies/freertos/FreeRTOSv10.4.1/FreeRTOS/Source/queue.c ****         uxReturn = pxQueue->uxLength - pxQueue->uxMessagesWaiting;
 3673              		.loc 1 2003 27
 3674 002c 7B69     		ldr	r3, [r7, #20]
 3675 002e DA6B     		ldr	r2, [r3, #60]
 3676              		.loc 1 2003 47
 3677 0030 7B69     		ldr	r3, [r7, #20]
 3678 0032 9B6B     		ldr	r3, [r3, #56]
 3679              		.loc 1 2003 18
 3680 0034 D31A     		subs	r3, r2, r3
 3681 0036 3B61     		str	r3, [r7, #16]
2004:../../../../dependencies/freertos/FreeRTOSv10.4.1/FreeRTOS/Source/queue.c ****     }
2005:../../../../dependencies/freertos/FreeRTOSv10.4.1/FreeRTOS/Source/queue.c ****     taskEXIT_CRITICAL();
 3682              		.loc 1 2005 5
 3683 0038 FFF7FEFF 		bl	vPortExitCritical
2006:../../../../dependencies/freertos/FreeRTOSv10.4.1/FreeRTOS/Source/queue.c **** 
2007:../../../../dependencies/freertos/FreeRTOSv10.4.1/FreeRTOS/Source/queue.c ****     return uxReturn;
 3684              		.loc 1 2007 12
 3685 003c 3B69     		ldr	r3, [r7, #16]
2008:../../../../dependencies/freertos/FreeRTOSv10.4.1/FreeRTOS/Source/queue.c **** } /*lint !e818 Pointer cannot be declared const as xQueue is a typedef not pointer. */
 3686              		.loc 1 2008 1
 3687 003e 1846     		mov	r0, r3
 3688 0040 1837     		adds	r7, r7, #24
 3689              	.LCFI99:
 3690              		.cfi_def_cfa_offset 8
 3691 0042 BD46     		mov	sp, r7
 3692              	.LCFI100:
 3693              		.cfi_def_cfa_register 13
 3694              		@ sp needed
 3695 0044 80BD     		pop	{r7, pc}
 3696              		.cfi_endproc
 3697              	.LFE24:
 3699              		.section	.text.uxQueueMessagesWaitingFromISR,"ax",%progbits
 3700              		.align	1
 3701              		.global	uxQueueMessagesWaitingFromISR
 3702              		.syntax unified
 3703              		.thumb
 3704              		.thumb_func
 3705              		.fpu fpv4-sp-d16
 3707              	uxQueueMessagesWaitingFromISR:
 3708              	.LFB25:
2009:../../../../dependencies/freertos/FreeRTOSv10.4.1/FreeRTOS/Source/queue.c **** /*-----------------------------------------------------------*/
2010:../../../../dependencies/freertos/FreeRTOSv10.4.1/FreeRTOS/Source/queue.c **** 
2011:../../../../dependencies/freertos/FreeRTOSv10.4.1/FreeRTOS/Source/queue.c **** UBaseType_t uxQueueMessagesWaitingFromISR( const QueueHandle_t xQueue )
2012:../../../../dependencies/freertos/FreeRTOSv10.4.1/FreeRTOS/Source/queue.c **** {
 3709              		.loc 1 2012 1
ARM GAS  /var/folders/kj/yzqgq53j3dg15vgwwwwgf5s00000gn/T//ccGgwidk.s 			page 106


 3710              		.cfi_startproc
 3711              		@ args = 0, pretend = 0, frame = 24
 3712              		@ frame_needed = 1, uses_anonymous_args = 0
 3713              		@ link register save eliminated.
 3714 0000 80B4     		push	{r7}
 3715              	.LCFI101:
 3716              		.cfi_def_cfa_offset 4
 3717              		.cfi_offset 7, -4
 3718 0002 87B0     		sub	sp, sp, #28
 3719              	.LCFI102:
 3720              		.cfi_def_cfa_offset 32
 3721 0004 00AF     		add	r7, sp, #0
 3722              	.LCFI103:
 3723              		.cfi_def_cfa_register 7
 3724 0006 7860     		str	r0, [r7, #4]
2013:../../../../dependencies/freertos/FreeRTOSv10.4.1/FreeRTOS/Source/queue.c ****     UBaseType_t uxReturn;
2014:../../../../dependencies/freertos/FreeRTOSv10.4.1/FreeRTOS/Source/queue.c ****     Queue_t * const pxQueue = xQueue;
 3725              		.loc 1 2014 21
 3726 0008 7B68     		ldr	r3, [r7, #4]
 3727 000a 7B61     		str	r3, [r7, #20]
2015:../../../../dependencies/freertos/FreeRTOSv10.4.1/FreeRTOS/Source/queue.c **** 
2016:../../../../dependencies/freertos/FreeRTOSv10.4.1/FreeRTOS/Source/queue.c ****     configASSERT( pxQueue );
 3728              		.loc 1 2016 5
 3729 000c 7B69     		ldr	r3, [r7, #20]
 3730 000e 002B     		cmp	r3, #0
 3731 0010 0AD1     		bne	.L249
 3732              	.LBB212:
 3733              	.LBB213:
 197:../../../../dependencies/freertos/FreeRTOSv10.4.1/FreeRTOS/Source/portable/GCC/ARM_CM4F/portmacro.h ****         (
 3734              		.loc 2 197 9
 3735              		.syntax unified
 3736              	@ 197 "../../../../dependencies/freertos/FreeRTOSv10.4.1/FreeRTOS/Source/portable/GCC/ARM_CM4F/port
 3737 0012 4FF05003 			mov r3, #80												
 3738 0016 83F31188 		msr basepri, r3											
 3739 001a BFF36F8F 		isb														
 3740 001e BFF34F8F 		dsb														
 3741              	
 3742              	@ 0 "" 2
 3743              		.thumb
 3744              		.syntax unified
 3745 0022 FB60     		str	r3, [r7, #12]
 205:../../../../dependencies/freertos/FreeRTOSv10.4.1/FreeRTOS/Source/portable/GCC/ARM_CM4F/portmacro.h **** 
 3746              		.loc 2 205 5
 3747 0024 00BF     		nop
 3748              	.L250:
 3749              	.LBE213:
 3750              	.LBE212:
 3751              		.loc 1 2016 5 discriminator 1
 3752 0026 FEE7     		b	.L250
 3753              	.L249:
2017:../../../../dependencies/freertos/FreeRTOSv10.4.1/FreeRTOS/Source/queue.c ****     uxReturn = pxQueue->uxMessagesWaiting;
 3754              		.loc 1 2017 14
 3755 0028 7B69     		ldr	r3, [r7, #20]
 3756 002a 9B6B     		ldr	r3, [r3, #56]
 3757 002c 3B61     		str	r3, [r7, #16]
2018:../../../../dependencies/freertos/FreeRTOSv10.4.1/FreeRTOS/Source/queue.c **** 
2019:../../../../dependencies/freertos/FreeRTOSv10.4.1/FreeRTOS/Source/queue.c ****     return uxReturn;
ARM GAS  /var/folders/kj/yzqgq53j3dg15vgwwwwgf5s00000gn/T//ccGgwidk.s 			page 107


 3758              		.loc 1 2019 12
 3759 002e 3B69     		ldr	r3, [r7, #16]
2020:../../../../dependencies/freertos/FreeRTOSv10.4.1/FreeRTOS/Source/queue.c **** } /*lint !e818 Pointer cannot be declared const as xQueue is a typedef not pointer. */
 3760              		.loc 1 2020 1
 3761 0030 1846     		mov	r0, r3
 3762 0032 1C37     		adds	r7, r7, #28
 3763              	.LCFI104:
 3764              		.cfi_def_cfa_offset 4
 3765 0034 BD46     		mov	sp, r7
 3766              	.LCFI105:
 3767              		.cfi_def_cfa_register 13
 3768              		@ sp needed
 3769 0036 5DF8047B 		ldr	r7, [sp], #4
 3770              	.LCFI106:
 3771              		.cfi_restore 7
 3772              		.cfi_def_cfa_offset 0
 3773 003a 7047     		bx	lr
 3774              		.cfi_endproc
 3775              	.LFE25:
 3777              		.section	.text.vQueueDelete,"ax",%progbits
 3778              		.align	1
 3779              		.global	vQueueDelete
 3780              		.syntax unified
 3781              		.thumb
 3782              		.thumb_func
 3783              		.fpu fpv4-sp-d16
 3785              	vQueueDelete:
 3786              	.LFB26:
2021:../../../../dependencies/freertos/FreeRTOSv10.4.1/FreeRTOS/Source/queue.c **** /*-----------------------------------------------------------*/
2022:../../../../dependencies/freertos/FreeRTOSv10.4.1/FreeRTOS/Source/queue.c **** 
2023:../../../../dependencies/freertos/FreeRTOSv10.4.1/FreeRTOS/Source/queue.c **** void vQueueDelete( QueueHandle_t xQueue )
2024:../../../../dependencies/freertos/FreeRTOSv10.4.1/FreeRTOS/Source/queue.c **** {
 3787              		.loc 1 2024 1
 3788              		.cfi_startproc
 3789              		@ args = 0, pretend = 0, frame = 16
 3790              		@ frame_needed = 1, uses_anonymous_args = 0
 3791 0000 80B5     		push	{r7, lr}
 3792              	.LCFI107:
 3793              		.cfi_def_cfa_offset 8
 3794              		.cfi_offset 7, -8
 3795              		.cfi_offset 14, -4
 3796 0002 84B0     		sub	sp, sp, #16
 3797              	.LCFI108:
 3798              		.cfi_def_cfa_offset 24
 3799 0004 00AF     		add	r7, sp, #0
 3800              	.LCFI109:
 3801              		.cfi_def_cfa_register 7
 3802 0006 7860     		str	r0, [r7, #4]
2025:../../../../dependencies/freertos/FreeRTOSv10.4.1/FreeRTOS/Source/queue.c ****     Queue_t * const pxQueue = xQueue;
 3803              		.loc 1 2025 21
 3804 0008 7B68     		ldr	r3, [r7, #4]
 3805 000a FB60     		str	r3, [r7, #12]
2026:../../../../dependencies/freertos/FreeRTOSv10.4.1/FreeRTOS/Source/queue.c **** 
2027:../../../../dependencies/freertos/FreeRTOSv10.4.1/FreeRTOS/Source/queue.c ****     configASSERT( pxQueue );
 3806              		.loc 1 2027 5
 3807 000c FB68     		ldr	r3, [r7, #12]
 3808 000e 002B     		cmp	r3, #0
ARM GAS  /var/folders/kj/yzqgq53j3dg15vgwwwwgf5s00000gn/T//ccGgwidk.s 			page 108


 3809 0010 0AD1     		bne	.L253
 3810              	.LBB214:
 3811              	.LBB215:
 197:../../../../dependencies/freertos/FreeRTOSv10.4.1/FreeRTOS/Source/portable/GCC/ARM_CM4F/portmacro.h ****         (
 3812              		.loc 2 197 9
 3813              		.syntax unified
 3814              	@ 197 "../../../../dependencies/freertos/FreeRTOSv10.4.1/FreeRTOS/Source/portable/GCC/ARM_CM4F/port
 3815 0012 4FF05003 			mov r3, #80												
 3816 0016 83F31188 		msr basepri, r3											
 3817 001a BFF36F8F 		isb														
 3818 001e BFF34F8F 		dsb														
 3819              	
 3820              	@ 0 "" 2
 3821              		.thumb
 3822              		.syntax unified
 3823 0022 BB60     		str	r3, [r7, #8]
 205:../../../../dependencies/freertos/FreeRTOSv10.4.1/FreeRTOS/Source/portable/GCC/ARM_CM4F/portmacro.h **** 
 3824              		.loc 2 205 5
 3825 0024 00BF     		nop
 3826              	.L254:
 3827              	.LBE215:
 3828              	.LBE214:
 3829              		.loc 1 2027 5 discriminator 1
 3830 0026 FEE7     		b	.L254
 3831              	.L253:
2028:../../../../dependencies/freertos/FreeRTOSv10.4.1/FreeRTOS/Source/queue.c ****     traceQUEUE_DELETE( pxQueue );
2029:../../../../dependencies/freertos/FreeRTOSv10.4.1/FreeRTOS/Source/queue.c **** 
2030:../../../../dependencies/freertos/FreeRTOSv10.4.1/FreeRTOS/Source/queue.c ****     #if ( configQUEUE_REGISTRY_SIZE > 0 )
2031:../../../../dependencies/freertos/FreeRTOSv10.4.1/FreeRTOS/Source/queue.c ****         {
2032:../../../../dependencies/freertos/FreeRTOSv10.4.1/FreeRTOS/Source/queue.c ****             vQueueUnregisterQueue( pxQueue );
 3832              		.loc 1 2032 13
 3833 0028 F868     		ldr	r0, [r7, #12]
 3834 002a FFF7FEFF 		bl	vQueueUnregisterQueue
2033:../../../../dependencies/freertos/FreeRTOSv10.4.1/FreeRTOS/Source/queue.c ****         }
2034:../../../../dependencies/freertos/FreeRTOSv10.4.1/FreeRTOS/Source/queue.c ****     #endif
2035:../../../../dependencies/freertos/FreeRTOSv10.4.1/FreeRTOS/Source/queue.c **** 
2036:../../../../dependencies/freertos/FreeRTOSv10.4.1/FreeRTOS/Source/queue.c ****     #if ( ( configSUPPORT_DYNAMIC_ALLOCATION == 1 ) && ( configSUPPORT_STATIC_ALLOCATION == 0 ) )
2037:../../../../dependencies/freertos/FreeRTOSv10.4.1/FreeRTOS/Source/queue.c ****         {
2038:../../../../dependencies/freertos/FreeRTOSv10.4.1/FreeRTOS/Source/queue.c ****             /* The queue can only have been allocated dynamically - free it
2039:../../../../dependencies/freertos/FreeRTOSv10.4.1/FreeRTOS/Source/queue.c ****              * again. */
2040:../../../../dependencies/freertos/FreeRTOSv10.4.1/FreeRTOS/Source/queue.c ****             vPortFree( pxQueue );
 3835              		.loc 1 2040 13
 3836 002e F868     		ldr	r0, [r7, #12]
 3837 0030 FFF7FEFF 		bl	vPortFree
2041:../../../../dependencies/freertos/FreeRTOSv10.4.1/FreeRTOS/Source/queue.c ****         }
2042:../../../../dependencies/freertos/FreeRTOSv10.4.1/FreeRTOS/Source/queue.c ****     #elif ( ( configSUPPORT_DYNAMIC_ALLOCATION == 1 ) && ( configSUPPORT_STATIC_ALLOCATION == 1 ) )
2043:../../../../dependencies/freertos/FreeRTOSv10.4.1/FreeRTOS/Source/queue.c ****         {
2044:../../../../dependencies/freertos/FreeRTOSv10.4.1/FreeRTOS/Source/queue.c ****             /* The queue could have been allocated statically or dynamically, so
2045:../../../../dependencies/freertos/FreeRTOSv10.4.1/FreeRTOS/Source/queue.c ****              * check before attempting to free the memory. */
2046:../../../../dependencies/freertos/FreeRTOSv10.4.1/FreeRTOS/Source/queue.c ****             if( pxQueue->ucStaticallyAllocated == ( uint8_t ) pdFALSE )
2047:../../../../dependencies/freertos/FreeRTOSv10.4.1/FreeRTOS/Source/queue.c ****             {
2048:../../../../dependencies/freertos/FreeRTOSv10.4.1/FreeRTOS/Source/queue.c ****                 vPortFree( pxQueue );
2049:../../../../dependencies/freertos/FreeRTOSv10.4.1/FreeRTOS/Source/queue.c ****             }
2050:../../../../dependencies/freertos/FreeRTOSv10.4.1/FreeRTOS/Source/queue.c ****             else
2051:../../../../dependencies/freertos/FreeRTOSv10.4.1/FreeRTOS/Source/queue.c ****             {
2052:../../../../dependencies/freertos/FreeRTOSv10.4.1/FreeRTOS/Source/queue.c ****                 mtCOVERAGE_TEST_MARKER();
2053:../../../../dependencies/freertos/FreeRTOSv10.4.1/FreeRTOS/Source/queue.c ****             }
ARM GAS  /var/folders/kj/yzqgq53j3dg15vgwwwwgf5s00000gn/T//ccGgwidk.s 			page 109


2054:../../../../dependencies/freertos/FreeRTOSv10.4.1/FreeRTOS/Source/queue.c ****         }
2055:../../../../dependencies/freertos/FreeRTOSv10.4.1/FreeRTOS/Source/queue.c ****     #else /* if ( ( configSUPPORT_DYNAMIC_ALLOCATION == 1 ) && ( configSUPPORT_STATIC_ALLOCATION ==
2056:../../../../dependencies/freertos/FreeRTOSv10.4.1/FreeRTOS/Source/queue.c ****         {
2057:../../../../dependencies/freertos/FreeRTOSv10.4.1/FreeRTOS/Source/queue.c ****             /* The queue must have been statically allocated, so is not going to be
2058:../../../../dependencies/freertos/FreeRTOSv10.4.1/FreeRTOS/Source/queue.c ****              * deleted.  Avoid compiler warnings about the unused parameter. */
2059:../../../../dependencies/freertos/FreeRTOSv10.4.1/FreeRTOS/Source/queue.c ****             ( void ) pxQueue;
2060:../../../../dependencies/freertos/FreeRTOSv10.4.1/FreeRTOS/Source/queue.c ****         }
2061:../../../../dependencies/freertos/FreeRTOSv10.4.1/FreeRTOS/Source/queue.c ****     #endif /* configSUPPORT_DYNAMIC_ALLOCATION */
2062:../../../../dependencies/freertos/FreeRTOSv10.4.1/FreeRTOS/Source/queue.c **** }
 3838              		.loc 1 2062 1
 3839 0034 00BF     		nop
 3840 0036 1037     		adds	r7, r7, #16
 3841              	.LCFI110:
 3842              		.cfi_def_cfa_offset 8
 3843 0038 BD46     		mov	sp, r7
 3844              	.LCFI111:
 3845              		.cfi_def_cfa_register 13
 3846              		@ sp needed
 3847 003a 80BD     		pop	{r7, pc}
 3848              		.cfi_endproc
 3849              	.LFE26:
 3851              		.section	.text.uxQueueGetQueueNumber,"ax",%progbits
 3852              		.align	1
 3853              		.global	uxQueueGetQueueNumber
 3854              		.syntax unified
 3855              		.thumb
 3856              		.thumb_func
 3857              		.fpu fpv4-sp-d16
 3859              	uxQueueGetQueueNumber:
 3860              	.LFB27:
2063:../../../../dependencies/freertos/FreeRTOSv10.4.1/FreeRTOS/Source/queue.c **** /*-----------------------------------------------------------*/
2064:../../../../dependencies/freertos/FreeRTOSv10.4.1/FreeRTOS/Source/queue.c **** 
2065:../../../../dependencies/freertos/FreeRTOSv10.4.1/FreeRTOS/Source/queue.c **** #if ( configUSE_TRACE_FACILITY == 1 )
2066:../../../../dependencies/freertos/FreeRTOSv10.4.1/FreeRTOS/Source/queue.c **** 
2067:../../../../dependencies/freertos/FreeRTOSv10.4.1/FreeRTOS/Source/queue.c ****     UBaseType_t uxQueueGetQueueNumber( QueueHandle_t xQueue )
2068:../../../../dependencies/freertos/FreeRTOSv10.4.1/FreeRTOS/Source/queue.c ****     {
 3861              		.loc 1 2068 5
 3862              		.cfi_startproc
 3863              		@ args = 0, pretend = 0, frame = 8
 3864              		@ frame_needed = 1, uses_anonymous_args = 0
 3865              		@ link register save eliminated.
 3866 0000 80B4     		push	{r7}
 3867              	.LCFI112:
 3868              		.cfi_def_cfa_offset 4
 3869              		.cfi_offset 7, -4
 3870 0002 83B0     		sub	sp, sp, #12
 3871              	.LCFI113:
 3872              		.cfi_def_cfa_offset 16
 3873 0004 00AF     		add	r7, sp, #0
 3874              	.LCFI114:
 3875              		.cfi_def_cfa_register 7
 3876 0006 7860     		str	r0, [r7, #4]
2069:../../../../dependencies/freertos/FreeRTOSv10.4.1/FreeRTOS/Source/queue.c ****         return ( ( Queue_t * ) xQueue )->uxQueueNumber;
 3877              		.loc 1 2069 40
 3878 0008 7B68     		ldr	r3, [r7, #4]
 3879 000a 9B6C     		ldr	r3, [r3, #72]
2070:../../../../dependencies/freertos/FreeRTOSv10.4.1/FreeRTOS/Source/queue.c ****     }
ARM GAS  /var/folders/kj/yzqgq53j3dg15vgwwwwgf5s00000gn/T//ccGgwidk.s 			page 110


 3880              		.loc 1 2070 5
 3881 000c 1846     		mov	r0, r3
 3882 000e 0C37     		adds	r7, r7, #12
 3883              	.LCFI115:
 3884              		.cfi_def_cfa_offset 4
 3885 0010 BD46     		mov	sp, r7
 3886              	.LCFI116:
 3887              		.cfi_def_cfa_register 13
 3888              		@ sp needed
 3889 0012 5DF8047B 		ldr	r7, [sp], #4
 3890              	.LCFI117:
 3891              		.cfi_restore 7
 3892              		.cfi_def_cfa_offset 0
 3893 0016 7047     		bx	lr
 3894              		.cfi_endproc
 3895              	.LFE27:
 3897              		.section	.text.vQueueSetQueueNumber,"ax",%progbits
 3898              		.align	1
 3899              		.global	vQueueSetQueueNumber
 3900              		.syntax unified
 3901              		.thumb
 3902              		.thumb_func
 3903              		.fpu fpv4-sp-d16
 3905              	vQueueSetQueueNumber:
 3906              	.LFB28:
2071:../../../../dependencies/freertos/FreeRTOSv10.4.1/FreeRTOS/Source/queue.c **** 
2072:../../../../dependencies/freertos/FreeRTOSv10.4.1/FreeRTOS/Source/queue.c **** #endif /* configUSE_TRACE_FACILITY */
2073:../../../../dependencies/freertos/FreeRTOSv10.4.1/FreeRTOS/Source/queue.c **** /*-----------------------------------------------------------*/
2074:../../../../dependencies/freertos/FreeRTOSv10.4.1/FreeRTOS/Source/queue.c **** 
2075:../../../../dependencies/freertos/FreeRTOSv10.4.1/FreeRTOS/Source/queue.c **** #if ( configUSE_TRACE_FACILITY == 1 )
2076:../../../../dependencies/freertos/FreeRTOSv10.4.1/FreeRTOS/Source/queue.c **** 
2077:../../../../dependencies/freertos/FreeRTOSv10.4.1/FreeRTOS/Source/queue.c ****     void vQueueSetQueueNumber( QueueHandle_t xQueue,
2078:../../../../dependencies/freertos/FreeRTOSv10.4.1/FreeRTOS/Source/queue.c ****                                UBaseType_t uxQueueNumber )
2079:../../../../dependencies/freertos/FreeRTOSv10.4.1/FreeRTOS/Source/queue.c ****     {
 3907              		.loc 1 2079 5
 3908              		.cfi_startproc
 3909              		@ args = 0, pretend = 0, frame = 8
 3910              		@ frame_needed = 1, uses_anonymous_args = 0
 3911              		@ link register save eliminated.
 3912 0000 80B4     		push	{r7}
 3913              	.LCFI118:
 3914              		.cfi_def_cfa_offset 4
 3915              		.cfi_offset 7, -4
 3916 0002 83B0     		sub	sp, sp, #12
 3917              	.LCFI119:
 3918              		.cfi_def_cfa_offset 16
 3919 0004 00AF     		add	r7, sp, #0
 3920              	.LCFI120:
 3921              		.cfi_def_cfa_register 7
 3922 0006 7860     		str	r0, [r7, #4]
 3923 0008 3960     		str	r1, [r7]
2080:../../../../dependencies/freertos/FreeRTOSv10.4.1/FreeRTOS/Source/queue.c ****         ( ( Queue_t * ) xQueue )->uxQueueNumber = uxQueueNumber;
 3924              		.loc 1 2080 49
 3925 000a 7B68     		ldr	r3, [r7, #4]
 3926 000c 3A68     		ldr	r2, [r7]
 3927 000e 9A64     		str	r2, [r3, #72]
2081:../../../../dependencies/freertos/FreeRTOSv10.4.1/FreeRTOS/Source/queue.c ****     }
ARM GAS  /var/folders/kj/yzqgq53j3dg15vgwwwwgf5s00000gn/T//ccGgwidk.s 			page 111


 3928              		.loc 1 2081 5
 3929 0010 00BF     		nop
 3930 0012 0C37     		adds	r7, r7, #12
 3931              	.LCFI121:
 3932              		.cfi_def_cfa_offset 4
 3933 0014 BD46     		mov	sp, r7
 3934              	.LCFI122:
 3935              		.cfi_def_cfa_register 13
 3936              		@ sp needed
 3937 0016 5DF8047B 		ldr	r7, [sp], #4
 3938              	.LCFI123:
 3939              		.cfi_restore 7
 3940              		.cfi_def_cfa_offset 0
 3941 001a 7047     		bx	lr
 3942              		.cfi_endproc
 3943              	.LFE28:
 3945              		.section	.text.ucQueueGetQueueType,"ax",%progbits
 3946              		.align	1
 3947              		.global	ucQueueGetQueueType
 3948              		.syntax unified
 3949              		.thumb
 3950              		.thumb_func
 3951              		.fpu fpv4-sp-d16
 3953              	ucQueueGetQueueType:
 3954              	.LFB29:
2082:../../../../dependencies/freertos/FreeRTOSv10.4.1/FreeRTOS/Source/queue.c **** 
2083:../../../../dependencies/freertos/FreeRTOSv10.4.1/FreeRTOS/Source/queue.c **** #endif /* configUSE_TRACE_FACILITY */
2084:../../../../dependencies/freertos/FreeRTOSv10.4.1/FreeRTOS/Source/queue.c **** /*-----------------------------------------------------------*/
2085:../../../../dependencies/freertos/FreeRTOSv10.4.1/FreeRTOS/Source/queue.c **** 
2086:../../../../dependencies/freertos/FreeRTOSv10.4.1/FreeRTOS/Source/queue.c **** #if ( configUSE_TRACE_FACILITY == 1 )
2087:../../../../dependencies/freertos/FreeRTOSv10.4.1/FreeRTOS/Source/queue.c **** 
2088:../../../../dependencies/freertos/FreeRTOSv10.4.1/FreeRTOS/Source/queue.c ****     uint8_t ucQueueGetQueueType( QueueHandle_t xQueue )
2089:../../../../dependencies/freertos/FreeRTOSv10.4.1/FreeRTOS/Source/queue.c ****     {
 3955              		.loc 1 2089 5
 3956              		.cfi_startproc
 3957              		@ args = 0, pretend = 0, frame = 8
 3958              		@ frame_needed = 1, uses_anonymous_args = 0
 3959              		@ link register save eliminated.
 3960 0000 80B4     		push	{r7}
 3961              	.LCFI124:
 3962              		.cfi_def_cfa_offset 4
 3963              		.cfi_offset 7, -4
 3964 0002 83B0     		sub	sp, sp, #12
 3965              	.LCFI125:
 3966              		.cfi_def_cfa_offset 16
 3967 0004 00AF     		add	r7, sp, #0
 3968              	.LCFI126:
 3969              		.cfi_def_cfa_register 7
 3970 0006 7860     		str	r0, [r7, #4]
2090:../../../../dependencies/freertos/FreeRTOSv10.4.1/FreeRTOS/Source/queue.c ****         return ( ( Queue_t * ) xQueue )->ucQueueType;
 3971              		.loc 1 2090 40
 3972 0008 7B68     		ldr	r3, [r7, #4]
 3973 000a 93F84C30 		ldrb	r3, [r3, #76]	@ zero_extendqisi2
2091:../../../../dependencies/freertos/FreeRTOSv10.4.1/FreeRTOS/Source/queue.c ****     }
 3974              		.loc 1 2091 5
 3975 000e 1846     		mov	r0, r3
 3976 0010 0C37     		adds	r7, r7, #12
ARM GAS  /var/folders/kj/yzqgq53j3dg15vgwwwwgf5s00000gn/T//ccGgwidk.s 			page 112


 3977              	.LCFI127:
 3978              		.cfi_def_cfa_offset 4
 3979 0012 BD46     		mov	sp, r7
 3980              	.LCFI128:
 3981              		.cfi_def_cfa_register 13
 3982              		@ sp needed
 3983 0014 5DF8047B 		ldr	r7, [sp], #4
 3984              	.LCFI129:
 3985              		.cfi_restore 7
 3986              		.cfi_def_cfa_offset 0
 3987 0018 7047     		bx	lr
 3988              		.cfi_endproc
 3989              	.LFE29:
 3991              		.section	.text.prvGetDisinheritPriorityAfterTimeout,"ax",%progbits
 3992              		.align	1
 3993              		.syntax unified
 3994              		.thumb
 3995              		.thumb_func
 3996              		.fpu fpv4-sp-d16
 3998              	prvGetDisinheritPriorityAfterTimeout:
 3999              	.LFB30:
2092:../../../../dependencies/freertos/FreeRTOSv10.4.1/FreeRTOS/Source/queue.c **** 
2093:../../../../dependencies/freertos/FreeRTOSv10.4.1/FreeRTOS/Source/queue.c **** #endif /* configUSE_TRACE_FACILITY */
2094:../../../../dependencies/freertos/FreeRTOSv10.4.1/FreeRTOS/Source/queue.c **** /*-----------------------------------------------------------*/
2095:../../../../dependencies/freertos/FreeRTOSv10.4.1/FreeRTOS/Source/queue.c **** 
2096:../../../../dependencies/freertos/FreeRTOSv10.4.1/FreeRTOS/Source/queue.c **** #if ( configUSE_MUTEXES == 1 )
2097:../../../../dependencies/freertos/FreeRTOSv10.4.1/FreeRTOS/Source/queue.c **** 
2098:../../../../dependencies/freertos/FreeRTOSv10.4.1/FreeRTOS/Source/queue.c ****     static UBaseType_t prvGetDisinheritPriorityAfterTimeout( const Queue_t * const pxQueue )
2099:../../../../dependencies/freertos/FreeRTOSv10.4.1/FreeRTOS/Source/queue.c ****     {
 4000              		.loc 1 2099 5
 4001              		.cfi_startproc
 4002              		@ args = 0, pretend = 0, frame = 16
 4003              		@ frame_needed = 1, uses_anonymous_args = 0
 4004              		@ link register save eliminated.
 4005 0000 80B4     		push	{r7}
 4006              	.LCFI130:
 4007              		.cfi_def_cfa_offset 4
 4008              		.cfi_offset 7, -4
 4009 0002 85B0     		sub	sp, sp, #20
 4010              	.LCFI131:
 4011              		.cfi_def_cfa_offset 24
 4012 0004 00AF     		add	r7, sp, #0
 4013              	.LCFI132:
 4014              		.cfi_def_cfa_register 7
 4015 0006 7860     		str	r0, [r7, #4]
2100:../../../../dependencies/freertos/FreeRTOSv10.4.1/FreeRTOS/Source/queue.c ****         UBaseType_t uxHighestPriorityOfWaitingTasks;
2101:../../../../dependencies/freertos/FreeRTOSv10.4.1/FreeRTOS/Source/queue.c **** 
2102:../../../../dependencies/freertos/FreeRTOSv10.4.1/FreeRTOS/Source/queue.c ****         /* If a task waiting for a mutex causes the mutex holder to inherit a
2103:../../../../dependencies/freertos/FreeRTOSv10.4.1/FreeRTOS/Source/queue.c ****          * priority, but the waiting task times out, then the holder should
2104:../../../../dependencies/freertos/FreeRTOSv10.4.1/FreeRTOS/Source/queue.c ****          * disinherit the priority - but only down to the highest priority of any
2105:../../../../dependencies/freertos/FreeRTOSv10.4.1/FreeRTOS/Source/queue.c ****          * other tasks that are waiting for the same mutex.  For this purpose,
2106:../../../../dependencies/freertos/FreeRTOSv10.4.1/FreeRTOS/Source/queue.c ****          * return the priority of the highest priority task that is waiting for the
2107:../../../../dependencies/freertos/FreeRTOSv10.4.1/FreeRTOS/Source/queue.c ****          * mutex. */
2108:../../../../dependencies/freertos/FreeRTOSv10.4.1/FreeRTOS/Source/queue.c ****         if( listCURRENT_LIST_LENGTH( &( pxQueue->xTasksWaitingToReceive ) ) > 0U )
 4016              		.loc 1 2108 13
 4017 0008 7B68     		ldr	r3, [r7, #4]
 4018 000a 5B6A     		ldr	r3, [r3, #36]
ARM GAS  /var/folders/kj/yzqgq53j3dg15vgwwwwgf5s00000gn/T//ccGgwidk.s 			page 113


 4019              		.loc 1 2108 11
 4020 000c 002B     		cmp	r3, #0
 4021 000e 06D0     		beq	.L261
2109:../../../../dependencies/freertos/FreeRTOSv10.4.1/FreeRTOS/Source/queue.c ****         {
2110:../../../../dependencies/freertos/FreeRTOSv10.4.1/FreeRTOS/Source/queue.c ****             uxHighestPriorityOfWaitingTasks = ( UBaseType_t ) configMAX_PRIORITIES - ( UBaseType_t 
 4022              		.loc 1 2110 102
 4023 0010 7B68     		ldr	r3, [r7, #4]
 4024 0012 1B6B     		ldr	r3, [r3, #48]
 4025 0014 1B68     		ldr	r3, [r3]
 4026              		.loc 1 2110 45
 4027 0016 C3F10703 		rsb	r3, r3, #7
 4028 001a FB60     		str	r3, [r7, #12]
 4029 001c 01E0     		b	.L262
 4030              	.L261:
2111:../../../../dependencies/freertos/FreeRTOSv10.4.1/FreeRTOS/Source/queue.c ****         }
2112:../../../../dependencies/freertos/FreeRTOSv10.4.1/FreeRTOS/Source/queue.c ****         else
2113:../../../../dependencies/freertos/FreeRTOSv10.4.1/FreeRTOS/Source/queue.c ****         {
2114:../../../../dependencies/freertos/FreeRTOSv10.4.1/FreeRTOS/Source/queue.c ****             uxHighestPriorityOfWaitingTasks = tskIDLE_PRIORITY;
 4031              		.loc 1 2114 45
 4032 001e 0023     		movs	r3, #0
 4033 0020 FB60     		str	r3, [r7, #12]
 4034              	.L262:
2115:../../../../dependencies/freertos/FreeRTOSv10.4.1/FreeRTOS/Source/queue.c ****         }
2116:../../../../dependencies/freertos/FreeRTOSv10.4.1/FreeRTOS/Source/queue.c **** 
2117:../../../../dependencies/freertos/FreeRTOSv10.4.1/FreeRTOS/Source/queue.c ****         return uxHighestPriorityOfWaitingTasks;
 4035              		.loc 1 2117 16
 4036 0022 FB68     		ldr	r3, [r7, #12]
2118:../../../../dependencies/freertos/FreeRTOSv10.4.1/FreeRTOS/Source/queue.c ****     }
 4037              		.loc 1 2118 5
 4038 0024 1846     		mov	r0, r3
 4039 0026 1437     		adds	r7, r7, #20
 4040              	.LCFI133:
 4041              		.cfi_def_cfa_offset 4
 4042 0028 BD46     		mov	sp, r7
 4043              	.LCFI134:
 4044              		.cfi_def_cfa_register 13
 4045              		@ sp needed
 4046 002a 5DF8047B 		ldr	r7, [sp], #4
 4047              	.LCFI135:
 4048              		.cfi_restore 7
 4049              		.cfi_def_cfa_offset 0
 4050 002e 7047     		bx	lr
 4051              		.cfi_endproc
 4052              	.LFE30:
 4054              		.section	.text.prvCopyDataToQueue,"ax",%progbits
 4055              		.align	1
 4056              		.syntax unified
 4057              		.thumb
 4058              		.thumb_func
 4059              		.fpu fpv4-sp-d16
 4061              	prvCopyDataToQueue:
 4062              	.LFB31:
2119:../../../../dependencies/freertos/FreeRTOSv10.4.1/FreeRTOS/Source/queue.c **** 
2120:../../../../dependencies/freertos/FreeRTOSv10.4.1/FreeRTOS/Source/queue.c **** #endif /* configUSE_MUTEXES */
2121:../../../../dependencies/freertos/FreeRTOSv10.4.1/FreeRTOS/Source/queue.c **** /*-----------------------------------------------------------*/
2122:../../../../dependencies/freertos/FreeRTOSv10.4.1/FreeRTOS/Source/queue.c **** 
2123:../../../../dependencies/freertos/FreeRTOSv10.4.1/FreeRTOS/Source/queue.c **** static BaseType_t prvCopyDataToQueue( Queue_t * const pxQueue,
ARM GAS  /var/folders/kj/yzqgq53j3dg15vgwwwwgf5s00000gn/T//ccGgwidk.s 			page 114


2124:../../../../dependencies/freertos/FreeRTOSv10.4.1/FreeRTOS/Source/queue.c ****                                       const void * pvItemToQueue,
2125:../../../../dependencies/freertos/FreeRTOSv10.4.1/FreeRTOS/Source/queue.c ****                                       const BaseType_t xPosition )
2126:../../../../dependencies/freertos/FreeRTOSv10.4.1/FreeRTOS/Source/queue.c **** {
 4063              		.loc 1 2126 1
 4064              		.cfi_startproc
 4065              		@ args = 0, pretend = 0, frame = 24
 4066              		@ frame_needed = 1, uses_anonymous_args = 0
 4067 0000 80B5     		push	{r7, lr}
 4068              	.LCFI136:
 4069              		.cfi_def_cfa_offset 8
 4070              		.cfi_offset 7, -8
 4071              		.cfi_offset 14, -4
 4072 0002 86B0     		sub	sp, sp, #24
 4073              	.LCFI137:
 4074              		.cfi_def_cfa_offset 32
 4075 0004 00AF     		add	r7, sp, #0
 4076              	.LCFI138:
 4077              		.cfi_def_cfa_register 7
 4078 0006 F860     		str	r0, [r7, #12]
 4079 0008 B960     		str	r1, [r7, #8]
 4080 000a 7A60     		str	r2, [r7, #4]
2127:../../../../dependencies/freertos/FreeRTOSv10.4.1/FreeRTOS/Source/queue.c ****     BaseType_t xReturn = pdFALSE;
 4081              		.loc 1 2127 16
 4082 000c 0023     		movs	r3, #0
 4083 000e 7B61     		str	r3, [r7, #20]
2128:../../../../dependencies/freertos/FreeRTOSv10.4.1/FreeRTOS/Source/queue.c ****     UBaseType_t uxMessagesWaiting;
2129:../../../../dependencies/freertos/FreeRTOSv10.4.1/FreeRTOS/Source/queue.c **** 
2130:../../../../dependencies/freertos/FreeRTOSv10.4.1/FreeRTOS/Source/queue.c ****     /* This function is called from a critical section. */
2131:../../../../dependencies/freertos/FreeRTOSv10.4.1/FreeRTOS/Source/queue.c **** 
2132:../../../../dependencies/freertos/FreeRTOSv10.4.1/FreeRTOS/Source/queue.c ****     uxMessagesWaiting = pxQueue->uxMessagesWaiting;
 4084              		.loc 1 2132 23
 4085 0010 FB68     		ldr	r3, [r7, #12]
 4086 0012 9B6B     		ldr	r3, [r3, #56]
 4087 0014 3B61     		str	r3, [r7, #16]
2133:../../../../dependencies/freertos/FreeRTOSv10.4.1/FreeRTOS/Source/queue.c **** 
2134:../../../../dependencies/freertos/FreeRTOSv10.4.1/FreeRTOS/Source/queue.c ****     if( pxQueue->uxItemSize == ( UBaseType_t ) 0 )
 4088              		.loc 1 2134 16
 4089 0016 FB68     		ldr	r3, [r7, #12]
 4090 0018 1B6C     		ldr	r3, [r3, #64]
 4091              		.loc 1 2134 7
 4092 001a 002B     		cmp	r3, #0
 4093 001c 0DD1     		bne	.L265
2135:../../../../dependencies/freertos/FreeRTOSv10.4.1/FreeRTOS/Source/queue.c ****     {
2136:../../../../dependencies/freertos/FreeRTOSv10.4.1/FreeRTOS/Source/queue.c ****         #if ( configUSE_MUTEXES == 1 )
2137:../../../../dependencies/freertos/FreeRTOSv10.4.1/FreeRTOS/Source/queue.c ****             {
2138:../../../../dependencies/freertos/FreeRTOSv10.4.1/FreeRTOS/Source/queue.c ****                 if( pxQueue->uxQueueType == queueQUEUE_IS_MUTEX )
 4094              		.loc 1 2138 28
 4095 001e FB68     		ldr	r3, [r7, #12]
 4096 0020 1B68     		ldr	r3, [r3]
 4097              		.loc 1 2138 19
 4098 0022 002B     		cmp	r3, #0
 4099 0024 4DD1     		bne	.L266
2139:../../../../dependencies/freertos/FreeRTOSv10.4.1/FreeRTOS/Source/queue.c ****                 {
2140:../../../../dependencies/freertos/FreeRTOSv10.4.1/FreeRTOS/Source/queue.c ****                     /* The mutex is no longer being held. */
2141:../../../../dependencies/freertos/FreeRTOSv10.4.1/FreeRTOS/Source/queue.c ****                     xReturn = xTaskPriorityDisinherit( pxQueue->u.xSemaphore.xMutexHolder );
 4100              		.loc 1 2141 31
 4101 0026 FB68     		ldr	r3, [r7, #12]
ARM GAS  /var/folders/kj/yzqgq53j3dg15vgwwwwgf5s00000gn/T//ccGgwidk.s 			page 115


 4102 0028 9B68     		ldr	r3, [r3, #8]
 4103 002a 1846     		mov	r0, r3
 4104 002c FFF7FEFF 		bl	xTaskPriorityDisinherit
 4105 0030 7861     		str	r0, [r7, #20]
2142:../../../../dependencies/freertos/FreeRTOSv10.4.1/FreeRTOS/Source/queue.c ****                     pxQueue->u.xSemaphore.xMutexHolder = NULL;
 4106              		.loc 1 2142 56
 4107 0032 FB68     		ldr	r3, [r7, #12]
 4108 0034 0022     		movs	r2, #0
 4109 0036 9A60     		str	r2, [r3, #8]
 4110 0038 43E0     		b	.L266
 4111              	.L265:
2143:../../../../dependencies/freertos/FreeRTOSv10.4.1/FreeRTOS/Source/queue.c ****                 }
2144:../../../../dependencies/freertos/FreeRTOSv10.4.1/FreeRTOS/Source/queue.c ****                 else
2145:../../../../dependencies/freertos/FreeRTOSv10.4.1/FreeRTOS/Source/queue.c ****                 {
2146:../../../../dependencies/freertos/FreeRTOSv10.4.1/FreeRTOS/Source/queue.c ****                     mtCOVERAGE_TEST_MARKER();
2147:../../../../dependencies/freertos/FreeRTOSv10.4.1/FreeRTOS/Source/queue.c ****                 }
2148:../../../../dependencies/freertos/FreeRTOSv10.4.1/FreeRTOS/Source/queue.c ****             }
2149:../../../../dependencies/freertos/FreeRTOSv10.4.1/FreeRTOS/Source/queue.c ****         #endif /* configUSE_MUTEXES */
2150:../../../../dependencies/freertos/FreeRTOSv10.4.1/FreeRTOS/Source/queue.c ****     }
2151:../../../../dependencies/freertos/FreeRTOSv10.4.1/FreeRTOS/Source/queue.c ****     else if( xPosition == queueSEND_TO_BACK )
 4112              		.loc 1 2151 12
 4113 003a 7B68     		ldr	r3, [r7, #4]
 4114 003c 002B     		cmp	r3, #0
 4115 003e 19D1     		bne	.L267
2152:../../../../dependencies/freertos/FreeRTOSv10.4.1/FreeRTOS/Source/queue.c ****     {
2153:../../../../dependencies/freertos/FreeRTOSv10.4.1/FreeRTOS/Source/queue.c ****         ( void ) memcpy( ( void * ) pxQueue->pcWriteTo, pvItemToQueue, ( size_t ) pxQueue->uxItemSi
 4116              		.loc 1 2153 44
 4117 0040 FB68     		ldr	r3, [r7, #12]
 4118 0042 5868     		ldr	r0, [r3, #4]
 4119              		.loc 1 2153 90
 4120 0044 FB68     		ldr	r3, [r7, #12]
 4121 0046 1B6C     		ldr	r3, [r3, #64]
 4122              		.loc 1 2153 18
 4123 0048 1A46     		mov	r2, r3
 4124 004a B968     		ldr	r1, [r7, #8]
 4125 004c FFF7FEFF 		bl	memcpy
2154:../../../../dependencies/freertos/FreeRTOSv10.4.1/FreeRTOS/Source/queue.c ****         pxQueue->pcWriteTo += pxQueue->uxItemSize;                                                 
 4126              		.loc 1 2154 28
 4127 0050 FB68     		ldr	r3, [r7, #12]
 4128 0052 5A68     		ldr	r2, [r3, #4]
 4129              		.loc 1 2154 38
 4130 0054 FB68     		ldr	r3, [r7, #12]
 4131 0056 1B6C     		ldr	r3, [r3, #64]
 4132              		.loc 1 2154 28
 4133 0058 1A44     		add	r2, r2, r3
 4134 005a FB68     		ldr	r3, [r7, #12]
 4135 005c 5A60     		str	r2, [r3, #4]
2155:../../../../dependencies/freertos/FreeRTOSv10.4.1/FreeRTOS/Source/queue.c **** 
2156:../../../../dependencies/freertos/FreeRTOSv10.4.1/FreeRTOS/Source/queue.c ****         if( pxQueue->pcWriteTo >= pxQueue->u.xQueue.pcTail )                                       
 4136              		.loc 1 2156 20
 4137 005e FB68     		ldr	r3, [r7, #12]
 4138 0060 5A68     		ldr	r2, [r3, #4]
 4139              		.loc 1 2156 52
 4140 0062 FB68     		ldr	r3, [r7, #12]
 4141 0064 9B68     		ldr	r3, [r3, #8]
 4142              		.loc 1 2156 11
 4143 0066 9A42     		cmp	r2, r3
ARM GAS  /var/folders/kj/yzqgq53j3dg15vgwwwwgf5s00000gn/T//ccGgwidk.s 			page 116


 4144 0068 2BD3     		bcc	.L266
2157:../../../../dependencies/freertos/FreeRTOSv10.4.1/FreeRTOS/Source/queue.c ****         {
2158:../../../../dependencies/freertos/FreeRTOSv10.4.1/FreeRTOS/Source/queue.c ****             pxQueue->pcWriteTo = pxQueue->pcHead;
 4145              		.loc 1 2158 41
 4146 006a FB68     		ldr	r3, [r7, #12]
 4147 006c 1A68     		ldr	r2, [r3]
 4148              		.loc 1 2158 32
 4149 006e FB68     		ldr	r3, [r7, #12]
 4150 0070 5A60     		str	r2, [r3, #4]
 4151 0072 26E0     		b	.L266
 4152              	.L267:
2159:../../../../dependencies/freertos/FreeRTOSv10.4.1/FreeRTOS/Source/queue.c ****         }
2160:../../../../dependencies/freertos/FreeRTOSv10.4.1/FreeRTOS/Source/queue.c ****         else
2161:../../../../dependencies/freertos/FreeRTOSv10.4.1/FreeRTOS/Source/queue.c ****         {
2162:../../../../dependencies/freertos/FreeRTOSv10.4.1/FreeRTOS/Source/queue.c ****             mtCOVERAGE_TEST_MARKER();
2163:../../../../dependencies/freertos/FreeRTOSv10.4.1/FreeRTOS/Source/queue.c ****         }
2164:../../../../dependencies/freertos/FreeRTOSv10.4.1/FreeRTOS/Source/queue.c ****     }
2165:../../../../dependencies/freertos/FreeRTOSv10.4.1/FreeRTOS/Source/queue.c ****     else
2166:../../../../dependencies/freertos/FreeRTOSv10.4.1/FreeRTOS/Source/queue.c ****     {
2167:../../../../dependencies/freertos/FreeRTOSv10.4.1/FreeRTOS/Source/queue.c ****         ( void ) memcpy( ( void * ) pxQueue->u.xQueue.pcReadFrom, pvItemToQueue, ( size_t ) pxQueue
 4153              		.loc 1 2167 54
 4154 0074 FB68     		ldr	r3, [r7, #12]
 4155 0076 D868     		ldr	r0, [r3, #12]
 4156              		.loc 1 2167 100
 4157 0078 FB68     		ldr	r3, [r7, #12]
 4158 007a 1B6C     		ldr	r3, [r3, #64]
 4159              		.loc 1 2167 18
 4160 007c 1A46     		mov	r2, r3
 4161 007e B968     		ldr	r1, [r7, #8]
 4162 0080 FFF7FEFF 		bl	memcpy
2168:../../../../dependencies/freertos/FreeRTOSv10.4.1/FreeRTOS/Source/queue.c ****         pxQueue->u.xQueue.pcReadFrom -= pxQueue->uxItemSize;
 4163              		.loc 1 2168 38
 4164 0084 FB68     		ldr	r3, [r7, #12]
 4165 0086 DA68     		ldr	r2, [r3, #12]
 4166              		.loc 1 2168 48
 4167 0088 FB68     		ldr	r3, [r7, #12]
 4168 008a 1B6C     		ldr	r3, [r3, #64]
 4169              		.loc 1 2168 38
 4170 008c 5B42     		rsbs	r3, r3, #0
 4171 008e 1A44     		add	r2, r2, r3
 4172 0090 FB68     		ldr	r3, [r7, #12]
 4173 0092 DA60     		str	r2, [r3, #12]
2169:../../../../dependencies/freertos/FreeRTOSv10.4.1/FreeRTOS/Source/queue.c **** 
2170:../../../../dependencies/freertos/FreeRTOSv10.4.1/FreeRTOS/Source/queue.c ****         if( pxQueue->u.xQueue.pcReadFrom < pxQueue->pcHead ) /*lint !e946 MISRA exception justified
 4174              		.loc 1 2170 30
 4175 0094 FB68     		ldr	r3, [r7, #12]
 4176 0096 DA68     		ldr	r2, [r3, #12]
 4177              		.loc 1 2170 51
 4178 0098 FB68     		ldr	r3, [r7, #12]
 4179 009a 1B68     		ldr	r3, [r3]
 4180              		.loc 1 2170 11
 4181 009c 9A42     		cmp	r2, r3
 4182 009e 07D2     		bcs	.L268
2171:../../../../dependencies/freertos/FreeRTOSv10.4.1/FreeRTOS/Source/queue.c ****         {
2172:../../../../dependencies/freertos/FreeRTOSv10.4.1/FreeRTOS/Source/queue.c ****             pxQueue->u.xQueue.pcReadFrom = ( pxQueue->u.xQueue.pcTail - pxQueue->uxItemSize );
 4183              		.loc 1 2172 63
 4184 00a0 FB68     		ldr	r3, [r7, #12]
ARM GAS  /var/folders/kj/yzqgq53j3dg15vgwwwwgf5s00000gn/T//ccGgwidk.s 			page 117


 4185 00a2 9A68     		ldr	r2, [r3, #8]
 4186              		.loc 1 2172 80
 4187 00a4 FB68     		ldr	r3, [r7, #12]
 4188 00a6 1B6C     		ldr	r3, [r3, #64]
 4189              		.loc 1 2172 71
 4190 00a8 5B42     		rsbs	r3, r3, #0
 4191 00aa 1A44     		add	r2, r2, r3
 4192              		.loc 1 2172 42
 4193 00ac FB68     		ldr	r3, [r7, #12]
 4194 00ae DA60     		str	r2, [r3, #12]
 4195              	.L268:
2173:../../../../dependencies/freertos/FreeRTOSv10.4.1/FreeRTOS/Source/queue.c ****         }
2174:../../../../dependencies/freertos/FreeRTOSv10.4.1/FreeRTOS/Source/queue.c ****         else
2175:../../../../dependencies/freertos/FreeRTOSv10.4.1/FreeRTOS/Source/queue.c ****         {
2176:../../../../dependencies/freertos/FreeRTOSv10.4.1/FreeRTOS/Source/queue.c ****             mtCOVERAGE_TEST_MARKER();
2177:../../../../dependencies/freertos/FreeRTOSv10.4.1/FreeRTOS/Source/queue.c ****         }
2178:../../../../dependencies/freertos/FreeRTOSv10.4.1/FreeRTOS/Source/queue.c **** 
2179:../../../../dependencies/freertos/FreeRTOSv10.4.1/FreeRTOS/Source/queue.c ****         if( xPosition == queueOVERWRITE )
 4196              		.loc 1 2179 11
 4197 00b0 7B68     		ldr	r3, [r7, #4]
 4198 00b2 022B     		cmp	r3, #2
 4199 00b4 05D1     		bne	.L266
2180:../../../../dependencies/freertos/FreeRTOSv10.4.1/FreeRTOS/Source/queue.c ****         {
2181:../../../../dependencies/freertos/FreeRTOSv10.4.1/FreeRTOS/Source/queue.c ****             if( uxMessagesWaiting > ( UBaseType_t ) 0 )
 4200              		.loc 1 2181 15
 4201 00b6 3B69     		ldr	r3, [r7, #16]
 4202 00b8 002B     		cmp	r3, #0
 4203 00ba 02D0     		beq	.L266
2182:../../../../dependencies/freertos/FreeRTOSv10.4.1/FreeRTOS/Source/queue.c ****             {
2183:../../../../dependencies/freertos/FreeRTOSv10.4.1/FreeRTOS/Source/queue.c ****                 /* An item is not being added but overwritten, so subtract
2184:../../../../dependencies/freertos/FreeRTOSv10.4.1/FreeRTOS/Source/queue.c ****                  * one from the recorded number of items in the queue so when
2185:../../../../dependencies/freertos/FreeRTOSv10.4.1/FreeRTOS/Source/queue.c ****                  * one is added again below the number of recorded items remains
2186:../../../../dependencies/freertos/FreeRTOSv10.4.1/FreeRTOS/Source/queue.c ****                  * correct. */
2187:../../../../dependencies/freertos/FreeRTOSv10.4.1/FreeRTOS/Source/queue.c ****                 --uxMessagesWaiting;
 4204              		.loc 1 2187 17
 4205 00bc 3B69     		ldr	r3, [r7, #16]
 4206 00be 013B     		subs	r3, r3, #1
 4207 00c0 3B61     		str	r3, [r7, #16]
 4208              	.L266:
2188:../../../../dependencies/freertos/FreeRTOSv10.4.1/FreeRTOS/Source/queue.c ****             }
2189:../../../../dependencies/freertos/FreeRTOSv10.4.1/FreeRTOS/Source/queue.c ****             else
2190:../../../../dependencies/freertos/FreeRTOSv10.4.1/FreeRTOS/Source/queue.c ****             {
2191:../../../../dependencies/freertos/FreeRTOSv10.4.1/FreeRTOS/Source/queue.c ****                 mtCOVERAGE_TEST_MARKER();
2192:../../../../dependencies/freertos/FreeRTOSv10.4.1/FreeRTOS/Source/queue.c ****             }
2193:../../../../dependencies/freertos/FreeRTOSv10.4.1/FreeRTOS/Source/queue.c ****         }
2194:../../../../dependencies/freertos/FreeRTOSv10.4.1/FreeRTOS/Source/queue.c ****         else
2195:../../../../dependencies/freertos/FreeRTOSv10.4.1/FreeRTOS/Source/queue.c ****         {
2196:../../../../dependencies/freertos/FreeRTOSv10.4.1/FreeRTOS/Source/queue.c ****             mtCOVERAGE_TEST_MARKER();
2197:../../../../dependencies/freertos/FreeRTOSv10.4.1/FreeRTOS/Source/queue.c ****         }
2198:../../../../dependencies/freertos/FreeRTOSv10.4.1/FreeRTOS/Source/queue.c ****     }
2199:../../../../dependencies/freertos/FreeRTOSv10.4.1/FreeRTOS/Source/queue.c **** 
2200:../../../../dependencies/freertos/FreeRTOSv10.4.1/FreeRTOS/Source/queue.c ****     pxQueue->uxMessagesWaiting = uxMessagesWaiting + ( UBaseType_t ) 1;
 4209              		.loc 1 2200 52
 4210 00c2 3B69     		ldr	r3, [r7, #16]
 4211 00c4 5A1C     		adds	r2, r3, #1
 4212              		.loc 1 2200 32
 4213 00c6 FB68     		ldr	r3, [r7, #12]
ARM GAS  /var/folders/kj/yzqgq53j3dg15vgwwwwgf5s00000gn/T//ccGgwidk.s 			page 118


 4214 00c8 9A63     		str	r2, [r3, #56]
2201:../../../../dependencies/freertos/FreeRTOSv10.4.1/FreeRTOS/Source/queue.c **** 
2202:../../../../dependencies/freertos/FreeRTOSv10.4.1/FreeRTOS/Source/queue.c ****     return xReturn;
 4215              		.loc 1 2202 12
 4216 00ca 7B69     		ldr	r3, [r7, #20]
2203:../../../../dependencies/freertos/FreeRTOSv10.4.1/FreeRTOS/Source/queue.c **** }
 4217              		.loc 1 2203 1
 4218 00cc 1846     		mov	r0, r3
 4219 00ce 1837     		adds	r7, r7, #24
 4220              	.LCFI139:
 4221              		.cfi_def_cfa_offset 8
 4222 00d0 BD46     		mov	sp, r7
 4223              	.LCFI140:
 4224              		.cfi_def_cfa_register 13
 4225              		@ sp needed
 4226 00d2 80BD     		pop	{r7, pc}
 4227              		.cfi_endproc
 4228              	.LFE31:
 4230              		.section	.text.prvCopyDataFromQueue,"ax",%progbits
 4231              		.align	1
 4232              		.syntax unified
 4233              		.thumb
 4234              		.thumb_func
 4235              		.fpu fpv4-sp-d16
 4237              	prvCopyDataFromQueue:
 4238              	.LFB32:
2204:../../../../dependencies/freertos/FreeRTOSv10.4.1/FreeRTOS/Source/queue.c **** /*-----------------------------------------------------------*/
2205:../../../../dependencies/freertos/FreeRTOSv10.4.1/FreeRTOS/Source/queue.c **** 
2206:../../../../dependencies/freertos/FreeRTOSv10.4.1/FreeRTOS/Source/queue.c **** static void prvCopyDataFromQueue( Queue_t * const pxQueue,
2207:../../../../dependencies/freertos/FreeRTOSv10.4.1/FreeRTOS/Source/queue.c ****                                   void * const pvBuffer )
2208:../../../../dependencies/freertos/FreeRTOSv10.4.1/FreeRTOS/Source/queue.c **** {
 4239              		.loc 1 2208 1
 4240              		.cfi_startproc
 4241              		@ args = 0, pretend = 0, frame = 8
 4242              		@ frame_needed = 1, uses_anonymous_args = 0
 4243 0000 80B5     		push	{r7, lr}
 4244              	.LCFI141:
 4245              		.cfi_def_cfa_offset 8
 4246              		.cfi_offset 7, -8
 4247              		.cfi_offset 14, -4
 4248 0002 82B0     		sub	sp, sp, #8
 4249              	.LCFI142:
 4250              		.cfi_def_cfa_offset 16
 4251 0004 00AF     		add	r7, sp, #0
 4252              	.LCFI143:
 4253              		.cfi_def_cfa_register 7
 4254 0006 7860     		str	r0, [r7, #4]
 4255 0008 3960     		str	r1, [r7]
2209:../../../../dependencies/freertos/FreeRTOSv10.4.1/FreeRTOS/Source/queue.c ****     if( pxQueue->uxItemSize != ( UBaseType_t ) 0 )
 4256              		.loc 1 2209 16
 4257 000a 7B68     		ldr	r3, [r7, #4]
 4258 000c 1B6C     		ldr	r3, [r3, #64]
 4259              		.loc 1 2209 7
 4260 000e 002B     		cmp	r3, #0
 4261 0010 18D0     		beq	.L273
2210:../../../../dependencies/freertos/FreeRTOSv10.4.1/FreeRTOS/Source/queue.c ****     {
2211:../../../../dependencies/freertos/FreeRTOSv10.4.1/FreeRTOS/Source/queue.c ****         pxQueue->u.xQueue.pcReadFrom += pxQueue->uxItemSize;           /*lint !e9016 Pointer arithm
ARM GAS  /var/folders/kj/yzqgq53j3dg15vgwwwwgf5s00000gn/T//ccGgwidk.s 			page 119


 4262              		.loc 1 2211 38
 4263 0012 7B68     		ldr	r3, [r7, #4]
 4264 0014 DA68     		ldr	r2, [r3, #12]
 4265              		.loc 1 2211 48
 4266 0016 7B68     		ldr	r3, [r7, #4]
 4267 0018 1B6C     		ldr	r3, [r3, #64]
 4268              		.loc 1 2211 38
 4269 001a 1A44     		add	r2, r2, r3
 4270 001c 7B68     		ldr	r3, [r7, #4]
 4271 001e DA60     		str	r2, [r3, #12]
2212:../../../../dependencies/freertos/FreeRTOSv10.4.1/FreeRTOS/Source/queue.c **** 
2213:../../../../dependencies/freertos/FreeRTOSv10.4.1/FreeRTOS/Source/queue.c ****         if( pxQueue->u.xQueue.pcReadFrom >= pxQueue->u.xQueue.pcTail ) /*lint !e946 MISRA exception
 4272              		.loc 1 2213 30
 4273 0020 7B68     		ldr	r3, [r7, #4]
 4274 0022 DA68     		ldr	r2, [r3, #12]
 4275              		.loc 1 2213 62
 4276 0024 7B68     		ldr	r3, [r7, #4]
 4277 0026 9B68     		ldr	r3, [r3, #8]
 4278              		.loc 1 2213 11
 4279 0028 9A42     		cmp	r2, r3
 4280 002a 03D3     		bcc	.L272
2214:../../../../dependencies/freertos/FreeRTOSv10.4.1/FreeRTOS/Source/queue.c ****         {
2215:../../../../dependencies/freertos/FreeRTOSv10.4.1/FreeRTOS/Source/queue.c ****             pxQueue->u.xQueue.pcReadFrom = pxQueue->pcHead;
 4281              		.loc 1 2215 51
 4282 002c 7B68     		ldr	r3, [r7, #4]
 4283 002e 1A68     		ldr	r2, [r3]
 4284              		.loc 1 2215 42
 4285 0030 7B68     		ldr	r3, [r7, #4]
 4286 0032 DA60     		str	r2, [r3, #12]
 4287              	.L272:
2216:../../../../dependencies/freertos/FreeRTOSv10.4.1/FreeRTOS/Source/queue.c ****         }
2217:../../../../dependencies/freertos/FreeRTOSv10.4.1/FreeRTOS/Source/queue.c ****         else
2218:../../../../dependencies/freertos/FreeRTOSv10.4.1/FreeRTOS/Source/queue.c ****         {
2219:../../../../dependencies/freertos/FreeRTOSv10.4.1/FreeRTOS/Source/queue.c ****             mtCOVERAGE_TEST_MARKER();
2220:../../../../dependencies/freertos/FreeRTOSv10.4.1/FreeRTOS/Source/queue.c ****         }
2221:../../../../dependencies/freertos/FreeRTOSv10.4.1/FreeRTOS/Source/queue.c **** 
2222:../../../../dependencies/freertos/FreeRTOSv10.4.1/FreeRTOS/Source/queue.c ****         ( void ) memcpy( ( void * ) pvBuffer, ( void * ) pxQueue->u.xQueue.pcReadFrom, ( size_t ) p
 4288              		.loc 1 2222 75
 4289 0034 7B68     		ldr	r3, [r7, #4]
 4290 0036 D968     		ldr	r1, [r3, #12]
 4291              		.loc 1 2222 106
 4292 0038 7B68     		ldr	r3, [r7, #4]
 4293 003a 1B6C     		ldr	r3, [r3, #64]
 4294              		.loc 1 2222 18
 4295 003c 1A46     		mov	r2, r3
 4296 003e 3868     		ldr	r0, [r7]
 4297 0040 FFF7FEFF 		bl	memcpy
 4298              	.L273:
2223:../../../../dependencies/freertos/FreeRTOSv10.4.1/FreeRTOS/Source/queue.c ****     }
2224:../../../../dependencies/freertos/FreeRTOSv10.4.1/FreeRTOS/Source/queue.c **** }
 4299              		.loc 1 2224 1
 4300 0044 00BF     		nop
 4301 0046 0837     		adds	r7, r7, #8
 4302              	.LCFI144:
 4303              		.cfi_def_cfa_offset 8
 4304 0048 BD46     		mov	sp, r7
 4305              	.LCFI145:
ARM GAS  /var/folders/kj/yzqgq53j3dg15vgwwwwgf5s00000gn/T//ccGgwidk.s 			page 120


 4306              		.cfi_def_cfa_register 13
 4307              		@ sp needed
 4308 004a 80BD     		pop	{r7, pc}
 4309              		.cfi_endproc
 4310              	.LFE32:
 4312              		.section	.text.prvUnlockQueue,"ax",%progbits
 4313              		.align	1
 4314              		.syntax unified
 4315              		.thumb
 4316              		.thumb_func
 4317              		.fpu fpv4-sp-d16
 4319              	prvUnlockQueue:
 4320              	.LFB33:
2225:../../../../dependencies/freertos/FreeRTOSv10.4.1/FreeRTOS/Source/queue.c **** /*-----------------------------------------------------------*/
2226:../../../../dependencies/freertos/FreeRTOSv10.4.1/FreeRTOS/Source/queue.c **** 
2227:../../../../dependencies/freertos/FreeRTOSv10.4.1/FreeRTOS/Source/queue.c **** static void prvUnlockQueue( Queue_t * const pxQueue )
2228:../../../../dependencies/freertos/FreeRTOSv10.4.1/FreeRTOS/Source/queue.c **** {
 4321              		.loc 1 2228 1
 4322              		.cfi_startproc
 4323              		@ args = 0, pretend = 0, frame = 16
 4324              		@ frame_needed = 1, uses_anonymous_args = 0
 4325 0000 80B5     		push	{r7, lr}
 4326              	.LCFI146:
 4327              		.cfi_def_cfa_offset 8
 4328              		.cfi_offset 7, -8
 4329              		.cfi_offset 14, -4
 4330 0002 84B0     		sub	sp, sp, #16
 4331              	.LCFI147:
 4332              		.cfi_def_cfa_offset 24
 4333 0004 00AF     		add	r7, sp, #0
 4334              	.LCFI148:
 4335              		.cfi_def_cfa_register 7
 4336 0006 7860     		str	r0, [r7, #4]
2229:../../../../dependencies/freertos/FreeRTOSv10.4.1/FreeRTOS/Source/queue.c ****     /* THIS FUNCTION MUST BE CALLED WITH THE SCHEDULER SUSPENDED. */
2230:../../../../dependencies/freertos/FreeRTOSv10.4.1/FreeRTOS/Source/queue.c **** 
2231:../../../../dependencies/freertos/FreeRTOSv10.4.1/FreeRTOS/Source/queue.c ****     /* The lock counts contains the number of extra data items placed or
2232:../../../../dependencies/freertos/FreeRTOSv10.4.1/FreeRTOS/Source/queue.c ****      * removed from the queue while the queue was locked.  When a queue is
2233:../../../../dependencies/freertos/FreeRTOSv10.4.1/FreeRTOS/Source/queue.c ****      * locked items can be added or removed, but the event lists cannot be
2234:../../../../dependencies/freertos/FreeRTOSv10.4.1/FreeRTOS/Source/queue.c ****      * updated. */
2235:../../../../dependencies/freertos/FreeRTOSv10.4.1/FreeRTOS/Source/queue.c ****     taskENTER_CRITICAL();
 4337              		.loc 1 2235 5
 4338 0008 FFF7FEFF 		bl	vPortEnterCritical
 4339              	.LBB216:
2236:../../../../dependencies/freertos/FreeRTOSv10.4.1/FreeRTOS/Source/queue.c ****     {
2237:../../../../dependencies/freertos/FreeRTOSv10.4.1/FreeRTOS/Source/queue.c ****         int8_t cTxLock = pxQueue->cTxLock;
 4340              		.loc 1 2237 16
 4341 000c 7B68     		ldr	r3, [r7, #4]
 4342 000e 93F84530 		ldrb	r3, [r3, #69]
 4343 0012 FB73     		strb	r3, [r7, #15]
2238:../../../../dependencies/freertos/FreeRTOSv10.4.1/FreeRTOS/Source/queue.c **** 
2239:../../../../dependencies/freertos/FreeRTOSv10.4.1/FreeRTOS/Source/queue.c ****         /* See if data was added to the queue while it was locked. */
2240:../../../../dependencies/freertos/FreeRTOSv10.4.1/FreeRTOS/Source/queue.c ****         while( cTxLock > queueLOCKED_UNMODIFIED )
 4344              		.loc 1 2240 14
 4345 0014 11E0     		b	.L275
 4346              	.L279:
2241:../../../../dependencies/freertos/FreeRTOSv10.4.1/FreeRTOS/Source/queue.c ****         {
2242:../../../../dependencies/freertos/FreeRTOSv10.4.1/FreeRTOS/Source/queue.c ****             /* Data was posted while the queue was locked.  Are any tasks
ARM GAS  /var/folders/kj/yzqgq53j3dg15vgwwwwgf5s00000gn/T//ccGgwidk.s 			page 121


2243:../../../../dependencies/freertos/FreeRTOSv10.4.1/FreeRTOS/Source/queue.c ****              * blocked waiting for data to become available? */
2244:../../../../dependencies/freertos/FreeRTOSv10.4.1/FreeRTOS/Source/queue.c ****             #if ( configUSE_QUEUE_SETS == 1 )
2245:../../../../dependencies/freertos/FreeRTOSv10.4.1/FreeRTOS/Source/queue.c ****                 {
2246:../../../../dependencies/freertos/FreeRTOSv10.4.1/FreeRTOS/Source/queue.c ****                     if( pxQueue->pxQueueSetContainer != NULL )
2247:../../../../dependencies/freertos/FreeRTOSv10.4.1/FreeRTOS/Source/queue.c ****                     {
2248:../../../../dependencies/freertos/FreeRTOSv10.4.1/FreeRTOS/Source/queue.c ****                         if( prvNotifyQueueSetContainer( pxQueue ) != pdFALSE )
2249:../../../../dependencies/freertos/FreeRTOSv10.4.1/FreeRTOS/Source/queue.c ****                         {
2250:../../../../dependencies/freertos/FreeRTOSv10.4.1/FreeRTOS/Source/queue.c ****                             /* The queue is a member of a queue set, and posting to
2251:../../../../dependencies/freertos/FreeRTOSv10.4.1/FreeRTOS/Source/queue.c ****                              * the queue set caused a higher priority task to unblock.
2252:../../../../dependencies/freertos/FreeRTOSv10.4.1/FreeRTOS/Source/queue.c ****                              * A context switch is required. */
2253:../../../../dependencies/freertos/FreeRTOSv10.4.1/FreeRTOS/Source/queue.c ****                             vTaskMissedYield();
2254:../../../../dependencies/freertos/FreeRTOSv10.4.1/FreeRTOS/Source/queue.c ****                         }
2255:../../../../dependencies/freertos/FreeRTOSv10.4.1/FreeRTOS/Source/queue.c ****                         else
2256:../../../../dependencies/freertos/FreeRTOSv10.4.1/FreeRTOS/Source/queue.c ****                         {
2257:../../../../dependencies/freertos/FreeRTOSv10.4.1/FreeRTOS/Source/queue.c ****                             mtCOVERAGE_TEST_MARKER();
2258:../../../../dependencies/freertos/FreeRTOSv10.4.1/FreeRTOS/Source/queue.c ****                         }
2259:../../../../dependencies/freertos/FreeRTOSv10.4.1/FreeRTOS/Source/queue.c ****                     }
2260:../../../../dependencies/freertos/FreeRTOSv10.4.1/FreeRTOS/Source/queue.c ****                     else
2261:../../../../dependencies/freertos/FreeRTOSv10.4.1/FreeRTOS/Source/queue.c ****                     {
2262:../../../../dependencies/freertos/FreeRTOSv10.4.1/FreeRTOS/Source/queue.c ****                         /* Tasks that are removed from the event list will get
2263:../../../../dependencies/freertos/FreeRTOSv10.4.1/FreeRTOS/Source/queue.c ****                          * added to the pending ready list as the scheduler is still
2264:../../../../dependencies/freertos/FreeRTOSv10.4.1/FreeRTOS/Source/queue.c ****                          * suspended. */
2265:../../../../dependencies/freertos/FreeRTOSv10.4.1/FreeRTOS/Source/queue.c ****                         if( listLIST_IS_EMPTY( &( pxQueue->xTasksWaitingToReceive ) ) == pdFALSE )
2266:../../../../dependencies/freertos/FreeRTOSv10.4.1/FreeRTOS/Source/queue.c ****                         {
2267:../../../../dependencies/freertos/FreeRTOSv10.4.1/FreeRTOS/Source/queue.c ****                             if( xTaskRemoveFromEventList( &( pxQueue->xTasksWaitingToReceive ) ) !=
2268:../../../../dependencies/freertos/FreeRTOSv10.4.1/FreeRTOS/Source/queue.c ****                             {
2269:../../../../dependencies/freertos/FreeRTOSv10.4.1/FreeRTOS/Source/queue.c ****                                 /* The task waiting has a higher priority so record that a
2270:../../../../dependencies/freertos/FreeRTOSv10.4.1/FreeRTOS/Source/queue.c ****                                  * context switch is required. */
2271:../../../../dependencies/freertos/FreeRTOSv10.4.1/FreeRTOS/Source/queue.c ****                                 vTaskMissedYield();
2272:../../../../dependencies/freertos/FreeRTOSv10.4.1/FreeRTOS/Source/queue.c ****                             }
2273:../../../../dependencies/freertos/FreeRTOSv10.4.1/FreeRTOS/Source/queue.c ****                             else
2274:../../../../dependencies/freertos/FreeRTOSv10.4.1/FreeRTOS/Source/queue.c ****                             {
2275:../../../../dependencies/freertos/FreeRTOSv10.4.1/FreeRTOS/Source/queue.c ****                                 mtCOVERAGE_TEST_MARKER();
2276:../../../../dependencies/freertos/FreeRTOSv10.4.1/FreeRTOS/Source/queue.c ****                             }
2277:../../../../dependencies/freertos/FreeRTOSv10.4.1/FreeRTOS/Source/queue.c ****                         }
2278:../../../../dependencies/freertos/FreeRTOSv10.4.1/FreeRTOS/Source/queue.c ****                         else
2279:../../../../dependencies/freertos/FreeRTOSv10.4.1/FreeRTOS/Source/queue.c ****                         {
2280:../../../../dependencies/freertos/FreeRTOSv10.4.1/FreeRTOS/Source/queue.c ****                             break;
2281:../../../../dependencies/freertos/FreeRTOSv10.4.1/FreeRTOS/Source/queue.c ****                         }
2282:../../../../dependencies/freertos/FreeRTOSv10.4.1/FreeRTOS/Source/queue.c ****                     }
2283:../../../../dependencies/freertos/FreeRTOSv10.4.1/FreeRTOS/Source/queue.c ****                 }
2284:../../../../dependencies/freertos/FreeRTOSv10.4.1/FreeRTOS/Source/queue.c ****             #else /* configUSE_QUEUE_SETS */
2285:../../../../dependencies/freertos/FreeRTOSv10.4.1/FreeRTOS/Source/queue.c ****                 {
2286:../../../../dependencies/freertos/FreeRTOSv10.4.1/FreeRTOS/Source/queue.c ****                     /* Tasks that are removed from the event list will get added to
2287:../../../../dependencies/freertos/FreeRTOSv10.4.1/FreeRTOS/Source/queue.c ****                      * the pending ready list as the scheduler is still suspended. */
2288:../../../../dependencies/freertos/FreeRTOSv10.4.1/FreeRTOS/Source/queue.c ****                     if( listLIST_IS_EMPTY( &( pxQueue->xTasksWaitingToReceive ) ) == pdFALSE )
 4347              		.loc 1 2288 25
 4348 0016 7B68     		ldr	r3, [r7, #4]
 4349 0018 5B6A     		ldr	r3, [r3, #36]
 4350              		.loc 1 2288 23
 4351 001a 002B     		cmp	r3, #0
 4352 001c 12D0     		beq	.L285
2289:../../../../dependencies/freertos/FreeRTOSv10.4.1/FreeRTOS/Source/queue.c ****                     {
2290:../../../../dependencies/freertos/FreeRTOSv10.4.1/FreeRTOS/Source/queue.c ****                         if( xTaskRemoveFromEventList( &( pxQueue->xTasksWaitingToReceive ) ) != pdF
 4353              		.loc 1 2290 55
 4354 001e 7B68     		ldr	r3, [r7, #4]
 4355 0020 2433     		adds	r3, r3, #36
ARM GAS  /var/folders/kj/yzqgq53j3dg15vgwwwwgf5s00000gn/T//ccGgwidk.s 			page 122


 4356              		.loc 1 2290 29
 4357 0022 1846     		mov	r0, r3
 4358 0024 FFF7FEFF 		bl	xTaskRemoveFromEventList
 4359 0028 0346     		mov	r3, r0
 4360              		.loc 1 2290 27
 4361 002a 002B     		cmp	r3, #0
 4362 002c 01D0     		beq	.L277
2291:../../../../dependencies/freertos/FreeRTOSv10.4.1/FreeRTOS/Source/queue.c ****                         {
2292:../../../../dependencies/freertos/FreeRTOSv10.4.1/FreeRTOS/Source/queue.c ****                             /* The task waiting has a higher priority so record that
2293:../../../../dependencies/freertos/FreeRTOSv10.4.1/FreeRTOS/Source/queue.c ****                              * a context switch is required. */
2294:../../../../dependencies/freertos/FreeRTOSv10.4.1/FreeRTOS/Source/queue.c ****                             vTaskMissedYield();
 4363              		.loc 1 2294 29
 4364 002e FFF7FEFF 		bl	vTaskMissedYield
 4365              	.L277:
2295:../../../../dependencies/freertos/FreeRTOSv10.4.1/FreeRTOS/Source/queue.c ****                         }
2296:../../../../dependencies/freertos/FreeRTOSv10.4.1/FreeRTOS/Source/queue.c ****                         else
2297:../../../../dependencies/freertos/FreeRTOSv10.4.1/FreeRTOS/Source/queue.c ****                         {
2298:../../../../dependencies/freertos/FreeRTOSv10.4.1/FreeRTOS/Source/queue.c ****                             mtCOVERAGE_TEST_MARKER();
2299:../../../../dependencies/freertos/FreeRTOSv10.4.1/FreeRTOS/Source/queue.c ****                         }
2300:../../../../dependencies/freertos/FreeRTOSv10.4.1/FreeRTOS/Source/queue.c ****                     }
2301:../../../../dependencies/freertos/FreeRTOSv10.4.1/FreeRTOS/Source/queue.c ****                     else
2302:../../../../dependencies/freertos/FreeRTOSv10.4.1/FreeRTOS/Source/queue.c ****                     {
2303:../../../../dependencies/freertos/FreeRTOSv10.4.1/FreeRTOS/Source/queue.c ****                         break;
2304:../../../../dependencies/freertos/FreeRTOSv10.4.1/FreeRTOS/Source/queue.c ****                     }
2305:../../../../dependencies/freertos/FreeRTOSv10.4.1/FreeRTOS/Source/queue.c ****                 }
2306:../../../../dependencies/freertos/FreeRTOSv10.4.1/FreeRTOS/Source/queue.c ****             #endif /* configUSE_QUEUE_SETS */
2307:../../../../dependencies/freertos/FreeRTOSv10.4.1/FreeRTOS/Source/queue.c **** 
2308:../../../../dependencies/freertos/FreeRTOSv10.4.1/FreeRTOS/Source/queue.c ****             --cTxLock;
 4366              		.loc 1 2308 13
 4367 0032 FB7B     		ldrb	r3, [r7, #15]	@ zero_extendqisi2
 4368 0034 013B     		subs	r3, r3, #1
 4369 0036 DBB2     		uxtb	r3, r3
 4370 0038 FB73     		strb	r3, [r7, #15]
 4371              	.L275:
2240:../../../../dependencies/freertos/FreeRTOSv10.4.1/FreeRTOS/Source/queue.c ****         {
 4372              		.loc 1 2240 14
 4373 003a 97F90F30 		ldrsb	r3, [r7, #15]
 4374 003e 002B     		cmp	r3, #0
 4375 0040 E9DC     		bgt	.L279
 4376 0042 00E0     		b	.L278
 4377              	.L285:
2303:../../../../dependencies/freertos/FreeRTOSv10.4.1/FreeRTOS/Source/queue.c ****                     }
 4378              		.loc 1 2303 25
 4379 0044 00BF     		nop
 4380              	.L278:
2309:../../../../dependencies/freertos/FreeRTOSv10.4.1/FreeRTOS/Source/queue.c ****         }
2310:../../../../dependencies/freertos/FreeRTOSv10.4.1/FreeRTOS/Source/queue.c **** 
2311:../../../../dependencies/freertos/FreeRTOSv10.4.1/FreeRTOS/Source/queue.c ****         pxQueue->cTxLock = queueUNLOCKED;
 4381              		.loc 1 2311 26
 4382 0046 7B68     		ldr	r3, [r7, #4]
 4383 0048 FF22     		movs	r2, #255
 4384 004a 83F84520 		strb	r2, [r3, #69]
 4385              	.LBE216:
2312:../../../../dependencies/freertos/FreeRTOSv10.4.1/FreeRTOS/Source/queue.c ****     }
2313:../../../../dependencies/freertos/FreeRTOSv10.4.1/FreeRTOS/Source/queue.c ****     taskEXIT_CRITICAL();
 4386              		.loc 1 2313 5
 4387 004e FFF7FEFF 		bl	vPortExitCritical
ARM GAS  /var/folders/kj/yzqgq53j3dg15vgwwwwgf5s00000gn/T//ccGgwidk.s 			page 123


2314:../../../../dependencies/freertos/FreeRTOSv10.4.1/FreeRTOS/Source/queue.c **** 
2315:../../../../dependencies/freertos/FreeRTOSv10.4.1/FreeRTOS/Source/queue.c ****     /* Do the same for the Rx lock. */
2316:../../../../dependencies/freertos/FreeRTOSv10.4.1/FreeRTOS/Source/queue.c ****     taskENTER_CRITICAL();
 4388              		.loc 1 2316 5
 4389 0052 FFF7FEFF 		bl	vPortEnterCritical
 4390              	.LBB217:
2317:../../../../dependencies/freertos/FreeRTOSv10.4.1/FreeRTOS/Source/queue.c ****     {
2318:../../../../dependencies/freertos/FreeRTOSv10.4.1/FreeRTOS/Source/queue.c ****         int8_t cRxLock = pxQueue->cRxLock;
 4391              		.loc 1 2318 16
 4392 0056 7B68     		ldr	r3, [r7, #4]
 4393 0058 93F84430 		ldrb	r3, [r3, #68]
 4394 005c BB73     		strb	r3, [r7, #14]
2319:../../../../dependencies/freertos/FreeRTOSv10.4.1/FreeRTOS/Source/queue.c **** 
2320:../../../../dependencies/freertos/FreeRTOSv10.4.1/FreeRTOS/Source/queue.c ****         while( cRxLock > queueLOCKED_UNMODIFIED )
 4395              		.loc 1 2320 14
 4396 005e 11E0     		b	.L280
 4397              	.L284:
2321:../../../../dependencies/freertos/FreeRTOSv10.4.1/FreeRTOS/Source/queue.c ****         {
2322:../../../../dependencies/freertos/FreeRTOSv10.4.1/FreeRTOS/Source/queue.c ****             if( listLIST_IS_EMPTY( &( pxQueue->xTasksWaitingToSend ) ) == pdFALSE )
 4398              		.loc 1 2322 17
 4399 0060 7B68     		ldr	r3, [r7, #4]
 4400 0062 1B69     		ldr	r3, [r3, #16]
 4401              		.loc 1 2322 15
 4402 0064 002B     		cmp	r3, #0
 4403 0066 12D0     		beq	.L286
2323:../../../../dependencies/freertos/FreeRTOSv10.4.1/FreeRTOS/Source/queue.c ****             {
2324:../../../../dependencies/freertos/FreeRTOSv10.4.1/FreeRTOS/Source/queue.c ****                 if( xTaskRemoveFromEventList( &( pxQueue->xTasksWaitingToSend ) ) != pdFALSE )
 4404              		.loc 1 2324 47
 4405 0068 7B68     		ldr	r3, [r7, #4]
 4406 006a 1033     		adds	r3, r3, #16
 4407              		.loc 1 2324 21
 4408 006c 1846     		mov	r0, r3
 4409 006e FFF7FEFF 		bl	xTaskRemoveFromEventList
 4410 0072 0346     		mov	r3, r0
 4411              		.loc 1 2324 19
 4412 0074 002B     		cmp	r3, #0
 4413 0076 01D0     		beq	.L282
2325:../../../../dependencies/freertos/FreeRTOSv10.4.1/FreeRTOS/Source/queue.c ****                 {
2326:../../../../dependencies/freertos/FreeRTOSv10.4.1/FreeRTOS/Source/queue.c ****                     vTaskMissedYield();
 4414              		.loc 1 2326 21
 4415 0078 FFF7FEFF 		bl	vTaskMissedYield
 4416              	.L282:
2327:../../../../dependencies/freertos/FreeRTOSv10.4.1/FreeRTOS/Source/queue.c ****                 }
2328:../../../../dependencies/freertos/FreeRTOSv10.4.1/FreeRTOS/Source/queue.c ****                 else
2329:../../../../dependencies/freertos/FreeRTOSv10.4.1/FreeRTOS/Source/queue.c ****                 {
2330:../../../../dependencies/freertos/FreeRTOSv10.4.1/FreeRTOS/Source/queue.c ****                     mtCOVERAGE_TEST_MARKER();
2331:../../../../dependencies/freertos/FreeRTOSv10.4.1/FreeRTOS/Source/queue.c ****                 }
2332:../../../../dependencies/freertos/FreeRTOSv10.4.1/FreeRTOS/Source/queue.c **** 
2333:../../../../dependencies/freertos/FreeRTOSv10.4.1/FreeRTOS/Source/queue.c ****                 --cRxLock;
 4417              		.loc 1 2333 17
 4418 007c BB7B     		ldrb	r3, [r7, #14]	@ zero_extendqisi2
 4419 007e 013B     		subs	r3, r3, #1
 4420 0080 DBB2     		uxtb	r3, r3
 4421 0082 BB73     		strb	r3, [r7, #14]
 4422              	.L280:
2320:../../../../dependencies/freertos/FreeRTOSv10.4.1/FreeRTOS/Source/queue.c ****         {
 4423              		.loc 1 2320 14
ARM GAS  /var/folders/kj/yzqgq53j3dg15vgwwwwgf5s00000gn/T//ccGgwidk.s 			page 124


 4424 0084 97F90E30 		ldrsb	r3, [r7, #14]
 4425 0088 002B     		cmp	r3, #0
 4426 008a E9DC     		bgt	.L284
 4427 008c 00E0     		b	.L283
 4428              	.L286:
2334:../../../../dependencies/freertos/FreeRTOSv10.4.1/FreeRTOS/Source/queue.c ****             }
2335:../../../../dependencies/freertos/FreeRTOSv10.4.1/FreeRTOS/Source/queue.c ****             else
2336:../../../../dependencies/freertos/FreeRTOSv10.4.1/FreeRTOS/Source/queue.c ****             {
2337:../../../../dependencies/freertos/FreeRTOSv10.4.1/FreeRTOS/Source/queue.c ****                 break;
 4429              		.loc 1 2337 17
 4430 008e 00BF     		nop
 4431              	.L283:
2338:../../../../dependencies/freertos/FreeRTOSv10.4.1/FreeRTOS/Source/queue.c ****             }
2339:../../../../dependencies/freertos/FreeRTOSv10.4.1/FreeRTOS/Source/queue.c ****         }
2340:../../../../dependencies/freertos/FreeRTOSv10.4.1/FreeRTOS/Source/queue.c **** 
2341:../../../../dependencies/freertos/FreeRTOSv10.4.1/FreeRTOS/Source/queue.c ****         pxQueue->cRxLock = queueUNLOCKED;
 4432              		.loc 1 2341 26
 4433 0090 7B68     		ldr	r3, [r7, #4]
 4434 0092 FF22     		movs	r2, #255
 4435 0094 83F84420 		strb	r2, [r3, #68]
 4436              	.LBE217:
2342:../../../../dependencies/freertos/FreeRTOSv10.4.1/FreeRTOS/Source/queue.c ****     }
2343:../../../../dependencies/freertos/FreeRTOSv10.4.1/FreeRTOS/Source/queue.c ****     taskEXIT_CRITICAL();
 4437              		.loc 1 2343 5
 4438 0098 FFF7FEFF 		bl	vPortExitCritical
2344:../../../../dependencies/freertos/FreeRTOSv10.4.1/FreeRTOS/Source/queue.c **** }
 4439              		.loc 1 2344 1
 4440 009c 00BF     		nop
 4441 009e 1037     		adds	r7, r7, #16
 4442              	.LCFI149:
 4443              		.cfi_def_cfa_offset 8
 4444 00a0 BD46     		mov	sp, r7
 4445              	.LCFI150:
 4446              		.cfi_def_cfa_register 13
 4447              		@ sp needed
 4448 00a2 80BD     		pop	{r7, pc}
 4449              		.cfi_endproc
 4450              	.LFE33:
 4452              		.section	.text.prvIsQueueEmpty,"ax",%progbits
 4453              		.align	1
 4454              		.syntax unified
 4455              		.thumb
 4456              		.thumb_func
 4457              		.fpu fpv4-sp-d16
 4459              	prvIsQueueEmpty:
 4460              	.LFB34:
2345:../../../../dependencies/freertos/FreeRTOSv10.4.1/FreeRTOS/Source/queue.c **** /*-----------------------------------------------------------*/
2346:../../../../dependencies/freertos/FreeRTOSv10.4.1/FreeRTOS/Source/queue.c **** 
2347:../../../../dependencies/freertos/FreeRTOSv10.4.1/FreeRTOS/Source/queue.c **** static BaseType_t prvIsQueueEmpty( const Queue_t * pxQueue )
2348:../../../../dependencies/freertos/FreeRTOSv10.4.1/FreeRTOS/Source/queue.c **** {
 4461              		.loc 1 2348 1
 4462              		.cfi_startproc
 4463              		@ args = 0, pretend = 0, frame = 16
 4464              		@ frame_needed = 1, uses_anonymous_args = 0
 4465 0000 80B5     		push	{r7, lr}
 4466              	.LCFI151:
 4467              		.cfi_def_cfa_offset 8
ARM GAS  /var/folders/kj/yzqgq53j3dg15vgwwwwgf5s00000gn/T//ccGgwidk.s 			page 125


 4468              		.cfi_offset 7, -8
 4469              		.cfi_offset 14, -4
 4470 0002 84B0     		sub	sp, sp, #16
 4471              	.LCFI152:
 4472              		.cfi_def_cfa_offset 24
 4473 0004 00AF     		add	r7, sp, #0
 4474              	.LCFI153:
 4475              		.cfi_def_cfa_register 7
 4476 0006 7860     		str	r0, [r7, #4]
2349:../../../../dependencies/freertos/FreeRTOSv10.4.1/FreeRTOS/Source/queue.c ****     BaseType_t xReturn;
2350:../../../../dependencies/freertos/FreeRTOSv10.4.1/FreeRTOS/Source/queue.c **** 
2351:../../../../dependencies/freertos/FreeRTOSv10.4.1/FreeRTOS/Source/queue.c ****     taskENTER_CRITICAL();
 4477              		.loc 1 2351 5
 4478 0008 FFF7FEFF 		bl	vPortEnterCritical
2352:../../../../dependencies/freertos/FreeRTOSv10.4.1/FreeRTOS/Source/queue.c ****     {
2353:../../../../dependencies/freertos/FreeRTOSv10.4.1/FreeRTOS/Source/queue.c ****         if( pxQueue->uxMessagesWaiting == ( UBaseType_t ) 0 )
 4479              		.loc 1 2353 20
 4480 000c 7B68     		ldr	r3, [r7, #4]
 4481 000e 9B6B     		ldr	r3, [r3, #56]
 4482              		.loc 1 2353 11
 4483 0010 002B     		cmp	r3, #0
 4484 0012 02D1     		bne	.L288
2354:../../../../dependencies/freertos/FreeRTOSv10.4.1/FreeRTOS/Source/queue.c ****         {
2355:../../../../dependencies/freertos/FreeRTOSv10.4.1/FreeRTOS/Source/queue.c ****             xReturn = pdTRUE;
 4485              		.loc 1 2355 21
 4486 0014 0123     		movs	r3, #1
 4487 0016 FB60     		str	r3, [r7, #12]
 4488 0018 01E0     		b	.L289
 4489              	.L288:
2356:../../../../dependencies/freertos/FreeRTOSv10.4.1/FreeRTOS/Source/queue.c ****         }
2357:../../../../dependencies/freertos/FreeRTOSv10.4.1/FreeRTOS/Source/queue.c ****         else
2358:../../../../dependencies/freertos/FreeRTOSv10.4.1/FreeRTOS/Source/queue.c ****         {
2359:../../../../dependencies/freertos/FreeRTOSv10.4.1/FreeRTOS/Source/queue.c ****             xReturn = pdFALSE;
 4490              		.loc 1 2359 21
 4491 001a 0023     		movs	r3, #0
 4492 001c FB60     		str	r3, [r7, #12]
 4493              	.L289:
2360:../../../../dependencies/freertos/FreeRTOSv10.4.1/FreeRTOS/Source/queue.c ****         }
2361:../../../../dependencies/freertos/FreeRTOSv10.4.1/FreeRTOS/Source/queue.c ****     }
2362:../../../../dependencies/freertos/FreeRTOSv10.4.1/FreeRTOS/Source/queue.c ****     taskEXIT_CRITICAL();
 4494              		.loc 1 2362 5
 4495 001e FFF7FEFF 		bl	vPortExitCritical
2363:../../../../dependencies/freertos/FreeRTOSv10.4.1/FreeRTOS/Source/queue.c **** 
2364:../../../../dependencies/freertos/FreeRTOSv10.4.1/FreeRTOS/Source/queue.c ****     return xReturn;
 4496              		.loc 1 2364 12
 4497 0022 FB68     		ldr	r3, [r7, #12]
2365:../../../../dependencies/freertos/FreeRTOSv10.4.1/FreeRTOS/Source/queue.c **** }
 4498              		.loc 1 2365 1
 4499 0024 1846     		mov	r0, r3
 4500 0026 1037     		adds	r7, r7, #16
 4501              	.LCFI154:
 4502              		.cfi_def_cfa_offset 8
 4503 0028 BD46     		mov	sp, r7
 4504              	.LCFI155:
 4505              		.cfi_def_cfa_register 13
 4506              		@ sp needed
 4507 002a 80BD     		pop	{r7, pc}
ARM GAS  /var/folders/kj/yzqgq53j3dg15vgwwwwgf5s00000gn/T//ccGgwidk.s 			page 126


 4508              		.cfi_endproc
 4509              	.LFE34:
 4511              		.section	.text.xQueueIsQueueEmptyFromISR,"ax",%progbits
 4512              		.align	1
 4513              		.global	xQueueIsQueueEmptyFromISR
 4514              		.syntax unified
 4515              		.thumb
 4516              		.thumb_func
 4517              		.fpu fpv4-sp-d16
 4519              	xQueueIsQueueEmptyFromISR:
 4520              	.LFB35:
2366:../../../../dependencies/freertos/FreeRTOSv10.4.1/FreeRTOS/Source/queue.c **** /*-----------------------------------------------------------*/
2367:../../../../dependencies/freertos/FreeRTOSv10.4.1/FreeRTOS/Source/queue.c **** 
2368:../../../../dependencies/freertos/FreeRTOSv10.4.1/FreeRTOS/Source/queue.c **** BaseType_t xQueueIsQueueEmptyFromISR( const QueueHandle_t xQueue )
2369:../../../../dependencies/freertos/FreeRTOSv10.4.1/FreeRTOS/Source/queue.c **** {
 4521              		.loc 1 2369 1
 4522              		.cfi_startproc
 4523              		@ args = 0, pretend = 0, frame = 24
 4524              		@ frame_needed = 1, uses_anonymous_args = 0
 4525              		@ link register save eliminated.
 4526 0000 80B4     		push	{r7}
 4527              	.LCFI156:
 4528              		.cfi_def_cfa_offset 4
 4529              		.cfi_offset 7, -4
 4530 0002 87B0     		sub	sp, sp, #28
 4531              	.LCFI157:
 4532              		.cfi_def_cfa_offset 32
 4533 0004 00AF     		add	r7, sp, #0
 4534              	.LCFI158:
 4535              		.cfi_def_cfa_register 7
 4536 0006 7860     		str	r0, [r7, #4]
2370:../../../../dependencies/freertos/FreeRTOSv10.4.1/FreeRTOS/Source/queue.c ****     BaseType_t xReturn;
2371:../../../../dependencies/freertos/FreeRTOSv10.4.1/FreeRTOS/Source/queue.c ****     Queue_t * const pxQueue = xQueue;
 4537              		.loc 1 2371 21
 4538 0008 7B68     		ldr	r3, [r7, #4]
 4539 000a 3B61     		str	r3, [r7, #16]
2372:../../../../dependencies/freertos/FreeRTOSv10.4.1/FreeRTOS/Source/queue.c **** 
2373:../../../../dependencies/freertos/FreeRTOSv10.4.1/FreeRTOS/Source/queue.c ****     configASSERT( pxQueue );
 4540              		.loc 1 2373 5
 4541 000c 3B69     		ldr	r3, [r7, #16]
 4542 000e 002B     		cmp	r3, #0
 4543 0010 0AD1     		bne	.L292
 4544              	.LBB218:
 4545              	.LBB219:
 197:../../../../dependencies/freertos/FreeRTOSv10.4.1/FreeRTOS/Source/portable/GCC/ARM_CM4F/portmacro.h ****         (
 4546              		.loc 2 197 9
 4547              		.syntax unified
 4548              	@ 197 "../../../../dependencies/freertos/FreeRTOSv10.4.1/FreeRTOS/Source/portable/GCC/ARM_CM4F/port
 4549 0012 4FF05003 			mov r3, #80												
 4550 0016 83F31188 		msr basepri, r3											
 4551 001a BFF36F8F 		isb														
 4552 001e BFF34F8F 		dsb														
 4553              	
 4554              	@ 0 "" 2
 4555              		.thumb
 4556              		.syntax unified
 4557 0022 FB60     		str	r3, [r7, #12]
ARM GAS  /var/folders/kj/yzqgq53j3dg15vgwwwwgf5s00000gn/T//ccGgwidk.s 			page 127


 205:../../../../dependencies/freertos/FreeRTOSv10.4.1/FreeRTOS/Source/portable/GCC/ARM_CM4F/portmacro.h **** 
 4558              		.loc 2 205 5
 4559 0024 00BF     		nop
 4560              	.L293:
 4561              	.LBE219:
 4562              	.LBE218:
 4563              		.loc 1 2373 5 discriminator 1
 4564 0026 FEE7     		b	.L293
 4565              	.L292:
2374:../../../../dependencies/freertos/FreeRTOSv10.4.1/FreeRTOS/Source/queue.c **** 
2375:../../../../dependencies/freertos/FreeRTOSv10.4.1/FreeRTOS/Source/queue.c ****     if( pxQueue->uxMessagesWaiting == ( UBaseType_t ) 0 )
 4566              		.loc 1 2375 16
 4567 0028 3B69     		ldr	r3, [r7, #16]
 4568 002a 9B6B     		ldr	r3, [r3, #56]
 4569              		.loc 1 2375 7
 4570 002c 002B     		cmp	r3, #0
 4571 002e 02D1     		bne	.L294
2376:../../../../dependencies/freertos/FreeRTOSv10.4.1/FreeRTOS/Source/queue.c ****     {
2377:../../../../dependencies/freertos/FreeRTOSv10.4.1/FreeRTOS/Source/queue.c ****         xReturn = pdTRUE;
 4572              		.loc 1 2377 17
 4573 0030 0123     		movs	r3, #1
 4574 0032 7B61     		str	r3, [r7, #20]
 4575 0034 01E0     		b	.L295
 4576              	.L294:
2378:../../../../dependencies/freertos/FreeRTOSv10.4.1/FreeRTOS/Source/queue.c ****     }
2379:../../../../dependencies/freertos/FreeRTOSv10.4.1/FreeRTOS/Source/queue.c ****     else
2380:../../../../dependencies/freertos/FreeRTOSv10.4.1/FreeRTOS/Source/queue.c ****     {
2381:../../../../dependencies/freertos/FreeRTOSv10.4.1/FreeRTOS/Source/queue.c ****         xReturn = pdFALSE;
 4577              		.loc 1 2381 17
 4578 0036 0023     		movs	r3, #0
 4579 0038 7B61     		str	r3, [r7, #20]
 4580              	.L295:
2382:../../../../dependencies/freertos/FreeRTOSv10.4.1/FreeRTOS/Source/queue.c ****     }
2383:../../../../dependencies/freertos/FreeRTOSv10.4.1/FreeRTOS/Source/queue.c **** 
2384:../../../../dependencies/freertos/FreeRTOSv10.4.1/FreeRTOS/Source/queue.c ****     return xReturn;
 4581              		.loc 1 2384 12
 4582 003a 7B69     		ldr	r3, [r7, #20]
2385:../../../../dependencies/freertos/FreeRTOSv10.4.1/FreeRTOS/Source/queue.c **** } /*lint !e818 xQueue could not be pointer to const because it is a typedef. */
 4583              		.loc 1 2385 1
 4584 003c 1846     		mov	r0, r3
 4585 003e 1C37     		adds	r7, r7, #28
 4586              	.LCFI159:
 4587              		.cfi_def_cfa_offset 4
 4588 0040 BD46     		mov	sp, r7
 4589              	.LCFI160:
 4590              		.cfi_def_cfa_register 13
 4591              		@ sp needed
 4592 0042 5DF8047B 		ldr	r7, [sp], #4
 4593              	.LCFI161:
 4594              		.cfi_restore 7
 4595              		.cfi_def_cfa_offset 0
 4596 0046 7047     		bx	lr
 4597              		.cfi_endproc
 4598              	.LFE35:
 4600              		.section	.text.prvIsQueueFull,"ax",%progbits
 4601              		.align	1
 4602              		.syntax unified
ARM GAS  /var/folders/kj/yzqgq53j3dg15vgwwwwgf5s00000gn/T//ccGgwidk.s 			page 128


 4603              		.thumb
 4604              		.thumb_func
 4605              		.fpu fpv4-sp-d16
 4607              	prvIsQueueFull:
 4608              	.LFB36:
2386:../../../../dependencies/freertos/FreeRTOSv10.4.1/FreeRTOS/Source/queue.c **** /*-----------------------------------------------------------*/
2387:../../../../dependencies/freertos/FreeRTOSv10.4.1/FreeRTOS/Source/queue.c **** 
2388:../../../../dependencies/freertos/FreeRTOSv10.4.1/FreeRTOS/Source/queue.c **** static BaseType_t prvIsQueueFull( const Queue_t * pxQueue )
2389:../../../../dependencies/freertos/FreeRTOSv10.4.1/FreeRTOS/Source/queue.c **** {
 4609              		.loc 1 2389 1
 4610              		.cfi_startproc
 4611              		@ args = 0, pretend = 0, frame = 16
 4612              		@ frame_needed = 1, uses_anonymous_args = 0
 4613 0000 80B5     		push	{r7, lr}
 4614              	.LCFI162:
 4615              		.cfi_def_cfa_offset 8
 4616              		.cfi_offset 7, -8
 4617              		.cfi_offset 14, -4
 4618 0002 84B0     		sub	sp, sp, #16
 4619              	.LCFI163:
 4620              		.cfi_def_cfa_offset 24
 4621 0004 00AF     		add	r7, sp, #0
 4622              	.LCFI164:
 4623              		.cfi_def_cfa_register 7
 4624 0006 7860     		str	r0, [r7, #4]
2390:../../../../dependencies/freertos/FreeRTOSv10.4.1/FreeRTOS/Source/queue.c ****     BaseType_t xReturn;
2391:../../../../dependencies/freertos/FreeRTOSv10.4.1/FreeRTOS/Source/queue.c **** 
2392:../../../../dependencies/freertos/FreeRTOSv10.4.1/FreeRTOS/Source/queue.c ****     taskENTER_CRITICAL();
 4625              		.loc 1 2392 5
 4626 0008 FFF7FEFF 		bl	vPortEnterCritical
2393:../../../../dependencies/freertos/FreeRTOSv10.4.1/FreeRTOS/Source/queue.c ****     {
2394:../../../../dependencies/freertos/FreeRTOSv10.4.1/FreeRTOS/Source/queue.c ****         if( pxQueue->uxMessagesWaiting == pxQueue->uxLength )
 4627              		.loc 1 2394 20
 4628 000c 7B68     		ldr	r3, [r7, #4]
 4629 000e 9A6B     		ldr	r2, [r3, #56]
 4630              		.loc 1 2394 50
 4631 0010 7B68     		ldr	r3, [r7, #4]
 4632 0012 DB6B     		ldr	r3, [r3, #60]
 4633              		.loc 1 2394 11
 4634 0014 9A42     		cmp	r2, r3
 4635 0016 02D1     		bne	.L298
2395:../../../../dependencies/freertos/FreeRTOSv10.4.1/FreeRTOS/Source/queue.c ****         {
2396:../../../../dependencies/freertos/FreeRTOSv10.4.1/FreeRTOS/Source/queue.c ****             xReturn = pdTRUE;
 4636              		.loc 1 2396 21
 4637 0018 0123     		movs	r3, #1
 4638 001a FB60     		str	r3, [r7, #12]
 4639 001c 01E0     		b	.L299
 4640              	.L298:
2397:../../../../dependencies/freertos/FreeRTOSv10.4.1/FreeRTOS/Source/queue.c ****         }
2398:../../../../dependencies/freertos/FreeRTOSv10.4.1/FreeRTOS/Source/queue.c ****         else
2399:../../../../dependencies/freertos/FreeRTOSv10.4.1/FreeRTOS/Source/queue.c ****         {
2400:../../../../dependencies/freertos/FreeRTOSv10.4.1/FreeRTOS/Source/queue.c ****             xReturn = pdFALSE;
 4641              		.loc 1 2400 21
 4642 001e 0023     		movs	r3, #0
 4643 0020 FB60     		str	r3, [r7, #12]
 4644              	.L299:
2401:../../../../dependencies/freertos/FreeRTOSv10.4.1/FreeRTOS/Source/queue.c ****         }
ARM GAS  /var/folders/kj/yzqgq53j3dg15vgwwwwgf5s00000gn/T//ccGgwidk.s 			page 129


2402:../../../../dependencies/freertos/FreeRTOSv10.4.1/FreeRTOS/Source/queue.c ****     }
2403:../../../../dependencies/freertos/FreeRTOSv10.4.1/FreeRTOS/Source/queue.c ****     taskEXIT_CRITICAL();
 4645              		.loc 1 2403 5
 4646 0022 FFF7FEFF 		bl	vPortExitCritical
2404:../../../../dependencies/freertos/FreeRTOSv10.4.1/FreeRTOS/Source/queue.c **** 
2405:../../../../dependencies/freertos/FreeRTOSv10.4.1/FreeRTOS/Source/queue.c ****     return xReturn;
 4647              		.loc 1 2405 12
 4648 0026 FB68     		ldr	r3, [r7, #12]
2406:../../../../dependencies/freertos/FreeRTOSv10.4.1/FreeRTOS/Source/queue.c **** }
 4649              		.loc 1 2406 1
 4650 0028 1846     		mov	r0, r3
 4651 002a 1037     		adds	r7, r7, #16
 4652              	.LCFI165:
 4653              		.cfi_def_cfa_offset 8
 4654 002c BD46     		mov	sp, r7
 4655              	.LCFI166:
 4656              		.cfi_def_cfa_register 13
 4657              		@ sp needed
 4658 002e 80BD     		pop	{r7, pc}
 4659              		.cfi_endproc
 4660              	.LFE36:
 4662              		.section	.text.xQueueIsQueueFullFromISR,"ax",%progbits
 4663              		.align	1
 4664              		.global	xQueueIsQueueFullFromISR
 4665              		.syntax unified
 4666              		.thumb
 4667              		.thumb_func
 4668              		.fpu fpv4-sp-d16
 4670              	xQueueIsQueueFullFromISR:
 4671              	.LFB37:
2407:../../../../dependencies/freertos/FreeRTOSv10.4.1/FreeRTOS/Source/queue.c **** /*-----------------------------------------------------------*/
2408:../../../../dependencies/freertos/FreeRTOSv10.4.1/FreeRTOS/Source/queue.c **** 
2409:../../../../dependencies/freertos/FreeRTOSv10.4.1/FreeRTOS/Source/queue.c **** BaseType_t xQueueIsQueueFullFromISR( const QueueHandle_t xQueue )
2410:../../../../dependencies/freertos/FreeRTOSv10.4.1/FreeRTOS/Source/queue.c **** {
 4672              		.loc 1 2410 1
 4673              		.cfi_startproc
 4674              		@ args = 0, pretend = 0, frame = 24
 4675              		@ frame_needed = 1, uses_anonymous_args = 0
 4676              		@ link register save eliminated.
 4677 0000 80B4     		push	{r7}
 4678              	.LCFI167:
 4679              		.cfi_def_cfa_offset 4
 4680              		.cfi_offset 7, -4
 4681 0002 87B0     		sub	sp, sp, #28
 4682              	.LCFI168:
 4683              		.cfi_def_cfa_offset 32
 4684 0004 00AF     		add	r7, sp, #0
 4685              	.LCFI169:
 4686              		.cfi_def_cfa_register 7
 4687 0006 7860     		str	r0, [r7, #4]
2411:../../../../dependencies/freertos/FreeRTOSv10.4.1/FreeRTOS/Source/queue.c ****     BaseType_t xReturn;
2412:../../../../dependencies/freertos/FreeRTOSv10.4.1/FreeRTOS/Source/queue.c ****     Queue_t * const pxQueue = xQueue;
 4688              		.loc 1 2412 21
 4689 0008 7B68     		ldr	r3, [r7, #4]
 4690 000a 3B61     		str	r3, [r7, #16]
2413:../../../../dependencies/freertos/FreeRTOSv10.4.1/FreeRTOS/Source/queue.c **** 
2414:../../../../dependencies/freertos/FreeRTOSv10.4.1/FreeRTOS/Source/queue.c ****     configASSERT( pxQueue );
ARM GAS  /var/folders/kj/yzqgq53j3dg15vgwwwwgf5s00000gn/T//ccGgwidk.s 			page 130


 4691              		.loc 1 2414 5
 4692 000c 3B69     		ldr	r3, [r7, #16]
 4693 000e 002B     		cmp	r3, #0
 4694 0010 0AD1     		bne	.L302
 4695              	.LBB220:
 4696              	.LBB221:
 197:../../../../dependencies/freertos/FreeRTOSv10.4.1/FreeRTOS/Source/portable/GCC/ARM_CM4F/portmacro.h ****         (
 4697              		.loc 2 197 9
 4698              		.syntax unified
 4699              	@ 197 "../../../../dependencies/freertos/FreeRTOSv10.4.1/FreeRTOS/Source/portable/GCC/ARM_CM4F/port
 4700 0012 4FF05003 			mov r3, #80												
 4701 0016 83F31188 		msr basepri, r3											
 4702 001a BFF36F8F 		isb														
 4703 001e BFF34F8F 		dsb														
 4704              	
 4705              	@ 0 "" 2
 4706              		.thumb
 4707              		.syntax unified
 4708 0022 FB60     		str	r3, [r7, #12]
 205:../../../../dependencies/freertos/FreeRTOSv10.4.1/FreeRTOS/Source/portable/GCC/ARM_CM4F/portmacro.h **** 
 4709              		.loc 2 205 5
 4710 0024 00BF     		nop
 4711              	.L303:
 4712              	.LBE221:
 4713              	.LBE220:
 4714              		.loc 1 2414 5 discriminator 1
 4715 0026 FEE7     		b	.L303
 4716              	.L302:
2415:../../../../dependencies/freertos/FreeRTOSv10.4.1/FreeRTOS/Source/queue.c **** 
2416:../../../../dependencies/freertos/FreeRTOSv10.4.1/FreeRTOS/Source/queue.c ****     if( pxQueue->uxMessagesWaiting == pxQueue->uxLength )
 4717              		.loc 1 2416 16
 4718 0028 3B69     		ldr	r3, [r7, #16]
 4719 002a 9A6B     		ldr	r2, [r3, #56]
 4720              		.loc 1 2416 46
 4721 002c 3B69     		ldr	r3, [r7, #16]
 4722 002e DB6B     		ldr	r3, [r3, #60]
 4723              		.loc 1 2416 7
 4724 0030 9A42     		cmp	r2, r3
 4725 0032 02D1     		bne	.L304
2417:../../../../dependencies/freertos/FreeRTOSv10.4.1/FreeRTOS/Source/queue.c ****     {
2418:../../../../dependencies/freertos/FreeRTOSv10.4.1/FreeRTOS/Source/queue.c ****         xReturn = pdTRUE;
 4726              		.loc 1 2418 17
 4727 0034 0123     		movs	r3, #1
 4728 0036 7B61     		str	r3, [r7, #20]
 4729 0038 01E0     		b	.L305
 4730              	.L304:
2419:../../../../dependencies/freertos/FreeRTOSv10.4.1/FreeRTOS/Source/queue.c ****     }
2420:../../../../dependencies/freertos/FreeRTOSv10.4.1/FreeRTOS/Source/queue.c ****     else
2421:../../../../dependencies/freertos/FreeRTOSv10.4.1/FreeRTOS/Source/queue.c ****     {
2422:../../../../dependencies/freertos/FreeRTOSv10.4.1/FreeRTOS/Source/queue.c ****         xReturn = pdFALSE;
 4731              		.loc 1 2422 17
 4732 003a 0023     		movs	r3, #0
 4733 003c 7B61     		str	r3, [r7, #20]
 4734              	.L305:
2423:../../../../dependencies/freertos/FreeRTOSv10.4.1/FreeRTOS/Source/queue.c ****     }
2424:../../../../dependencies/freertos/FreeRTOSv10.4.1/FreeRTOS/Source/queue.c **** 
2425:../../../../dependencies/freertos/FreeRTOSv10.4.1/FreeRTOS/Source/queue.c ****     return xReturn;
ARM GAS  /var/folders/kj/yzqgq53j3dg15vgwwwwgf5s00000gn/T//ccGgwidk.s 			page 131


 4735              		.loc 1 2425 12
 4736 003e 7B69     		ldr	r3, [r7, #20]
2426:../../../../dependencies/freertos/FreeRTOSv10.4.1/FreeRTOS/Source/queue.c **** } /*lint !e818 xQueue could not be pointer to const because it is a typedef. */
 4737              		.loc 1 2426 1
 4738 0040 1846     		mov	r0, r3
 4739 0042 1C37     		adds	r7, r7, #28
 4740              	.LCFI170:
 4741              		.cfi_def_cfa_offset 4
 4742 0044 BD46     		mov	sp, r7
 4743              	.LCFI171:
 4744              		.cfi_def_cfa_register 13
 4745              		@ sp needed
 4746 0046 5DF8047B 		ldr	r7, [sp], #4
 4747              	.LCFI172:
 4748              		.cfi_restore 7
 4749              		.cfi_def_cfa_offset 0
 4750 004a 7047     		bx	lr
 4751              		.cfi_endproc
 4752              	.LFE37:
 4754              		.section	.text.vQueueAddToRegistry,"ax",%progbits
 4755              		.align	1
 4756              		.global	vQueueAddToRegistry
 4757              		.syntax unified
 4758              		.thumb
 4759              		.thumb_func
 4760              		.fpu fpv4-sp-d16
 4762              	vQueueAddToRegistry:
 4763              	.LFB38:
2427:../../../../dependencies/freertos/FreeRTOSv10.4.1/FreeRTOS/Source/queue.c **** /*-----------------------------------------------------------*/
2428:../../../../dependencies/freertos/FreeRTOSv10.4.1/FreeRTOS/Source/queue.c **** 
2429:../../../../dependencies/freertos/FreeRTOSv10.4.1/FreeRTOS/Source/queue.c **** #if ( configUSE_CO_ROUTINES == 1 )
2430:../../../../dependencies/freertos/FreeRTOSv10.4.1/FreeRTOS/Source/queue.c **** 
2431:../../../../dependencies/freertos/FreeRTOSv10.4.1/FreeRTOS/Source/queue.c ****     BaseType_t xQueueCRSend( QueueHandle_t xQueue,
2432:../../../../dependencies/freertos/FreeRTOSv10.4.1/FreeRTOS/Source/queue.c ****                              const void * pvItemToQueue,
2433:../../../../dependencies/freertos/FreeRTOSv10.4.1/FreeRTOS/Source/queue.c ****                              TickType_t xTicksToWait )
2434:../../../../dependencies/freertos/FreeRTOSv10.4.1/FreeRTOS/Source/queue.c ****     {
2435:../../../../dependencies/freertos/FreeRTOSv10.4.1/FreeRTOS/Source/queue.c ****         BaseType_t xReturn;
2436:../../../../dependencies/freertos/FreeRTOSv10.4.1/FreeRTOS/Source/queue.c ****         Queue_t * const pxQueue = xQueue;
2437:../../../../dependencies/freertos/FreeRTOSv10.4.1/FreeRTOS/Source/queue.c **** 
2438:../../../../dependencies/freertos/FreeRTOSv10.4.1/FreeRTOS/Source/queue.c ****         /* If the queue is already full we may have to block.  A critical section
2439:../../../../dependencies/freertos/FreeRTOSv10.4.1/FreeRTOS/Source/queue.c ****          * is required to prevent an interrupt removing something from the queue
2440:../../../../dependencies/freertos/FreeRTOSv10.4.1/FreeRTOS/Source/queue.c ****          * between the check to see if the queue is full and blocking on the queue. */
2441:../../../../dependencies/freertos/FreeRTOSv10.4.1/FreeRTOS/Source/queue.c ****         portDISABLE_INTERRUPTS();
2442:../../../../dependencies/freertos/FreeRTOSv10.4.1/FreeRTOS/Source/queue.c ****         {
2443:../../../../dependencies/freertos/FreeRTOSv10.4.1/FreeRTOS/Source/queue.c ****             if( prvIsQueueFull( pxQueue ) != pdFALSE )
2444:../../../../dependencies/freertos/FreeRTOSv10.4.1/FreeRTOS/Source/queue.c ****             {
2445:../../../../dependencies/freertos/FreeRTOSv10.4.1/FreeRTOS/Source/queue.c ****                 /* The queue is full - do we want to block or just leave without
2446:../../../../dependencies/freertos/FreeRTOSv10.4.1/FreeRTOS/Source/queue.c ****                  * posting? */
2447:../../../../dependencies/freertos/FreeRTOSv10.4.1/FreeRTOS/Source/queue.c ****                 if( xTicksToWait > ( TickType_t ) 0 )
2448:../../../../dependencies/freertos/FreeRTOSv10.4.1/FreeRTOS/Source/queue.c ****                 {
2449:../../../../dependencies/freertos/FreeRTOSv10.4.1/FreeRTOS/Source/queue.c ****                     /* As this is called from a coroutine we cannot block directly, but
2450:../../../../dependencies/freertos/FreeRTOSv10.4.1/FreeRTOS/Source/queue.c ****                      * return indicating that we need to block. */
2451:../../../../dependencies/freertos/FreeRTOSv10.4.1/FreeRTOS/Source/queue.c ****                     vCoRoutineAddToDelayedList( xTicksToWait, &( pxQueue->xTasksWaitingToSend ) );
2452:../../../../dependencies/freertos/FreeRTOSv10.4.1/FreeRTOS/Source/queue.c ****                     portENABLE_INTERRUPTS();
2453:../../../../dependencies/freertos/FreeRTOSv10.4.1/FreeRTOS/Source/queue.c ****                     return errQUEUE_BLOCKED;
2454:../../../../dependencies/freertos/FreeRTOSv10.4.1/FreeRTOS/Source/queue.c ****                 }
2455:../../../../dependencies/freertos/FreeRTOSv10.4.1/FreeRTOS/Source/queue.c ****                 else
ARM GAS  /var/folders/kj/yzqgq53j3dg15vgwwwwgf5s00000gn/T//ccGgwidk.s 			page 132


2456:../../../../dependencies/freertos/FreeRTOSv10.4.1/FreeRTOS/Source/queue.c ****                 {
2457:../../../../dependencies/freertos/FreeRTOSv10.4.1/FreeRTOS/Source/queue.c ****                     portENABLE_INTERRUPTS();
2458:../../../../dependencies/freertos/FreeRTOSv10.4.1/FreeRTOS/Source/queue.c ****                     return errQUEUE_FULL;
2459:../../../../dependencies/freertos/FreeRTOSv10.4.1/FreeRTOS/Source/queue.c ****                 }
2460:../../../../dependencies/freertos/FreeRTOSv10.4.1/FreeRTOS/Source/queue.c ****             }
2461:../../../../dependencies/freertos/FreeRTOSv10.4.1/FreeRTOS/Source/queue.c ****         }
2462:../../../../dependencies/freertos/FreeRTOSv10.4.1/FreeRTOS/Source/queue.c ****         portENABLE_INTERRUPTS();
2463:../../../../dependencies/freertos/FreeRTOSv10.4.1/FreeRTOS/Source/queue.c **** 
2464:../../../../dependencies/freertos/FreeRTOSv10.4.1/FreeRTOS/Source/queue.c ****         portDISABLE_INTERRUPTS();
2465:../../../../dependencies/freertos/FreeRTOSv10.4.1/FreeRTOS/Source/queue.c ****         {
2466:../../../../dependencies/freertos/FreeRTOSv10.4.1/FreeRTOS/Source/queue.c ****             if( pxQueue->uxMessagesWaiting < pxQueue->uxLength )
2467:../../../../dependencies/freertos/FreeRTOSv10.4.1/FreeRTOS/Source/queue.c ****             {
2468:../../../../dependencies/freertos/FreeRTOSv10.4.1/FreeRTOS/Source/queue.c ****                 /* There is room in the queue, copy the data into the queue. */
2469:../../../../dependencies/freertos/FreeRTOSv10.4.1/FreeRTOS/Source/queue.c ****                 prvCopyDataToQueue( pxQueue, pvItemToQueue, queueSEND_TO_BACK );
2470:../../../../dependencies/freertos/FreeRTOSv10.4.1/FreeRTOS/Source/queue.c ****                 xReturn = pdPASS;
2471:../../../../dependencies/freertos/FreeRTOSv10.4.1/FreeRTOS/Source/queue.c **** 
2472:../../../../dependencies/freertos/FreeRTOSv10.4.1/FreeRTOS/Source/queue.c ****                 /* Were any co-routines waiting for data to become available? */
2473:../../../../dependencies/freertos/FreeRTOSv10.4.1/FreeRTOS/Source/queue.c ****                 if( listLIST_IS_EMPTY( &( pxQueue->xTasksWaitingToReceive ) ) == pdFALSE )
2474:../../../../dependencies/freertos/FreeRTOSv10.4.1/FreeRTOS/Source/queue.c ****                 {
2475:../../../../dependencies/freertos/FreeRTOSv10.4.1/FreeRTOS/Source/queue.c ****                     /* In this instance the co-routine could be placed directly
2476:../../../../dependencies/freertos/FreeRTOSv10.4.1/FreeRTOS/Source/queue.c ****                      * into the ready list as we are within a critical section.
2477:../../../../dependencies/freertos/FreeRTOSv10.4.1/FreeRTOS/Source/queue.c ****                      * Instead the same pending ready list mechanism is used as if
2478:../../../../dependencies/freertos/FreeRTOSv10.4.1/FreeRTOS/Source/queue.c ****                      * the event were caused from within an interrupt. */
2479:../../../../dependencies/freertos/FreeRTOSv10.4.1/FreeRTOS/Source/queue.c ****                     if( xCoRoutineRemoveFromEventList( &( pxQueue->xTasksWaitingToReceive ) ) != pd
2480:../../../../dependencies/freertos/FreeRTOSv10.4.1/FreeRTOS/Source/queue.c ****                     {
2481:../../../../dependencies/freertos/FreeRTOSv10.4.1/FreeRTOS/Source/queue.c ****                         /* The co-routine waiting has a higher priority so record
2482:../../../../dependencies/freertos/FreeRTOSv10.4.1/FreeRTOS/Source/queue.c ****                          * that a yield might be appropriate. */
2483:../../../../dependencies/freertos/FreeRTOSv10.4.1/FreeRTOS/Source/queue.c ****                         xReturn = errQUEUE_YIELD;
2484:../../../../dependencies/freertos/FreeRTOSv10.4.1/FreeRTOS/Source/queue.c ****                     }
2485:../../../../dependencies/freertos/FreeRTOSv10.4.1/FreeRTOS/Source/queue.c ****                     else
2486:../../../../dependencies/freertos/FreeRTOSv10.4.1/FreeRTOS/Source/queue.c ****                     {
2487:../../../../dependencies/freertos/FreeRTOSv10.4.1/FreeRTOS/Source/queue.c ****                         mtCOVERAGE_TEST_MARKER();
2488:../../../../dependencies/freertos/FreeRTOSv10.4.1/FreeRTOS/Source/queue.c ****                     }
2489:../../../../dependencies/freertos/FreeRTOSv10.4.1/FreeRTOS/Source/queue.c ****                 }
2490:../../../../dependencies/freertos/FreeRTOSv10.4.1/FreeRTOS/Source/queue.c ****                 else
2491:../../../../dependencies/freertos/FreeRTOSv10.4.1/FreeRTOS/Source/queue.c ****                 {
2492:../../../../dependencies/freertos/FreeRTOSv10.4.1/FreeRTOS/Source/queue.c ****                     mtCOVERAGE_TEST_MARKER();
2493:../../../../dependencies/freertos/FreeRTOSv10.4.1/FreeRTOS/Source/queue.c ****                 }
2494:../../../../dependencies/freertos/FreeRTOSv10.4.1/FreeRTOS/Source/queue.c ****             }
2495:../../../../dependencies/freertos/FreeRTOSv10.4.1/FreeRTOS/Source/queue.c ****             else
2496:../../../../dependencies/freertos/FreeRTOSv10.4.1/FreeRTOS/Source/queue.c ****             {
2497:../../../../dependencies/freertos/FreeRTOSv10.4.1/FreeRTOS/Source/queue.c ****                 xReturn = errQUEUE_FULL;
2498:../../../../dependencies/freertos/FreeRTOSv10.4.1/FreeRTOS/Source/queue.c ****             }
2499:../../../../dependencies/freertos/FreeRTOSv10.4.1/FreeRTOS/Source/queue.c ****         }
2500:../../../../dependencies/freertos/FreeRTOSv10.4.1/FreeRTOS/Source/queue.c ****         portENABLE_INTERRUPTS();
2501:../../../../dependencies/freertos/FreeRTOSv10.4.1/FreeRTOS/Source/queue.c **** 
2502:../../../../dependencies/freertos/FreeRTOSv10.4.1/FreeRTOS/Source/queue.c ****         return xReturn;
2503:../../../../dependencies/freertos/FreeRTOSv10.4.1/FreeRTOS/Source/queue.c ****     }
2504:../../../../dependencies/freertos/FreeRTOSv10.4.1/FreeRTOS/Source/queue.c **** 
2505:../../../../dependencies/freertos/FreeRTOSv10.4.1/FreeRTOS/Source/queue.c **** #endif /* configUSE_CO_ROUTINES */
2506:../../../../dependencies/freertos/FreeRTOSv10.4.1/FreeRTOS/Source/queue.c **** /*-----------------------------------------------------------*/
2507:../../../../dependencies/freertos/FreeRTOSv10.4.1/FreeRTOS/Source/queue.c **** 
2508:../../../../dependencies/freertos/FreeRTOSv10.4.1/FreeRTOS/Source/queue.c **** #if ( configUSE_CO_ROUTINES == 1 )
2509:../../../../dependencies/freertos/FreeRTOSv10.4.1/FreeRTOS/Source/queue.c **** 
2510:../../../../dependencies/freertos/FreeRTOSv10.4.1/FreeRTOS/Source/queue.c ****     BaseType_t xQueueCRReceive( QueueHandle_t xQueue,
2511:../../../../dependencies/freertos/FreeRTOSv10.4.1/FreeRTOS/Source/queue.c ****                                 void * pvBuffer,
2512:../../../../dependencies/freertos/FreeRTOSv10.4.1/FreeRTOS/Source/queue.c ****                                 TickType_t xTicksToWait )
ARM GAS  /var/folders/kj/yzqgq53j3dg15vgwwwwgf5s00000gn/T//ccGgwidk.s 			page 133


2513:../../../../dependencies/freertos/FreeRTOSv10.4.1/FreeRTOS/Source/queue.c ****     {
2514:../../../../dependencies/freertos/FreeRTOSv10.4.1/FreeRTOS/Source/queue.c ****         BaseType_t xReturn;
2515:../../../../dependencies/freertos/FreeRTOSv10.4.1/FreeRTOS/Source/queue.c ****         Queue_t * const pxQueue = xQueue;
2516:../../../../dependencies/freertos/FreeRTOSv10.4.1/FreeRTOS/Source/queue.c **** 
2517:../../../../dependencies/freertos/FreeRTOSv10.4.1/FreeRTOS/Source/queue.c ****         /* If the queue is already empty we may have to block.  A critical section
2518:../../../../dependencies/freertos/FreeRTOSv10.4.1/FreeRTOS/Source/queue.c ****          * is required to prevent an interrupt adding something to the queue
2519:../../../../dependencies/freertos/FreeRTOSv10.4.1/FreeRTOS/Source/queue.c ****          * between the check to see if the queue is empty and blocking on the queue. */
2520:../../../../dependencies/freertos/FreeRTOSv10.4.1/FreeRTOS/Source/queue.c ****         portDISABLE_INTERRUPTS();
2521:../../../../dependencies/freertos/FreeRTOSv10.4.1/FreeRTOS/Source/queue.c ****         {
2522:../../../../dependencies/freertos/FreeRTOSv10.4.1/FreeRTOS/Source/queue.c ****             if( pxQueue->uxMessagesWaiting == ( UBaseType_t ) 0 )
2523:../../../../dependencies/freertos/FreeRTOSv10.4.1/FreeRTOS/Source/queue.c ****             {
2524:../../../../dependencies/freertos/FreeRTOSv10.4.1/FreeRTOS/Source/queue.c ****                 /* There are no messages in the queue, do we want to block or just
2525:../../../../dependencies/freertos/FreeRTOSv10.4.1/FreeRTOS/Source/queue.c ****                  * leave with nothing? */
2526:../../../../dependencies/freertos/FreeRTOSv10.4.1/FreeRTOS/Source/queue.c ****                 if( xTicksToWait > ( TickType_t ) 0 )
2527:../../../../dependencies/freertos/FreeRTOSv10.4.1/FreeRTOS/Source/queue.c ****                 {
2528:../../../../dependencies/freertos/FreeRTOSv10.4.1/FreeRTOS/Source/queue.c ****                     /* As this is a co-routine we cannot block directly, but return
2529:../../../../dependencies/freertos/FreeRTOSv10.4.1/FreeRTOS/Source/queue.c ****                      * indicating that we need to block. */
2530:../../../../dependencies/freertos/FreeRTOSv10.4.1/FreeRTOS/Source/queue.c ****                     vCoRoutineAddToDelayedList( xTicksToWait, &( pxQueue->xTasksWaitingToReceive ) 
2531:../../../../dependencies/freertos/FreeRTOSv10.4.1/FreeRTOS/Source/queue.c ****                     portENABLE_INTERRUPTS();
2532:../../../../dependencies/freertos/FreeRTOSv10.4.1/FreeRTOS/Source/queue.c ****                     return errQUEUE_BLOCKED;
2533:../../../../dependencies/freertos/FreeRTOSv10.4.1/FreeRTOS/Source/queue.c ****                 }
2534:../../../../dependencies/freertos/FreeRTOSv10.4.1/FreeRTOS/Source/queue.c ****                 else
2535:../../../../dependencies/freertos/FreeRTOSv10.4.1/FreeRTOS/Source/queue.c ****                 {
2536:../../../../dependencies/freertos/FreeRTOSv10.4.1/FreeRTOS/Source/queue.c ****                     portENABLE_INTERRUPTS();
2537:../../../../dependencies/freertos/FreeRTOSv10.4.1/FreeRTOS/Source/queue.c ****                     return errQUEUE_FULL;
2538:../../../../dependencies/freertos/FreeRTOSv10.4.1/FreeRTOS/Source/queue.c ****                 }
2539:../../../../dependencies/freertos/FreeRTOSv10.4.1/FreeRTOS/Source/queue.c ****             }
2540:../../../../dependencies/freertos/FreeRTOSv10.4.1/FreeRTOS/Source/queue.c ****             else
2541:../../../../dependencies/freertos/FreeRTOSv10.4.1/FreeRTOS/Source/queue.c ****             {
2542:../../../../dependencies/freertos/FreeRTOSv10.4.1/FreeRTOS/Source/queue.c ****                 mtCOVERAGE_TEST_MARKER();
2543:../../../../dependencies/freertos/FreeRTOSv10.4.1/FreeRTOS/Source/queue.c ****             }
2544:../../../../dependencies/freertos/FreeRTOSv10.4.1/FreeRTOS/Source/queue.c ****         }
2545:../../../../dependencies/freertos/FreeRTOSv10.4.1/FreeRTOS/Source/queue.c ****         portENABLE_INTERRUPTS();
2546:../../../../dependencies/freertos/FreeRTOSv10.4.1/FreeRTOS/Source/queue.c **** 
2547:../../../../dependencies/freertos/FreeRTOSv10.4.1/FreeRTOS/Source/queue.c ****         portDISABLE_INTERRUPTS();
2548:../../../../dependencies/freertos/FreeRTOSv10.4.1/FreeRTOS/Source/queue.c ****         {
2549:../../../../dependencies/freertos/FreeRTOSv10.4.1/FreeRTOS/Source/queue.c ****             if( pxQueue->uxMessagesWaiting > ( UBaseType_t ) 0 )
2550:../../../../dependencies/freertos/FreeRTOSv10.4.1/FreeRTOS/Source/queue.c ****             {
2551:../../../../dependencies/freertos/FreeRTOSv10.4.1/FreeRTOS/Source/queue.c ****                 /* Data is available from the queue. */
2552:../../../../dependencies/freertos/FreeRTOSv10.4.1/FreeRTOS/Source/queue.c ****                 pxQueue->u.xQueue.pcReadFrom += pxQueue->uxItemSize;
2553:../../../../dependencies/freertos/FreeRTOSv10.4.1/FreeRTOS/Source/queue.c **** 
2554:../../../../dependencies/freertos/FreeRTOSv10.4.1/FreeRTOS/Source/queue.c ****                 if( pxQueue->u.xQueue.pcReadFrom >= pxQueue->u.xQueue.pcTail )
2555:../../../../dependencies/freertos/FreeRTOSv10.4.1/FreeRTOS/Source/queue.c ****                 {
2556:../../../../dependencies/freertos/FreeRTOSv10.4.1/FreeRTOS/Source/queue.c ****                     pxQueue->u.xQueue.pcReadFrom = pxQueue->pcHead;
2557:../../../../dependencies/freertos/FreeRTOSv10.4.1/FreeRTOS/Source/queue.c ****                 }
2558:../../../../dependencies/freertos/FreeRTOSv10.4.1/FreeRTOS/Source/queue.c ****                 else
2559:../../../../dependencies/freertos/FreeRTOSv10.4.1/FreeRTOS/Source/queue.c ****                 {
2560:../../../../dependencies/freertos/FreeRTOSv10.4.1/FreeRTOS/Source/queue.c ****                     mtCOVERAGE_TEST_MARKER();
2561:../../../../dependencies/freertos/FreeRTOSv10.4.1/FreeRTOS/Source/queue.c ****                 }
2562:../../../../dependencies/freertos/FreeRTOSv10.4.1/FreeRTOS/Source/queue.c **** 
2563:../../../../dependencies/freertos/FreeRTOSv10.4.1/FreeRTOS/Source/queue.c ****                 --( pxQueue->uxMessagesWaiting );
2564:../../../../dependencies/freertos/FreeRTOSv10.4.1/FreeRTOS/Source/queue.c ****                 ( void ) memcpy( ( void * ) pvBuffer, ( void * ) pxQueue->u.xQueue.pcReadFrom, ( un
2565:../../../../dependencies/freertos/FreeRTOSv10.4.1/FreeRTOS/Source/queue.c **** 
2566:../../../../dependencies/freertos/FreeRTOSv10.4.1/FreeRTOS/Source/queue.c ****                 xReturn = pdPASS;
2567:../../../../dependencies/freertos/FreeRTOSv10.4.1/FreeRTOS/Source/queue.c **** 
2568:../../../../dependencies/freertos/FreeRTOSv10.4.1/FreeRTOS/Source/queue.c ****                 /* Were any co-routines waiting for space to become available? */
2569:../../../../dependencies/freertos/FreeRTOSv10.4.1/FreeRTOS/Source/queue.c ****                 if( listLIST_IS_EMPTY( &( pxQueue->xTasksWaitingToSend ) ) == pdFALSE )
ARM GAS  /var/folders/kj/yzqgq53j3dg15vgwwwwgf5s00000gn/T//ccGgwidk.s 			page 134


2570:../../../../dependencies/freertos/FreeRTOSv10.4.1/FreeRTOS/Source/queue.c ****                 {
2571:../../../../dependencies/freertos/FreeRTOSv10.4.1/FreeRTOS/Source/queue.c ****                     /* In this instance the co-routine could be placed directly
2572:../../../../dependencies/freertos/FreeRTOSv10.4.1/FreeRTOS/Source/queue.c ****                      * into the ready list as we are within a critical section.
2573:../../../../dependencies/freertos/FreeRTOSv10.4.1/FreeRTOS/Source/queue.c ****                      * Instead the same pending ready list mechanism is used as if
2574:../../../../dependencies/freertos/FreeRTOSv10.4.1/FreeRTOS/Source/queue.c ****                      * the event were caused from within an interrupt. */
2575:../../../../dependencies/freertos/FreeRTOSv10.4.1/FreeRTOS/Source/queue.c ****                     if( xCoRoutineRemoveFromEventList( &( pxQueue->xTasksWaitingToSend ) ) != pdFAL
2576:../../../../dependencies/freertos/FreeRTOSv10.4.1/FreeRTOS/Source/queue.c ****                     {
2577:../../../../dependencies/freertos/FreeRTOSv10.4.1/FreeRTOS/Source/queue.c ****                         xReturn = errQUEUE_YIELD;
2578:../../../../dependencies/freertos/FreeRTOSv10.4.1/FreeRTOS/Source/queue.c ****                     }
2579:../../../../dependencies/freertos/FreeRTOSv10.4.1/FreeRTOS/Source/queue.c ****                     else
2580:../../../../dependencies/freertos/FreeRTOSv10.4.1/FreeRTOS/Source/queue.c ****                     {
2581:../../../../dependencies/freertos/FreeRTOSv10.4.1/FreeRTOS/Source/queue.c ****                         mtCOVERAGE_TEST_MARKER();
2582:../../../../dependencies/freertos/FreeRTOSv10.4.1/FreeRTOS/Source/queue.c ****                     }
2583:../../../../dependencies/freertos/FreeRTOSv10.4.1/FreeRTOS/Source/queue.c ****                 }
2584:../../../../dependencies/freertos/FreeRTOSv10.4.1/FreeRTOS/Source/queue.c ****                 else
2585:../../../../dependencies/freertos/FreeRTOSv10.4.1/FreeRTOS/Source/queue.c ****                 {
2586:../../../../dependencies/freertos/FreeRTOSv10.4.1/FreeRTOS/Source/queue.c ****                     mtCOVERAGE_TEST_MARKER();
2587:../../../../dependencies/freertos/FreeRTOSv10.4.1/FreeRTOS/Source/queue.c ****                 }
2588:../../../../dependencies/freertos/FreeRTOSv10.4.1/FreeRTOS/Source/queue.c ****             }
2589:../../../../dependencies/freertos/FreeRTOSv10.4.1/FreeRTOS/Source/queue.c ****             else
2590:../../../../dependencies/freertos/FreeRTOSv10.4.1/FreeRTOS/Source/queue.c ****             {
2591:../../../../dependencies/freertos/FreeRTOSv10.4.1/FreeRTOS/Source/queue.c ****                 xReturn = pdFAIL;
2592:../../../../dependencies/freertos/FreeRTOSv10.4.1/FreeRTOS/Source/queue.c ****             }
2593:../../../../dependencies/freertos/FreeRTOSv10.4.1/FreeRTOS/Source/queue.c ****         }
2594:../../../../dependencies/freertos/FreeRTOSv10.4.1/FreeRTOS/Source/queue.c ****         portENABLE_INTERRUPTS();
2595:../../../../dependencies/freertos/FreeRTOSv10.4.1/FreeRTOS/Source/queue.c **** 
2596:../../../../dependencies/freertos/FreeRTOSv10.4.1/FreeRTOS/Source/queue.c ****         return xReturn;
2597:../../../../dependencies/freertos/FreeRTOSv10.4.1/FreeRTOS/Source/queue.c ****     }
2598:../../../../dependencies/freertos/FreeRTOSv10.4.1/FreeRTOS/Source/queue.c **** 
2599:../../../../dependencies/freertos/FreeRTOSv10.4.1/FreeRTOS/Source/queue.c **** #endif /* configUSE_CO_ROUTINES */
2600:../../../../dependencies/freertos/FreeRTOSv10.4.1/FreeRTOS/Source/queue.c **** /*-----------------------------------------------------------*/
2601:../../../../dependencies/freertos/FreeRTOSv10.4.1/FreeRTOS/Source/queue.c **** 
2602:../../../../dependencies/freertos/FreeRTOSv10.4.1/FreeRTOS/Source/queue.c **** #if ( configUSE_CO_ROUTINES == 1 )
2603:../../../../dependencies/freertos/FreeRTOSv10.4.1/FreeRTOS/Source/queue.c **** 
2604:../../../../dependencies/freertos/FreeRTOSv10.4.1/FreeRTOS/Source/queue.c ****     BaseType_t xQueueCRSendFromISR( QueueHandle_t xQueue,
2605:../../../../dependencies/freertos/FreeRTOSv10.4.1/FreeRTOS/Source/queue.c ****                                     const void * pvItemToQueue,
2606:../../../../dependencies/freertos/FreeRTOSv10.4.1/FreeRTOS/Source/queue.c ****                                     BaseType_t xCoRoutinePreviouslyWoken )
2607:../../../../dependencies/freertos/FreeRTOSv10.4.1/FreeRTOS/Source/queue.c ****     {
2608:../../../../dependencies/freertos/FreeRTOSv10.4.1/FreeRTOS/Source/queue.c ****         Queue_t * const pxQueue = xQueue;
2609:../../../../dependencies/freertos/FreeRTOSv10.4.1/FreeRTOS/Source/queue.c **** 
2610:../../../../dependencies/freertos/FreeRTOSv10.4.1/FreeRTOS/Source/queue.c ****         /* Cannot block within an ISR so if there is no space on the queue then
2611:../../../../dependencies/freertos/FreeRTOSv10.4.1/FreeRTOS/Source/queue.c ****          * exit without doing anything. */
2612:../../../../dependencies/freertos/FreeRTOSv10.4.1/FreeRTOS/Source/queue.c ****         if( pxQueue->uxMessagesWaiting < pxQueue->uxLength )
2613:../../../../dependencies/freertos/FreeRTOSv10.4.1/FreeRTOS/Source/queue.c ****         {
2614:../../../../dependencies/freertos/FreeRTOSv10.4.1/FreeRTOS/Source/queue.c ****             prvCopyDataToQueue( pxQueue, pvItemToQueue, queueSEND_TO_BACK );
2615:../../../../dependencies/freertos/FreeRTOSv10.4.1/FreeRTOS/Source/queue.c **** 
2616:../../../../dependencies/freertos/FreeRTOSv10.4.1/FreeRTOS/Source/queue.c ****             /* We only want to wake one co-routine per ISR, so check that a
2617:../../../../dependencies/freertos/FreeRTOSv10.4.1/FreeRTOS/Source/queue.c ****              * co-routine has not already been woken. */
2618:../../../../dependencies/freertos/FreeRTOSv10.4.1/FreeRTOS/Source/queue.c ****             if( xCoRoutinePreviouslyWoken == pdFALSE )
2619:../../../../dependencies/freertos/FreeRTOSv10.4.1/FreeRTOS/Source/queue.c ****             {
2620:../../../../dependencies/freertos/FreeRTOSv10.4.1/FreeRTOS/Source/queue.c ****                 if( listLIST_IS_EMPTY( &( pxQueue->xTasksWaitingToReceive ) ) == pdFALSE )
2621:../../../../dependencies/freertos/FreeRTOSv10.4.1/FreeRTOS/Source/queue.c ****                 {
2622:../../../../dependencies/freertos/FreeRTOSv10.4.1/FreeRTOS/Source/queue.c ****                     if( xCoRoutineRemoveFromEventList( &( pxQueue->xTasksWaitingToReceive ) ) != pd
2623:../../../../dependencies/freertos/FreeRTOSv10.4.1/FreeRTOS/Source/queue.c ****                     {
2624:../../../../dependencies/freertos/FreeRTOSv10.4.1/FreeRTOS/Source/queue.c ****                         return pdTRUE;
2625:../../../../dependencies/freertos/FreeRTOSv10.4.1/FreeRTOS/Source/queue.c ****                     }
2626:../../../../dependencies/freertos/FreeRTOSv10.4.1/FreeRTOS/Source/queue.c ****                     else
ARM GAS  /var/folders/kj/yzqgq53j3dg15vgwwwwgf5s00000gn/T//ccGgwidk.s 			page 135


2627:../../../../dependencies/freertos/FreeRTOSv10.4.1/FreeRTOS/Source/queue.c ****                     {
2628:../../../../dependencies/freertos/FreeRTOSv10.4.1/FreeRTOS/Source/queue.c ****                         mtCOVERAGE_TEST_MARKER();
2629:../../../../dependencies/freertos/FreeRTOSv10.4.1/FreeRTOS/Source/queue.c ****                     }
2630:../../../../dependencies/freertos/FreeRTOSv10.4.1/FreeRTOS/Source/queue.c ****                 }
2631:../../../../dependencies/freertos/FreeRTOSv10.4.1/FreeRTOS/Source/queue.c ****                 else
2632:../../../../dependencies/freertos/FreeRTOSv10.4.1/FreeRTOS/Source/queue.c ****                 {
2633:../../../../dependencies/freertos/FreeRTOSv10.4.1/FreeRTOS/Source/queue.c ****                     mtCOVERAGE_TEST_MARKER();
2634:../../../../dependencies/freertos/FreeRTOSv10.4.1/FreeRTOS/Source/queue.c ****                 }
2635:../../../../dependencies/freertos/FreeRTOSv10.4.1/FreeRTOS/Source/queue.c ****             }
2636:../../../../dependencies/freertos/FreeRTOSv10.4.1/FreeRTOS/Source/queue.c ****             else
2637:../../../../dependencies/freertos/FreeRTOSv10.4.1/FreeRTOS/Source/queue.c ****             {
2638:../../../../dependencies/freertos/FreeRTOSv10.4.1/FreeRTOS/Source/queue.c ****                 mtCOVERAGE_TEST_MARKER();
2639:../../../../dependencies/freertos/FreeRTOSv10.4.1/FreeRTOS/Source/queue.c ****             }
2640:../../../../dependencies/freertos/FreeRTOSv10.4.1/FreeRTOS/Source/queue.c ****         }
2641:../../../../dependencies/freertos/FreeRTOSv10.4.1/FreeRTOS/Source/queue.c ****         else
2642:../../../../dependencies/freertos/FreeRTOSv10.4.1/FreeRTOS/Source/queue.c ****         {
2643:../../../../dependencies/freertos/FreeRTOSv10.4.1/FreeRTOS/Source/queue.c ****             mtCOVERAGE_TEST_MARKER();
2644:../../../../dependencies/freertos/FreeRTOSv10.4.1/FreeRTOS/Source/queue.c ****         }
2645:../../../../dependencies/freertos/FreeRTOSv10.4.1/FreeRTOS/Source/queue.c **** 
2646:../../../../dependencies/freertos/FreeRTOSv10.4.1/FreeRTOS/Source/queue.c ****         return xCoRoutinePreviouslyWoken;
2647:../../../../dependencies/freertos/FreeRTOSv10.4.1/FreeRTOS/Source/queue.c ****     }
2648:../../../../dependencies/freertos/FreeRTOSv10.4.1/FreeRTOS/Source/queue.c **** 
2649:../../../../dependencies/freertos/FreeRTOSv10.4.1/FreeRTOS/Source/queue.c **** #endif /* configUSE_CO_ROUTINES */
2650:../../../../dependencies/freertos/FreeRTOSv10.4.1/FreeRTOS/Source/queue.c **** /*-----------------------------------------------------------*/
2651:../../../../dependencies/freertos/FreeRTOSv10.4.1/FreeRTOS/Source/queue.c **** 
2652:../../../../dependencies/freertos/FreeRTOSv10.4.1/FreeRTOS/Source/queue.c **** #if ( configUSE_CO_ROUTINES == 1 )
2653:../../../../dependencies/freertos/FreeRTOSv10.4.1/FreeRTOS/Source/queue.c **** 
2654:../../../../dependencies/freertos/FreeRTOSv10.4.1/FreeRTOS/Source/queue.c ****     BaseType_t xQueueCRReceiveFromISR( QueueHandle_t xQueue,
2655:../../../../dependencies/freertos/FreeRTOSv10.4.1/FreeRTOS/Source/queue.c ****                                        void * pvBuffer,
2656:../../../../dependencies/freertos/FreeRTOSv10.4.1/FreeRTOS/Source/queue.c ****                                        BaseType_t * pxCoRoutineWoken )
2657:../../../../dependencies/freertos/FreeRTOSv10.4.1/FreeRTOS/Source/queue.c ****     {
2658:../../../../dependencies/freertos/FreeRTOSv10.4.1/FreeRTOS/Source/queue.c ****         BaseType_t xReturn;
2659:../../../../dependencies/freertos/FreeRTOSv10.4.1/FreeRTOS/Source/queue.c ****         Queue_t * const pxQueue = xQueue;
2660:../../../../dependencies/freertos/FreeRTOSv10.4.1/FreeRTOS/Source/queue.c **** 
2661:../../../../dependencies/freertos/FreeRTOSv10.4.1/FreeRTOS/Source/queue.c ****         /* We cannot block from an ISR, so check there is data available. If
2662:../../../../dependencies/freertos/FreeRTOSv10.4.1/FreeRTOS/Source/queue.c ****          * not then just leave without doing anything. */
2663:../../../../dependencies/freertos/FreeRTOSv10.4.1/FreeRTOS/Source/queue.c ****         if( pxQueue->uxMessagesWaiting > ( UBaseType_t ) 0 )
2664:../../../../dependencies/freertos/FreeRTOSv10.4.1/FreeRTOS/Source/queue.c ****         {
2665:../../../../dependencies/freertos/FreeRTOSv10.4.1/FreeRTOS/Source/queue.c ****             /* Copy the data from the queue. */
2666:../../../../dependencies/freertos/FreeRTOSv10.4.1/FreeRTOS/Source/queue.c ****             pxQueue->u.xQueue.pcReadFrom += pxQueue->uxItemSize;
2667:../../../../dependencies/freertos/FreeRTOSv10.4.1/FreeRTOS/Source/queue.c **** 
2668:../../../../dependencies/freertos/FreeRTOSv10.4.1/FreeRTOS/Source/queue.c ****             if( pxQueue->u.xQueue.pcReadFrom >= pxQueue->u.xQueue.pcTail )
2669:../../../../dependencies/freertos/FreeRTOSv10.4.1/FreeRTOS/Source/queue.c ****             {
2670:../../../../dependencies/freertos/FreeRTOSv10.4.1/FreeRTOS/Source/queue.c ****                 pxQueue->u.xQueue.pcReadFrom = pxQueue->pcHead;
2671:../../../../dependencies/freertos/FreeRTOSv10.4.1/FreeRTOS/Source/queue.c ****             }
2672:../../../../dependencies/freertos/FreeRTOSv10.4.1/FreeRTOS/Source/queue.c ****             else
2673:../../../../dependencies/freertos/FreeRTOSv10.4.1/FreeRTOS/Source/queue.c ****             {
2674:../../../../dependencies/freertos/FreeRTOSv10.4.1/FreeRTOS/Source/queue.c ****                 mtCOVERAGE_TEST_MARKER();
2675:../../../../dependencies/freertos/FreeRTOSv10.4.1/FreeRTOS/Source/queue.c ****             }
2676:../../../../dependencies/freertos/FreeRTOSv10.4.1/FreeRTOS/Source/queue.c **** 
2677:../../../../dependencies/freertos/FreeRTOSv10.4.1/FreeRTOS/Source/queue.c ****             --( pxQueue->uxMessagesWaiting );
2678:../../../../dependencies/freertos/FreeRTOSv10.4.1/FreeRTOS/Source/queue.c ****             ( void ) memcpy( ( void * ) pvBuffer, ( void * ) pxQueue->u.xQueue.pcReadFrom, ( unsign
2679:../../../../dependencies/freertos/FreeRTOSv10.4.1/FreeRTOS/Source/queue.c **** 
2680:../../../../dependencies/freertos/FreeRTOSv10.4.1/FreeRTOS/Source/queue.c ****             if( ( *pxCoRoutineWoken ) == pdFALSE )
2681:../../../../dependencies/freertos/FreeRTOSv10.4.1/FreeRTOS/Source/queue.c ****             {
2682:../../../../dependencies/freertos/FreeRTOSv10.4.1/FreeRTOS/Source/queue.c ****                 if( listLIST_IS_EMPTY( &( pxQueue->xTasksWaitingToSend ) ) == pdFALSE )
2683:../../../../dependencies/freertos/FreeRTOSv10.4.1/FreeRTOS/Source/queue.c ****                 {
ARM GAS  /var/folders/kj/yzqgq53j3dg15vgwwwwgf5s00000gn/T//ccGgwidk.s 			page 136


2684:../../../../dependencies/freertos/FreeRTOSv10.4.1/FreeRTOS/Source/queue.c ****                     if( xCoRoutineRemoveFromEventList( &( pxQueue->xTasksWaitingToSend ) ) != pdFAL
2685:../../../../dependencies/freertos/FreeRTOSv10.4.1/FreeRTOS/Source/queue.c ****                     {
2686:../../../../dependencies/freertos/FreeRTOSv10.4.1/FreeRTOS/Source/queue.c ****                         *pxCoRoutineWoken = pdTRUE;
2687:../../../../dependencies/freertos/FreeRTOSv10.4.1/FreeRTOS/Source/queue.c ****                     }
2688:../../../../dependencies/freertos/FreeRTOSv10.4.1/FreeRTOS/Source/queue.c ****                     else
2689:../../../../dependencies/freertos/FreeRTOSv10.4.1/FreeRTOS/Source/queue.c ****                     {
2690:../../../../dependencies/freertos/FreeRTOSv10.4.1/FreeRTOS/Source/queue.c ****                         mtCOVERAGE_TEST_MARKER();
2691:../../../../dependencies/freertos/FreeRTOSv10.4.1/FreeRTOS/Source/queue.c ****                     }
2692:../../../../dependencies/freertos/FreeRTOSv10.4.1/FreeRTOS/Source/queue.c ****                 }
2693:../../../../dependencies/freertos/FreeRTOSv10.4.1/FreeRTOS/Source/queue.c ****                 else
2694:../../../../dependencies/freertos/FreeRTOSv10.4.1/FreeRTOS/Source/queue.c ****                 {
2695:../../../../dependencies/freertos/FreeRTOSv10.4.1/FreeRTOS/Source/queue.c ****                     mtCOVERAGE_TEST_MARKER();
2696:../../../../dependencies/freertos/FreeRTOSv10.4.1/FreeRTOS/Source/queue.c ****                 }
2697:../../../../dependencies/freertos/FreeRTOSv10.4.1/FreeRTOS/Source/queue.c ****             }
2698:../../../../dependencies/freertos/FreeRTOSv10.4.1/FreeRTOS/Source/queue.c ****             else
2699:../../../../dependencies/freertos/FreeRTOSv10.4.1/FreeRTOS/Source/queue.c ****             {
2700:../../../../dependencies/freertos/FreeRTOSv10.4.1/FreeRTOS/Source/queue.c ****                 mtCOVERAGE_TEST_MARKER();
2701:../../../../dependencies/freertos/FreeRTOSv10.4.1/FreeRTOS/Source/queue.c ****             }
2702:../../../../dependencies/freertos/FreeRTOSv10.4.1/FreeRTOS/Source/queue.c **** 
2703:../../../../dependencies/freertos/FreeRTOSv10.4.1/FreeRTOS/Source/queue.c ****             xReturn = pdPASS;
2704:../../../../dependencies/freertos/FreeRTOSv10.4.1/FreeRTOS/Source/queue.c ****         }
2705:../../../../dependencies/freertos/FreeRTOSv10.4.1/FreeRTOS/Source/queue.c ****         else
2706:../../../../dependencies/freertos/FreeRTOSv10.4.1/FreeRTOS/Source/queue.c ****         {
2707:../../../../dependencies/freertos/FreeRTOSv10.4.1/FreeRTOS/Source/queue.c ****             xReturn = pdFAIL;
2708:../../../../dependencies/freertos/FreeRTOSv10.4.1/FreeRTOS/Source/queue.c ****         }
2709:../../../../dependencies/freertos/FreeRTOSv10.4.1/FreeRTOS/Source/queue.c **** 
2710:../../../../dependencies/freertos/FreeRTOSv10.4.1/FreeRTOS/Source/queue.c ****         return xReturn;
2711:../../../../dependencies/freertos/FreeRTOSv10.4.1/FreeRTOS/Source/queue.c ****     }
2712:../../../../dependencies/freertos/FreeRTOSv10.4.1/FreeRTOS/Source/queue.c **** 
2713:../../../../dependencies/freertos/FreeRTOSv10.4.1/FreeRTOS/Source/queue.c **** #endif /* configUSE_CO_ROUTINES */
2714:../../../../dependencies/freertos/FreeRTOSv10.4.1/FreeRTOS/Source/queue.c **** /*-----------------------------------------------------------*/
2715:../../../../dependencies/freertos/FreeRTOSv10.4.1/FreeRTOS/Source/queue.c **** 
2716:../../../../dependencies/freertos/FreeRTOSv10.4.1/FreeRTOS/Source/queue.c **** #if ( configQUEUE_REGISTRY_SIZE > 0 )
2717:../../../../dependencies/freertos/FreeRTOSv10.4.1/FreeRTOS/Source/queue.c **** 
2718:../../../../dependencies/freertos/FreeRTOSv10.4.1/FreeRTOS/Source/queue.c ****     void vQueueAddToRegistry( QueueHandle_t xQueue,
2719:../../../../dependencies/freertos/FreeRTOSv10.4.1/FreeRTOS/Source/queue.c ****                               const char * pcQueueName ) /*lint !e971 Unqualified char types are al
2720:../../../../dependencies/freertos/FreeRTOSv10.4.1/FreeRTOS/Source/queue.c ****     {
 4764              		.loc 1 2720 5
 4765              		.cfi_startproc
 4766              		@ args = 0, pretend = 0, frame = 16
 4767              		@ frame_needed = 1, uses_anonymous_args = 0
 4768              		@ link register save eliminated.
 4769 0000 80B4     		push	{r7}
 4770              	.LCFI173:
 4771              		.cfi_def_cfa_offset 4
 4772              		.cfi_offset 7, -4
 4773 0002 85B0     		sub	sp, sp, #20
 4774              	.LCFI174:
 4775              		.cfi_def_cfa_offset 24
 4776 0004 00AF     		add	r7, sp, #0
 4777              	.LCFI175:
 4778              		.cfi_def_cfa_register 7
 4779 0006 7860     		str	r0, [r7, #4]
 4780 0008 3960     		str	r1, [r7]
2721:../../../../dependencies/freertos/FreeRTOSv10.4.1/FreeRTOS/Source/queue.c ****         UBaseType_t ux;
2722:../../../../dependencies/freertos/FreeRTOSv10.4.1/FreeRTOS/Source/queue.c **** 
2723:../../../../dependencies/freertos/FreeRTOSv10.4.1/FreeRTOS/Source/queue.c ****         /* See if there is an empty space in the registry.  A NULL name denotes
ARM GAS  /var/folders/kj/yzqgq53j3dg15vgwwwwgf5s00000gn/T//ccGgwidk.s 			page 137


2724:../../../../dependencies/freertos/FreeRTOSv10.4.1/FreeRTOS/Source/queue.c ****          * a free slot. */
2725:../../../../dependencies/freertos/FreeRTOSv10.4.1/FreeRTOS/Source/queue.c ****         for( ux = ( UBaseType_t ) 0U; ux < ( UBaseType_t ) configQUEUE_REGISTRY_SIZE; ux++ )
 4781              		.loc 1 2725 17
 4782 000a 0023     		movs	r3, #0
 4783 000c FB60     		str	r3, [r7, #12]
 4784              		.loc 1 2725 9
 4785 000e 14E0     		b	.L308
 4786              	.L311:
2726:../../../../dependencies/freertos/FreeRTOSv10.4.1/FreeRTOS/Source/queue.c ****         {
2727:../../../../dependencies/freertos/FreeRTOSv10.4.1/FreeRTOS/Source/queue.c ****             if( xQueueRegistry[ ux ].pcQueueName == NULL )
 4787              		.loc 1 2727 37
 4788 0010 0F4A     		ldr	r2, .L312
 4789 0012 FB68     		ldr	r3, [r7, #12]
 4790 0014 52F83330 		ldr	r3, [r2, r3, lsl #3]
 4791              		.loc 1 2727 15
 4792 0018 002B     		cmp	r3, #0
 4793 001a 0BD1     		bne	.L309
2728:../../../../dependencies/freertos/FreeRTOSv10.4.1/FreeRTOS/Source/queue.c ****             {
2729:../../../../dependencies/freertos/FreeRTOSv10.4.1/FreeRTOS/Source/queue.c ****                 /* Store the information on this queue. */
2730:../../../../dependencies/freertos/FreeRTOSv10.4.1/FreeRTOS/Source/queue.c ****                 xQueueRegistry[ ux ].pcQueueName = pcQueueName;
 4794              		.loc 1 2730 50
 4795 001c 0C49     		ldr	r1, .L312
 4796 001e FB68     		ldr	r3, [r7, #12]
 4797 0020 3A68     		ldr	r2, [r7]
 4798 0022 41F83320 		str	r2, [r1, r3, lsl #3]
2731:../../../../dependencies/freertos/FreeRTOSv10.4.1/FreeRTOS/Source/queue.c ****                 xQueueRegistry[ ux ].xHandle = xQueue;
 4799              		.loc 1 2731 46
 4800 0026 0A4A     		ldr	r2, .L312
 4801 0028 FB68     		ldr	r3, [r7, #12]
 4802 002a DB00     		lsls	r3, r3, #3
 4803 002c 1344     		add	r3, r3, r2
 4804 002e 7A68     		ldr	r2, [r7, #4]
 4805 0030 5A60     		str	r2, [r3, #4]
2732:../../../../dependencies/freertos/FreeRTOSv10.4.1/FreeRTOS/Source/queue.c **** 
2733:../../../../dependencies/freertos/FreeRTOSv10.4.1/FreeRTOS/Source/queue.c ****                 traceQUEUE_REGISTRY_ADD( xQueue, pcQueueName );
2734:../../../../dependencies/freertos/FreeRTOSv10.4.1/FreeRTOS/Source/queue.c ****                 break;
 4806              		.loc 1 2734 17
 4807 0032 06E0     		b	.L310
 4808              	.L309:
2725:../../../../dependencies/freertos/FreeRTOSv10.4.1/FreeRTOS/Source/queue.c ****         {
 4809              		.loc 1 2725 89 discriminator 2
 4810 0034 FB68     		ldr	r3, [r7, #12]
 4811 0036 0133     		adds	r3, r3, #1
 4812 0038 FB60     		str	r3, [r7, #12]
 4813              	.L308:
2725:../../../../dependencies/freertos/FreeRTOSv10.4.1/FreeRTOS/Source/queue.c ****         {
 4814              		.loc 1 2725 9 discriminator 1
 4815 003a FB68     		ldr	r3, [r7, #12]
 4816 003c 072B     		cmp	r3, #7
 4817 003e E7D9     		bls	.L311
2735:../../../../dependencies/freertos/FreeRTOSv10.4.1/FreeRTOS/Source/queue.c ****             }
2736:../../../../dependencies/freertos/FreeRTOSv10.4.1/FreeRTOS/Source/queue.c ****             else
2737:../../../../dependencies/freertos/FreeRTOSv10.4.1/FreeRTOS/Source/queue.c ****             {
2738:../../../../dependencies/freertos/FreeRTOSv10.4.1/FreeRTOS/Source/queue.c ****                 mtCOVERAGE_TEST_MARKER();
2739:../../../../dependencies/freertos/FreeRTOSv10.4.1/FreeRTOS/Source/queue.c ****             }
2740:../../../../dependencies/freertos/FreeRTOSv10.4.1/FreeRTOS/Source/queue.c ****         }
2741:../../../../dependencies/freertos/FreeRTOSv10.4.1/FreeRTOS/Source/queue.c ****     }
ARM GAS  /var/folders/kj/yzqgq53j3dg15vgwwwwgf5s00000gn/T//ccGgwidk.s 			page 138


 4818              		.loc 1 2741 5
 4819 0040 00BF     		nop
 4820              	.L310:
 4821 0042 00BF     		nop
 4822 0044 1437     		adds	r7, r7, #20
 4823              	.LCFI176:
 4824              		.cfi_def_cfa_offset 4
 4825 0046 BD46     		mov	sp, r7
 4826              	.LCFI177:
 4827              		.cfi_def_cfa_register 13
 4828              		@ sp needed
 4829 0048 5DF8047B 		ldr	r7, [sp], #4
 4830              	.LCFI178:
 4831              		.cfi_restore 7
 4832              		.cfi_def_cfa_offset 0
 4833 004c 7047     		bx	lr
 4834              	.L313:
 4835 004e 00BF     		.align	2
 4836              	.L312:
 4837 0050 00000000 		.word	xQueueRegistry
 4838              		.cfi_endproc
 4839              	.LFE38:
 4841              		.section	.text.pcQueueGetName,"ax",%progbits
 4842              		.align	1
 4843              		.global	pcQueueGetName
 4844              		.syntax unified
 4845              		.thumb
 4846              		.thumb_func
 4847              		.fpu fpv4-sp-d16
 4849              	pcQueueGetName:
 4850              	.LFB39:
2742:../../../../dependencies/freertos/FreeRTOSv10.4.1/FreeRTOS/Source/queue.c **** 
2743:../../../../dependencies/freertos/FreeRTOSv10.4.1/FreeRTOS/Source/queue.c **** #endif /* configQUEUE_REGISTRY_SIZE */
2744:../../../../dependencies/freertos/FreeRTOSv10.4.1/FreeRTOS/Source/queue.c **** /*-----------------------------------------------------------*/
2745:../../../../dependencies/freertos/FreeRTOSv10.4.1/FreeRTOS/Source/queue.c **** 
2746:../../../../dependencies/freertos/FreeRTOSv10.4.1/FreeRTOS/Source/queue.c **** #if ( configQUEUE_REGISTRY_SIZE > 0 )
2747:../../../../dependencies/freertos/FreeRTOSv10.4.1/FreeRTOS/Source/queue.c **** 
2748:../../../../dependencies/freertos/FreeRTOSv10.4.1/FreeRTOS/Source/queue.c ****     const char * pcQueueGetName( QueueHandle_t xQueue ) /*lint !e971 Unqualified char types are all
2749:../../../../dependencies/freertos/FreeRTOSv10.4.1/FreeRTOS/Source/queue.c ****     {
 4851              		.loc 1 2749 5
 4852              		.cfi_startproc
 4853              		@ args = 0, pretend = 0, frame = 16
 4854              		@ frame_needed = 1, uses_anonymous_args = 0
 4855              		@ link register save eliminated.
 4856 0000 80B4     		push	{r7}
 4857              	.LCFI179:
 4858              		.cfi_def_cfa_offset 4
 4859              		.cfi_offset 7, -4
 4860 0002 85B0     		sub	sp, sp, #20
 4861              	.LCFI180:
 4862              		.cfi_def_cfa_offset 24
 4863 0004 00AF     		add	r7, sp, #0
 4864              	.LCFI181:
 4865              		.cfi_def_cfa_register 7
 4866 0006 7860     		str	r0, [r7, #4]
2750:../../../../dependencies/freertos/FreeRTOSv10.4.1/FreeRTOS/Source/queue.c ****         UBaseType_t ux;
2751:../../../../dependencies/freertos/FreeRTOSv10.4.1/FreeRTOS/Source/queue.c ****         const char * pcReturn = NULL; /*lint !e971 Unqualified char types are allowed for strings a
ARM GAS  /var/folders/kj/yzqgq53j3dg15vgwwwwgf5s00000gn/T//ccGgwidk.s 			page 139


 4867              		.loc 1 2751 22
 4868 0008 0023     		movs	r3, #0
 4869 000a BB60     		str	r3, [r7, #8]
2752:../../../../dependencies/freertos/FreeRTOSv10.4.1/FreeRTOS/Source/queue.c **** 
2753:../../../../dependencies/freertos/FreeRTOSv10.4.1/FreeRTOS/Source/queue.c ****         /* Note there is nothing here to protect against another task adding or
2754:../../../../dependencies/freertos/FreeRTOSv10.4.1/FreeRTOS/Source/queue.c ****          * removing entries from the registry while it is being searched. */
2755:../../../../dependencies/freertos/FreeRTOSv10.4.1/FreeRTOS/Source/queue.c **** 
2756:../../../../dependencies/freertos/FreeRTOSv10.4.1/FreeRTOS/Source/queue.c ****         for( ux = ( UBaseType_t ) 0U; ux < ( UBaseType_t ) configQUEUE_REGISTRY_SIZE; ux++ )
 4870              		.loc 1 2756 17
 4871 000c 0023     		movs	r3, #0
 4872 000e FB60     		str	r3, [r7, #12]
 4873              		.loc 1 2756 9
 4874 0010 10E0     		b	.L315
 4875              	.L318:
2757:../../../../dependencies/freertos/FreeRTOSv10.4.1/FreeRTOS/Source/queue.c ****         {
2758:../../../../dependencies/freertos/FreeRTOSv10.4.1/FreeRTOS/Source/queue.c ****             if( xQueueRegistry[ ux ].xHandle == xQueue )
 4876              		.loc 1 2758 37
 4877 0012 0D4A     		ldr	r2, .L320
 4878 0014 FB68     		ldr	r3, [r7, #12]
 4879 0016 DB00     		lsls	r3, r3, #3
 4880 0018 1344     		add	r3, r3, r2
 4881 001a 5B68     		ldr	r3, [r3, #4]
 4882              		.loc 1 2758 15
 4883 001c 7A68     		ldr	r2, [r7, #4]
 4884 001e 9A42     		cmp	r2, r3
 4885 0020 05D1     		bne	.L316
2759:../../../../dependencies/freertos/FreeRTOSv10.4.1/FreeRTOS/Source/queue.c ****             {
2760:../../../../dependencies/freertos/FreeRTOSv10.4.1/FreeRTOS/Source/queue.c ****                 pcReturn = xQueueRegistry[ ux ].pcQueueName;
 4886              		.loc 1 2760 26
 4887 0022 094A     		ldr	r2, .L320
 4888 0024 FB68     		ldr	r3, [r7, #12]
 4889 0026 52F83330 		ldr	r3, [r2, r3, lsl #3]
 4890 002a BB60     		str	r3, [r7, #8]
2761:../../../../dependencies/freertos/FreeRTOSv10.4.1/FreeRTOS/Source/queue.c ****                 break;
 4891              		.loc 1 2761 17
 4892 002c 05E0     		b	.L317
 4893              	.L316:
2756:../../../../dependencies/freertos/FreeRTOSv10.4.1/FreeRTOS/Source/queue.c ****         {
 4894              		.loc 1 2756 89 discriminator 2
 4895 002e FB68     		ldr	r3, [r7, #12]
 4896 0030 0133     		adds	r3, r3, #1
 4897 0032 FB60     		str	r3, [r7, #12]
 4898              	.L315:
2756:../../../../dependencies/freertos/FreeRTOSv10.4.1/FreeRTOS/Source/queue.c ****         {
 4899              		.loc 1 2756 9 discriminator 1
 4900 0034 FB68     		ldr	r3, [r7, #12]
 4901 0036 072B     		cmp	r3, #7
 4902 0038 EBD9     		bls	.L318
 4903              	.L317:
2762:../../../../dependencies/freertos/FreeRTOSv10.4.1/FreeRTOS/Source/queue.c ****             }
2763:../../../../dependencies/freertos/FreeRTOSv10.4.1/FreeRTOS/Source/queue.c ****             else
2764:../../../../dependencies/freertos/FreeRTOSv10.4.1/FreeRTOS/Source/queue.c ****             {
2765:../../../../dependencies/freertos/FreeRTOSv10.4.1/FreeRTOS/Source/queue.c ****                 mtCOVERAGE_TEST_MARKER();
2766:../../../../dependencies/freertos/FreeRTOSv10.4.1/FreeRTOS/Source/queue.c ****             }
2767:../../../../dependencies/freertos/FreeRTOSv10.4.1/FreeRTOS/Source/queue.c ****         }
2768:../../../../dependencies/freertos/FreeRTOSv10.4.1/FreeRTOS/Source/queue.c **** 
2769:../../../../dependencies/freertos/FreeRTOSv10.4.1/FreeRTOS/Source/queue.c ****         return pcReturn;
ARM GAS  /var/folders/kj/yzqgq53j3dg15vgwwwwgf5s00000gn/T//ccGgwidk.s 			page 140


 4904              		.loc 1 2769 16
 4905 003a BB68     		ldr	r3, [r7, #8]
2770:../../../../dependencies/freertos/FreeRTOSv10.4.1/FreeRTOS/Source/queue.c ****     } /*lint !e818 xQueue cannot be a pointer to const because it is a typedef. */
 4906              		.loc 1 2770 5
 4907 003c 1846     		mov	r0, r3
 4908 003e 1437     		adds	r7, r7, #20
 4909              	.LCFI182:
 4910              		.cfi_def_cfa_offset 4
 4911 0040 BD46     		mov	sp, r7
 4912              	.LCFI183:
 4913              		.cfi_def_cfa_register 13
 4914              		@ sp needed
 4915 0042 5DF8047B 		ldr	r7, [sp], #4
 4916              	.LCFI184:
 4917              		.cfi_restore 7
 4918              		.cfi_def_cfa_offset 0
 4919 0046 7047     		bx	lr
 4920              	.L321:
 4921              		.align	2
 4922              	.L320:
 4923 0048 00000000 		.word	xQueueRegistry
 4924              		.cfi_endproc
 4925              	.LFE39:
 4927              		.section	.text.vQueueUnregisterQueue,"ax",%progbits
 4928              		.align	1
 4929              		.global	vQueueUnregisterQueue
 4930              		.syntax unified
 4931              		.thumb
 4932              		.thumb_func
 4933              		.fpu fpv4-sp-d16
 4935              	vQueueUnregisterQueue:
 4936              	.LFB40:
2771:../../../../dependencies/freertos/FreeRTOSv10.4.1/FreeRTOS/Source/queue.c **** 
2772:../../../../dependencies/freertos/FreeRTOSv10.4.1/FreeRTOS/Source/queue.c **** #endif /* configQUEUE_REGISTRY_SIZE */
2773:../../../../dependencies/freertos/FreeRTOSv10.4.1/FreeRTOS/Source/queue.c **** /*-----------------------------------------------------------*/
2774:../../../../dependencies/freertos/FreeRTOSv10.4.1/FreeRTOS/Source/queue.c **** 
2775:../../../../dependencies/freertos/FreeRTOSv10.4.1/FreeRTOS/Source/queue.c **** #if ( configQUEUE_REGISTRY_SIZE > 0 )
2776:../../../../dependencies/freertos/FreeRTOSv10.4.1/FreeRTOS/Source/queue.c **** 
2777:../../../../dependencies/freertos/FreeRTOSv10.4.1/FreeRTOS/Source/queue.c ****     void vQueueUnregisterQueue( QueueHandle_t xQueue )
2778:../../../../dependencies/freertos/FreeRTOSv10.4.1/FreeRTOS/Source/queue.c ****     {
 4937              		.loc 1 2778 5
 4938              		.cfi_startproc
 4939              		@ args = 0, pretend = 0, frame = 16
 4940              		@ frame_needed = 1, uses_anonymous_args = 0
 4941              		@ link register save eliminated.
 4942 0000 80B4     		push	{r7}
 4943              	.LCFI185:
 4944              		.cfi_def_cfa_offset 4
 4945              		.cfi_offset 7, -4
 4946 0002 85B0     		sub	sp, sp, #20
 4947              	.LCFI186:
 4948              		.cfi_def_cfa_offset 24
 4949 0004 00AF     		add	r7, sp, #0
 4950              	.LCFI187:
 4951              		.cfi_def_cfa_register 7
 4952 0006 7860     		str	r0, [r7, #4]
2779:../../../../dependencies/freertos/FreeRTOSv10.4.1/FreeRTOS/Source/queue.c ****         UBaseType_t ux;
ARM GAS  /var/folders/kj/yzqgq53j3dg15vgwwwwgf5s00000gn/T//ccGgwidk.s 			page 141


2780:../../../../dependencies/freertos/FreeRTOSv10.4.1/FreeRTOS/Source/queue.c **** 
2781:../../../../dependencies/freertos/FreeRTOSv10.4.1/FreeRTOS/Source/queue.c ****         /* See if the handle of the queue being unregistered in actually in the
2782:../../../../dependencies/freertos/FreeRTOSv10.4.1/FreeRTOS/Source/queue.c ****          * registry. */
2783:../../../../dependencies/freertos/FreeRTOSv10.4.1/FreeRTOS/Source/queue.c ****         for( ux = ( UBaseType_t ) 0U; ux < ( UBaseType_t ) configQUEUE_REGISTRY_SIZE; ux++ )
 4953              		.loc 1 2783 17
 4954 0008 0023     		movs	r3, #0
 4955 000a FB60     		str	r3, [r7, #12]
 4956              		.loc 1 2783 9
 4957 000c 16E0     		b	.L323
 4958              	.L326:
2784:../../../../dependencies/freertos/FreeRTOSv10.4.1/FreeRTOS/Source/queue.c ****         {
2785:../../../../dependencies/freertos/FreeRTOSv10.4.1/FreeRTOS/Source/queue.c ****             if( xQueueRegistry[ ux ].xHandle == xQueue )
 4959              		.loc 1 2785 37
 4960 000e 104A     		ldr	r2, .L327
 4961 0010 FB68     		ldr	r3, [r7, #12]
 4962 0012 DB00     		lsls	r3, r3, #3
 4963 0014 1344     		add	r3, r3, r2
 4964 0016 5B68     		ldr	r3, [r3, #4]
 4965              		.loc 1 2785 15
 4966 0018 7A68     		ldr	r2, [r7, #4]
 4967 001a 9A42     		cmp	r2, r3
 4968 001c 0BD1     		bne	.L324
2786:../../../../dependencies/freertos/FreeRTOSv10.4.1/FreeRTOS/Source/queue.c ****             {
2787:../../../../dependencies/freertos/FreeRTOSv10.4.1/FreeRTOS/Source/queue.c ****                 /* Set the name to NULL to show that this slot if free again. */
2788:../../../../dependencies/freertos/FreeRTOSv10.4.1/FreeRTOS/Source/queue.c ****                 xQueueRegistry[ ux ].pcQueueName = NULL;
 4969              		.loc 1 2788 50
 4970 001e 0C4A     		ldr	r2, .L327
 4971 0020 FB68     		ldr	r3, [r7, #12]
 4972 0022 0021     		movs	r1, #0
 4973 0024 42F83310 		str	r1, [r2, r3, lsl #3]
2789:../../../../dependencies/freertos/FreeRTOSv10.4.1/FreeRTOS/Source/queue.c **** 
2790:../../../../dependencies/freertos/FreeRTOSv10.4.1/FreeRTOS/Source/queue.c ****                 /* Set the handle to NULL to ensure the same queue handle cannot
2791:../../../../dependencies/freertos/FreeRTOSv10.4.1/FreeRTOS/Source/queue.c ****                  * appear in the registry twice if it is added, removed, then
2792:../../../../dependencies/freertos/FreeRTOSv10.4.1/FreeRTOS/Source/queue.c ****                  * added again. */
2793:../../../../dependencies/freertos/FreeRTOSv10.4.1/FreeRTOS/Source/queue.c ****                 xQueueRegistry[ ux ].xHandle = ( QueueHandle_t ) 0;
 4974              		.loc 1 2793 46
 4975 0028 094A     		ldr	r2, .L327
 4976 002a FB68     		ldr	r3, [r7, #12]
 4977 002c DB00     		lsls	r3, r3, #3
 4978 002e 1344     		add	r3, r3, r2
 4979 0030 0022     		movs	r2, #0
 4980 0032 5A60     		str	r2, [r3, #4]
2794:../../../../dependencies/freertos/FreeRTOSv10.4.1/FreeRTOS/Source/queue.c ****                 break;
 4981              		.loc 1 2794 17
 4982 0034 06E0     		b	.L325
 4983              	.L324:
2783:../../../../dependencies/freertos/FreeRTOSv10.4.1/FreeRTOS/Source/queue.c ****         {
 4984              		.loc 1 2783 89 discriminator 2
 4985 0036 FB68     		ldr	r3, [r7, #12]
 4986 0038 0133     		adds	r3, r3, #1
 4987 003a FB60     		str	r3, [r7, #12]
 4988              	.L323:
2783:../../../../dependencies/freertos/FreeRTOSv10.4.1/FreeRTOS/Source/queue.c ****         {
 4989              		.loc 1 2783 9 discriminator 1
 4990 003c FB68     		ldr	r3, [r7, #12]
 4991 003e 072B     		cmp	r3, #7
 4992 0040 E5D9     		bls	.L326
ARM GAS  /var/folders/kj/yzqgq53j3dg15vgwwwwgf5s00000gn/T//ccGgwidk.s 			page 142


2795:../../../../dependencies/freertos/FreeRTOSv10.4.1/FreeRTOS/Source/queue.c ****             }
2796:../../../../dependencies/freertos/FreeRTOSv10.4.1/FreeRTOS/Source/queue.c ****             else
2797:../../../../dependencies/freertos/FreeRTOSv10.4.1/FreeRTOS/Source/queue.c ****             {
2798:../../../../dependencies/freertos/FreeRTOSv10.4.1/FreeRTOS/Source/queue.c ****                 mtCOVERAGE_TEST_MARKER();
2799:../../../../dependencies/freertos/FreeRTOSv10.4.1/FreeRTOS/Source/queue.c ****             }
2800:../../../../dependencies/freertos/FreeRTOSv10.4.1/FreeRTOS/Source/queue.c ****         }
2801:../../../../dependencies/freertos/FreeRTOSv10.4.1/FreeRTOS/Source/queue.c ****     } /*lint !e818 xQueue could not be pointer to const because it is a typedef. */
 4993              		.loc 1 2801 5
 4994 0042 00BF     		nop
 4995              	.L325:
 4996 0044 00BF     		nop
 4997 0046 1437     		adds	r7, r7, #20
 4998              	.LCFI188:
 4999              		.cfi_def_cfa_offset 4
 5000 0048 BD46     		mov	sp, r7
 5001              	.LCFI189:
 5002              		.cfi_def_cfa_register 13
 5003              		@ sp needed
 5004 004a 5DF8047B 		ldr	r7, [sp], #4
 5005              	.LCFI190:
 5006              		.cfi_restore 7
 5007              		.cfi_def_cfa_offset 0
 5008 004e 7047     		bx	lr
 5009              	.L328:
 5010              		.align	2
 5011              	.L327:
 5012 0050 00000000 		.word	xQueueRegistry
 5013              		.cfi_endproc
 5014              	.LFE40:
 5016              		.section	.text.vQueueWaitForMessageRestricted,"ax",%progbits
 5017              		.align	1
 5018              		.global	vQueueWaitForMessageRestricted
 5019              		.syntax unified
 5020              		.thumb
 5021              		.thumb_func
 5022              		.fpu fpv4-sp-d16
 5024              	vQueueWaitForMessageRestricted:
 5025              	.LFB41:
2802:../../../../dependencies/freertos/FreeRTOSv10.4.1/FreeRTOS/Source/queue.c **** 
2803:../../../../dependencies/freertos/FreeRTOSv10.4.1/FreeRTOS/Source/queue.c **** #endif /* configQUEUE_REGISTRY_SIZE */
2804:../../../../dependencies/freertos/FreeRTOSv10.4.1/FreeRTOS/Source/queue.c **** /*-----------------------------------------------------------*/
2805:../../../../dependencies/freertos/FreeRTOSv10.4.1/FreeRTOS/Source/queue.c **** 
2806:../../../../dependencies/freertos/FreeRTOSv10.4.1/FreeRTOS/Source/queue.c **** #if ( configUSE_TIMERS == 1 )
2807:../../../../dependencies/freertos/FreeRTOSv10.4.1/FreeRTOS/Source/queue.c **** 
2808:../../../../dependencies/freertos/FreeRTOSv10.4.1/FreeRTOS/Source/queue.c ****     void vQueueWaitForMessageRestricted( QueueHandle_t xQueue,
2809:../../../../dependencies/freertos/FreeRTOSv10.4.1/FreeRTOS/Source/queue.c ****                                          TickType_t xTicksToWait,
2810:../../../../dependencies/freertos/FreeRTOSv10.4.1/FreeRTOS/Source/queue.c ****                                          const BaseType_t xWaitIndefinitely )
2811:../../../../dependencies/freertos/FreeRTOSv10.4.1/FreeRTOS/Source/queue.c ****     {
 5026              		.loc 1 2811 5
 5027              		.cfi_startproc
 5028              		@ args = 0, pretend = 0, frame = 24
 5029              		@ frame_needed = 1, uses_anonymous_args = 0
 5030 0000 80B5     		push	{r7, lr}
 5031              	.LCFI191:
 5032              		.cfi_def_cfa_offset 8
 5033              		.cfi_offset 7, -8
 5034              		.cfi_offset 14, -4
ARM GAS  /var/folders/kj/yzqgq53j3dg15vgwwwwgf5s00000gn/T//ccGgwidk.s 			page 143


 5035 0002 86B0     		sub	sp, sp, #24
 5036              	.LCFI192:
 5037              		.cfi_def_cfa_offset 32
 5038 0004 00AF     		add	r7, sp, #0
 5039              	.LCFI193:
 5040              		.cfi_def_cfa_register 7
 5041 0006 F860     		str	r0, [r7, #12]
 5042 0008 B960     		str	r1, [r7, #8]
 5043 000a 7A60     		str	r2, [r7, #4]
2812:../../../../dependencies/freertos/FreeRTOSv10.4.1/FreeRTOS/Source/queue.c ****         Queue_t * const pxQueue = xQueue;
 5044              		.loc 1 2812 25
 5045 000c FB68     		ldr	r3, [r7, #12]
 5046 000e 7B61     		str	r3, [r7, #20]
2813:../../../../dependencies/freertos/FreeRTOSv10.4.1/FreeRTOS/Source/queue.c **** 
2814:../../../../dependencies/freertos/FreeRTOSv10.4.1/FreeRTOS/Source/queue.c ****         /* This function should not be called by application code hence the
2815:../../../../dependencies/freertos/FreeRTOSv10.4.1/FreeRTOS/Source/queue.c ****          * 'Restricted' in its name.  It is not part of the public API.  It is
2816:../../../../dependencies/freertos/FreeRTOSv10.4.1/FreeRTOS/Source/queue.c ****          * designed for use by kernel code, and has special calling requirements.
2817:../../../../dependencies/freertos/FreeRTOSv10.4.1/FreeRTOS/Source/queue.c ****          * It can result in vListInsert() being called on a list that can only
2818:../../../../dependencies/freertos/FreeRTOSv10.4.1/FreeRTOS/Source/queue.c ****          * possibly ever have one item in it, so the list will be fast, but even
2819:../../../../dependencies/freertos/FreeRTOSv10.4.1/FreeRTOS/Source/queue.c ****          * so it should be called with the scheduler locked and not from a critical
2820:../../../../dependencies/freertos/FreeRTOSv10.4.1/FreeRTOS/Source/queue.c ****          * section. */
2821:../../../../dependencies/freertos/FreeRTOSv10.4.1/FreeRTOS/Source/queue.c **** 
2822:../../../../dependencies/freertos/FreeRTOSv10.4.1/FreeRTOS/Source/queue.c ****         /* Only do anything if there are no messages in the queue.  This function
2823:../../../../dependencies/freertos/FreeRTOSv10.4.1/FreeRTOS/Source/queue.c ****          *  will not actually cause the task to block, just place it on a blocked
2824:../../../../dependencies/freertos/FreeRTOSv10.4.1/FreeRTOS/Source/queue.c ****          *  list.  It will not block until the scheduler is unlocked - at which
2825:../../../../dependencies/freertos/FreeRTOSv10.4.1/FreeRTOS/Source/queue.c ****          *  time a yield will be performed.  If an item is added to the queue while
2826:../../../../dependencies/freertos/FreeRTOSv10.4.1/FreeRTOS/Source/queue.c ****          *  the queue is locked, and the calling task blocks on the queue, then the
2827:../../../../dependencies/freertos/FreeRTOSv10.4.1/FreeRTOS/Source/queue.c ****          *  calling task will be immediately unblocked when the queue is unlocked. */
2828:../../../../dependencies/freertos/FreeRTOSv10.4.1/FreeRTOS/Source/queue.c ****         prvLockQueue( pxQueue );
 5047              		.loc 1 2828 9
 5048 0010 FFF7FEFF 		bl	vPortEnterCritical
 5049 0014 7B69     		ldr	r3, [r7, #20]
 5050 0016 93F84430 		ldrb	r3, [r3, #68]
 5051 001a 5BB2     		sxtb	r3, r3
 5052 001c B3F1FF3F 		cmp	r3, #-1
 5053 0020 03D1     		bne	.L330
 5054              		.loc 1 2828 9 is_stmt 0 discriminator 1
 5055 0022 7B69     		ldr	r3, [r7, #20]
 5056 0024 0022     		movs	r2, #0
 5057 0026 83F84420 		strb	r2, [r3, #68]
 5058              	.L330:
 5059              		.loc 1 2828 9 discriminator 3
 5060 002a 7B69     		ldr	r3, [r7, #20]
 5061 002c 93F84530 		ldrb	r3, [r3, #69]
 5062 0030 5BB2     		sxtb	r3, r3
 5063 0032 B3F1FF3F 		cmp	r3, #-1
 5064 0036 03D1     		bne	.L331
 5065              		.loc 1 2828 9 discriminator 4
 5066 0038 7B69     		ldr	r3, [r7, #20]
 5067 003a 0022     		movs	r2, #0
 5068 003c 83F84520 		strb	r2, [r3, #69]
 5069              	.L331:
 5070              		.loc 1 2828 9 discriminator 6
 5071 0040 FFF7FEFF 		bl	vPortExitCritical
2829:../../../../dependencies/freertos/FreeRTOSv10.4.1/FreeRTOS/Source/queue.c **** 
2830:../../../../dependencies/freertos/FreeRTOSv10.4.1/FreeRTOS/Source/queue.c ****         if( pxQueue->uxMessagesWaiting == ( UBaseType_t ) 0U )
 5072              		.loc 1 2830 20 is_stmt 1 discriminator 6
ARM GAS  /var/folders/kj/yzqgq53j3dg15vgwwwwgf5s00000gn/T//ccGgwidk.s 			page 144


 5073 0044 7B69     		ldr	r3, [r7, #20]
 5074 0046 9B6B     		ldr	r3, [r3, #56]
 5075              		.loc 1 2830 11 discriminator 6
 5076 0048 002B     		cmp	r3, #0
 5077 004a 06D1     		bne	.L332
2831:../../../../dependencies/freertos/FreeRTOSv10.4.1/FreeRTOS/Source/queue.c ****         {
2832:../../../../dependencies/freertos/FreeRTOSv10.4.1/FreeRTOS/Source/queue.c ****             /* There is nothing in the queue, block for the specified period. */
2833:../../../../dependencies/freertos/FreeRTOSv10.4.1/FreeRTOS/Source/queue.c ****             vTaskPlaceOnEventListRestricted( &( pxQueue->xTasksWaitingToReceive ), xTicksToWait, xW
 5078              		.loc 1 2833 13
 5079 004c 7B69     		ldr	r3, [r7, #20]
 5080 004e 2433     		adds	r3, r3, #36
 5081 0050 7A68     		ldr	r2, [r7, #4]
 5082 0052 B968     		ldr	r1, [r7, #8]
 5083 0054 1846     		mov	r0, r3
 5084 0056 FFF7FEFF 		bl	vTaskPlaceOnEventListRestricted
 5085              	.L332:
2834:../../../../dependencies/freertos/FreeRTOSv10.4.1/FreeRTOS/Source/queue.c ****         }
2835:../../../../dependencies/freertos/FreeRTOSv10.4.1/FreeRTOS/Source/queue.c ****         else
2836:../../../../dependencies/freertos/FreeRTOSv10.4.1/FreeRTOS/Source/queue.c ****         {
2837:../../../../dependencies/freertos/FreeRTOSv10.4.1/FreeRTOS/Source/queue.c ****             mtCOVERAGE_TEST_MARKER();
2838:../../../../dependencies/freertos/FreeRTOSv10.4.1/FreeRTOS/Source/queue.c ****         }
2839:../../../../dependencies/freertos/FreeRTOSv10.4.1/FreeRTOS/Source/queue.c **** 
2840:../../../../dependencies/freertos/FreeRTOSv10.4.1/FreeRTOS/Source/queue.c ****         prvUnlockQueue( pxQueue );
 5086              		.loc 1 2840 9
 5087 005a 7869     		ldr	r0, [r7, #20]
 5088 005c FFF7FEFF 		bl	prvUnlockQueue
2841:../../../../dependencies/freertos/FreeRTOSv10.4.1/FreeRTOS/Source/queue.c ****     }
 5089              		.loc 1 2841 5
 5090 0060 00BF     		nop
 5091 0062 1837     		adds	r7, r7, #24
 5092              	.LCFI194:
 5093              		.cfi_def_cfa_offset 8
 5094 0064 BD46     		mov	sp, r7
 5095              	.LCFI195:
 5096              		.cfi_def_cfa_register 13
 5097              		@ sp needed
 5098 0066 80BD     		pop	{r7, pc}
 5099              		.cfi_endproc
 5100              	.LFE41:
 5102              		.text
 5103              	.Letext0:
 5104              		.file 3 "/usr/local/Caskroom/gcc-arm-embedded/9-2020-q2-update/gcc-arm-none-eabi-9-2020-q2-update/
 5105              		.file 4 "/usr/local/Caskroom/gcc-arm-embedded/9-2020-q2-update/gcc-arm-none-eabi-9-2020-q2-update/
 5106              		.file 5 "/usr/local/Caskroom/gcc-arm-embedded/9-2020-q2-update/gcc-arm-none-eabi-9-2020-q2-update/
 5107              		.file 6 "/usr/local/Caskroom/gcc-arm-embedded/9-2020-q2-update/gcc-arm-none-eabi-9-2020-q2-update/
 5108              		.file 7 "/usr/local/Caskroom/gcc-arm-embedded/9-2020-q2-update/gcc-arm-none-eabi-9-2020-q2-update/
 5109              		.file 8 "/usr/local/Caskroom/gcc-arm-embedded/9-2020-q2-update/gcc-arm-none-eabi-9-2020-q2-update/
 5110              		.file 9 "/usr/local/Caskroom/gcc-arm-embedded/9-2020-q2-update/gcc-arm-none-eabi-9-2020-q2-update/
 5111              		.file 10 "../include/FreeRTOSConfig.h"
 5112              		.file 11 "../../../../dependencies/freertos/FreeRTOSv10.4.1/FreeRTOS/Source/include/list.h"
 5113              		.file 12 "../../../../dependencies/freertos/FreeRTOSv10.4.1/FreeRTOS/Source/include/task.h"
 5114              		.file 13 "../../../../dependencies/freertos/FreeRTOSv10.4.1/FreeRTOS/Source/include/queue.h"
ARM GAS  /var/folders/kj/yzqgq53j3dg15vgwwwwgf5s00000gn/T//ccGgwidk.s 			page 145


DEFINED SYMBOLS
                            *ABS*:0000000000000000 queue.c
                            *COM*:0000000000000040 xQueueRegistry
/var/folders/kj/yzqgq53j3dg15vgwwwwgf5s00000gn/T//ccGgwidk.s:19     .text.xQueueGenericReset:0000000000000000 $t
/var/folders/kj/yzqgq53j3dg15vgwwwwgf5s00000gn/T//ccGgwidk.s:27     .text.xQueueGenericReset:0000000000000000 xQueueGenericReset
/var/folders/kj/yzqgq53j3dg15vgwwwwgf5s00000gn/T//ccGgwidk.s:194    .text.xQueueGenericReset:00000000000000cc $d
/var/folders/kj/yzqgq53j3dg15vgwwwwgf5s00000gn/T//ccGgwidk.s:199    .text.xQueueGenericCreate:0000000000000000 $t
/var/folders/kj/yzqgq53j3dg15vgwwwwgf5s00000gn/T//ccGgwidk.s:206    .text.xQueueGenericCreate:0000000000000000 xQueueGenericCreate
/var/folders/kj/yzqgq53j3dg15vgwwwwgf5s00000gn/T//ccGgwidk.s:351    .text.prvInitialiseNewQueue:0000000000000000 prvInitialiseNewQueue
/var/folders/kj/yzqgq53j3dg15vgwwwwgf5s00000gn/T//ccGgwidk.s:345    .text.prvInitialiseNewQueue:0000000000000000 $t
/var/folders/kj/yzqgq53j3dg15vgwwwwgf5s00000gn/T//ccGgwidk.s:417    .text.prvInitialiseMutex:0000000000000000 $t
/var/folders/kj/yzqgq53j3dg15vgwwwwgf5s00000gn/T//ccGgwidk.s:423    .text.prvInitialiseMutex:0000000000000000 prvInitialiseMutex
/var/folders/kj/yzqgq53j3dg15vgwwwwgf5s00000gn/T//ccGgwidk.s:1023   .text.xQueueGenericSend:0000000000000000 xQueueGenericSend
/var/folders/kj/yzqgq53j3dg15vgwwwwgf5s00000gn/T//ccGgwidk.s:478    .text.xQueueCreateMutex:0000000000000000 $t
/var/folders/kj/yzqgq53j3dg15vgwwwwgf5s00000gn/T//ccGgwidk.s:485    .text.xQueueCreateMutex:0000000000000000 xQueueCreateMutex
/var/folders/kj/yzqgq53j3dg15vgwwwwgf5s00000gn/T//ccGgwidk.s:536    .text.xQueueGetMutexHolder:0000000000000000 $t
/var/folders/kj/yzqgq53j3dg15vgwwwwgf5s00000gn/T//ccGgwidk.s:543    .text.xQueueGetMutexHolder:0000000000000000 xQueueGetMutexHolder
/var/folders/kj/yzqgq53j3dg15vgwwwwgf5s00000gn/T//ccGgwidk.s:600    .text.xQueueGetMutexHolderFromISR:0000000000000000 $t
/var/folders/kj/yzqgq53j3dg15vgwwwwgf5s00000gn/T//ccGgwidk.s:607    .text.xQueueGetMutexHolderFromISR:0000000000000000 xQueueGetMutexHolderFromISR
/var/folders/kj/yzqgq53j3dg15vgwwwwgf5s00000gn/T//ccGgwidk.s:687    .text.xQueueGiveMutexRecursive:0000000000000000 $t
/var/folders/kj/yzqgq53j3dg15vgwwwwgf5s00000gn/T//ccGgwidk.s:694    .text.xQueueGiveMutexRecursive:0000000000000000 xQueueGiveMutexRecursive
/var/folders/kj/yzqgq53j3dg15vgwwwwgf5s00000gn/T//ccGgwidk.s:796    .text.xQueueTakeMutexRecursive:0000000000000000 $t
/var/folders/kj/yzqgq53j3dg15vgwwwwgf5s00000gn/T//ccGgwidk.s:803    .text.xQueueTakeMutexRecursive:0000000000000000 xQueueTakeMutexRecursive
/var/folders/kj/yzqgq53j3dg15vgwwwwgf5s00000gn/T//ccGgwidk.s:2343   .text.xQueueSemaphoreTake:0000000000000000 xQueueSemaphoreTake
/var/folders/kj/yzqgq53j3dg15vgwwwwgf5s00000gn/T//ccGgwidk.s:906    .text.xQueueCreateCountingSemaphore:0000000000000000 $t
/var/folders/kj/yzqgq53j3dg15vgwwwwgf5s00000gn/T//ccGgwidk.s:913    .text.xQueueCreateCountingSemaphore:0000000000000000 xQueueCreateCountingSemaphore
/var/folders/kj/yzqgq53j3dg15vgwwwwgf5s00000gn/T//ccGgwidk.s:1016   .text.xQueueGenericSend:0000000000000000 $t
/var/folders/kj/yzqgq53j3dg15vgwwwwgf5s00000gn/T//ccGgwidk.s:4061   .text.prvCopyDataToQueue:0000000000000000 prvCopyDataToQueue
/var/folders/kj/yzqgq53j3dg15vgwwwwgf5s00000gn/T//ccGgwidk.s:4607   .text.prvIsQueueFull:0000000000000000 prvIsQueueFull
/var/folders/kj/yzqgq53j3dg15vgwwwwgf5s00000gn/T//ccGgwidk.s:4319   .text.prvUnlockQueue:0000000000000000 prvUnlockQueue
/var/folders/kj/yzqgq53j3dg15vgwwwwgf5s00000gn/T//ccGgwidk.s:1407   .text.xQueueGenericSend:00000000000001f8 $d
/var/folders/kj/yzqgq53j3dg15vgwwwwgf5s00000gn/T//ccGgwidk.s:1412   .text.xQueueGenericSendFromISR:0000000000000000 $t
/var/folders/kj/yzqgq53j3dg15vgwwwwgf5s00000gn/T//ccGgwidk.s:1419   .text.xQueueGenericSendFromISR:0000000000000000 xQueueGenericSendFromISR
/var/folders/kj/yzqgq53j3dg15vgwwwwgf5s00000gn/T//ccGgwidk.s:1714   .text.xQueueGiveFromISR:0000000000000000 $t
/var/folders/kj/yzqgq53j3dg15vgwwwwgf5s00000gn/T//ccGgwidk.s:1721   .text.xQueueGiveFromISR:0000000000000000 xQueueGiveFromISR
/var/folders/kj/yzqgq53j3dg15vgwwwwgf5s00000gn/T//ccGgwidk.s:1995   .text.xQueueReceive:0000000000000000 $t
/var/folders/kj/yzqgq53j3dg15vgwwwwgf5s00000gn/T//ccGgwidk.s:2002   .text.xQueueReceive:0000000000000000 xQueueReceive
/var/folders/kj/yzqgq53j3dg15vgwwwwgf5s00000gn/T//ccGgwidk.s:4237   .text.prvCopyDataFromQueue:0000000000000000 prvCopyDataFromQueue
/var/folders/kj/yzqgq53j3dg15vgwwwwgf5s00000gn/T//ccGgwidk.s:4459   .text.prvIsQueueEmpty:0000000000000000 prvIsQueueEmpty
/var/folders/kj/yzqgq53j3dg15vgwwwwgf5s00000gn/T//ccGgwidk.s:2331   .text.xQueueReceive:00000000000001bc $d
/var/folders/kj/yzqgq53j3dg15vgwwwwgf5s00000gn/T//ccGgwidk.s:2336   .text.xQueueSemaphoreTake:0000000000000000 $t
/var/folders/kj/yzqgq53j3dg15vgwwwwgf5s00000gn/T//ccGgwidk.s:3998   .text.prvGetDisinheritPriorityAfterTimeout:0000000000000000 prvGetDisinheritPriorityAfterTimeout
/var/folders/kj/yzqgq53j3dg15vgwwwwgf5s00000gn/T//ccGgwidk.s:2732   .text.xQueueSemaphoreTake:0000000000000214 $d
/var/folders/kj/yzqgq53j3dg15vgwwwwgf5s00000gn/T//ccGgwidk.s:2737   .text.xQueuePeek:0000000000000000 $t
/var/folders/kj/yzqgq53j3dg15vgwwwwgf5s00000gn/T//ccGgwidk.s:2744   .text.xQueuePeek:0000000000000000 xQueuePeek
/var/folders/kj/yzqgq53j3dg15vgwwwwgf5s00000gn/T//ccGgwidk.s:3075   .text.xQueuePeek:00000000000001c0 $d
/var/folders/kj/yzqgq53j3dg15vgwwwwgf5s00000gn/T//ccGgwidk.s:3080   .text.xQueueReceiveFromISR:0000000000000000 $t
/var/folders/kj/yzqgq53j3dg15vgwwwwgf5s00000gn/T//ccGgwidk.s:3087   .text.xQueueReceiveFromISR:0000000000000000 xQueueReceiveFromISR
/var/folders/kj/yzqgq53j3dg15vgwwwwgf5s00000gn/T//ccGgwidk.s:3335   .text.xQueuePeekFromISR:0000000000000000 $t
/var/folders/kj/yzqgq53j3dg15vgwwwwgf5s00000gn/T//ccGgwidk.s:3342   .text.xQueuePeekFromISR:0000000000000000 xQueuePeekFromISR
/var/folders/kj/yzqgq53j3dg15vgwwwwgf5s00000gn/T//ccGgwidk.s:3542   .text.uxQueueMessagesWaiting:0000000000000000 $t
/var/folders/kj/yzqgq53j3dg15vgwwwwgf5s00000gn/T//ccGgwidk.s:3549   .text.uxQueueMessagesWaiting:0000000000000000 uxQueueMessagesWaiting
/var/folders/kj/yzqgq53j3dg15vgwwwwgf5s00000gn/T//ccGgwidk.s:3617   .text.uxQueueSpacesAvailable:0000000000000000 $t
/var/folders/kj/yzqgq53j3dg15vgwwwwgf5s00000gn/T//ccGgwidk.s:3624   .text.uxQueueSpacesAvailable:0000000000000000 uxQueueSpacesAvailable
/var/folders/kj/yzqgq53j3dg15vgwwwwgf5s00000gn/T//ccGgwidk.s:3700   .text.uxQueueMessagesWaitingFromISR:0000000000000000 $t
/var/folders/kj/yzqgq53j3dg15vgwwwwgf5s00000gn/T//ccGgwidk.s:3707   .text.uxQueueMessagesWaitingFromISR:0000000000000000 uxQueueMessagesWaitingFromISR
/var/folders/kj/yzqgq53j3dg15vgwwwwgf5s00000gn/T//ccGgwidk.s:3778   .text.vQueueDelete:0000000000000000 $t
ARM GAS  /var/folders/kj/yzqgq53j3dg15vgwwwwgf5s00000gn/T//ccGgwidk.s 			page 146


/var/folders/kj/yzqgq53j3dg15vgwwwwgf5s00000gn/T//ccGgwidk.s:3785   .text.vQueueDelete:0000000000000000 vQueueDelete
/var/folders/kj/yzqgq53j3dg15vgwwwwgf5s00000gn/T//ccGgwidk.s:4935   .text.vQueueUnregisterQueue:0000000000000000 vQueueUnregisterQueue
/var/folders/kj/yzqgq53j3dg15vgwwwwgf5s00000gn/T//ccGgwidk.s:3852   .text.uxQueueGetQueueNumber:0000000000000000 $t
/var/folders/kj/yzqgq53j3dg15vgwwwwgf5s00000gn/T//ccGgwidk.s:3859   .text.uxQueueGetQueueNumber:0000000000000000 uxQueueGetQueueNumber
/var/folders/kj/yzqgq53j3dg15vgwwwwgf5s00000gn/T//ccGgwidk.s:3898   .text.vQueueSetQueueNumber:0000000000000000 $t
/var/folders/kj/yzqgq53j3dg15vgwwwwgf5s00000gn/T//ccGgwidk.s:3905   .text.vQueueSetQueueNumber:0000000000000000 vQueueSetQueueNumber
/var/folders/kj/yzqgq53j3dg15vgwwwwgf5s00000gn/T//ccGgwidk.s:3946   .text.ucQueueGetQueueType:0000000000000000 $t
/var/folders/kj/yzqgq53j3dg15vgwwwwgf5s00000gn/T//ccGgwidk.s:3953   .text.ucQueueGetQueueType:0000000000000000 ucQueueGetQueueType
/var/folders/kj/yzqgq53j3dg15vgwwwwgf5s00000gn/T//ccGgwidk.s:3992   .text.prvGetDisinheritPriorityAfterTimeout:0000000000000000 $t
/var/folders/kj/yzqgq53j3dg15vgwwwwgf5s00000gn/T//ccGgwidk.s:4055   .text.prvCopyDataToQueue:0000000000000000 $t
/var/folders/kj/yzqgq53j3dg15vgwwwwgf5s00000gn/T//ccGgwidk.s:4231   .text.prvCopyDataFromQueue:0000000000000000 $t
/var/folders/kj/yzqgq53j3dg15vgwwwwgf5s00000gn/T//ccGgwidk.s:4313   .text.prvUnlockQueue:0000000000000000 $t
/var/folders/kj/yzqgq53j3dg15vgwwwwgf5s00000gn/T//ccGgwidk.s:4453   .text.prvIsQueueEmpty:0000000000000000 $t
/var/folders/kj/yzqgq53j3dg15vgwwwwgf5s00000gn/T//ccGgwidk.s:4512   .text.xQueueIsQueueEmptyFromISR:0000000000000000 $t
/var/folders/kj/yzqgq53j3dg15vgwwwwgf5s00000gn/T//ccGgwidk.s:4519   .text.xQueueIsQueueEmptyFromISR:0000000000000000 xQueueIsQueueEmptyFromISR
/var/folders/kj/yzqgq53j3dg15vgwwwwgf5s00000gn/T//ccGgwidk.s:4601   .text.prvIsQueueFull:0000000000000000 $t
/var/folders/kj/yzqgq53j3dg15vgwwwwgf5s00000gn/T//ccGgwidk.s:4663   .text.xQueueIsQueueFullFromISR:0000000000000000 $t
/var/folders/kj/yzqgq53j3dg15vgwwwwgf5s00000gn/T//ccGgwidk.s:4670   .text.xQueueIsQueueFullFromISR:0000000000000000 xQueueIsQueueFullFromISR
/var/folders/kj/yzqgq53j3dg15vgwwwwgf5s00000gn/T//ccGgwidk.s:4755   .text.vQueueAddToRegistry:0000000000000000 $t
/var/folders/kj/yzqgq53j3dg15vgwwwwgf5s00000gn/T//ccGgwidk.s:4762   .text.vQueueAddToRegistry:0000000000000000 vQueueAddToRegistry
/var/folders/kj/yzqgq53j3dg15vgwwwwgf5s00000gn/T//ccGgwidk.s:4837   .text.vQueueAddToRegistry:0000000000000050 $d
/var/folders/kj/yzqgq53j3dg15vgwwwwgf5s00000gn/T//ccGgwidk.s:4842   .text.pcQueueGetName:0000000000000000 $t
/var/folders/kj/yzqgq53j3dg15vgwwwwgf5s00000gn/T//ccGgwidk.s:4849   .text.pcQueueGetName:0000000000000000 pcQueueGetName
/var/folders/kj/yzqgq53j3dg15vgwwwwgf5s00000gn/T//ccGgwidk.s:4923   .text.pcQueueGetName:0000000000000048 $d
/var/folders/kj/yzqgq53j3dg15vgwwwwgf5s00000gn/T//ccGgwidk.s:4928   .text.vQueueUnregisterQueue:0000000000000000 $t
/var/folders/kj/yzqgq53j3dg15vgwwwwgf5s00000gn/T//ccGgwidk.s:5012   .text.vQueueUnregisterQueue:0000000000000050 $d
/var/folders/kj/yzqgq53j3dg15vgwwwwgf5s00000gn/T//ccGgwidk.s:5017   .text.vQueueWaitForMessageRestricted:0000000000000000 $t
/var/folders/kj/yzqgq53j3dg15vgwwwwgf5s00000gn/T//ccGgwidk.s:5024   .text.vQueueWaitForMessageRestricted:0000000000000000 vQueueWaitForMessageRestricted
                           .group:0000000000000000 wm4.0.ec2406cbd31d56f71e0243dbf4ad4862
                           .group:0000000000000000 wm4.ieeefp.h.77.f33a4dce62116f6f5175ff8bae57a54c
                           .group:0000000000000000 wm4._newlib_version.h.4.1ef4e12f167f8b69d7c30054be56050d
                           .group:0000000000000000 wm4.newlib.h.18.1c9fedb6b3cd797cff253cc0fd593ef2
                           .group:0000000000000000 wm4.features.h.22.fad1cec3bc7ff06488171438dbdcfd02
                           .group:0000000000000000 wm4.config.h.224.c701144a7b0518c6ee9b9b5465b79f81
                           .group:0000000000000000 wm4._ansi.h.31.de524f58584151836e90d8620a16f8e8
                           .group:0000000000000000 wm4.stdlib.h.13.4ed386f5c1a80d71e72172885d946ef2
                           .group:0000000000000000 wm4.stddef.h.181.13772e73e5434e8cc4fafaaddad2b5da
                           .group:0000000000000000 wm4.stddef.h.39.cf3ebec0bc8c9e3d2f276a64e0fe5e7a
                           .group:0000000000000000 wm4._types.h.20.dd0d04dca3800a0d2a6129b87f3adbb2
                           .group:0000000000000000 wm4.stddef.h.155.3588ebfdd1e8c7ede80509bb9c3b8009
                           .group:0000000000000000 wm4._default_types.h.6.959254cf5f09734ea7516c89e8bb21bd
                           .group:0000000000000000 wm4._types.h.127.34941de1b2539d59d5cac00e0dd27a45
                           .group:0000000000000000 wm4.reent.h.17.e292bf8b0bec6c96e131a54347145a30
                           .group:0000000000000000 wm4.lock.h.2.1461d1fff82dffe8bfddc23307f6484f
                           .group:0000000000000000 wm4.reent.h.77.dcd6129ff07fe81bd5636db29abe53b2
                           .group:0000000000000000 wm4.cdefs.h.49.6260d97adb8d27534cbdc0f868b8ea87
                           .group:0000000000000000 wm4.alloca.h.8.dfc0c703c47ec3e69746825b17d9e66d
                           .group:0000000000000000 wm4.stdlib.h.56.f4862cfbf4363a1db01842d5bdf72c18
                           .group:0000000000000000 wm4.string.h.8.c4b8571ce60dff2817f43fec8b86aecd
                           .group:0000000000000000 wm4.stddef.h.155.ba788add86a0e365f264484f110c3c29
                           .group:0000000000000000 wm4._intsup.h.10.48bafbb683905c4daa4565a85aeeb264
                           .group:0000000000000000 wm4._stdint.h.10.c24fa3af3bc1706662bb5593a907e841
                           .group:0000000000000000 wm4.stdint.h.23.d53047a68f4a85177f80b422d52785ed
                           .group:0000000000000000 wm4.FreeRTOSConfig.h.2.23623fc0cad83877f62ccd9ca9b417c2
                           .group:0000000000000000 wm4.projdefs.h.28.d6a7c9061b707820f2fcf4c2ff5d9f24
                           .group:0000000000000000 wm4.portmacro.h.30.0285ed3864ca8fd2e12d2b9aedd88dfd
                           .group:0000000000000000 wm4.portable.h.63.e9cc508c3850f44ce542149380c67812
ARM GAS  /var/folders/kj/yzqgq53j3dg15vgwwwwgf5s00000gn/T//ccGgwidk.s 			page 147


                           .group:0000000000000000 wm4.mpu_wrappers.h.28.163fb40577cf8d1578015ea3f2ff4cdb
                           .group:0000000000000000 wm4.FreeRTOS.h.67.b174ccccfb8001b827e8ddeee1ca37a2
                           .group:0000000000000000 wm4.list.h.57.02ec67e07eacffe5ca7cfb7326896236
                           .group:0000000000000000 wm4.task.h.47.2d3fe49a094b8ec1e3e6aac441e8db21
                           .group:0000000000000000 wm4.queue.h.66.45d4a3cf5de24cde7e732f8dad25383c

UNDEFINED SYMBOLS
vPortEnterCritical
xTaskRemoveFromEventList
vListInitialise
vPortExitCritical
pvPortMalloc
xTaskGetCurrentTaskHandle
xTaskGetSchedulerState
vTaskInternalSetTimeOutState
vTaskSuspendAll
xTaskCheckForTimeOut
vTaskPlaceOnEventList
xTaskResumeAll
vPortValidateInterruptPriority
pvTaskIncrementMutexHeldCount
xTaskPriorityInherit
vTaskPriorityDisinheritAfterTimeout
vPortFree
xTaskPriorityDisinherit
memcpy
vTaskMissedYield
vTaskPlaceOnEventListRestricted
