ARM GAS  /var/folders/kj/yzqgq53j3dg15vgwwwwgf5s00000gn/T//ccjjnsZU.s 			page 1


   1              		.cpu cortex-m4
   2              		.eabi_attribute 27, 1
   3              		.eabi_attribute 28, 1
   4              		.eabi_attribute 20, 1
   5              		.eabi_attribute 21, 1
   6              		.eabi_attribute 23, 3
   7              		.eabi_attribute 24, 1
   8              		.eabi_attribute 25, 1
   9              		.eabi_attribute 26, 1
  10              		.eabi_attribute 30, 6
  11              		.eabi_attribute 34, 1
  12              		.eabi_attribute 18, 4
  13              		.file	"stm32f4xx_it.c"
  14              		.text
  15              	.Ltext0:
  16              		.cfi_sections	.debug_frame
  17              		.section	.bss.isOSStarted,"aw",%nobits
  18              		.align	2
  21              	isOSStarted:
  22 0000 00000000 		.space	4
  23              		.section	.text.OSStarted,"ax",%progbits
  24              		.align	1
  25              		.global	OSStarted
  26              		.arch armv7e-m
  27              		.syntax unified
  28              		.thumb
  29              		.thumb_func
  30              		.fpu fpv4-sp-d16
  32              	OSStarted:
  33              	.LFB138:
  34              		.file 1 "../src/stm32f4xx_it.c"
   1:../src/stm32f4xx_it.c **** #include "stm32f4xx_it.h"
   2:../src/stm32f4xx_it.c **** #include "stm32f4xx_hal.h"
   3:../src/stm32f4xx_it.c **** #include "com.h"
   4:../src/stm32f4xx_it.c **** 
   5:../src/stm32f4xx_it.c **** static int isOSStarted = 0;
   6:../src/stm32f4xx_it.c **** 
   7:../src/stm32f4xx_it.c **** void OSStarted(void)
   8:../src/stm32f4xx_it.c **** {
  35              		.loc 1 8 1
  36              		.cfi_startproc
  37              		@ args = 0, pretend = 0, frame = 0
  38              		@ frame_needed = 1, uses_anonymous_args = 0
  39              		@ link register save eliminated.
  40 0000 80B4     		push	{r7}
  41              	.LCFI0:
  42              		.cfi_def_cfa_offset 4
  43              		.cfi_offset 7, -4
  44 0002 00AF     		add	r7, sp, #0
  45              	.LCFI1:
  46              		.cfi_def_cfa_register 7
   9:../src/stm32f4xx_it.c ****   isOSStarted = 1;
  47              		.loc 1 9 15
  48 0004 034B     		ldr	r3, .L2
  49 0006 0122     		movs	r2, #1
  50 0008 1A60     		str	r2, [r3]
  10:../src/stm32f4xx_it.c **** }
ARM GAS  /var/folders/kj/yzqgq53j3dg15vgwwwwgf5s00000gn/T//ccjjnsZU.s 			page 2


  51              		.loc 1 10 1
  52 000a 00BF     		nop
  53 000c BD46     		mov	sp, r7
  54              	.LCFI2:
  55              		.cfi_def_cfa_register 13
  56              		@ sp needed
  57 000e 5DF8047B 		ldr	r7, [sp], #4
  58              	.LCFI3:
  59              		.cfi_restore 7
  60              		.cfi_def_cfa_offset 0
  61 0012 7047     		bx	lr
  62              	.L3:
  63              		.align	2
  64              	.L2:
  65 0014 00000000 		.word	isOSStarted
  66              		.cfi_endproc
  67              	.LFE138:
  69              		.section	.text.NMI_Handler,"ax",%progbits
  70              		.align	1
  71              		.global	NMI_Handler
  72              		.syntax unified
  73              		.thumb
  74              		.thumb_func
  75              		.fpu fpv4-sp-d16
  77              	NMI_Handler:
  78              	.LFB139:
  11:../src/stm32f4xx_it.c **** 
  12:../src/stm32f4xx_it.c **** /**
  13:../src/stm32f4xx_it.c ****   * @brief  This function handles NMI exception.
  14:../src/stm32f4xx_it.c ****   * @param  None
  15:../src/stm32f4xx_it.c ****   * @retval None
  16:../src/stm32f4xx_it.c ****   */
  17:../src/stm32f4xx_it.c **** void NMI_Handler(void)
  18:../src/stm32f4xx_it.c **** {
  79              		.loc 1 18 1
  80              		.cfi_startproc
  81              		@ args = 0, pretend = 0, frame = 0
  82              		@ frame_needed = 1, uses_anonymous_args = 0
  83              		@ link register save eliminated.
  84 0000 80B4     		push	{r7}
  85              	.LCFI4:
  86              		.cfi_def_cfa_offset 4
  87              		.cfi_offset 7, -4
  88 0002 00AF     		add	r7, sp, #0
  89              	.LCFI5:
  90              		.cfi_def_cfa_register 7
  19:../src/stm32f4xx_it.c **** }
  91              		.loc 1 19 1
  92 0004 00BF     		nop
  93 0006 BD46     		mov	sp, r7
  94              	.LCFI6:
  95              		.cfi_def_cfa_register 13
  96              		@ sp needed
  97 0008 5DF8047B 		ldr	r7, [sp], #4
  98              	.LCFI7:
  99              		.cfi_restore 7
 100              		.cfi_def_cfa_offset 0
ARM GAS  /var/folders/kj/yzqgq53j3dg15vgwwwwgf5s00000gn/T//ccjjnsZU.s 			page 3


 101 000c 7047     		bx	lr
 102              		.cfi_endproc
 103              	.LFE139:
 105              		.section	.text.HardFault_Handler,"ax",%progbits
 106              		.align	1
 107              		.global	HardFault_Handler
 108              		.syntax unified
 109              		.thumb
 110              		.thumb_func
 111              		.fpu fpv4-sp-d16
 113              	HardFault_Handler:
 114              	.LFB140:
  20:../src/stm32f4xx_it.c **** 
  21:../src/stm32f4xx_it.c **** /**
  22:../src/stm32f4xx_it.c ****   * @brief  This function handles Hard Fault exception.
  23:../src/stm32f4xx_it.c ****   * @param  None
  24:../src/stm32f4xx_it.c ****   * @retval None
  25:../src/stm32f4xx_it.c ****   */
  26:../src/stm32f4xx_it.c **** void HardFault_Handler(void)
  27:../src/stm32f4xx_it.c **** {
 115              		.loc 1 27 1
 116              		.cfi_startproc
 117              		@ args = 0, pretend = 0, frame = 0
 118              		@ frame_needed = 1, uses_anonymous_args = 0
 119              		@ link register save eliminated.
 120 0000 80B4     		push	{r7}
 121              	.LCFI8:
 122              		.cfi_def_cfa_offset 4
 123              		.cfi_offset 7, -4
 124 0002 00AF     		add	r7, sp, #0
 125              	.LCFI9:
 126              		.cfi_def_cfa_register 7
 127              	.L6:
  28:../src/stm32f4xx_it.c ****   /* Go to infinite loop when Hard Fault exception occurs */
  29:../src/stm32f4xx_it.c ****   while (1)
 128              		.loc 1 29 9 discriminator 1
 129 0004 FEE7     		b	.L6
 130              		.cfi_endproc
 131              	.LFE140:
 133              		.section	.text.MemManage_Handler,"ax",%progbits
 134              		.align	1
 135              		.global	MemManage_Handler
 136              		.syntax unified
 137              		.thumb
 138              		.thumb_func
 139              		.fpu fpv4-sp-d16
 141              	MemManage_Handler:
 142              	.LFB141:
  30:../src/stm32f4xx_it.c ****   {
  31:../src/stm32f4xx_it.c ****   }
  32:../src/stm32f4xx_it.c **** }
  33:../src/stm32f4xx_it.c **** 
  34:../src/stm32f4xx_it.c **** /**
  35:../src/stm32f4xx_it.c ****   * @brief  This function handles Memory Manage exception.
  36:../src/stm32f4xx_it.c ****   * @param  None
  37:../src/stm32f4xx_it.c ****   * @retval None
  38:../src/stm32f4xx_it.c ****   */
ARM GAS  /var/folders/kj/yzqgq53j3dg15vgwwwwgf5s00000gn/T//ccjjnsZU.s 			page 4


  39:../src/stm32f4xx_it.c **** void MemManage_Handler(void)
  40:../src/stm32f4xx_it.c **** {
 143              		.loc 1 40 1
 144              		.cfi_startproc
 145              		@ args = 0, pretend = 0, frame = 0
 146              		@ frame_needed = 1, uses_anonymous_args = 0
 147              		@ link register save eliminated.
 148 0000 80B4     		push	{r7}
 149              	.LCFI10:
 150              		.cfi_def_cfa_offset 4
 151              		.cfi_offset 7, -4
 152 0002 00AF     		add	r7, sp, #0
 153              	.LCFI11:
 154              		.cfi_def_cfa_register 7
 155              	.L8:
  41:../src/stm32f4xx_it.c ****   /* Go to infinite loop when Memory Manage exception occurs */
  42:../src/stm32f4xx_it.c ****   while (1)
 156              		.loc 1 42 9 discriminator 1
 157 0004 FEE7     		b	.L8
 158              		.cfi_endproc
 159              	.LFE141:
 161              		.section	.text.BusFault_Handler,"ax",%progbits
 162              		.align	1
 163              		.global	BusFault_Handler
 164              		.syntax unified
 165              		.thumb
 166              		.thumb_func
 167              		.fpu fpv4-sp-d16
 169              	BusFault_Handler:
 170              	.LFB142:
  43:../src/stm32f4xx_it.c ****   {
  44:../src/stm32f4xx_it.c ****   }
  45:../src/stm32f4xx_it.c **** }
  46:../src/stm32f4xx_it.c **** 
  47:../src/stm32f4xx_it.c **** /**
  48:../src/stm32f4xx_it.c ****   * @brief  This function handles Bus Fault exception.
  49:../src/stm32f4xx_it.c ****   * @param  None
  50:../src/stm32f4xx_it.c ****   * @retval None
  51:../src/stm32f4xx_it.c ****   */
  52:../src/stm32f4xx_it.c **** void BusFault_Handler(void)
  53:../src/stm32f4xx_it.c **** {
 171              		.loc 1 53 1
 172              		.cfi_startproc
 173              		@ args = 0, pretend = 0, frame = 0
 174              		@ frame_needed = 1, uses_anonymous_args = 0
 175              		@ link register save eliminated.
 176 0000 80B4     		push	{r7}
 177              	.LCFI12:
 178              		.cfi_def_cfa_offset 4
 179              		.cfi_offset 7, -4
 180 0002 00AF     		add	r7, sp, #0
 181              	.LCFI13:
 182              		.cfi_def_cfa_register 7
 183              	.L10:
  54:../src/stm32f4xx_it.c ****   /* Go to infinite loop when Bus Fault exception occurs */
  55:../src/stm32f4xx_it.c ****   while (1)
 184              		.loc 1 55 9 discriminator 1
ARM GAS  /var/folders/kj/yzqgq53j3dg15vgwwwwgf5s00000gn/T//ccjjnsZU.s 			page 5


 185 0004 FEE7     		b	.L10
 186              		.cfi_endproc
 187              	.LFE142:
 189              		.section	.text.UsageFault_Handler,"ax",%progbits
 190              		.align	1
 191              		.global	UsageFault_Handler
 192              		.syntax unified
 193              		.thumb
 194              		.thumb_func
 195              		.fpu fpv4-sp-d16
 197              	UsageFault_Handler:
 198              	.LFB143:
  56:../src/stm32f4xx_it.c ****   {
  57:../src/stm32f4xx_it.c ****   }
  58:../src/stm32f4xx_it.c **** }
  59:../src/stm32f4xx_it.c **** 
  60:../src/stm32f4xx_it.c **** /**
  61:../src/stm32f4xx_it.c ****   * @brief  This function handles Usage Fault exception.
  62:../src/stm32f4xx_it.c ****   * @param  None
  63:../src/stm32f4xx_it.c ****   * @retval None
  64:../src/stm32f4xx_it.c ****   */
  65:../src/stm32f4xx_it.c **** void UsageFault_Handler(void)
  66:../src/stm32f4xx_it.c **** {
 199              		.loc 1 66 1
 200              		.cfi_startproc
 201              		@ args = 0, pretend = 0, frame = 0
 202              		@ frame_needed = 1, uses_anonymous_args = 0
 203              		@ link register save eliminated.
 204 0000 80B4     		push	{r7}
 205              	.LCFI14:
 206              		.cfi_def_cfa_offset 4
 207              		.cfi_offset 7, -4
 208 0002 00AF     		add	r7, sp, #0
 209              	.LCFI15:
 210              		.cfi_def_cfa_register 7
 211              	.L12:
  67:../src/stm32f4xx_it.c ****   /* Go to infinite loop when Usage Fault exception occurs */
  68:../src/stm32f4xx_it.c ****   while (1)
 212              		.loc 1 68 9 discriminator 1
 213 0004 FEE7     		b	.L12
 214              		.cfi_endproc
 215              	.LFE143:
 217              		.section	.text.DebugMon_Handler,"ax",%progbits
 218              		.align	1
 219              		.global	DebugMon_Handler
 220              		.syntax unified
 221              		.thumb
 222              		.thumb_func
 223              		.fpu fpv4-sp-d16
 225              	DebugMon_Handler:
 226              	.LFB144:
  69:../src/stm32f4xx_it.c ****   {
  70:../src/stm32f4xx_it.c ****   }
  71:../src/stm32f4xx_it.c **** }
  72:../src/stm32f4xx_it.c **** 
  73:../src/stm32f4xx_it.c **** /**
  74:../src/stm32f4xx_it.c ****   * @brief  This function handles Debug Monitor exception.
ARM GAS  /var/folders/kj/yzqgq53j3dg15vgwwwwgf5s00000gn/T//ccjjnsZU.s 			page 6


  75:../src/stm32f4xx_it.c ****   * @param  None
  76:../src/stm32f4xx_it.c ****   * @retval None
  77:../src/stm32f4xx_it.c ****   */
  78:../src/stm32f4xx_it.c **** void DebugMon_Handler(void)
  79:../src/stm32f4xx_it.c **** {
 227              		.loc 1 79 1
 228              		.cfi_startproc
 229              		@ args = 0, pretend = 0, frame = 0
 230              		@ frame_needed = 1, uses_anonymous_args = 0
 231              		@ link register save eliminated.
 232 0000 80B4     		push	{r7}
 233              	.LCFI16:
 234              		.cfi_def_cfa_offset 4
 235              		.cfi_offset 7, -4
 236 0002 00AF     		add	r7, sp, #0
 237              	.LCFI17:
 238              		.cfi_def_cfa_register 7
  80:../src/stm32f4xx_it.c **** }
 239              		.loc 1 80 1
 240 0004 00BF     		nop
 241 0006 BD46     		mov	sp, r7
 242              	.LCFI18:
 243              		.cfi_def_cfa_register 13
 244              		@ sp needed
 245 0008 5DF8047B 		ldr	r7, [sp], #4
 246              	.LCFI19:
 247              		.cfi_restore 7
 248              		.cfi_def_cfa_offset 0
 249 000c 7047     		bx	lr
 250              		.cfi_endproc
 251              	.LFE144:
 253              		.section	.text.SysTick_Handler,"ax",%progbits
 254              		.align	1
 255              		.global	SysTick_Handler
 256              		.syntax unified
 257              		.thumb
 258              		.thumb_func
 259              		.fpu fpv4-sp-d16
 261              	SysTick_Handler:
 262              	.LFB145:
  81:../src/stm32f4xx_it.c **** 
  82:../src/stm32f4xx_it.c **** void SysTick_Handler(void)
  83:../src/stm32f4xx_it.c **** {
 263              		.loc 1 83 1
 264              		.cfi_startproc
 265              		@ args = 0, pretend = 0, frame = 0
 266              		@ frame_needed = 1, uses_anonymous_args = 0
 267 0000 80B5     		push	{r7, lr}
 268              	.LCFI20:
 269              		.cfi_def_cfa_offset 8
 270              		.cfi_offset 7, -8
 271              		.cfi_offset 14, -4
 272 0002 00AF     		add	r7, sp, #0
 273              	.LCFI21:
 274              		.cfi_def_cfa_register 7
  84:../src/stm32f4xx_it.c ****   HAL_IncTick();
 275              		.loc 1 84 3
ARM GAS  /var/folders/kj/yzqgq53j3dg15vgwwwwgf5s00000gn/T//ccjjnsZU.s 			page 7


 276 0004 FFF7FEFF 		bl	HAL_IncTick
  85:../src/stm32f4xx_it.c ****   if (isOSStarted) {
 277              		.loc 1 85 7
 278 0008 034B     		ldr	r3, .L17
 279 000a 1B68     		ldr	r3, [r3]
 280              		.loc 1 85 6
 281 000c 002B     		cmp	r3, #0
 282 000e 01D0     		beq	.L16
  86:../src/stm32f4xx_it.c **** 	  xPortSysTickHandler();
 283              		.loc 1 86 4
 284 0010 FFF7FEFF 		bl	OSSysTick_Handler
 285              	.L16:
  87:../src/stm32f4xx_it.c ****   }
  88:../src/stm32f4xx_it.c **** }
 286              		.loc 1 88 1
 287 0014 00BF     		nop
 288 0016 80BD     		pop	{r7, pc}
 289              	.L18:
 290              		.align	2
 291              	.L17:
 292 0018 00000000 		.word	isOSStarted
 293              		.cfi_endproc
 294              	.LFE145:
 296              		.text
 297              	.Letext0:
 298              		.file 2 "/usr/local/Caskroom/gcc-arm-embedded/9-2020-q2-update/gcc-arm-none-eabi-9-2020-q2-update/
 299              		.file 3 "/usr/local/Caskroom/gcc-arm-embedded/9-2020-q2-update/gcc-arm-none-eabi-9-2020-q2-update/
 300              		.file 4 "../../../../dependencies/stm/STM32F4_Cube/Drivers/CMSIS/Include/core_cm4.h"
 301              		.file 5 "../../../../dependencies/stm/STM32F4_Cube/Drivers/CMSIS/Device/ST/STM32F4xx/Include/syste
 302              		.file 6 "../../../../dependencies/stm/STM32F4_Cube/Drivers/STM32F4xx_HAL_Driver/Inc/stm32f4xx_hal.
 303              		.file 7 "/usr/local/Caskroom/gcc-arm-embedded/9-2020-q2-update/gcc-arm-none-eabi-9-2020-q2-update/
 304              		.file 8 "/usr/local/Caskroom/gcc-arm-embedded/9-2020-q2-update/gcc-arm-none-eabi-9-2020-q2-update/
 305              		.file 9 "/usr/local/Caskroom/gcc-arm-embedded/9-2020-q2-update/gcc-arm-none-eabi-9-2020-q2-update/
 306              		.file 10 "/usr/local/Caskroom/gcc-arm-embedded/9-2020-q2-update/gcc-arm-none-eabi-9-2020-q2-update
ARM GAS  /var/folders/kj/yzqgq53j3dg15vgwwwwgf5s00000gn/T//ccjjnsZU.s 			page 8

