ARM GAS  /var/folders/kj/yzqgq53j3dg15vgwwwwgf5s00000gn/T//ccz9mChi.s 			page 1


   1              		.cpu cortex-m4
   2              		.eabi_attribute 27, 1
   3              		.eabi_attribute 28, 1
   4              		.eabi_attribute 20, 1
   5              		.eabi_attribute 21, 1
   6              		.eabi_attribute 23, 3
   7              		.eabi_attribute 24, 1
   8              		.eabi_attribute 25, 1
   9              		.eabi_attribute 26, 1
  10              		.eabi_attribute 30, 6
  11              		.eabi_attribute 34, 1
  12              		.eabi_attribute 18, 4
  13              		.file	"stm32f4xx_hal_gpio.c"
  14              		.text
  15              	.Ltext0:
  16              		.cfi_sections	.debug_frame
  17              		.section	.text.HAL_GPIO_Init,"ax",%progbits
  18              		.align	1
  19              		.global	HAL_GPIO_Init
  20              		.arch armv7e-m
  21              		.syntax unified
  22              		.thumb
  23              		.thumb_func
  24              		.fpu fpv4-sp-d16
  26              	HAL_GPIO_Init:
  27              	.LFB130:
  28              		.file 1 "../../../../dependencies/stm/STM32F4_Cube/Drivers/STM32F4xx_HAL_Driver/Src/stm32f4xx_hal_
   1:../../../../dependencies/stm/STM32F4_Cube/Drivers/STM32F4xx_HAL_Driver/Src/stm32f4xx_hal_gpio.c **** /**
   2:../../../../dependencies/stm/STM32F4_Cube/Drivers/STM32F4xx_HAL_Driver/Src/stm32f4xx_hal_gpio.c ****   ******************************************************************************
   3:../../../../dependencies/stm/STM32F4_Cube/Drivers/STM32F4xx_HAL_Driver/Src/stm32f4xx_hal_gpio.c ****   * @file    stm32f4xx_hal_gpio.c
   4:../../../../dependencies/stm/STM32F4_Cube/Drivers/STM32F4xx_HAL_Driver/Src/stm32f4xx_hal_gpio.c ****   * @author  MCD Application Team
   5:../../../../dependencies/stm/STM32F4_Cube/Drivers/STM32F4xx_HAL_Driver/Src/stm32f4xx_hal_gpio.c ****   * @brief   GPIO HAL module driver.
   6:../../../../dependencies/stm/STM32F4_Cube/Drivers/STM32F4xx_HAL_Driver/Src/stm32f4xx_hal_gpio.c ****   *          This file provides firmware functions to manage the following 
   7:../../../../dependencies/stm/STM32F4_Cube/Drivers/STM32F4xx_HAL_Driver/Src/stm32f4xx_hal_gpio.c ****   *          functionalities of the General Purpose Input/Output (GPIO) peripheral:
   8:../../../../dependencies/stm/STM32F4_Cube/Drivers/STM32F4xx_HAL_Driver/Src/stm32f4xx_hal_gpio.c ****   *           + Initialization and de-initialization functions
   9:../../../../dependencies/stm/STM32F4_Cube/Drivers/STM32F4xx_HAL_Driver/Src/stm32f4xx_hal_gpio.c ****   *           + IO operation functions
  10:../../../../dependencies/stm/STM32F4_Cube/Drivers/STM32F4xx_HAL_Driver/Src/stm32f4xx_hal_gpio.c ****   *
  11:../../../../dependencies/stm/STM32F4_Cube/Drivers/STM32F4xx_HAL_Driver/Src/stm32f4xx_hal_gpio.c ****   @verbatim
  12:../../../../dependencies/stm/STM32F4_Cube/Drivers/STM32F4xx_HAL_Driver/Src/stm32f4xx_hal_gpio.c ****   ==============================================================================
  13:../../../../dependencies/stm/STM32F4_Cube/Drivers/STM32F4xx_HAL_Driver/Src/stm32f4xx_hal_gpio.c ****                     ##### GPIO Peripheral features #####
  14:../../../../dependencies/stm/STM32F4_Cube/Drivers/STM32F4xx_HAL_Driver/Src/stm32f4xx_hal_gpio.c ****   ==============================================================================
  15:../../../../dependencies/stm/STM32F4_Cube/Drivers/STM32F4xx_HAL_Driver/Src/stm32f4xx_hal_gpio.c ****   [..] 
  16:../../../../dependencies/stm/STM32F4_Cube/Drivers/STM32F4xx_HAL_Driver/Src/stm32f4xx_hal_gpio.c ****   Subject to the specific hardware characteristics of each I/O port listed in the datasheet, each
  17:../../../../dependencies/stm/STM32F4_Cube/Drivers/STM32F4xx_HAL_Driver/Src/stm32f4xx_hal_gpio.c ****   port bit of the General Purpose IO (GPIO) Ports, can be individually configured by software
  18:../../../../dependencies/stm/STM32F4_Cube/Drivers/STM32F4xx_HAL_Driver/Src/stm32f4xx_hal_gpio.c ****   in several modes:
  19:../../../../dependencies/stm/STM32F4_Cube/Drivers/STM32F4xx_HAL_Driver/Src/stm32f4xx_hal_gpio.c ****   (+) Input mode 
  20:../../../../dependencies/stm/STM32F4_Cube/Drivers/STM32F4xx_HAL_Driver/Src/stm32f4xx_hal_gpio.c ****   (+) Analog mode
  21:../../../../dependencies/stm/STM32F4_Cube/Drivers/STM32F4xx_HAL_Driver/Src/stm32f4xx_hal_gpio.c ****   (+) Output mode
  22:../../../../dependencies/stm/STM32F4_Cube/Drivers/STM32F4xx_HAL_Driver/Src/stm32f4xx_hal_gpio.c ****   (+) Alternate function mode
  23:../../../../dependencies/stm/STM32F4_Cube/Drivers/STM32F4xx_HAL_Driver/Src/stm32f4xx_hal_gpio.c ****   (+) External interrupt/event lines
  24:../../../../dependencies/stm/STM32F4_Cube/Drivers/STM32F4xx_HAL_Driver/Src/stm32f4xx_hal_gpio.c **** 
  25:../../../../dependencies/stm/STM32F4_Cube/Drivers/STM32F4xx_HAL_Driver/Src/stm32f4xx_hal_gpio.c ****   [..]  
  26:../../../../dependencies/stm/STM32F4_Cube/Drivers/STM32F4xx_HAL_Driver/Src/stm32f4xx_hal_gpio.c ****   During and just after reset, the alternate functions and external interrupt  
  27:../../../../dependencies/stm/STM32F4_Cube/Drivers/STM32F4xx_HAL_Driver/Src/stm32f4xx_hal_gpio.c ****   lines are not active and the I/O ports are configured in input floating mode.
  28:../../../../dependencies/stm/STM32F4_Cube/Drivers/STM32F4xx_HAL_Driver/Src/stm32f4xx_hal_gpio.c ****   
  29:../../../../dependencies/stm/STM32F4_Cube/Drivers/STM32F4xx_HAL_Driver/Src/stm32f4xx_hal_gpio.c ****   [..]   
  30:../../../../dependencies/stm/STM32F4_Cube/Drivers/STM32F4xx_HAL_Driver/Src/stm32f4xx_hal_gpio.c ****   All GPIO pins have weak internal pull-up and pull-down resistors, which can be 
ARM GAS  /var/folders/kj/yzqgq53j3dg15vgwwwwgf5s00000gn/T//ccz9mChi.s 			page 2


  31:../../../../dependencies/stm/STM32F4_Cube/Drivers/STM32F4xx_HAL_Driver/Src/stm32f4xx_hal_gpio.c ****   activated or not.
  32:../../../../dependencies/stm/STM32F4_Cube/Drivers/STM32F4xx_HAL_Driver/Src/stm32f4xx_hal_gpio.c **** 
  33:../../../../dependencies/stm/STM32F4_Cube/Drivers/STM32F4xx_HAL_Driver/Src/stm32f4xx_hal_gpio.c ****   [..]
  34:../../../../dependencies/stm/STM32F4_Cube/Drivers/STM32F4xx_HAL_Driver/Src/stm32f4xx_hal_gpio.c ****   In Output or Alternate mode, each IO can be configured on open-drain or push-pull
  35:../../../../dependencies/stm/STM32F4_Cube/Drivers/STM32F4xx_HAL_Driver/Src/stm32f4xx_hal_gpio.c ****   type and the IO speed can be selected depending on the VDD value.
  36:../../../../dependencies/stm/STM32F4_Cube/Drivers/STM32F4xx_HAL_Driver/Src/stm32f4xx_hal_gpio.c **** 
  37:../../../../dependencies/stm/STM32F4_Cube/Drivers/STM32F4xx_HAL_Driver/Src/stm32f4xx_hal_gpio.c ****   [..]  
  38:../../../../dependencies/stm/STM32F4_Cube/Drivers/STM32F4xx_HAL_Driver/Src/stm32f4xx_hal_gpio.c ****   All ports have external interrupt/event capability. To use external interrupt 
  39:../../../../dependencies/stm/STM32F4_Cube/Drivers/STM32F4xx_HAL_Driver/Src/stm32f4xx_hal_gpio.c ****   lines, the port must be configured in input mode. All available GPIO pins are 
  40:../../../../dependencies/stm/STM32F4_Cube/Drivers/STM32F4xx_HAL_Driver/Src/stm32f4xx_hal_gpio.c ****   connected to the 16 external interrupt/event lines from EXTI0 to EXTI15.
  41:../../../../dependencies/stm/STM32F4_Cube/Drivers/STM32F4xx_HAL_Driver/Src/stm32f4xx_hal_gpio.c ****   
  42:../../../../dependencies/stm/STM32F4_Cube/Drivers/STM32F4xx_HAL_Driver/Src/stm32f4xx_hal_gpio.c ****   [..]
  43:../../../../dependencies/stm/STM32F4_Cube/Drivers/STM32F4xx_HAL_Driver/Src/stm32f4xx_hal_gpio.c ****   The external interrupt/event controller consists of up to 23 edge detectors 
  44:../../../../dependencies/stm/STM32F4_Cube/Drivers/STM32F4xx_HAL_Driver/Src/stm32f4xx_hal_gpio.c ****   (16 lines are connected to GPIO) for generating event/interrupt requests (each 
  45:../../../../dependencies/stm/STM32F4_Cube/Drivers/STM32F4xx_HAL_Driver/Src/stm32f4xx_hal_gpio.c ****   input line can be independently configured to select the type (interrupt or event) 
  46:../../../../dependencies/stm/STM32F4_Cube/Drivers/STM32F4xx_HAL_Driver/Src/stm32f4xx_hal_gpio.c ****   and the corresponding trigger event (rising or falling or both). Each line can 
  47:../../../../dependencies/stm/STM32F4_Cube/Drivers/STM32F4xx_HAL_Driver/Src/stm32f4xx_hal_gpio.c ****   also be masked independently. 
  48:../../../../dependencies/stm/STM32F4_Cube/Drivers/STM32F4xx_HAL_Driver/Src/stm32f4xx_hal_gpio.c **** 
  49:../../../../dependencies/stm/STM32F4_Cube/Drivers/STM32F4xx_HAL_Driver/Src/stm32f4xx_hal_gpio.c ****                      ##### How to use this driver #####
  50:../../../../dependencies/stm/STM32F4_Cube/Drivers/STM32F4xx_HAL_Driver/Src/stm32f4xx_hal_gpio.c ****   ==============================================================================  
  51:../../../../dependencies/stm/STM32F4_Cube/Drivers/STM32F4xx_HAL_Driver/Src/stm32f4xx_hal_gpio.c ****   [..]
  52:../../../../dependencies/stm/STM32F4_Cube/Drivers/STM32F4xx_HAL_Driver/Src/stm32f4xx_hal_gpio.c ****     (#) Enable the GPIO AHB clock using the following function: __HAL_RCC_GPIOx_CLK_ENABLE(). 
  53:../../../../dependencies/stm/STM32F4_Cube/Drivers/STM32F4xx_HAL_Driver/Src/stm32f4xx_hal_gpio.c **** 
  54:../../../../dependencies/stm/STM32F4_Cube/Drivers/STM32F4xx_HAL_Driver/Src/stm32f4xx_hal_gpio.c ****     (#) Configure the GPIO pin(s) using HAL_GPIO_Init().
  55:../../../../dependencies/stm/STM32F4_Cube/Drivers/STM32F4xx_HAL_Driver/Src/stm32f4xx_hal_gpio.c ****         (++) Configure the IO mode using "Mode" member from GPIO_InitTypeDef structure
  56:../../../../dependencies/stm/STM32F4_Cube/Drivers/STM32F4xx_HAL_Driver/Src/stm32f4xx_hal_gpio.c ****         (++) Activate Pull-up, Pull-down resistor using "Pull" member from GPIO_InitTypeDef 
  57:../../../../dependencies/stm/STM32F4_Cube/Drivers/STM32F4xx_HAL_Driver/Src/stm32f4xx_hal_gpio.c ****              structure.
  58:../../../../dependencies/stm/STM32F4_Cube/Drivers/STM32F4xx_HAL_Driver/Src/stm32f4xx_hal_gpio.c ****         (++) In case of Output or alternate function mode selection: the speed is 
  59:../../../../dependencies/stm/STM32F4_Cube/Drivers/STM32F4xx_HAL_Driver/Src/stm32f4xx_hal_gpio.c ****              configured through "Speed" member from GPIO_InitTypeDef structure.
  60:../../../../dependencies/stm/STM32F4_Cube/Drivers/STM32F4xx_HAL_Driver/Src/stm32f4xx_hal_gpio.c ****         (++) In alternate mode is selection, the alternate function connected to the IO
  61:../../../../dependencies/stm/STM32F4_Cube/Drivers/STM32F4xx_HAL_Driver/Src/stm32f4xx_hal_gpio.c ****              is configured through "Alternate" member from GPIO_InitTypeDef structure.
  62:../../../../dependencies/stm/STM32F4_Cube/Drivers/STM32F4xx_HAL_Driver/Src/stm32f4xx_hal_gpio.c ****         (++) Analog mode is required when a pin is to be used as ADC channel 
  63:../../../../dependencies/stm/STM32F4_Cube/Drivers/STM32F4xx_HAL_Driver/Src/stm32f4xx_hal_gpio.c ****              or DAC output.
  64:../../../../dependencies/stm/STM32F4_Cube/Drivers/STM32F4xx_HAL_Driver/Src/stm32f4xx_hal_gpio.c ****         (++) In case of external interrupt/event selection the "Mode" member from 
  65:../../../../dependencies/stm/STM32F4_Cube/Drivers/STM32F4xx_HAL_Driver/Src/stm32f4xx_hal_gpio.c ****              GPIO_InitTypeDef structure select the type (interrupt or event) and 
  66:../../../../dependencies/stm/STM32F4_Cube/Drivers/STM32F4xx_HAL_Driver/Src/stm32f4xx_hal_gpio.c ****              the corresponding trigger event (rising or falling or both).
  67:../../../../dependencies/stm/STM32F4_Cube/Drivers/STM32F4xx_HAL_Driver/Src/stm32f4xx_hal_gpio.c **** 
  68:../../../../dependencies/stm/STM32F4_Cube/Drivers/STM32F4xx_HAL_Driver/Src/stm32f4xx_hal_gpio.c ****     (#) In case of external interrupt/event mode selection, configure NVIC IRQ priority 
  69:../../../../dependencies/stm/STM32F4_Cube/Drivers/STM32F4xx_HAL_Driver/Src/stm32f4xx_hal_gpio.c ****         mapped to the EXTI line using HAL_NVIC_SetPriority() and enable it using
  70:../../../../dependencies/stm/STM32F4_Cube/Drivers/STM32F4xx_HAL_Driver/Src/stm32f4xx_hal_gpio.c ****         HAL_NVIC_EnableIRQ().
  71:../../../../dependencies/stm/STM32F4_Cube/Drivers/STM32F4xx_HAL_Driver/Src/stm32f4xx_hal_gpio.c ****          
  72:../../../../dependencies/stm/STM32F4_Cube/Drivers/STM32F4xx_HAL_Driver/Src/stm32f4xx_hal_gpio.c ****     (#) To get the level of a pin configured in input mode use HAL_GPIO_ReadPin().
  73:../../../../dependencies/stm/STM32F4_Cube/Drivers/STM32F4xx_HAL_Driver/Src/stm32f4xx_hal_gpio.c ****             
  74:../../../../dependencies/stm/STM32F4_Cube/Drivers/STM32F4xx_HAL_Driver/Src/stm32f4xx_hal_gpio.c ****     (#) To set/reset the level of a pin configured in output mode use 
  75:../../../../dependencies/stm/STM32F4_Cube/Drivers/STM32F4xx_HAL_Driver/Src/stm32f4xx_hal_gpio.c ****         HAL_GPIO_WritePin()/HAL_GPIO_TogglePin().
  76:../../../../dependencies/stm/STM32F4_Cube/Drivers/STM32F4xx_HAL_Driver/Src/stm32f4xx_hal_gpio.c ****     
  77:../../../../dependencies/stm/STM32F4_Cube/Drivers/STM32F4xx_HAL_Driver/Src/stm32f4xx_hal_gpio.c ****     (#) To lock pin configuration until next reset use HAL_GPIO_LockPin().
  78:../../../../dependencies/stm/STM32F4_Cube/Drivers/STM32F4xx_HAL_Driver/Src/stm32f4xx_hal_gpio.c **** 
  79:../../../../dependencies/stm/STM32F4_Cube/Drivers/STM32F4xx_HAL_Driver/Src/stm32f4xx_hal_gpio.c ****                  
  80:../../../../dependencies/stm/STM32F4_Cube/Drivers/STM32F4xx_HAL_Driver/Src/stm32f4xx_hal_gpio.c ****     (#) During and just after reset, the alternate functions are not 
  81:../../../../dependencies/stm/STM32F4_Cube/Drivers/STM32F4xx_HAL_Driver/Src/stm32f4xx_hal_gpio.c ****         active and the GPIO pins are configured in input floating mode (except JTAG
  82:../../../../dependencies/stm/STM32F4_Cube/Drivers/STM32F4xx_HAL_Driver/Src/stm32f4xx_hal_gpio.c ****         pins).
  83:../../../../dependencies/stm/STM32F4_Cube/Drivers/STM32F4xx_HAL_Driver/Src/stm32f4xx_hal_gpio.c ****   
  84:../../../../dependencies/stm/STM32F4_Cube/Drivers/STM32F4xx_HAL_Driver/Src/stm32f4xx_hal_gpio.c ****     (#) The LSE oscillator pins OSC32_IN and OSC32_OUT can be used as general purpose 
  85:../../../../dependencies/stm/STM32F4_Cube/Drivers/STM32F4xx_HAL_Driver/Src/stm32f4xx_hal_gpio.c ****         (PC14 and PC15, respectively) when the LSE oscillator is off. The LSE has 
  86:../../../../dependencies/stm/STM32F4_Cube/Drivers/STM32F4xx_HAL_Driver/Src/stm32f4xx_hal_gpio.c ****         priority over the GPIO function.
  87:../../../../dependencies/stm/STM32F4_Cube/Drivers/STM32F4xx_HAL_Driver/Src/stm32f4xx_hal_gpio.c ****   
ARM GAS  /var/folders/kj/yzqgq53j3dg15vgwwwwgf5s00000gn/T//ccz9mChi.s 			page 3


  88:../../../../dependencies/stm/STM32F4_Cube/Drivers/STM32F4xx_HAL_Driver/Src/stm32f4xx_hal_gpio.c ****     (#) The HSE oscillator pins OSC_IN/OSC_OUT can be used as 
  89:../../../../dependencies/stm/STM32F4_Cube/Drivers/STM32F4xx_HAL_Driver/Src/stm32f4xx_hal_gpio.c ****         general purpose PH0 and PH1, respectively, when the HSE oscillator is off. 
  90:../../../../dependencies/stm/STM32F4_Cube/Drivers/STM32F4xx_HAL_Driver/Src/stm32f4xx_hal_gpio.c ****         The HSE has priority over the GPIO function.
  91:../../../../dependencies/stm/STM32F4_Cube/Drivers/STM32F4xx_HAL_Driver/Src/stm32f4xx_hal_gpio.c ****   
  92:../../../../dependencies/stm/STM32F4_Cube/Drivers/STM32F4xx_HAL_Driver/Src/stm32f4xx_hal_gpio.c ****   @endverbatim
  93:../../../../dependencies/stm/STM32F4_Cube/Drivers/STM32F4xx_HAL_Driver/Src/stm32f4xx_hal_gpio.c ****   ******************************************************************************
  94:../../../../dependencies/stm/STM32F4_Cube/Drivers/STM32F4xx_HAL_Driver/Src/stm32f4xx_hal_gpio.c ****   * @attention
  95:../../../../dependencies/stm/STM32F4_Cube/Drivers/STM32F4xx_HAL_Driver/Src/stm32f4xx_hal_gpio.c ****   *
  96:../../../../dependencies/stm/STM32F4_Cube/Drivers/STM32F4xx_HAL_Driver/Src/stm32f4xx_hal_gpio.c ****   * <h2><center>&copy; Copyright (c) 2017 STMicroelectronics.
  97:../../../../dependencies/stm/STM32F4_Cube/Drivers/STM32F4xx_HAL_Driver/Src/stm32f4xx_hal_gpio.c ****   * All rights reserved.</center></h2>
  98:../../../../dependencies/stm/STM32F4_Cube/Drivers/STM32F4xx_HAL_Driver/Src/stm32f4xx_hal_gpio.c ****   *
  99:../../../../dependencies/stm/STM32F4_Cube/Drivers/STM32F4xx_HAL_Driver/Src/stm32f4xx_hal_gpio.c ****   * This software component is licensed by ST under BSD 3-Clause license,
 100:../../../../dependencies/stm/STM32F4_Cube/Drivers/STM32F4xx_HAL_Driver/Src/stm32f4xx_hal_gpio.c ****   * the "License"; You may not use this file except in compliance with the
 101:../../../../dependencies/stm/STM32F4_Cube/Drivers/STM32F4xx_HAL_Driver/Src/stm32f4xx_hal_gpio.c ****   * License. You may obtain a copy of the License at:
 102:../../../../dependencies/stm/STM32F4_Cube/Drivers/STM32F4xx_HAL_Driver/Src/stm32f4xx_hal_gpio.c ****   *                        opensource.org/licenses/BSD-3-Clause
 103:../../../../dependencies/stm/STM32F4_Cube/Drivers/STM32F4xx_HAL_Driver/Src/stm32f4xx_hal_gpio.c ****   *
 104:../../../../dependencies/stm/STM32F4_Cube/Drivers/STM32F4xx_HAL_Driver/Src/stm32f4xx_hal_gpio.c ****   ******************************************************************************
 105:../../../../dependencies/stm/STM32F4_Cube/Drivers/STM32F4xx_HAL_Driver/Src/stm32f4xx_hal_gpio.c ****   */ 
 106:../../../../dependencies/stm/STM32F4_Cube/Drivers/STM32F4xx_HAL_Driver/Src/stm32f4xx_hal_gpio.c **** 
 107:../../../../dependencies/stm/STM32F4_Cube/Drivers/STM32F4xx_HAL_Driver/Src/stm32f4xx_hal_gpio.c **** /* Includes ------------------------------------------------------------------*/
 108:../../../../dependencies/stm/STM32F4_Cube/Drivers/STM32F4xx_HAL_Driver/Src/stm32f4xx_hal_gpio.c **** #include "stm32f4xx_hal.h"
 109:../../../../dependencies/stm/STM32F4_Cube/Drivers/STM32F4xx_HAL_Driver/Src/stm32f4xx_hal_gpio.c **** 
 110:../../../../dependencies/stm/STM32F4_Cube/Drivers/STM32F4xx_HAL_Driver/Src/stm32f4xx_hal_gpio.c **** /** @addtogroup STM32F4xx_HAL_Driver
 111:../../../../dependencies/stm/STM32F4_Cube/Drivers/STM32F4xx_HAL_Driver/Src/stm32f4xx_hal_gpio.c ****   * @{
 112:../../../../dependencies/stm/STM32F4_Cube/Drivers/STM32F4xx_HAL_Driver/Src/stm32f4xx_hal_gpio.c ****   */
 113:../../../../dependencies/stm/STM32F4_Cube/Drivers/STM32F4xx_HAL_Driver/Src/stm32f4xx_hal_gpio.c **** 
 114:../../../../dependencies/stm/STM32F4_Cube/Drivers/STM32F4xx_HAL_Driver/Src/stm32f4xx_hal_gpio.c **** /** @defgroup GPIO GPIO
 115:../../../../dependencies/stm/STM32F4_Cube/Drivers/STM32F4xx_HAL_Driver/Src/stm32f4xx_hal_gpio.c ****   * @brief GPIO HAL module driver
 116:../../../../dependencies/stm/STM32F4_Cube/Drivers/STM32F4xx_HAL_Driver/Src/stm32f4xx_hal_gpio.c ****   * @{
 117:../../../../dependencies/stm/STM32F4_Cube/Drivers/STM32F4xx_HAL_Driver/Src/stm32f4xx_hal_gpio.c ****   */
 118:../../../../dependencies/stm/STM32F4_Cube/Drivers/STM32F4xx_HAL_Driver/Src/stm32f4xx_hal_gpio.c **** 
 119:../../../../dependencies/stm/STM32F4_Cube/Drivers/STM32F4xx_HAL_Driver/Src/stm32f4xx_hal_gpio.c **** #ifdef HAL_GPIO_MODULE_ENABLED
 120:../../../../dependencies/stm/STM32F4_Cube/Drivers/STM32F4xx_HAL_Driver/Src/stm32f4xx_hal_gpio.c **** 
 121:../../../../dependencies/stm/STM32F4_Cube/Drivers/STM32F4xx_HAL_Driver/Src/stm32f4xx_hal_gpio.c **** /* Private typedef -----------------------------------------------------------*/
 122:../../../../dependencies/stm/STM32F4_Cube/Drivers/STM32F4xx_HAL_Driver/Src/stm32f4xx_hal_gpio.c **** /* Private define ------------------------------------------------------------*/
 123:../../../../dependencies/stm/STM32F4_Cube/Drivers/STM32F4xx_HAL_Driver/Src/stm32f4xx_hal_gpio.c **** /** @addtogroup GPIO_Private_Constants GPIO Private Constants
 124:../../../../dependencies/stm/STM32F4_Cube/Drivers/STM32F4xx_HAL_Driver/Src/stm32f4xx_hal_gpio.c ****   * @{
 125:../../../../dependencies/stm/STM32F4_Cube/Drivers/STM32F4xx_HAL_Driver/Src/stm32f4xx_hal_gpio.c ****   */
 126:../../../../dependencies/stm/STM32F4_Cube/Drivers/STM32F4xx_HAL_Driver/Src/stm32f4xx_hal_gpio.c **** #define GPIO_MODE             0x00000003U
 127:../../../../dependencies/stm/STM32F4_Cube/Drivers/STM32F4xx_HAL_Driver/Src/stm32f4xx_hal_gpio.c **** #define EXTI_MODE             0x10000000U
 128:../../../../dependencies/stm/STM32F4_Cube/Drivers/STM32F4xx_HAL_Driver/Src/stm32f4xx_hal_gpio.c **** #define GPIO_MODE_IT          0x00010000U
 129:../../../../dependencies/stm/STM32F4_Cube/Drivers/STM32F4xx_HAL_Driver/Src/stm32f4xx_hal_gpio.c **** #define GPIO_MODE_EVT         0x00020000U
 130:../../../../dependencies/stm/STM32F4_Cube/Drivers/STM32F4xx_HAL_Driver/Src/stm32f4xx_hal_gpio.c **** #define RISING_EDGE           0x00100000U
 131:../../../../dependencies/stm/STM32F4_Cube/Drivers/STM32F4xx_HAL_Driver/Src/stm32f4xx_hal_gpio.c **** #define FALLING_EDGE          0x00200000U
 132:../../../../dependencies/stm/STM32F4_Cube/Drivers/STM32F4xx_HAL_Driver/Src/stm32f4xx_hal_gpio.c **** #define GPIO_OUTPUT_TYPE      0x00000010U
 133:../../../../dependencies/stm/STM32F4_Cube/Drivers/STM32F4xx_HAL_Driver/Src/stm32f4xx_hal_gpio.c **** 
 134:../../../../dependencies/stm/STM32F4_Cube/Drivers/STM32F4xx_HAL_Driver/Src/stm32f4xx_hal_gpio.c **** #define GPIO_NUMBER           16U
 135:../../../../dependencies/stm/STM32F4_Cube/Drivers/STM32F4xx_HAL_Driver/Src/stm32f4xx_hal_gpio.c **** /**
 136:../../../../dependencies/stm/STM32F4_Cube/Drivers/STM32F4xx_HAL_Driver/Src/stm32f4xx_hal_gpio.c ****   * @}
 137:../../../../dependencies/stm/STM32F4_Cube/Drivers/STM32F4xx_HAL_Driver/Src/stm32f4xx_hal_gpio.c ****   */
 138:../../../../dependencies/stm/STM32F4_Cube/Drivers/STM32F4xx_HAL_Driver/Src/stm32f4xx_hal_gpio.c **** /* Private macro -------------------------------------------------------------*/
 139:../../../../dependencies/stm/STM32F4_Cube/Drivers/STM32F4xx_HAL_Driver/Src/stm32f4xx_hal_gpio.c **** /* Private variables ---------------------------------------------------------*/
 140:../../../../dependencies/stm/STM32F4_Cube/Drivers/STM32F4xx_HAL_Driver/Src/stm32f4xx_hal_gpio.c **** /* Private function prototypes -----------------------------------------------*/
 141:../../../../dependencies/stm/STM32F4_Cube/Drivers/STM32F4xx_HAL_Driver/Src/stm32f4xx_hal_gpio.c **** /* Private functions ---------------------------------------------------------*/
 142:../../../../dependencies/stm/STM32F4_Cube/Drivers/STM32F4xx_HAL_Driver/Src/stm32f4xx_hal_gpio.c **** /* Exported functions --------------------------------------------------------*/
 143:../../../../dependencies/stm/STM32F4_Cube/Drivers/STM32F4xx_HAL_Driver/Src/stm32f4xx_hal_gpio.c **** /** @defgroup GPIO_Exported_Functions GPIO Exported Functions
 144:../../../../dependencies/stm/STM32F4_Cube/Drivers/STM32F4xx_HAL_Driver/Src/stm32f4xx_hal_gpio.c ****   * @{
ARM GAS  /var/folders/kj/yzqgq53j3dg15vgwwwwgf5s00000gn/T//ccz9mChi.s 			page 4


 145:../../../../dependencies/stm/STM32F4_Cube/Drivers/STM32F4xx_HAL_Driver/Src/stm32f4xx_hal_gpio.c ****   */
 146:../../../../dependencies/stm/STM32F4_Cube/Drivers/STM32F4xx_HAL_Driver/Src/stm32f4xx_hal_gpio.c **** 
 147:../../../../dependencies/stm/STM32F4_Cube/Drivers/STM32F4xx_HAL_Driver/Src/stm32f4xx_hal_gpio.c **** /** @defgroup GPIO_Exported_Functions_Group1 Initialization and de-initialization functions
 148:../../../../dependencies/stm/STM32F4_Cube/Drivers/STM32F4xx_HAL_Driver/Src/stm32f4xx_hal_gpio.c ****   *  @brief    Initialization and Configuration functions
 149:../../../../dependencies/stm/STM32F4_Cube/Drivers/STM32F4xx_HAL_Driver/Src/stm32f4xx_hal_gpio.c ****   *
 150:../../../../dependencies/stm/STM32F4_Cube/Drivers/STM32F4xx_HAL_Driver/Src/stm32f4xx_hal_gpio.c **** @verbatim    
 151:../../../../dependencies/stm/STM32F4_Cube/Drivers/STM32F4xx_HAL_Driver/Src/stm32f4xx_hal_gpio.c ****  ===============================================================================
 152:../../../../dependencies/stm/STM32F4_Cube/Drivers/STM32F4xx_HAL_Driver/Src/stm32f4xx_hal_gpio.c ****               ##### Initialization and de-initialization functions #####
 153:../../../../dependencies/stm/STM32F4_Cube/Drivers/STM32F4xx_HAL_Driver/Src/stm32f4xx_hal_gpio.c ****  ===============================================================================
 154:../../../../dependencies/stm/STM32F4_Cube/Drivers/STM32F4xx_HAL_Driver/Src/stm32f4xx_hal_gpio.c ****   [..]
 155:../../../../dependencies/stm/STM32F4_Cube/Drivers/STM32F4xx_HAL_Driver/Src/stm32f4xx_hal_gpio.c ****     This section provides functions allowing to initialize and de-initialize the GPIOs
 156:../../../../dependencies/stm/STM32F4_Cube/Drivers/STM32F4xx_HAL_Driver/Src/stm32f4xx_hal_gpio.c ****     to be ready for use.
 157:../../../../dependencies/stm/STM32F4_Cube/Drivers/STM32F4xx_HAL_Driver/Src/stm32f4xx_hal_gpio.c ****  
 158:../../../../dependencies/stm/STM32F4_Cube/Drivers/STM32F4xx_HAL_Driver/Src/stm32f4xx_hal_gpio.c **** @endverbatim
 159:../../../../dependencies/stm/STM32F4_Cube/Drivers/STM32F4xx_HAL_Driver/Src/stm32f4xx_hal_gpio.c ****   * @{
 160:../../../../dependencies/stm/STM32F4_Cube/Drivers/STM32F4xx_HAL_Driver/Src/stm32f4xx_hal_gpio.c ****   */
 161:../../../../dependencies/stm/STM32F4_Cube/Drivers/STM32F4xx_HAL_Driver/Src/stm32f4xx_hal_gpio.c **** 
 162:../../../../dependencies/stm/STM32F4_Cube/Drivers/STM32F4xx_HAL_Driver/Src/stm32f4xx_hal_gpio.c **** 
 163:../../../../dependencies/stm/STM32F4_Cube/Drivers/STM32F4xx_HAL_Driver/Src/stm32f4xx_hal_gpio.c **** /**
 164:../../../../dependencies/stm/STM32F4_Cube/Drivers/STM32F4xx_HAL_Driver/Src/stm32f4xx_hal_gpio.c ****   * @brief  Initializes the GPIOx peripheral according to the specified parameters in the GPIO_Init
 165:../../../../dependencies/stm/STM32F4_Cube/Drivers/STM32F4xx_HAL_Driver/Src/stm32f4xx_hal_gpio.c ****   * @param  GPIOx where x can be (A..K) to select the GPIO peripheral for STM32F429X device or
 166:../../../../dependencies/stm/STM32F4_Cube/Drivers/STM32F4xx_HAL_Driver/Src/stm32f4xx_hal_gpio.c ****   *                      x can be (A..I) to select the GPIO peripheral for STM32F40XX and STM32F427
 167:../../../../dependencies/stm/STM32F4_Cube/Drivers/STM32F4xx_HAL_Driver/Src/stm32f4xx_hal_gpio.c ****   * @param  GPIO_Init pointer to a GPIO_InitTypeDef structure that contains
 168:../../../../dependencies/stm/STM32F4_Cube/Drivers/STM32F4xx_HAL_Driver/Src/stm32f4xx_hal_gpio.c ****   *         the configuration information for the specified GPIO peripheral.
 169:../../../../dependencies/stm/STM32F4_Cube/Drivers/STM32F4xx_HAL_Driver/Src/stm32f4xx_hal_gpio.c ****   * @retval None
 170:../../../../dependencies/stm/STM32F4_Cube/Drivers/STM32F4xx_HAL_Driver/Src/stm32f4xx_hal_gpio.c ****   */
 171:../../../../dependencies/stm/STM32F4_Cube/Drivers/STM32F4xx_HAL_Driver/Src/stm32f4xx_hal_gpio.c **** void HAL_GPIO_Init(GPIO_TypeDef  *GPIOx, GPIO_InitTypeDef *GPIO_Init)
 172:../../../../dependencies/stm/STM32F4_Cube/Drivers/STM32F4xx_HAL_Driver/Src/stm32f4xx_hal_gpio.c **** {
  29              		.loc 1 172 1
  30              		.cfi_startproc
  31              		@ args = 0, pretend = 0, frame = 32
  32              		@ frame_needed = 1, uses_anonymous_args = 0
  33              		@ link register save eliminated.
  34 0000 80B4     		push	{r7}
  35              	.LCFI0:
  36              		.cfi_def_cfa_offset 4
  37              		.cfi_offset 7, -4
  38 0002 89B0     		sub	sp, sp, #36
  39              	.LCFI1:
  40              		.cfi_def_cfa_offset 40
  41 0004 00AF     		add	r7, sp, #0
  42              	.LCFI2:
  43              		.cfi_def_cfa_register 7
  44 0006 7860     		str	r0, [r7, #4]
  45 0008 3960     		str	r1, [r7]
 173:../../../../dependencies/stm/STM32F4_Cube/Drivers/STM32F4xx_HAL_Driver/Src/stm32f4xx_hal_gpio.c ****   uint32_t position;
 174:../../../../dependencies/stm/STM32F4_Cube/Drivers/STM32F4xx_HAL_Driver/Src/stm32f4xx_hal_gpio.c ****   uint32_t ioposition = 0x00U;
  46              		.loc 1 174 12
  47 000a 0023     		movs	r3, #0
  48 000c 7B61     		str	r3, [r7, #20]
 175:../../../../dependencies/stm/STM32F4_Cube/Drivers/STM32F4xx_HAL_Driver/Src/stm32f4xx_hal_gpio.c ****   uint32_t iocurrent = 0x00U;
  49              		.loc 1 175 12
  50 000e 0023     		movs	r3, #0
  51 0010 3B61     		str	r3, [r7, #16]
 176:../../../../dependencies/stm/STM32F4_Cube/Drivers/STM32F4xx_HAL_Driver/Src/stm32f4xx_hal_gpio.c ****   uint32_t temp = 0x00U;
  52              		.loc 1 176 12
  53 0012 0023     		movs	r3, #0
ARM GAS  /var/folders/kj/yzqgq53j3dg15vgwwwwgf5s00000gn/T//ccz9mChi.s 			page 5


  54 0014 BB61     		str	r3, [r7, #24]
 177:../../../../dependencies/stm/STM32F4_Cube/Drivers/STM32F4xx_HAL_Driver/Src/stm32f4xx_hal_gpio.c **** 
 178:../../../../dependencies/stm/STM32F4_Cube/Drivers/STM32F4xx_HAL_Driver/Src/stm32f4xx_hal_gpio.c ****   /* Check the parameters */
 179:../../../../dependencies/stm/STM32F4_Cube/Drivers/STM32F4xx_HAL_Driver/Src/stm32f4xx_hal_gpio.c ****   assert_param(IS_GPIO_ALL_INSTANCE(GPIOx));
 180:../../../../dependencies/stm/STM32F4_Cube/Drivers/STM32F4xx_HAL_Driver/Src/stm32f4xx_hal_gpio.c ****   assert_param(IS_GPIO_PIN(GPIO_Init->Pin));
 181:../../../../dependencies/stm/STM32F4_Cube/Drivers/STM32F4xx_HAL_Driver/Src/stm32f4xx_hal_gpio.c ****   assert_param(IS_GPIO_MODE(GPIO_Init->Mode));
 182:../../../../dependencies/stm/STM32F4_Cube/Drivers/STM32F4xx_HAL_Driver/Src/stm32f4xx_hal_gpio.c ****   assert_param(IS_GPIO_PULL(GPIO_Init->Pull));
 183:../../../../dependencies/stm/STM32F4_Cube/Drivers/STM32F4xx_HAL_Driver/Src/stm32f4xx_hal_gpio.c **** 
 184:../../../../dependencies/stm/STM32F4_Cube/Drivers/STM32F4xx_HAL_Driver/Src/stm32f4xx_hal_gpio.c ****   /* Configure the port pins */
 185:../../../../dependencies/stm/STM32F4_Cube/Drivers/STM32F4xx_HAL_Driver/Src/stm32f4xx_hal_gpio.c ****   for(position = 0U; position < GPIO_NUMBER; position++)
  55              		.loc 1 185 16
  56 0016 0023     		movs	r3, #0
  57 0018 FB61     		str	r3, [r7, #28]
  58              		.loc 1 185 3
  59 001a 65E1     		b	.L2
  60              	.L26:
 186:../../../../dependencies/stm/STM32F4_Cube/Drivers/STM32F4xx_HAL_Driver/Src/stm32f4xx_hal_gpio.c ****   {
 187:../../../../dependencies/stm/STM32F4_Cube/Drivers/STM32F4xx_HAL_Driver/Src/stm32f4xx_hal_gpio.c ****     /* Get the IO position */
 188:../../../../dependencies/stm/STM32F4_Cube/Drivers/STM32F4xx_HAL_Driver/Src/stm32f4xx_hal_gpio.c ****     ioposition = 0x01U << position;
  61              		.loc 1 188 16
  62 001c 0122     		movs	r2, #1
  63 001e FB69     		ldr	r3, [r7, #28]
  64 0020 02FA03F3 		lsl	r3, r2, r3
  65 0024 7B61     		str	r3, [r7, #20]
 189:../../../../dependencies/stm/STM32F4_Cube/Drivers/STM32F4xx_HAL_Driver/Src/stm32f4xx_hal_gpio.c ****     /* Get the current IO position */
 190:../../../../dependencies/stm/STM32F4_Cube/Drivers/STM32F4xx_HAL_Driver/Src/stm32f4xx_hal_gpio.c ****     iocurrent = (uint32_t)(GPIO_Init->Pin) & ioposition;
  66              		.loc 1 190 37
  67 0026 3B68     		ldr	r3, [r7]
  68 0028 1B68     		ldr	r3, [r3]
  69              		.loc 1 190 15
  70 002a 7A69     		ldr	r2, [r7, #20]
  71 002c 1340     		ands	r3, r3, r2
  72 002e 3B61     		str	r3, [r7, #16]
 191:../../../../dependencies/stm/STM32F4_Cube/Drivers/STM32F4xx_HAL_Driver/Src/stm32f4xx_hal_gpio.c **** 
 192:../../../../dependencies/stm/STM32F4_Cube/Drivers/STM32F4xx_HAL_Driver/Src/stm32f4xx_hal_gpio.c ****     if(iocurrent == ioposition)
  73              		.loc 1 192 7
  74 0030 3A69     		ldr	r2, [r7, #16]
  75 0032 7B69     		ldr	r3, [r7, #20]
  76 0034 9A42     		cmp	r2, r3
  77 0036 40F05481 		bne	.L3
 193:../../../../dependencies/stm/STM32F4_Cube/Drivers/STM32F4xx_HAL_Driver/Src/stm32f4xx_hal_gpio.c ****     {
 194:../../../../dependencies/stm/STM32F4_Cube/Drivers/STM32F4xx_HAL_Driver/Src/stm32f4xx_hal_gpio.c ****       /*--------------------- GPIO Mode Configuration ------------------------*/
 195:../../../../dependencies/stm/STM32F4_Cube/Drivers/STM32F4xx_HAL_Driver/Src/stm32f4xx_hal_gpio.c ****       /* In case of Output or Alternate function mode selection */
 196:../../../../dependencies/stm/STM32F4_Cube/Drivers/STM32F4xx_HAL_Driver/Src/stm32f4xx_hal_gpio.c ****       if((GPIO_Init->Mode == GPIO_MODE_OUTPUT_PP) || (GPIO_Init->Mode == GPIO_MODE_AF_PP) ||
  78              		.loc 1 196 20
  79 003a 3B68     		ldr	r3, [r7]
  80 003c 5B68     		ldr	r3, [r3, #4]
  81              		.loc 1 196 9
  82 003e 012B     		cmp	r3, #1
  83 0040 0BD0     		beq	.L4
  84              		.loc 1 196 64 discriminator 1
  85 0042 3B68     		ldr	r3, [r7]
  86 0044 5B68     		ldr	r3, [r3, #4]
  87              		.loc 1 196 51 discriminator 1
  88 0046 022B     		cmp	r3, #2
  89 0048 07D0     		beq	.L4
 197:../../../../dependencies/stm/STM32F4_Cube/Drivers/STM32F4xx_HAL_Driver/Src/stm32f4xx_hal_gpio.c ****          (GPIO_Init->Mode == GPIO_MODE_OUTPUT_OD) || (GPIO_Init->Mode == GPIO_MODE_AF_OD))
ARM GAS  /var/folders/kj/yzqgq53j3dg15vgwwwwgf5s00000gn/T//ccz9mChi.s 			page 6


  90              		.loc 1 197 20 discriminator 2
  91 004a 3B68     		ldr	r3, [r7]
  92 004c 5B68     		ldr	r3, [r3, #4]
 196:../../../../dependencies/stm/STM32F4_Cube/Drivers/STM32F4xx_HAL_Driver/Src/stm32f4xx_hal_gpio.c ****          (GPIO_Init->Mode == GPIO_MODE_OUTPUT_OD) || (GPIO_Init->Mode == GPIO_MODE_AF_OD))
  93              		.loc 1 196 91 discriminator 2
  94 004e 112B     		cmp	r3, #17
  95 0050 03D0     		beq	.L4
  96              		.loc 1 197 64
  97 0052 3B68     		ldr	r3, [r7]
  98 0054 5B68     		ldr	r3, [r3, #4]
  99              		.loc 1 197 51
 100 0056 122B     		cmp	r3, #18
 101 0058 30D1     		bne	.L5
 102              	.L4:
 198:../../../../dependencies/stm/STM32F4_Cube/Drivers/STM32F4xx_HAL_Driver/Src/stm32f4xx_hal_gpio.c ****       {
 199:../../../../dependencies/stm/STM32F4_Cube/Drivers/STM32F4xx_HAL_Driver/Src/stm32f4xx_hal_gpio.c ****         /* Check the Speed parameter */
 200:../../../../dependencies/stm/STM32F4_Cube/Drivers/STM32F4xx_HAL_Driver/Src/stm32f4xx_hal_gpio.c ****         assert_param(IS_GPIO_SPEED(GPIO_Init->Speed));
 201:../../../../dependencies/stm/STM32F4_Cube/Drivers/STM32F4xx_HAL_Driver/Src/stm32f4xx_hal_gpio.c ****         /* Configure the IO Speed */
 202:../../../../dependencies/stm/STM32F4_Cube/Drivers/STM32F4xx_HAL_Driver/Src/stm32f4xx_hal_gpio.c ****         temp = GPIOx->OSPEEDR; 
 103              		.loc 1 202 14
 104 005a 7B68     		ldr	r3, [r7, #4]
 105 005c 9B68     		ldr	r3, [r3, #8]
 106 005e BB61     		str	r3, [r7, #24]
 203:../../../../dependencies/stm/STM32F4_Cube/Drivers/STM32F4xx_HAL_Driver/Src/stm32f4xx_hal_gpio.c ****         temp &= ~(GPIO_OSPEEDER_OSPEEDR0 << (position * 2U));
 107              		.loc 1 203 55
 108 0060 FB69     		ldr	r3, [r7, #28]
 109 0062 5B00     		lsls	r3, r3, #1
 110              		.loc 1 203 42
 111 0064 0322     		movs	r2, #3
 112 0066 02FA03F3 		lsl	r3, r2, r3
 113              		.loc 1 203 17
 114 006a DB43     		mvns	r3, r3
 115              		.loc 1 203 14
 116 006c BA69     		ldr	r2, [r7, #24]
 117 006e 1340     		ands	r3, r3, r2
 118 0070 BB61     		str	r3, [r7, #24]
 204:../../../../dependencies/stm/STM32F4_Cube/Drivers/STM32F4xx_HAL_Driver/Src/stm32f4xx_hal_gpio.c ****         temp |= (GPIO_Init->Speed << (position * 2U));
 119              		.loc 1 204 27
 120 0072 3B68     		ldr	r3, [r7]
 121 0074 DA68     		ldr	r2, [r3, #12]
 122              		.loc 1 204 48
 123 0076 FB69     		ldr	r3, [r7, #28]
 124 0078 5B00     		lsls	r3, r3, #1
 125              		.loc 1 204 35
 126 007a 02FA03F3 		lsl	r3, r2, r3
 127              		.loc 1 204 14
 128 007e BA69     		ldr	r2, [r7, #24]
 129 0080 1343     		orrs	r3, r3, r2
 130 0082 BB61     		str	r3, [r7, #24]
 205:../../../../dependencies/stm/STM32F4_Cube/Drivers/STM32F4xx_HAL_Driver/Src/stm32f4xx_hal_gpio.c ****         GPIOx->OSPEEDR = temp;
 131              		.loc 1 205 24
 132 0084 7B68     		ldr	r3, [r7, #4]
 133 0086 BA69     		ldr	r2, [r7, #24]
 134 0088 9A60     		str	r2, [r3, #8]
 206:../../../../dependencies/stm/STM32F4_Cube/Drivers/STM32F4xx_HAL_Driver/Src/stm32f4xx_hal_gpio.c **** 
 207:../../../../dependencies/stm/STM32F4_Cube/Drivers/STM32F4xx_HAL_Driver/Src/stm32f4xx_hal_gpio.c ****         /* Configure the IO Output Type */
 208:../../../../dependencies/stm/STM32F4_Cube/Drivers/STM32F4xx_HAL_Driver/Src/stm32f4xx_hal_gpio.c ****         temp = GPIOx->OTYPER;
ARM GAS  /var/folders/kj/yzqgq53j3dg15vgwwwwgf5s00000gn/T//ccz9mChi.s 			page 7


 135              		.loc 1 208 14
 136 008a 7B68     		ldr	r3, [r7, #4]
 137 008c 5B68     		ldr	r3, [r3, #4]
 138 008e BB61     		str	r3, [r7, #24]
 209:../../../../dependencies/stm/STM32F4_Cube/Drivers/STM32F4xx_HAL_Driver/Src/stm32f4xx_hal_gpio.c ****         temp &= ~(GPIO_OTYPER_OT_0 << position) ;
 139              		.loc 1 209 36
 140 0090 0122     		movs	r2, #1
 141 0092 FB69     		ldr	r3, [r7, #28]
 142 0094 02FA03F3 		lsl	r3, r2, r3
 143              		.loc 1 209 17
 144 0098 DB43     		mvns	r3, r3
 145              		.loc 1 209 14
 146 009a BA69     		ldr	r2, [r7, #24]
 147 009c 1340     		ands	r3, r3, r2
 148 009e BB61     		str	r3, [r7, #24]
 210:../../../../dependencies/stm/STM32F4_Cube/Drivers/STM32F4xx_HAL_Driver/Src/stm32f4xx_hal_gpio.c ****         temp |= (((GPIO_Init->Mode & GPIO_OUTPUT_TYPE) >> 4U) << position);
 149              		.loc 1 210 29
 150 00a0 3B68     		ldr	r3, [r7]
 151 00a2 5B68     		ldr	r3, [r3, #4]
 152              		.loc 1 210 56
 153 00a4 1B09     		lsrs	r3, r3, #4
 154 00a6 03F00102 		and	r2, r3, #1
 155              		.loc 1 210 63
 156 00aa FB69     		ldr	r3, [r7, #28]
 157 00ac 02FA03F3 		lsl	r3, r2, r3
 158              		.loc 1 210 14
 159 00b0 BA69     		ldr	r2, [r7, #24]
 160 00b2 1343     		orrs	r3, r3, r2
 161 00b4 BB61     		str	r3, [r7, #24]
 211:../../../../dependencies/stm/STM32F4_Cube/Drivers/STM32F4xx_HAL_Driver/Src/stm32f4xx_hal_gpio.c ****         GPIOx->OTYPER = temp;
 162              		.loc 1 211 23
 163 00b6 7B68     		ldr	r3, [r7, #4]
 164 00b8 BA69     		ldr	r2, [r7, #24]
 165 00ba 5A60     		str	r2, [r3, #4]
 166              	.L5:
 212:../../../../dependencies/stm/STM32F4_Cube/Drivers/STM32F4xx_HAL_Driver/Src/stm32f4xx_hal_gpio.c ****        }
 213:../../../../dependencies/stm/STM32F4_Cube/Drivers/STM32F4xx_HAL_Driver/Src/stm32f4xx_hal_gpio.c **** 
 214:../../../../dependencies/stm/STM32F4_Cube/Drivers/STM32F4xx_HAL_Driver/Src/stm32f4xx_hal_gpio.c ****       /* Activate the Pull-up or Pull down resistor for the current IO */
 215:../../../../dependencies/stm/STM32F4_Cube/Drivers/STM32F4xx_HAL_Driver/Src/stm32f4xx_hal_gpio.c ****       temp = GPIOx->PUPDR;
 167              		.loc 1 215 12
 168 00bc 7B68     		ldr	r3, [r7, #4]
 169 00be DB68     		ldr	r3, [r3, #12]
 170 00c0 BB61     		str	r3, [r7, #24]
 216:../../../../dependencies/stm/STM32F4_Cube/Drivers/STM32F4xx_HAL_Driver/Src/stm32f4xx_hal_gpio.c ****       temp &= ~(GPIO_PUPDR_PUPDR0 << (position * 2U));
 171              		.loc 1 216 48
 172 00c2 FB69     		ldr	r3, [r7, #28]
 173 00c4 5B00     		lsls	r3, r3, #1
 174              		.loc 1 216 35
 175 00c6 0322     		movs	r2, #3
 176 00c8 02FA03F3 		lsl	r3, r2, r3
 177              		.loc 1 216 15
 178 00cc DB43     		mvns	r3, r3
 179              		.loc 1 216 12
 180 00ce BA69     		ldr	r2, [r7, #24]
 181 00d0 1340     		ands	r3, r3, r2
 182 00d2 BB61     		str	r3, [r7, #24]
 217:../../../../dependencies/stm/STM32F4_Cube/Drivers/STM32F4xx_HAL_Driver/Src/stm32f4xx_hal_gpio.c ****       temp |= ((GPIO_Init->Pull) << (position * 2U));
ARM GAS  /var/folders/kj/yzqgq53j3dg15vgwwwwgf5s00000gn/T//ccz9mChi.s 			page 8


 183              		.loc 1 217 26
 184 00d4 3B68     		ldr	r3, [r7]
 185 00d6 9A68     		ldr	r2, [r3, #8]
 186              		.loc 1 217 47
 187 00d8 FB69     		ldr	r3, [r7, #28]
 188 00da 5B00     		lsls	r3, r3, #1
 189              		.loc 1 217 34
 190 00dc 02FA03F3 		lsl	r3, r2, r3
 191              		.loc 1 217 12
 192 00e0 BA69     		ldr	r2, [r7, #24]
 193 00e2 1343     		orrs	r3, r3, r2
 194 00e4 BB61     		str	r3, [r7, #24]
 218:../../../../dependencies/stm/STM32F4_Cube/Drivers/STM32F4xx_HAL_Driver/Src/stm32f4xx_hal_gpio.c ****       GPIOx->PUPDR = temp;
 195              		.loc 1 218 20
 196 00e6 7B68     		ldr	r3, [r7, #4]
 197 00e8 BA69     		ldr	r2, [r7, #24]
 198 00ea DA60     		str	r2, [r3, #12]
 219:../../../../dependencies/stm/STM32F4_Cube/Drivers/STM32F4xx_HAL_Driver/Src/stm32f4xx_hal_gpio.c **** 
 220:../../../../dependencies/stm/STM32F4_Cube/Drivers/STM32F4xx_HAL_Driver/Src/stm32f4xx_hal_gpio.c ****       /* In case of Alternate function mode selection */
 221:../../../../dependencies/stm/STM32F4_Cube/Drivers/STM32F4xx_HAL_Driver/Src/stm32f4xx_hal_gpio.c ****       if((GPIO_Init->Mode == GPIO_MODE_AF_PP) || (GPIO_Init->Mode == GPIO_MODE_AF_OD))
 199              		.loc 1 221 20
 200 00ec 3B68     		ldr	r3, [r7]
 201 00ee 5B68     		ldr	r3, [r3, #4]
 202              		.loc 1 221 9
 203 00f0 022B     		cmp	r3, #2
 204 00f2 03D0     		beq	.L6
 205              		.loc 1 221 60 discriminator 1
 206 00f4 3B68     		ldr	r3, [r7]
 207 00f6 5B68     		ldr	r3, [r3, #4]
 208              		.loc 1 221 47 discriminator 1
 209 00f8 122B     		cmp	r3, #18
 210 00fa 23D1     		bne	.L7
 211              	.L6:
 222:../../../../dependencies/stm/STM32F4_Cube/Drivers/STM32F4xx_HAL_Driver/Src/stm32f4xx_hal_gpio.c ****       {
 223:../../../../dependencies/stm/STM32F4_Cube/Drivers/STM32F4xx_HAL_Driver/Src/stm32f4xx_hal_gpio.c ****         /* Check the Alternate function parameter */
 224:../../../../dependencies/stm/STM32F4_Cube/Drivers/STM32F4xx_HAL_Driver/Src/stm32f4xx_hal_gpio.c ****         assert_param(IS_GPIO_AF(GPIO_Init->Alternate));
 225:../../../../dependencies/stm/STM32F4_Cube/Drivers/STM32F4xx_HAL_Driver/Src/stm32f4xx_hal_gpio.c ****         /* Configure Alternate function mapped with the current IO */
 226:../../../../dependencies/stm/STM32F4_Cube/Drivers/STM32F4xx_HAL_Driver/Src/stm32f4xx_hal_gpio.c ****         temp = GPIOx->AFR[position >> 3U];
 212              		.loc 1 226 36
 213 00fc FB69     		ldr	r3, [r7, #28]
 214 00fe DA08     		lsrs	r2, r3, #3
 215              		.loc 1 226 14
 216 0100 7B68     		ldr	r3, [r7, #4]
 217 0102 0832     		adds	r2, r2, #8
 218 0104 53F82230 		ldr	r3, [r3, r2, lsl #2]
 219 0108 BB61     		str	r3, [r7, #24]
 227:../../../../dependencies/stm/STM32F4_Cube/Drivers/STM32F4xx_HAL_Driver/Src/stm32f4xx_hal_gpio.c ****         temp &= ~(0xFU << ((uint32_t)(position & 0x07U) * 4U)) ;
 220              		.loc 1 227 28
 221 010a FB69     		ldr	r3, [r7, #28]
 222 010c 03F00703 		and	r3, r3, #7
 223              		.loc 1 227 57
 224 0110 9B00     		lsls	r3, r3, #2
 225              		.loc 1 227 24
 226 0112 0F22     		movs	r2, #15
 227 0114 02FA03F3 		lsl	r3, r2, r3
 228              		.loc 1 227 17
 229 0118 DB43     		mvns	r3, r3
ARM GAS  /var/folders/kj/yzqgq53j3dg15vgwwwwgf5s00000gn/T//ccz9mChi.s 			page 9


 230              		.loc 1 227 14
 231 011a BA69     		ldr	r2, [r7, #24]
 232 011c 1340     		ands	r3, r3, r2
 233 011e BB61     		str	r3, [r7, #24]
 228:../../../../dependencies/stm/STM32F4_Cube/Drivers/STM32F4xx_HAL_Driver/Src/stm32f4xx_hal_gpio.c ****         temp |= ((uint32_t)(GPIO_Init->Alternate) << (((uint32_t)position & 0x07U) * 4U));
 234              		.loc 1 228 38
 235 0120 3B68     		ldr	r3, [r7]
 236 0122 1A69     		ldr	r2, [r3, #16]
 237              		.loc 1 228 75
 238 0124 FB69     		ldr	r3, [r7, #28]
 239 0126 03F00703 		and	r3, r3, #7
 240              		.loc 1 228 84
 241 012a 9B00     		lsls	r3, r3, #2
 242              		.loc 1 228 51
 243 012c 02FA03F3 		lsl	r3, r2, r3
 244              		.loc 1 228 14
 245 0130 BA69     		ldr	r2, [r7, #24]
 246 0132 1343     		orrs	r3, r3, r2
 247 0134 BB61     		str	r3, [r7, #24]
 229:../../../../dependencies/stm/STM32F4_Cube/Drivers/STM32F4xx_HAL_Driver/Src/stm32f4xx_hal_gpio.c ****         GPIOx->AFR[position >> 3U] = temp;
 248              		.loc 1 229 29
 249 0136 FB69     		ldr	r3, [r7, #28]
 250 0138 DA08     		lsrs	r2, r3, #3
 251              		.loc 1 229 36
 252 013a 7B68     		ldr	r3, [r7, #4]
 253 013c 0832     		adds	r2, r2, #8
 254 013e B969     		ldr	r1, [r7, #24]
 255 0140 43F82210 		str	r1, [r3, r2, lsl #2]
 256              	.L7:
 230:../../../../dependencies/stm/STM32F4_Cube/Drivers/STM32F4xx_HAL_Driver/Src/stm32f4xx_hal_gpio.c ****       }
 231:../../../../dependencies/stm/STM32F4_Cube/Drivers/STM32F4xx_HAL_Driver/Src/stm32f4xx_hal_gpio.c **** 
 232:../../../../dependencies/stm/STM32F4_Cube/Drivers/STM32F4xx_HAL_Driver/Src/stm32f4xx_hal_gpio.c ****       /* Configure IO Direction mode (Input, Output, Alternate or Analog) */
 233:../../../../dependencies/stm/STM32F4_Cube/Drivers/STM32F4xx_HAL_Driver/Src/stm32f4xx_hal_gpio.c ****       temp = GPIOx->MODER;
 257              		.loc 1 233 12
 258 0144 7B68     		ldr	r3, [r7, #4]
 259 0146 1B68     		ldr	r3, [r3]
 260 0148 BB61     		str	r3, [r7, #24]
 234:../../../../dependencies/stm/STM32F4_Cube/Drivers/STM32F4xx_HAL_Driver/Src/stm32f4xx_hal_gpio.c ****       temp &= ~(GPIO_MODER_MODER0 << (position * 2U));
 261              		.loc 1 234 48
 262 014a FB69     		ldr	r3, [r7, #28]
 263 014c 5B00     		lsls	r3, r3, #1
 264              		.loc 1 234 35
 265 014e 0322     		movs	r2, #3
 266 0150 02FA03F3 		lsl	r3, r2, r3
 267              		.loc 1 234 15
 268 0154 DB43     		mvns	r3, r3
 269              		.loc 1 234 12
 270 0156 BA69     		ldr	r2, [r7, #24]
 271 0158 1340     		ands	r3, r3, r2
 272 015a BB61     		str	r3, [r7, #24]
 235:../../../../dependencies/stm/STM32F4_Cube/Drivers/STM32F4xx_HAL_Driver/Src/stm32f4xx_hal_gpio.c ****       temp |= ((GPIO_Init->Mode & GPIO_MODE) << (position * 2U));
 273              		.loc 1 235 26
 274 015c 3B68     		ldr	r3, [r7]
 275 015e 5B68     		ldr	r3, [r3, #4]
 276              		.loc 1 235 33
 277 0160 03F00302 		and	r2, r3, #3
 278              		.loc 1 235 59
ARM GAS  /var/folders/kj/yzqgq53j3dg15vgwwwwgf5s00000gn/T//ccz9mChi.s 			page 10


 279 0164 FB69     		ldr	r3, [r7, #28]
 280 0166 5B00     		lsls	r3, r3, #1
 281              		.loc 1 235 46
 282 0168 02FA03F3 		lsl	r3, r2, r3
 283              		.loc 1 235 12
 284 016c BA69     		ldr	r2, [r7, #24]
 285 016e 1343     		orrs	r3, r3, r2
 286 0170 BB61     		str	r3, [r7, #24]
 236:../../../../dependencies/stm/STM32F4_Cube/Drivers/STM32F4xx_HAL_Driver/Src/stm32f4xx_hal_gpio.c ****       GPIOx->MODER = temp;
 287              		.loc 1 236 20
 288 0172 7B68     		ldr	r3, [r7, #4]
 289 0174 BA69     		ldr	r2, [r7, #24]
 290 0176 1A60     		str	r2, [r3]
 237:../../../../dependencies/stm/STM32F4_Cube/Drivers/STM32F4xx_HAL_Driver/Src/stm32f4xx_hal_gpio.c **** 
 238:../../../../dependencies/stm/STM32F4_Cube/Drivers/STM32F4xx_HAL_Driver/Src/stm32f4xx_hal_gpio.c ****       /*--------------------- EXTI Mode Configuration ------------------------*/
 239:../../../../dependencies/stm/STM32F4_Cube/Drivers/STM32F4xx_HAL_Driver/Src/stm32f4xx_hal_gpio.c ****       /* Configure the External Interrupt or event for the current IO */
 240:../../../../dependencies/stm/STM32F4_Cube/Drivers/STM32F4xx_HAL_Driver/Src/stm32f4xx_hal_gpio.c ****       if((GPIO_Init->Mode & EXTI_MODE) == EXTI_MODE)
 291              		.loc 1 240 20
 292 0178 3B68     		ldr	r3, [r7]
 293 017a 5B68     		ldr	r3, [r3, #4]
 294              		.loc 1 240 27
 295 017c 03F08053 		and	r3, r3, #268435456
 296              		.loc 1 240 9
 297 0180 002B     		cmp	r3, #0
 298 0182 00F0AE80 		beq	.L3
 299              	.LBB2:
 241:../../../../dependencies/stm/STM32F4_Cube/Drivers/STM32F4xx_HAL_Driver/Src/stm32f4xx_hal_gpio.c ****       {
 242:../../../../dependencies/stm/STM32F4_Cube/Drivers/STM32F4xx_HAL_Driver/Src/stm32f4xx_hal_gpio.c ****         /* Enable SYSCFG Clock */
 243:../../../../dependencies/stm/STM32F4_Cube/Drivers/STM32F4xx_HAL_Driver/Src/stm32f4xx_hal_gpio.c ****         __HAL_RCC_SYSCFG_CLK_ENABLE();
 300              		.loc 1 243 9
 301 0186 0023     		movs	r3, #0
 302 0188 FB60     		str	r3, [r7, #12]
 303 018a 5D4B     		ldr	r3, .L27
 304 018c 5B6C     		ldr	r3, [r3, #68]
 305 018e 5C4A     		ldr	r2, .L27
 306 0190 43F48043 		orr	r3, r3, #16384
 307 0194 5364     		str	r3, [r2, #68]
 308 0196 5A4B     		ldr	r3, .L27
 309 0198 5B6C     		ldr	r3, [r3, #68]
 310 019a 03F48043 		and	r3, r3, #16384
 311 019e FB60     		str	r3, [r7, #12]
 312 01a0 FB68     		ldr	r3, [r7, #12]
 313              	.LBE2:
 244:../../../../dependencies/stm/STM32F4_Cube/Drivers/STM32F4xx_HAL_Driver/Src/stm32f4xx_hal_gpio.c **** 
 245:../../../../dependencies/stm/STM32F4_Cube/Drivers/STM32F4xx_HAL_Driver/Src/stm32f4xx_hal_gpio.c ****         temp = SYSCFG->EXTICR[position >> 2U];
 314              		.loc 1 245 22
 315 01a2 584A     		ldr	r2, .L27+4
 316              		.loc 1 245 40
 317 01a4 FB69     		ldr	r3, [r7, #28]
 318 01a6 9B08     		lsrs	r3, r3, #2
 319              		.loc 1 245 14
 320 01a8 0233     		adds	r3, r3, #2
 321 01aa 52F82330 		ldr	r3, [r2, r3, lsl #2]
 322 01ae BB61     		str	r3, [r7, #24]
 246:../../../../dependencies/stm/STM32F4_Cube/Drivers/STM32F4xx_HAL_Driver/Src/stm32f4xx_hal_gpio.c ****         temp &= ~(0x0FU << (4U * (position & 0x03U)));
 323              		.loc 1 246 44
 324 01b0 FB69     		ldr	r3, [r7, #28]
ARM GAS  /var/folders/kj/yzqgq53j3dg15vgwwwwgf5s00000gn/T//ccz9mChi.s 			page 11


 325 01b2 03F00303 		and	r3, r3, #3
 326              		.loc 1 246 32
 327 01b6 9B00     		lsls	r3, r3, #2
 328              		.loc 1 246 25
 329 01b8 0F22     		movs	r2, #15
 330 01ba 02FA03F3 		lsl	r3, r2, r3
 331              		.loc 1 246 17
 332 01be DB43     		mvns	r3, r3
 333              		.loc 1 246 14
 334 01c0 BA69     		ldr	r2, [r7, #24]
 335 01c2 1340     		ands	r3, r3, r2
 336 01c4 BB61     		str	r3, [r7, #24]
 247:../../../../dependencies/stm/STM32F4_Cube/Drivers/STM32F4xx_HAL_Driver/Src/stm32f4xx_hal_gpio.c ****         temp |= ((uint32_t)(GPIO_GET_INDEX(GPIOx)) << (4U * (position & 0x03U)));
 337              		.loc 1 247 18
 338 01c6 7B68     		ldr	r3, [r7, #4]
 339 01c8 4F4A     		ldr	r2, .L27+8
 340 01ca 9342     		cmp	r3, r2
 341 01cc 25D0     		beq	.L8
 342              		.loc 1 247 29 discriminator 1
 343 01ce 7B68     		ldr	r3, [r7, #4]
 344 01d0 4E4A     		ldr	r2, .L27+12
 345 01d2 9342     		cmp	r3, r2
 346 01d4 1FD0     		beq	.L9
 347              		.loc 1 247 29 is_stmt 0 discriminator 3
 348 01d6 7B68     		ldr	r3, [r7, #4]
 349 01d8 4D4A     		ldr	r2, .L27+16
 350 01da 9342     		cmp	r3, r2
 351 01dc 19D0     		beq	.L10
 352              		.loc 1 247 29 discriminator 5
 353 01de 7B68     		ldr	r3, [r7, #4]
 354 01e0 4C4A     		ldr	r2, .L27+20
 355 01e2 9342     		cmp	r3, r2
 356 01e4 13D0     		beq	.L11
 357              		.loc 1 247 29 discriminator 7
 358 01e6 7B68     		ldr	r3, [r7, #4]
 359 01e8 4B4A     		ldr	r2, .L27+24
 360 01ea 9342     		cmp	r3, r2
 361 01ec 0DD0     		beq	.L12
 362              		.loc 1 247 29 discriminator 9
 363 01ee 7B68     		ldr	r3, [r7, #4]
 364 01f0 4A4A     		ldr	r2, .L27+28
 365 01f2 9342     		cmp	r3, r2
 366 01f4 07D0     		beq	.L13
 367              		.loc 1 247 29 discriminator 11
 368 01f6 7B68     		ldr	r3, [r7, #4]
 369 01f8 494A     		ldr	r2, .L27+32
 370 01fa 9342     		cmp	r3, r2
 371 01fc 01D1     		bne	.L14
 372              		.loc 1 247 29 discriminator 13
 373 01fe 0623     		movs	r3, #6
 374 0200 0CE0     		b	.L21
 375              	.L14:
 376              		.loc 1 247 29 discriminator 14
 377 0202 0723     		movs	r3, #7
 378 0204 0AE0     		b	.L21
 379              	.L13:
 380              		.loc 1 247 29 discriminator 12
ARM GAS  /var/folders/kj/yzqgq53j3dg15vgwwwwgf5s00000gn/T//ccz9mChi.s 			page 12


 381 0206 0523     		movs	r3, #5
 382 0208 08E0     		b	.L21
 383              	.L12:
 384              		.loc 1 247 29 discriminator 10
 385 020a 0423     		movs	r3, #4
 386 020c 06E0     		b	.L21
 387              	.L11:
 388              		.loc 1 247 29 discriminator 8
 389 020e 0323     		movs	r3, #3
 390 0210 04E0     		b	.L21
 391              	.L10:
 392              		.loc 1 247 29 discriminator 6
 393 0212 0223     		movs	r3, #2
 394 0214 02E0     		b	.L21
 395              	.L9:
 396              		.loc 1 247 29 discriminator 4
 397 0216 0123     		movs	r3, #1
 398 0218 00E0     		b	.L21
 399              	.L8:
 400              		.loc 1 247 18 is_stmt 1 discriminator 2
 401 021a 0023     		movs	r3, #0
 402              	.L21:
 403              		.loc 1 247 71 discriminator 28
 404 021c FA69     		ldr	r2, [r7, #28]
 405 021e 02F00302 		and	r2, r2, #3
 406              		.loc 1 247 59 discriminator 28
 407 0222 9200     		lsls	r2, r2, #2
 408              		.loc 1 247 52 discriminator 28
 409 0224 9340     		lsls	r3, r3, r2
 410              		.loc 1 247 14 discriminator 28
 411 0226 BA69     		ldr	r2, [r7, #24]
 412 0228 1343     		orrs	r3, r3, r2
 413 022a BB61     		str	r3, [r7, #24]
 248:../../../../dependencies/stm/STM32F4_Cube/Drivers/STM32F4xx_HAL_Driver/Src/stm32f4xx_hal_gpio.c ****         SYSCFG->EXTICR[position >> 2U] = temp;
 414              		.loc 1 248 15 discriminator 28
 415 022c 3549     		ldr	r1, .L27+4
 416              		.loc 1 248 33 discriminator 28
 417 022e FB69     		ldr	r3, [r7, #28]
 418 0230 9B08     		lsrs	r3, r3, #2
 419              		.loc 1 248 40 discriminator 28
 420 0232 0233     		adds	r3, r3, #2
 421 0234 BA69     		ldr	r2, [r7, #24]
 422 0236 41F82320 		str	r2, [r1, r3, lsl #2]
 249:../../../../dependencies/stm/STM32F4_Cube/Drivers/STM32F4xx_HAL_Driver/Src/stm32f4xx_hal_gpio.c **** 
 250:../../../../dependencies/stm/STM32F4_Cube/Drivers/STM32F4xx_HAL_Driver/Src/stm32f4xx_hal_gpio.c ****         /* Clear EXTI line configuration */
 251:../../../../dependencies/stm/STM32F4_Cube/Drivers/STM32F4xx_HAL_Driver/Src/stm32f4xx_hal_gpio.c ****         temp = EXTI->IMR;
 423              		.loc 1 251 20 discriminator 28
 424 023a 3A4B     		ldr	r3, .L27+36
 425              		.loc 1 251 14 discriminator 28
 426 023c 1B68     		ldr	r3, [r3]
 427 023e BB61     		str	r3, [r7, #24]
 252:../../../../dependencies/stm/STM32F4_Cube/Drivers/STM32F4xx_HAL_Driver/Src/stm32f4xx_hal_gpio.c ****         temp &= ~((uint32_t)iocurrent);
 428              		.loc 1 252 17 discriminator 28
 429 0240 3B69     		ldr	r3, [r7, #16]
 430 0242 DB43     		mvns	r3, r3
 431              		.loc 1 252 14 discriminator 28
 432 0244 BA69     		ldr	r2, [r7, #24]
ARM GAS  /var/folders/kj/yzqgq53j3dg15vgwwwwgf5s00000gn/T//ccz9mChi.s 			page 13


 433 0246 1340     		ands	r3, r3, r2
 434 0248 BB61     		str	r3, [r7, #24]
 253:../../../../dependencies/stm/STM32F4_Cube/Drivers/STM32F4xx_HAL_Driver/Src/stm32f4xx_hal_gpio.c ****         if((GPIO_Init->Mode & GPIO_MODE_IT) == GPIO_MODE_IT)
 435              		.loc 1 253 22 discriminator 28
 436 024a 3B68     		ldr	r3, [r7]
 437 024c 5B68     		ldr	r3, [r3, #4]
 438              		.loc 1 253 29 discriminator 28
 439 024e 03F48033 		and	r3, r3, #65536
 440              		.loc 1 253 11 discriminator 28
 441 0252 002B     		cmp	r3, #0
 442 0254 03D0     		beq	.L22
 254:../../../../dependencies/stm/STM32F4_Cube/Drivers/STM32F4xx_HAL_Driver/Src/stm32f4xx_hal_gpio.c ****         {
 255:../../../../dependencies/stm/STM32F4_Cube/Drivers/STM32F4xx_HAL_Driver/Src/stm32f4xx_hal_gpio.c ****           temp |= iocurrent;
 443              		.loc 1 255 16
 444 0256 BA69     		ldr	r2, [r7, #24]
 445 0258 3B69     		ldr	r3, [r7, #16]
 446 025a 1343     		orrs	r3, r3, r2
 447 025c BB61     		str	r3, [r7, #24]
 448              	.L22:
 256:../../../../dependencies/stm/STM32F4_Cube/Drivers/STM32F4xx_HAL_Driver/Src/stm32f4xx_hal_gpio.c ****         }
 257:../../../../dependencies/stm/STM32F4_Cube/Drivers/STM32F4xx_HAL_Driver/Src/stm32f4xx_hal_gpio.c ****         EXTI->IMR = temp;
 449              		.loc 1 257 13
 450 025e 314A     		ldr	r2, .L27+36
 451              		.loc 1 257 19
 452 0260 BB69     		ldr	r3, [r7, #24]
 453 0262 1360     		str	r3, [r2]
 258:../../../../dependencies/stm/STM32F4_Cube/Drivers/STM32F4xx_HAL_Driver/Src/stm32f4xx_hal_gpio.c **** 
 259:../../../../dependencies/stm/STM32F4_Cube/Drivers/STM32F4xx_HAL_Driver/Src/stm32f4xx_hal_gpio.c ****         temp = EXTI->EMR;
 454              		.loc 1 259 20
 455 0264 2F4B     		ldr	r3, .L27+36
 456              		.loc 1 259 14
 457 0266 5B68     		ldr	r3, [r3, #4]
 458 0268 BB61     		str	r3, [r7, #24]
 260:../../../../dependencies/stm/STM32F4_Cube/Drivers/STM32F4xx_HAL_Driver/Src/stm32f4xx_hal_gpio.c ****         temp &= ~((uint32_t)iocurrent);
 459              		.loc 1 260 17
 460 026a 3B69     		ldr	r3, [r7, #16]
 461 026c DB43     		mvns	r3, r3
 462              		.loc 1 260 14
 463 026e BA69     		ldr	r2, [r7, #24]
 464 0270 1340     		ands	r3, r3, r2
 465 0272 BB61     		str	r3, [r7, #24]
 261:../../../../dependencies/stm/STM32F4_Cube/Drivers/STM32F4xx_HAL_Driver/Src/stm32f4xx_hal_gpio.c ****         if((GPIO_Init->Mode & GPIO_MODE_EVT) == GPIO_MODE_EVT)
 466              		.loc 1 261 22
 467 0274 3B68     		ldr	r3, [r7]
 468 0276 5B68     		ldr	r3, [r3, #4]
 469              		.loc 1 261 29
 470 0278 03F40033 		and	r3, r3, #131072
 471              		.loc 1 261 11
 472 027c 002B     		cmp	r3, #0
 473 027e 03D0     		beq	.L23
 262:../../../../dependencies/stm/STM32F4_Cube/Drivers/STM32F4xx_HAL_Driver/Src/stm32f4xx_hal_gpio.c ****         {
 263:../../../../dependencies/stm/STM32F4_Cube/Drivers/STM32F4xx_HAL_Driver/Src/stm32f4xx_hal_gpio.c ****           temp |= iocurrent;
 474              		.loc 1 263 16
 475 0280 BA69     		ldr	r2, [r7, #24]
 476 0282 3B69     		ldr	r3, [r7, #16]
 477 0284 1343     		orrs	r3, r3, r2
 478 0286 BB61     		str	r3, [r7, #24]
ARM GAS  /var/folders/kj/yzqgq53j3dg15vgwwwwgf5s00000gn/T//ccz9mChi.s 			page 14


 479              	.L23:
 264:../../../../dependencies/stm/STM32F4_Cube/Drivers/STM32F4xx_HAL_Driver/Src/stm32f4xx_hal_gpio.c ****         }
 265:../../../../dependencies/stm/STM32F4_Cube/Drivers/STM32F4xx_HAL_Driver/Src/stm32f4xx_hal_gpio.c ****         EXTI->EMR = temp;
 480              		.loc 1 265 13
 481 0288 264A     		ldr	r2, .L27+36
 482              		.loc 1 265 19
 483 028a BB69     		ldr	r3, [r7, #24]
 484 028c 5360     		str	r3, [r2, #4]
 266:../../../../dependencies/stm/STM32F4_Cube/Drivers/STM32F4xx_HAL_Driver/Src/stm32f4xx_hal_gpio.c **** 
 267:../../../../dependencies/stm/STM32F4_Cube/Drivers/STM32F4xx_HAL_Driver/Src/stm32f4xx_hal_gpio.c ****         /* Clear Rising Falling edge configuration */
 268:../../../../dependencies/stm/STM32F4_Cube/Drivers/STM32F4xx_HAL_Driver/Src/stm32f4xx_hal_gpio.c ****         temp = EXTI->RTSR;
 485              		.loc 1 268 20
 486 028e 254B     		ldr	r3, .L27+36
 487              		.loc 1 268 14
 488 0290 9B68     		ldr	r3, [r3, #8]
 489 0292 BB61     		str	r3, [r7, #24]
 269:../../../../dependencies/stm/STM32F4_Cube/Drivers/STM32F4xx_HAL_Driver/Src/stm32f4xx_hal_gpio.c ****         temp &= ~((uint32_t)iocurrent);
 490              		.loc 1 269 17
 491 0294 3B69     		ldr	r3, [r7, #16]
 492 0296 DB43     		mvns	r3, r3
 493              		.loc 1 269 14
 494 0298 BA69     		ldr	r2, [r7, #24]
 495 029a 1340     		ands	r3, r3, r2
 496 029c BB61     		str	r3, [r7, #24]
 270:../../../../dependencies/stm/STM32F4_Cube/Drivers/STM32F4xx_HAL_Driver/Src/stm32f4xx_hal_gpio.c ****         if((GPIO_Init->Mode & RISING_EDGE) == RISING_EDGE)
 497              		.loc 1 270 22
 498 029e 3B68     		ldr	r3, [r7]
 499 02a0 5B68     		ldr	r3, [r3, #4]
 500              		.loc 1 270 29
 501 02a2 03F48013 		and	r3, r3, #1048576
 502              		.loc 1 270 11
 503 02a6 002B     		cmp	r3, #0
 504 02a8 03D0     		beq	.L24
 271:../../../../dependencies/stm/STM32F4_Cube/Drivers/STM32F4xx_HAL_Driver/Src/stm32f4xx_hal_gpio.c ****         {
 272:../../../../dependencies/stm/STM32F4_Cube/Drivers/STM32F4xx_HAL_Driver/Src/stm32f4xx_hal_gpio.c ****           temp |= iocurrent;
 505              		.loc 1 272 16
 506 02aa BA69     		ldr	r2, [r7, #24]
 507 02ac 3B69     		ldr	r3, [r7, #16]
 508 02ae 1343     		orrs	r3, r3, r2
 509 02b0 BB61     		str	r3, [r7, #24]
 510              	.L24:
 273:../../../../dependencies/stm/STM32F4_Cube/Drivers/STM32F4xx_HAL_Driver/Src/stm32f4xx_hal_gpio.c ****         }
 274:../../../../dependencies/stm/STM32F4_Cube/Drivers/STM32F4xx_HAL_Driver/Src/stm32f4xx_hal_gpio.c ****         EXTI->RTSR = temp;
 511              		.loc 1 274 13
 512 02b2 1C4A     		ldr	r2, .L27+36
 513              		.loc 1 274 20
 514 02b4 BB69     		ldr	r3, [r7, #24]
 515 02b6 9360     		str	r3, [r2, #8]
 275:../../../../dependencies/stm/STM32F4_Cube/Drivers/STM32F4xx_HAL_Driver/Src/stm32f4xx_hal_gpio.c **** 
 276:../../../../dependencies/stm/STM32F4_Cube/Drivers/STM32F4xx_HAL_Driver/Src/stm32f4xx_hal_gpio.c ****         temp = EXTI->FTSR;
 516              		.loc 1 276 20
 517 02b8 1A4B     		ldr	r3, .L27+36
 518              		.loc 1 276 14
 519 02ba DB68     		ldr	r3, [r3, #12]
 520 02bc BB61     		str	r3, [r7, #24]
 277:../../../../dependencies/stm/STM32F4_Cube/Drivers/STM32F4xx_HAL_Driver/Src/stm32f4xx_hal_gpio.c ****         temp &= ~((uint32_t)iocurrent);
 521              		.loc 1 277 17
ARM GAS  /var/folders/kj/yzqgq53j3dg15vgwwwwgf5s00000gn/T//ccz9mChi.s 			page 15


 522 02be 3B69     		ldr	r3, [r7, #16]
 523 02c0 DB43     		mvns	r3, r3
 524              		.loc 1 277 14
 525 02c2 BA69     		ldr	r2, [r7, #24]
 526 02c4 1340     		ands	r3, r3, r2
 527 02c6 BB61     		str	r3, [r7, #24]
 278:../../../../dependencies/stm/STM32F4_Cube/Drivers/STM32F4xx_HAL_Driver/Src/stm32f4xx_hal_gpio.c ****         if((GPIO_Init->Mode & FALLING_EDGE) == FALLING_EDGE)
 528              		.loc 1 278 22
 529 02c8 3B68     		ldr	r3, [r7]
 530 02ca 5B68     		ldr	r3, [r3, #4]
 531              		.loc 1 278 29
 532 02cc 03F40013 		and	r3, r3, #2097152
 533              		.loc 1 278 11
 534 02d0 002B     		cmp	r3, #0
 535 02d2 03D0     		beq	.L25
 279:../../../../dependencies/stm/STM32F4_Cube/Drivers/STM32F4xx_HAL_Driver/Src/stm32f4xx_hal_gpio.c ****         {
 280:../../../../dependencies/stm/STM32F4_Cube/Drivers/STM32F4xx_HAL_Driver/Src/stm32f4xx_hal_gpio.c ****           temp |= iocurrent;
 536              		.loc 1 280 16
 537 02d4 BA69     		ldr	r2, [r7, #24]
 538 02d6 3B69     		ldr	r3, [r7, #16]
 539 02d8 1343     		orrs	r3, r3, r2
 540 02da BB61     		str	r3, [r7, #24]
 541              	.L25:
 281:../../../../dependencies/stm/STM32F4_Cube/Drivers/STM32F4xx_HAL_Driver/Src/stm32f4xx_hal_gpio.c ****         }
 282:../../../../dependencies/stm/STM32F4_Cube/Drivers/STM32F4xx_HAL_Driver/Src/stm32f4xx_hal_gpio.c ****         EXTI->FTSR = temp;
 542              		.loc 1 282 13
 543 02dc 114A     		ldr	r2, .L27+36
 544              		.loc 1 282 20
 545 02de BB69     		ldr	r3, [r7, #24]
 546 02e0 D360     		str	r3, [r2, #12]
 547              	.L3:
 185:../../../../dependencies/stm/STM32F4_Cube/Drivers/STM32F4xx_HAL_Driver/Src/stm32f4xx_hal_gpio.c ****   {
 548              		.loc 1 185 54 discriminator 2
 549 02e2 FB69     		ldr	r3, [r7, #28]
 550 02e4 0133     		adds	r3, r3, #1
 551 02e6 FB61     		str	r3, [r7, #28]
 552              	.L2:
 185:../../../../dependencies/stm/STM32F4_Cube/Drivers/STM32F4xx_HAL_Driver/Src/stm32f4xx_hal_gpio.c ****   {
 553              		.loc 1 185 3 discriminator 1
 554 02e8 FB69     		ldr	r3, [r7, #28]
 555 02ea 0F2B     		cmp	r3, #15
 556 02ec 7FF696AE 		bls	.L26
 283:../../../../dependencies/stm/STM32F4_Cube/Drivers/STM32F4xx_HAL_Driver/Src/stm32f4xx_hal_gpio.c ****       }
 284:../../../../dependencies/stm/STM32F4_Cube/Drivers/STM32F4xx_HAL_Driver/Src/stm32f4xx_hal_gpio.c ****     }
 285:../../../../dependencies/stm/STM32F4_Cube/Drivers/STM32F4xx_HAL_Driver/Src/stm32f4xx_hal_gpio.c ****   }
 286:../../../../dependencies/stm/STM32F4_Cube/Drivers/STM32F4xx_HAL_Driver/Src/stm32f4xx_hal_gpio.c **** }
 557              		.loc 1 286 1
 558 02f0 00BF     		nop
 559 02f2 00BF     		nop
 560 02f4 2437     		adds	r7, r7, #36
 561              	.LCFI3:
 562              		.cfi_def_cfa_offset 4
 563 02f6 BD46     		mov	sp, r7
 564              	.LCFI4:
 565              		.cfi_def_cfa_register 13
 566              		@ sp needed
 567 02f8 5DF8047B 		ldr	r7, [sp], #4
ARM GAS  /var/folders/kj/yzqgq53j3dg15vgwwwwgf5s00000gn/T//ccz9mChi.s 			page 16


 568              	.LCFI5:
 569              		.cfi_restore 7
 570              		.cfi_def_cfa_offset 0
 571 02fc 7047     		bx	lr
 572              	.L28:
 573 02fe 00BF     		.align	2
 574              	.L27:
 575 0300 00380240 		.word	1073887232
 576 0304 00380140 		.word	1073821696
 577 0308 00000240 		.word	1073872896
 578 030c 00040240 		.word	1073873920
 579 0310 00080240 		.word	1073874944
 580 0314 000C0240 		.word	1073875968
 581 0318 00100240 		.word	1073876992
 582 031c 00140240 		.word	1073878016
 583 0320 00180240 		.word	1073879040
 584 0324 003C0140 		.word	1073822720
 585              		.cfi_endproc
 586              	.LFE130:
 588              		.section	.text.HAL_GPIO_DeInit,"ax",%progbits
 589              		.align	1
 590              		.global	HAL_GPIO_DeInit
 591              		.syntax unified
 592              		.thumb
 593              		.thumb_func
 594              		.fpu fpv4-sp-d16
 596              	HAL_GPIO_DeInit:
 597              	.LFB131:
 287:../../../../dependencies/stm/STM32F4_Cube/Drivers/STM32F4xx_HAL_Driver/Src/stm32f4xx_hal_gpio.c **** 
 288:../../../../dependencies/stm/STM32F4_Cube/Drivers/STM32F4xx_HAL_Driver/Src/stm32f4xx_hal_gpio.c **** /**
 289:../../../../dependencies/stm/STM32F4_Cube/Drivers/STM32F4xx_HAL_Driver/Src/stm32f4xx_hal_gpio.c ****   * @brief  De-initializes the GPIOx peripheral registers to their default reset values.
 290:../../../../dependencies/stm/STM32F4_Cube/Drivers/STM32F4xx_HAL_Driver/Src/stm32f4xx_hal_gpio.c ****   * @param  GPIOx where x can be (A..K) to select the GPIO peripheral for STM32F429X device or
 291:../../../../dependencies/stm/STM32F4_Cube/Drivers/STM32F4xx_HAL_Driver/Src/stm32f4xx_hal_gpio.c ****   *                      x can be (A..I) to select the GPIO peripheral for STM32F40XX and STM32F427
 292:../../../../dependencies/stm/STM32F4_Cube/Drivers/STM32F4xx_HAL_Driver/Src/stm32f4xx_hal_gpio.c ****   * @param  GPIO_Pin specifies the port bit to be written.
 293:../../../../dependencies/stm/STM32F4_Cube/Drivers/STM32F4xx_HAL_Driver/Src/stm32f4xx_hal_gpio.c ****   *          This parameter can be one of GPIO_PIN_x where x can be (0..15).
 294:../../../../dependencies/stm/STM32F4_Cube/Drivers/STM32F4xx_HAL_Driver/Src/stm32f4xx_hal_gpio.c ****   * @retval None
 295:../../../../dependencies/stm/STM32F4_Cube/Drivers/STM32F4xx_HAL_Driver/Src/stm32f4xx_hal_gpio.c ****   */
 296:../../../../dependencies/stm/STM32F4_Cube/Drivers/STM32F4xx_HAL_Driver/Src/stm32f4xx_hal_gpio.c **** void HAL_GPIO_DeInit(GPIO_TypeDef  *GPIOx, uint32_t GPIO_Pin)
 297:../../../../dependencies/stm/STM32F4_Cube/Drivers/STM32F4xx_HAL_Driver/Src/stm32f4xx_hal_gpio.c **** {
 598              		.loc 1 297 1
 599              		.cfi_startproc
 600              		@ args = 0, pretend = 0, frame = 24
 601              		@ frame_needed = 1, uses_anonymous_args = 0
 602              		@ link register save eliminated.
 603 0000 80B4     		push	{r7}
 604              	.LCFI6:
 605              		.cfi_def_cfa_offset 4
 606              		.cfi_offset 7, -4
 607 0002 87B0     		sub	sp, sp, #28
 608              	.LCFI7:
 609              		.cfi_def_cfa_offset 32
 610 0004 00AF     		add	r7, sp, #0
 611              	.LCFI8:
 612              		.cfi_def_cfa_register 7
 613 0006 7860     		str	r0, [r7, #4]
 614 0008 3960     		str	r1, [r7]
 298:../../../../dependencies/stm/STM32F4_Cube/Drivers/STM32F4xx_HAL_Driver/Src/stm32f4xx_hal_gpio.c ****   uint32_t position;
ARM GAS  /var/folders/kj/yzqgq53j3dg15vgwwwwgf5s00000gn/T//ccz9mChi.s 			page 17


 299:../../../../dependencies/stm/STM32F4_Cube/Drivers/STM32F4xx_HAL_Driver/Src/stm32f4xx_hal_gpio.c ****   uint32_t ioposition = 0x00U;
 615              		.loc 1 299 12
 616 000a 0023     		movs	r3, #0
 617 000c 3B61     		str	r3, [r7, #16]
 300:../../../../dependencies/stm/STM32F4_Cube/Drivers/STM32F4xx_HAL_Driver/Src/stm32f4xx_hal_gpio.c ****   uint32_t iocurrent = 0x00U;
 618              		.loc 1 300 12
 619 000e 0023     		movs	r3, #0
 620 0010 FB60     		str	r3, [r7, #12]
 301:../../../../dependencies/stm/STM32F4_Cube/Drivers/STM32F4xx_HAL_Driver/Src/stm32f4xx_hal_gpio.c ****   uint32_t tmp = 0x00U;
 621              		.loc 1 301 12
 622 0012 0023     		movs	r3, #0
 623 0014 BB60     		str	r3, [r7, #8]
 302:../../../../dependencies/stm/STM32F4_Cube/Drivers/STM32F4xx_HAL_Driver/Src/stm32f4xx_hal_gpio.c **** 
 303:../../../../dependencies/stm/STM32F4_Cube/Drivers/STM32F4xx_HAL_Driver/Src/stm32f4xx_hal_gpio.c ****   /* Check the parameters */
 304:../../../../dependencies/stm/STM32F4_Cube/Drivers/STM32F4xx_HAL_Driver/Src/stm32f4xx_hal_gpio.c ****   assert_param(IS_GPIO_ALL_INSTANCE(GPIOx));
 305:../../../../dependencies/stm/STM32F4_Cube/Drivers/STM32F4xx_HAL_Driver/Src/stm32f4xx_hal_gpio.c ****   
 306:../../../../dependencies/stm/STM32F4_Cube/Drivers/STM32F4xx_HAL_Driver/Src/stm32f4xx_hal_gpio.c ****   /* Configure the port pins */
 307:../../../../dependencies/stm/STM32F4_Cube/Drivers/STM32F4xx_HAL_Driver/Src/stm32f4xx_hal_gpio.c ****   for(position = 0U; position < GPIO_NUMBER; position++)
 624              		.loc 1 307 16
 625 0016 0023     		movs	r3, #0
 626 0018 7B61     		str	r3, [r7, #20]
 627              		.loc 1 307 3
 628 001a C7E0     		b	.L30
 629              	.L47:
 308:../../../../dependencies/stm/STM32F4_Cube/Drivers/STM32F4xx_HAL_Driver/Src/stm32f4xx_hal_gpio.c ****   {
 309:../../../../dependencies/stm/STM32F4_Cube/Drivers/STM32F4xx_HAL_Driver/Src/stm32f4xx_hal_gpio.c ****     /* Get the IO position */
 310:../../../../dependencies/stm/STM32F4_Cube/Drivers/STM32F4xx_HAL_Driver/Src/stm32f4xx_hal_gpio.c ****     ioposition = 0x01U << position;
 630              		.loc 1 310 16
 631 001c 0122     		movs	r2, #1
 632 001e 7B69     		ldr	r3, [r7, #20]
 633 0020 02FA03F3 		lsl	r3, r2, r3
 634 0024 3B61     		str	r3, [r7, #16]
 311:../../../../dependencies/stm/STM32F4_Cube/Drivers/STM32F4xx_HAL_Driver/Src/stm32f4xx_hal_gpio.c ****     /* Get the current IO position */
 312:../../../../dependencies/stm/STM32F4_Cube/Drivers/STM32F4xx_HAL_Driver/Src/stm32f4xx_hal_gpio.c ****     iocurrent = (GPIO_Pin) & ioposition;
 635              		.loc 1 312 15
 636 0026 3A68     		ldr	r2, [r7]
 637 0028 3B69     		ldr	r3, [r7, #16]
 638 002a 1340     		ands	r3, r3, r2
 639 002c FB60     		str	r3, [r7, #12]
 313:../../../../dependencies/stm/STM32F4_Cube/Drivers/STM32F4xx_HAL_Driver/Src/stm32f4xx_hal_gpio.c **** 
 314:../../../../dependencies/stm/STM32F4_Cube/Drivers/STM32F4xx_HAL_Driver/Src/stm32f4xx_hal_gpio.c ****     if(iocurrent == ioposition)
 640              		.loc 1 314 7
 641 002e FA68     		ldr	r2, [r7, #12]
 642 0030 3B69     		ldr	r3, [r7, #16]
 643 0032 9A42     		cmp	r2, r3
 644 0034 40F0B780 		bne	.L31
 315:../../../../dependencies/stm/STM32F4_Cube/Drivers/STM32F4xx_HAL_Driver/Src/stm32f4xx_hal_gpio.c ****     {
 316:../../../../dependencies/stm/STM32F4_Cube/Drivers/STM32F4xx_HAL_Driver/Src/stm32f4xx_hal_gpio.c ****       /*------------------------- EXTI Mode Configuration --------------------*/
 317:../../../../dependencies/stm/STM32F4_Cube/Drivers/STM32F4xx_HAL_Driver/Src/stm32f4xx_hal_gpio.c ****       tmp = SYSCFG->EXTICR[position >> 2U];
 645              		.loc 1 317 19
 646 0038 624A     		ldr	r2, .L48
 647              		.loc 1 317 37
 648 003a 7B69     		ldr	r3, [r7, #20]
 649 003c 9B08     		lsrs	r3, r3, #2
 650              		.loc 1 317 11
 651 003e 0233     		adds	r3, r3, #2
 652 0040 52F82330 		ldr	r3, [r2, r3, lsl #2]
ARM GAS  /var/folders/kj/yzqgq53j3dg15vgwwwwgf5s00000gn/T//ccz9mChi.s 			page 18


 653 0044 BB60     		str	r3, [r7, #8]
 318:../../../../dependencies/stm/STM32F4_Cube/Drivers/STM32F4xx_HAL_Driver/Src/stm32f4xx_hal_gpio.c ****       tmp &= (0x0FU << (4U * (position & 0x03U)));
 654              		.loc 1 318 40
 655 0046 7B69     		ldr	r3, [r7, #20]
 656 0048 03F00303 		and	r3, r3, #3
 657              		.loc 1 318 28
 658 004c 9B00     		lsls	r3, r3, #2
 659              		.loc 1 318 21
 660 004e 0F22     		movs	r2, #15
 661 0050 02FA03F3 		lsl	r3, r2, r3
 662              		.loc 1 318 11
 663 0054 BA68     		ldr	r2, [r7, #8]
 664 0056 1340     		ands	r3, r3, r2
 665 0058 BB60     		str	r3, [r7, #8]
 319:../../../../dependencies/stm/STM32F4_Cube/Drivers/STM32F4xx_HAL_Driver/Src/stm32f4xx_hal_gpio.c ****       if(tmp == ((uint32_t)(GPIO_GET_INDEX(GPIOx)) << (4U * (position & 0x03U))))
 666              		.loc 1 319 18
 667 005a 7B68     		ldr	r3, [r7, #4]
 668 005c 5A4A     		ldr	r2, .L48+4
 669 005e 9342     		cmp	r3, r2
 670 0060 25D0     		beq	.L32
 671              		.loc 1 319 29 discriminator 1
 672 0062 7B68     		ldr	r3, [r7, #4]
 673 0064 594A     		ldr	r2, .L48+8
 674 0066 9342     		cmp	r3, r2
 675 0068 1FD0     		beq	.L33
 676              		.loc 1 319 29 is_stmt 0 discriminator 3
 677 006a 7B68     		ldr	r3, [r7, #4]
 678 006c 584A     		ldr	r2, .L48+12
 679 006e 9342     		cmp	r3, r2
 680 0070 19D0     		beq	.L34
 681              		.loc 1 319 29 discriminator 5
 682 0072 7B68     		ldr	r3, [r7, #4]
 683 0074 574A     		ldr	r2, .L48+16
 684 0076 9342     		cmp	r3, r2
 685 0078 13D0     		beq	.L35
 686              		.loc 1 319 29 discriminator 7
 687 007a 7B68     		ldr	r3, [r7, #4]
 688 007c 564A     		ldr	r2, .L48+20
 689 007e 9342     		cmp	r3, r2
 690 0080 0DD0     		beq	.L36
 691              		.loc 1 319 29 discriminator 9
 692 0082 7B68     		ldr	r3, [r7, #4]
 693 0084 554A     		ldr	r2, .L48+24
 694 0086 9342     		cmp	r3, r2
 695 0088 07D0     		beq	.L37
 696              		.loc 1 319 29 discriminator 11
 697 008a 7B68     		ldr	r3, [r7, #4]
 698 008c 544A     		ldr	r2, .L48+28
 699 008e 9342     		cmp	r3, r2
 700 0090 01D1     		bne	.L38
 701              		.loc 1 319 29 discriminator 13
 702 0092 0623     		movs	r3, #6
 703 0094 0CE0     		b	.L45
 704              	.L38:
 705              		.loc 1 319 29 discriminator 14
 706 0096 0723     		movs	r3, #7
 707 0098 0AE0     		b	.L45
ARM GAS  /var/folders/kj/yzqgq53j3dg15vgwwwwgf5s00000gn/T//ccz9mChi.s 			page 19


 708              	.L37:
 709              		.loc 1 319 29 discriminator 12
 710 009a 0523     		movs	r3, #5
 711 009c 08E0     		b	.L45
 712              	.L36:
 713              		.loc 1 319 29 discriminator 10
 714 009e 0423     		movs	r3, #4
 715 00a0 06E0     		b	.L45
 716              	.L35:
 717              		.loc 1 319 29 discriminator 8
 718 00a2 0323     		movs	r3, #3
 719 00a4 04E0     		b	.L45
 720              	.L34:
 721              		.loc 1 319 29 discriminator 6
 722 00a6 0223     		movs	r3, #2
 723 00a8 02E0     		b	.L45
 724              	.L33:
 725              		.loc 1 319 29 discriminator 4
 726 00aa 0123     		movs	r3, #1
 727 00ac 00E0     		b	.L45
 728              	.L32:
 729              		.loc 1 319 18 is_stmt 1 discriminator 2
 730 00ae 0023     		movs	r3, #0
 731              	.L45:
 732              		.loc 1 319 71 discriminator 28
 733 00b0 7A69     		ldr	r2, [r7, #20]
 734 00b2 02F00302 		and	r2, r2, #3
 735              		.loc 1 319 59 discriminator 28
 736 00b6 9200     		lsls	r2, r2, #2
 737              		.loc 1 319 52 discriminator 28
 738 00b8 9340     		lsls	r3, r3, r2
 739              		.loc 1 319 9 discriminator 28
 740 00ba BA68     		ldr	r2, [r7, #8]
 741 00bc 9A42     		cmp	r2, r3
 742 00be 32D1     		bne	.L46
 320:../../../../dependencies/stm/STM32F4_Cube/Drivers/STM32F4xx_HAL_Driver/Src/stm32f4xx_hal_gpio.c ****       {
 321:../../../../dependencies/stm/STM32F4_Cube/Drivers/STM32F4xx_HAL_Driver/Src/stm32f4xx_hal_gpio.c ****         /* Clear EXTI line configuration */
 322:../../../../dependencies/stm/STM32F4_Cube/Drivers/STM32F4xx_HAL_Driver/Src/stm32f4xx_hal_gpio.c ****         EXTI->IMR &= ~((uint32_t)iocurrent);
 743              		.loc 1 322 19
 744 00c0 484B     		ldr	r3, .L48+32
 745 00c2 1A68     		ldr	r2, [r3]
 746              		.loc 1 322 22
 747 00c4 FB68     		ldr	r3, [r7, #12]
 748 00c6 DB43     		mvns	r3, r3
 749              		.loc 1 322 19
 750 00c8 4649     		ldr	r1, .L48+32
 751 00ca 1340     		ands	r3, r3, r2
 752 00cc 0B60     		str	r3, [r1]
 323:../../../../dependencies/stm/STM32F4_Cube/Drivers/STM32F4xx_HAL_Driver/Src/stm32f4xx_hal_gpio.c ****         EXTI->EMR &= ~((uint32_t)iocurrent);
 753              		.loc 1 323 19
 754 00ce 454B     		ldr	r3, .L48+32
 755 00d0 5A68     		ldr	r2, [r3, #4]
 756              		.loc 1 323 22
 757 00d2 FB68     		ldr	r3, [r7, #12]
 758 00d4 DB43     		mvns	r3, r3
 759              		.loc 1 323 19
 760 00d6 4349     		ldr	r1, .L48+32
ARM GAS  /var/folders/kj/yzqgq53j3dg15vgwwwwgf5s00000gn/T//ccz9mChi.s 			page 20


 761 00d8 1340     		ands	r3, r3, r2
 762 00da 4B60     		str	r3, [r1, #4]
 324:../../../../dependencies/stm/STM32F4_Cube/Drivers/STM32F4xx_HAL_Driver/Src/stm32f4xx_hal_gpio.c ****         
 325:../../../../dependencies/stm/STM32F4_Cube/Drivers/STM32F4xx_HAL_Driver/Src/stm32f4xx_hal_gpio.c ****         /* Clear Rising Falling edge configuration */
 326:../../../../dependencies/stm/STM32F4_Cube/Drivers/STM32F4xx_HAL_Driver/Src/stm32f4xx_hal_gpio.c ****         EXTI->RTSR &= ~((uint32_t)iocurrent);
 763              		.loc 1 326 20
 764 00dc 414B     		ldr	r3, .L48+32
 765 00de 9A68     		ldr	r2, [r3, #8]
 766              		.loc 1 326 23
 767 00e0 FB68     		ldr	r3, [r7, #12]
 768 00e2 DB43     		mvns	r3, r3
 769              		.loc 1 326 20
 770 00e4 3F49     		ldr	r1, .L48+32
 771 00e6 1340     		ands	r3, r3, r2
 772 00e8 8B60     		str	r3, [r1, #8]
 327:../../../../dependencies/stm/STM32F4_Cube/Drivers/STM32F4xx_HAL_Driver/Src/stm32f4xx_hal_gpio.c ****         EXTI->FTSR &= ~((uint32_t)iocurrent);
 773              		.loc 1 327 20
 774 00ea 3E4B     		ldr	r3, .L48+32
 775 00ec DA68     		ldr	r2, [r3, #12]
 776              		.loc 1 327 23
 777 00ee FB68     		ldr	r3, [r7, #12]
 778 00f0 DB43     		mvns	r3, r3
 779              		.loc 1 327 20
 780 00f2 3C49     		ldr	r1, .L48+32
 781 00f4 1340     		ands	r3, r3, r2
 782 00f6 CB60     		str	r3, [r1, #12]
 328:../../../../dependencies/stm/STM32F4_Cube/Drivers/STM32F4xx_HAL_Driver/Src/stm32f4xx_hal_gpio.c **** 
 329:../../../../dependencies/stm/STM32F4_Cube/Drivers/STM32F4xx_HAL_Driver/Src/stm32f4xx_hal_gpio.c ****         /* Configure the External Interrupt or event for the current IO */
 330:../../../../dependencies/stm/STM32F4_Cube/Drivers/STM32F4xx_HAL_Driver/Src/stm32f4xx_hal_gpio.c ****         tmp = 0x0FU << (4U * (position & 0x03U));
 783              		.loc 1 330 40
 784 00f8 7B69     		ldr	r3, [r7, #20]
 785 00fa 03F00303 		and	r3, r3, #3
 786              		.loc 1 330 28
 787 00fe 9B00     		lsls	r3, r3, #2
 788              		.loc 1 330 13
 789 0100 0F22     		movs	r2, #15
 790 0102 02FA03F3 		lsl	r3, r2, r3
 791 0106 BB60     		str	r3, [r7, #8]
 331:../../../../dependencies/stm/STM32F4_Cube/Drivers/STM32F4xx_HAL_Driver/Src/stm32f4xx_hal_gpio.c ****         SYSCFG->EXTICR[position >> 2U] &= ~tmp;
 792              		.loc 1 331 40
 793 0108 2E4A     		ldr	r2, .L48
 794 010a 7B69     		ldr	r3, [r7, #20]
 795 010c 9B08     		lsrs	r3, r3, #2
 796 010e 0233     		adds	r3, r3, #2
 797 0110 52F82310 		ldr	r1, [r2, r3, lsl #2]
 798              		.loc 1 331 43
 799 0114 BB68     		ldr	r3, [r7, #8]
 800 0116 DA43     		mvns	r2, r3
 801              		.loc 1 331 40
 802 0118 2A48     		ldr	r0, .L48
 803 011a 7B69     		ldr	r3, [r7, #20]
 804 011c 9B08     		lsrs	r3, r3, #2
 805 011e 0A40     		ands	r2, r2, r1
 806 0120 0233     		adds	r3, r3, #2
 807 0122 40F82320 		str	r2, [r0, r3, lsl #2]
 808              	.L46:
 332:../../../../dependencies/stm/STM32F4_Cube/Drivers/STM32F4xx_HAL_Driver/Src/stm32f4xx_hal_gpio.c ****       }
ARM GAS  /var/folders/kj/yzqgq53j3dg15vgwwwwgf5s00000gn/T//ccz9mChi.s 			page 21


 333:../../../../dependencies/stm/STM32F4_Cube/Drivers/STM32F4xx_HAL_Driver/Src/stm32f4xx_hal_gpio.c **** 
 334:../../../../dependencies/stm/STM32F4_Cube/Drivers/STM32F4xx_HAL_Driver/Src/stm32f4xx_hal_gpio.c ****       /*------------------------- GPIO Mode Configuration --------------------*/
 335:../../../../dependencies/stm/STM32F4_Cube/Drivers/STM32F4xx_HAL_Driver/Src/stm32f4xx_hal_gpio.c ****       /* Configure IO Direction in Input Floating Mode */
 336:../../../../dependencies/stm/STM32F4_Cube/Drivers/STM32F4xx_HAL_Driver/Src/stm32f4xx_hal_gpio.c ****       GPIOx->MODER &= ~(GPIO_MODER_MODER0 << (position * 2U));
 809              		.loc 1 336 20
 810 0126 7B68     		ldr	r3, [r7, #4]
 811 0128 1A68     		ldr	r2, [r3]
 812              		.loc 1 336 56
 813 012a 7B69     		ldr	r3, [r7, #20]
 814 012c 5B00     		lsls	r3, r3, #1
 815              		.loc 1 336 43
 816 012e 0321     		movs	r1, #3
 817 0130 01FA03F3 		lsl	r3, r1, r3
 818              		.loc 1 336 23
 819 0134 DB43     		mvns	r3, r3
 820              		.loc 1 336 20
 821 0136 1A40     		ands	r2, r2, r3
 822 0138 7B68     		ldr	r3, [r7, #4]
 823 013a 1A60     		str	r2, [r3]
 337:../../../../dependencies/stm/STM32F4_Cube/Drivers/STM32F4xx_HAL_Driver/Src/stm32f4xx_hal_gpio.c **** 
 338:../../../../dependencies/stm/STM32F4_Cube/Drivers/STM32F4xx_HAL_Driver/Src/stm32f4xx_hal_gpio.c ****       /* Configure the default Alternate Function in current IO */
 339:../../../../dependencies/stm/STM32F4_Cube/Drivers/STM32F4xx_HAL_Driver/Src/stm32f4xx_hal_gpio.c ****       GPIOx->AFR[position >> 3U] &= ~(0xFU << ((uint32_t)(position & 0x07U) * 4U)) ;
 824              		.loc 1 339 34
 825 013c 7B69     		ldr	r3, [r7, #20]
 826 013e DA08     		lsrs	r2, r3, #3
 827 0140 7B68     		ldr	r3, [r7, #4]
 828 0142 0832     		adds	r2, r2, #8
 829 0144 53F82210 		ldr	r1, [r3, r2, lsl #2]
 830              		.loc 1 339 48
 831 0148 7B69     		ldr	r3, [r7, #20]
 832 014a 03F00703 		and	r3, r3, #7
 833              		.loc 1 339 77
 834 014e 9B00     		lsls	r3, r3, #2
 835              		.loc 1 339 44
 836 0150 0F22     		movs	r2, #15
 837 0152 02FA03F3 		lsl	r3, r2, r3
 838              		.loc 1 339 37
 839 0156 DB43     		mvns	r3, r3
 840              		.loc 1 339 34
 841 0158 7A69     		ldr	r2, [r7, #20]
 842 015a D208     		lsrs	r2, r2, #3
 843 015c 1940     		ands	r1, r1, r3
 844 015e 7B68     		ldr	r3, [r7, #4]
 845 0160 0832     		adds	r2, r2, #8
 846 0162 43F82210 		str	r1, [r3, r2, lsl #2]
 340:../../../../dependencies/stm/STM32F4_Cube/Drivers/STM32F4xx_HAL_Driver/Src/stm32f4xx_hal_gpio.c **** 
 341:../../../../dependencies/stm/STM32F4_Cube/Drivers/STM32F4xx_HAL_Driver/Src/stm32f4xx_hal_gpio.c ****       /* Deactivate the Pull-up and Pull-down resistor for the current IO */
 342:../../../../dependencies/stm/STM32F4_Cube/Drivers/STM32F4xx_HAL_Driver/Src/stm32f4xx_hal_gpio.c ****       GPIOx->PUPDR &= ~(GPIO_PUPDR_PUPDR0 << (position * 2U));
 847              		.loc 1 342 20
 848 0166 7B68     		ldr	r3, [r7, #4]
 849 0168 DA68     		ldr	r2, [r3, #12]
 850              		.loc 1 342 56
 851 016a 7B69     		ldr	r3, [r7, #20]
 852 016c 5B00     		lsls	r3, r3, #1
 853              		.loc 1 342 43
 854 016e 0321     		movs	r1, #3
 855 0170 01FA03F3 		lsl	r3, r1, r3
ARM GAS  /var/folders/kj/yzqgq53j3dg15vgwwwwgf5s00000gn/T//ccz9mChi.s 			page 22


 856              		.loc 1 342 23
 857 0174 DB43     		mvns	r3, r3
 858              		.loc 1 342 20
 859 0176 1A40     		ands	r2, r2, r3
 860 0178 7B68     		ldr	r3, [r7, #4]
 861 017a DA60     		str	r2, [r3, #12]
 343:../../../../dependencies/stm/STM32F4_Cube/Drivers/STM32F4xx_HAL_Driver/Src/stm32f4xx_hal_gpio.c **** 
 344:../../../../dependencies/stm/STM32F4_Cube/Drivers/STM32F4xx_HAL_Driver/Src/stm32f4xx_hal_gpio.c ****       /* Configure the default value IO Output Type */
 345:../../../../dependencies/stm/STM32F4_Cube/Drivers/STM32F4xx_HAL_Driver/Src/stm32f4xx_hal_gpio.c ****       GPIOx->OTYPER  &= ~(GPIO_OTYPER_OT_0 << position) ;
 862              		.loc 1 345 22
 863 017c 7B68     		ldr	r3, [r7, #4]
 864 017e 5A68     		ldr	r2, [r3, #4]
 865              		.loc 1 345 44
 866 0180 0121     		movs	r1, #1
 867 0182 7B69     		ldr	r3, [r7, #20]
 868 0184 01FA03F3 		lsl	r3, r1, r3
 869              		.loc 1 345 25
 870 0188 DB43     		mvns	r3, r3
 871              		.loc 1 345 22
 872 018a 1A40     		ands	r2, r2, r3
 873 018c 7B68     		ldr	r3, [r7, #4]
 874 018e 5A60     		str	r2, [r3, #4]
 346:../../../../dependencies/stm/STM32F4_Cube/Drivers/STM32F4xx_HAL_Driver/Src/stm32f4xx_hal_gpio.c **** 
 347:../../../../dependencies/stm/STM32F4_Cube/Drivers/STM32F4xx_HAL_Driver/Src/stm32f4xx_hal_gpio.c ****       /* Configure the default value for IO Speed */
 348:../../../../dependencies/stm/STM32F4_Cube/Drivers/STM32F4xx_HAL_Driver/Src/stm32f4xx_hal_gpio.c ****       GPIOx->OSPEEDR &= ~(GPIO_OSPEEDER_OSPEEDR0 << (position * 2U));
 875              		.loc 1 348 22
 876 0190 7B68     		ldr	r3, [r7, #4]
 877 0192 9A68     		ldr	r2, [r3, #8]
 878              		.loc 1 348 63
 879 0194 7B69     		ldr	r3, [r7, #20]
 880 0196 5B00     		lsls	r3, r3, #1
 881              		.loc 1 348 50
 882 0198 0321     		movs	r1, #3
 883 019a 01FA03F3 		lsl	r3, r1, r3
 884              		.loc 1 348 25
 885 019e DB43     		mvns	r3, r3
 886              		.loc 1 348 22
 887 01a0 1A40     		ands	r2, r2, r3
 888 01a2 7B68     		ldr	r3, [r7, #4]
 889 01a4 9A60     		str	r2, [r3, #8]
 890              	.L31:
 307:../../../../dependencies/stm/STM32F4_Cube/Drivers/STM32F4xx_HAL_Driver/Src/stm32f4xx_hal_gpio.c ****   {
 891              		.loc 1 307 54 discriminator 2
 892 01a6 7B69     		ldr	r3, [r7, #20]
 893 01a8 0133     		adds	r3, r3, #1
 894 01aa 7B61     		str	r3, [r7, #20]
 895              	.L30:
 307:../../../../dependencies/stm/STM32F4_Cube/Drivers/STM32F4xx_HAL_Driver/Src/stm32f4xx_hal_gpio.c ****   {
 896              		.loc 1 307 3 discriminator 1
 897 01ac 7B69     		ldr	r3, [r7, #20]
 898 01ae 0F2B     		cmp	r3, #15
 899 01b0 7FF634AF 		bls	.L47
 349:../../../../dependencies/stm/STM32F4_Cube/Drivers/STM32F4xx_HAL_Driver/Src/stm32f4xx_hal_gpio.c ****     }
 350:../../../../dependencies/stm/STM32F4_Cube/Drivers/STM32F4xx_HAL_Driver/Src/stm32f4xx_hal_gpio.c ****   }
 351:../../../../dependencies/stm/STM32F4_Cube/Drivers/STM32F4xx_HAL_Driver/Src/stm32f4xx_hal_gpio.c **** }
 900              		.loc 1 351 1
 901 01b4 00BF     		nop
ARM GAS  /var/folders/kj/yzqgq53j3dg15vgwwwwgf5s00000gn/T//ccz9mChi.s 			page 23


 902 01b6 00BF     		nop
 903 01b8 1C37     		adds	r7, r7, #28
 904              	.LCFI9:
 905              		.cfi_def_cfa_offset 4
 906 01ba BD46     		mov	sp, r7
 907              	.LCFI10:
 908              		.cfi_def_cfa_register 13
 909              		@ sp needed
 910 01bc 5DF8047B 		ldr	r7, [sp], #4
 911              	.LCFI11:
 912              		.cfi_restore 7
 913              		.cfi_def_cfa_offset 0
 914 01c0 7047     		bx	lr
 915              	.L49:
 916 01c2 00BF     		.align	2
 917              	.L48:
 918 01c4 00380140 		.word	1073821696
 919 01c8 00000240 		.word	1073872896
 920 01cc 00040240 		.word	1073873920
 921 01d0 00080240 		.word	1073874944
 922 01d4 000C0240 		.word	1073875968
 923 01d8 00100240 		.word	1073876992
 924 01dc 00140240 		.word	1073878016
 925 01e0 00180240 		.word	1073879040
 926 01e4 003C0140 		.word	1073822720
 927              		.cfi_endproc
 928              	.LFE131:
 930              		.section	.text.HAL_GPIO_ReadPin,"ax",%progbits
 931              		.align	1
 932              		.global	HAL_GPIO_ReadPin
 933              		.syntax unified
 934              		.thumb
 935              		.thumb_func
 936              		.fpu fpv4-sp-d16
 938              	HAL_GPIO_ReadPin:
 939              	.LFB132:
 352:../../../../dependencies/stm/STM32F4_Cube/Drivers/STM32F4xx_HAL_Driver/Src/stm32f4xx_hal_gpio.c **** 
 353:../../../../dependencies/stm/STM32F4_Cube/Drivers/STM32F4xx_HAL_Driver/Src/stm32f4xx_hal_gpio.c **** /**
 354:../../../../dependencies/stm/STM32F4_Cube/Drivers/STM32F4xx_HAL_Driver/Src/stm32f4xx_hal_gpio.c ****   * @}
 355:../../../../dependencies/stm/STM32F4_Cube/Drivers/STM32F4xx_HAL_Driver/Src/stm32f4xx_hal_gpio.c ****   */
 356:../../../../dependencies/stm/STM32F4_Cube/Drivers/STM32F4xx_HAL_Driver/Src/stm32f4xx_hal_gpio.c **** 
 357:../../../../dependencies/stm/STM32F4_Cube/Drivers/STM32F4xx_HAL_Driver/Src/stm32f4xx_hal_gpio.c **** /** @defgroup GPIO_Exported_Functions_Group2 IO operation functions 
 358:../../../../dependencies/stm/STM32F4_Cube/Drivers/STM32F4xx_HAL_Driver/Src/stm32f4xx_hal_gpio.c ****   *  @brief   GPIO Read and Write
 359:../../../../dependencies/stm/STM32F4_Cube/Drivers/STM32F4xx_HAL_Driver/Src/stm32f4xx_hal_gpio.c ****   *
 360:../../../../dependencies/stm/STM32F4_Cube/Drivers/STM32F4xx_HAL_Driver/Src/stm32f4xx_hal_gpio.c **** @verbatim
 361:../../../../dependencies/stm/STM32F4_Cube/Drivers/STM32F4xx_HAL_Driver/Src/stm32f4xx_hal_gpio.c ****  ===============================================================================
 362:../../../../dependencies/stm/STM32F4_Cube/Drivers/STM32F4xx_HAL_Driver/Src/stm32f4xx_hal_gpio.c ****                        ##### IO operation functions #####
 363:../../../../dependencies/stm/STM32F4_Cube/Drivers/STM32F4xx_HAL_Driver/Src/stm32f4xx_hal_gpio.c ****  ===============================================================================
 364:../../../../dependencies/stm/STM32F4_Cube/Drivers/STM32F4xx_HAL_Driver/Src/stm32f4xx_hal_gpio.c **** 
 365:../../../../dependencies/stm/STM32F4_Cube/Drivers/STM32F4xx_HAL_Driver/Src/stm32f4xx_hal_gpio.c **** @endverbatim
 366:../../../../dependencies/stm/STM32F4_Cube/Drivers/STM32F4xx_HAL_Driver/Src/stm32f4xx_hal_gpio.c ****   * @{
 367:../../../../dependencies/stm/STM32F4_Cube/Drivers/STM32F4xx_HAL_Driver/Src/stm32f4xx_hal_gpio.c ****   */
 368:../../../../dependencies/stm/STM32F4_Cube/Drivers/STM32F4xx_HAL_Driver/Src/stm32f4xx_hal_gpio.c **** 
 369:../../../../dependencies/stm/STM32F4_Cube/Drivers/STM32F4xx_HAL_Driver/Src/stm32f4xx_hal_gpio.c **** /**
 370:../../../../dependencies/stm/STM32F4_Cube/Drivers/STM32F4xx_HAL_Driver/Src/stm32f4xx_hal_gpio.c ****   * @brief  Reads the specified input port pin.
 371:../../../../dependencies/stm/STM32F4_Cube/Drivers/STM32F4xx_HAL_Driver/Src/stm32f4xx_hal_gpio.c ****   * @param  GPIOx where x can be (A..K) to select the GPIO peripheral for STM32F429X device or
 372:../../../../dependencies/stm/STM32F4_Cube/Drivers/STM32F4xx_HAL_Driver/Src/stm32f4xx_hal_gpio.c ****   *                      x can be (A..I) to select the GPIO peripheral for STM32F40XX and STM32F427
ARM GAS  /var/folders/kj/yzqgq53j3dg15vgwwwwgf5s00000gn/T//ccz9mChi.s 			page 24


 373:../../../../dependencies/stm/STM32F4_Cube/Drivers/STM32F4xx_HAL_Driver/Src/stm32f4xx_hal_gpio.c ****   * @param  GPIO_Pin specifies the port bit to read.
 374:../../../../dependencies/stm/STM32F4_Cube/Drivers/STM32F4xx_HAL_Driver/Src/stm32f4xx_hal_gpio.c ****   *         This parameter can be GPIO_PIN_x where x can be (0..15).
 375:../../../../dependencies/stm/STM32F4_Cube/Drivers/STM32F4xx_HAL_Driver/Src/stm32f4xx_hal_gpio.c ****   * @retval The input port pin value.
 376:../../../../dependencies/stm/STM32F4_Cube/Drivers/STM32F4xx_HAL_Driver/Src/stm32f4xx_hal_gpio.c ****   */
 377:../../../../dependencies/stm/STM32F4_Cube/Drivers/STM32F4xx_HAL_Driver/Src/stm32f4xx_hal_gpio.c **** GPIO_PinState HAL_GPIO_ReadPin(GPIO_TypeDef* GPIOx, uint16_t GPIO_Pin)
 378:../../../../dependencies/stm/STM32F4_Cube/Drivers/STM32F4xx_HAL_Driver/Src/stm32f4xx_hal_gpio.c **** {
 940              		.loc 1 378 1
 941              		.cfi_startproc
 942              		@ args = 0, pretend = 0, frame = 16
 943              		@ frame_needed = 1, uses_anonymous_args = 0
 944              		@ link register save eliminated.
 945 0000 80B4     		push	{r7}
 946              	.LCFI12:
 947              		.cfi_def_cfa_offset 4
 948              		.cfi_offset 7, -4
 949 0002 85B0     		sub	sp, sp, #20
 950              	.LCFI13:
 951              		.cfi_def_cfa_offset 24
 952 0004 00AF     		add	r7, sp, #0
 953              	.LCFI14:
 954              		.cfi_def_cfa_register 7
 955 0006 7860     		str	r0, [r7, #4]
 956 0008 0B46     		mov	r3, r1
 957 000a 7B80     		strh	r3, [r7, #2]	@ movhi
 379:../../../../dependencies/stm/STM32F4_Cube/Drivers/STM32F4xx_HAL_Driver/Src/stm32f4xx_hal_gpio.c ****   GPIO_PinState bitstatus;
 380:../../../../dependencies/stm/STM32F4_Cube/Drivers/STM32F4xx_HAL_Driver/Src/stm32f4xx_hal_gpio.c **** 
 381:../../../../dependencies/stm/STM32F4_Cube/Drivers/STM32F4xx_HAL_Driver/Src/stm32f4xx_hal_gpio.c ****   /* Check the parameters */
 382:../../../../dependencies/stm/STM32F4_Cube/Drivers/STM32F4xx_HAL_Driver/Src/stm32f4xx_hal_gpio.c ****   assert_param(IS_GPIO_PIN(GPIO_Pin));
 383:../../../../dependencies/stm/STM32F4_Cube/Drivers/STM32F4xx_HAL_Driver/Src/stm32f4xx_hal_gpio.c **** 
 384:../../../../dependencies/stm/STM32F4_Cube/Drivers/STM32F4xx_HAL_Driver/Src/stm32f4xx_hal_gpio.c ****   if((GPIOx->IDR & GPIO_Pin) != (uint32_t)GPIO_PIN_RESET)
 958              		.loc 1 384 12
 959 000c 7B68     		ldr	r3, [r7, #4]
 960 000e 1A69     		ldr	r2, [r3, #16]
 961              		.loc 1 384 18
 962 0010 7B88     		ldrh	r3, [r7, #2]
 963 0012 1340     		ands	r3, r3, r2
 964              		.loc 1 384 5
 965 0014 002B     		cmp	r3, #0
 966 0016 02D0     		beq	.L51
 385:../../../../dependencies/stm/STM32F4_Cube/Drivers/STM32F4xx_HAL_Driver/Src/stm32f4xx_hal_gpio.c ****   {
 386:../../../../dependencies/stm/STM32F4_Cube/Drivers/STM32F4xx_HAL_Driver/Src/stm32f4xx_hal_gpio.c ****     bitstatus = GPIO_PIN_SET;
 967              		.loc 1 386 15
 968 0018 0123     		movs	r3, #1
 969 001a FB73     		strb	r3, [r7, #15]
 970 001c 01E0     		b	.L52
 971              	.L51:
 387:../../../../dependencies/stm/STM32F4_Cube/Drivers/STM32F4xx_HAL_Driver/Src/stm32f4xx_hal_gpio.c ****   }
 388:../../../../dependencies/stm/STM32F4_Cube/Drivers/STM32F4xx_HAL_Driver/Src/stm32f4xx_hal_gpio.c ****   else
 389:../../../../dependencies/stm/STM32F4_Cube/Drivers/STM32F4xx_HAL_Driver/Src/stm32f4xx_hal_gpio.c ****   {
 390:../../../../dependencies/stm/STM32F4_Cube/Drivers/STM32F4xx_HAL_Driver/Src/stm32f4xx_hal_gpio.c ****     bitstatus = GPIO_PIN_RESET;
 972              		.loc 1 390 15
 973 001e 0023     		movs	r3, #0
 974 0020 FB73     		strb	r3, [r7, #15]
 975              	.L52:
 391:../../../../dependencies/stm/STM32F4_Cube/Drivers/STM32F4xx_HAL_Driver/Src/stm32f4xx_hal_gpio.c ****   }
 392:../../../../dependencies/stm/STM32F4_Cube/Drivers/STM32F4xx_HAL_Driver/Src/stm32f4xx_hal_gpio.c ****   return bitstatus;
 976              		.loc 1 392 10
ARM GAS  /var/folders/kj/yzqgq53j3dg15vgwwwwgf5s00000gn/T//ccz9mChi.s 			page 25


 977 0022 FB7B     		ldrb	r3, [r7, #15]	@ zero_extendqisi2
 393:../../../../dependencies/stm/STM32F4_Cube/Drivers/STM32F4xx_HAL_Driver/Src/stm32f4xx_hal_gpio.c **** }
 978              		.loc 1 393 1
 979 0024 1846     		mov	r0, r3
 980 0026 1437     		adds	r7, r7, #20
 981              	.LCFI15:
 982              		.cfi_def_cfa_offset 4
 983 0028 BD46     		mov	sp, r7
 984              	.LCFI16:
 985              		.cfi_def_cfa_register 13
 986              		@ sp needed
 987 002a 5DF8047B 		ldr	r7, [sp], #4
 988              	.LCFI17:
 989              		.cfi_restore 7
 990              		.cfi_def_cfa_offset 0
 991 002e 7047     		bx	lr
 992              		.cfi_endproc
 993              	.LFE132:
 995              		.section	.text.HAL_GPIO_WritePin,"ax",%progbits
 996              		.align	1
 997              		.global	HAL_GPIO_WritePin
 998              		.syntax unified
 999              		.thumb
 1000              		.thumb_func
 1001              		.fpu fpv4-sp-d16
 1003              	HAL_GPIO_WritePin:
 1004              	.LFB133:
 394:../../../../dependencies/stm/STM32F4_Cube/Drivers/STM32F4xx_HAL_Driver/Src/stm32f4xx_hal_gpio.c **** 
 395:../../../../dependencies/stm/STM32F4_Cube/Drivers/STM32F4xx_HAL_Driver/Src/stm32f4xx_hal_gpio.c **** /**
 396:../../../../dependencies/stm/STM32F4_Cube/Drivers/STM32F4xx_HAL_Driver/Src/stm32f4xx_hal_gpio.c ****   * @brief  Sets or clears the selected data port bit.
 397:../../../../dependencies/stm/STM32F4_Cube/Drivers/STM32F4xx_HAL_Driver/Src/stm32f4xx_hal_gpio.c ****   *
 398:../../../../dependencies/stm/STM32F4_Cube/Drivers/STM32F4xx_HAL_Driver/Src/stm32f4xx_hal_gpio.c ****   * @note   This function uses GPIOx_BSRR register to allow atomic read/modify
 399:../../../../dependencies/stm/STM32F4_Cube/Drivers/STM32F4xx_HAL_Driver/Src/stm32f4xx_hal_gpio.c ****   *         accesses. In this way, there is no risk of an IRQ occurring between
 400:../../../../dependencies/stm/STM32F4_Cube/Drivers/STM32F4xx_HAL_Driver/Src/stm32f4xx_hal_gpio.c ****   *         the read and the modify access.
 401:../../../../dependencies/stm/STM32F4_Cube/Drivers/STM32F4xx_HAL_Driver/Src/stm32f4xx_hal_gpio.c ****   *
 402:../../../../dependencies/stm/STM32F4_Cube/Drivers/STM32F4xx_HAL_Driver/Src/stm32f4xx_hal_gpio.c ****   * @param  GPIOx where x can be (A..K) to select the GPIO peripheral for STM32F429X device or
 403:../../../../dependencies/stm/STM32F4_Cube/Drivers/STM32F4xx_HAL_Driver/Src/stm32f4xx_hal_gpio.c ****   *                      x can be (A..I) to select the GPIO peripheral for STM32F40XX and STM32F427
 404:../../../../dependencies/stm/STM32F4_Cube/Drivers/STM32F4xx_HAL_Driver/Src/stm32f4xx_hal_gpio.c ****   * @param  GPIO_Pin specifies the port bit to be written.
 405:../../../../dependencies/stm/STM32F4_Cube/Drivers/STM32F4xx_HAL_Driver/Src/stm32f4xx_hal_gpio.c ****   *          This parameter can be one of GPIO_PIN_x where x can be (0..15).
 406:../../../../dependencies/stm/STM32F4_Cube/Drivers/STM32F4xx_HAL_Driver/Src/stm32f4xx_hal_gpio.c ****   * @param  PinState specifies the value to be written to the selected bit.
 407:../../../../dependencies/stm/STM32F4_Cube/Drivers/STM32F4xx_HAL_Driver/Src/stm32f4xx_hal_gpio.c ****   *          This parameter can be one of the GPIO_PinState enum values:
 408:../../../../dependencies/stm/STM32F4_Cube/Drivers/STM32F4xx_HAL_Driver/Src/stm32f4xx_hal_gpio.c ****   *            @arg GPIO_PIN_RESET: to clear the port pin
 409:../../../../dependencies/stm/STM32F4_Cube/Drivers/STM32F4xx_HAL_Driver/Src/stm32f4xx_hal_gpio.c ****   *            @arg GPIO_PIN_SET: to set the port pin
 410:../../../../dependencies/stm/STM32F4_Cube/Drivers/STM32F4xx_HAL_Driver/Src/stm32f4xx_hal_gpio.c ****   * @retval None
 411:../../../../dependencies/stm/STM32F4_Cube/Drivers/STM32F4xx_HAL_Driver/Src/stm32f4xx_hal_gpio.c ****   */
 412:../../../../dependencies/stm/STM32F4_Cube/Drivers/STM32F4xx_HAL_Driver/Src/stm32f4xx_hal_gpio.c **** void HAL_GPIO_WritePin(GPIO_TypeDef* GPIOx, uint16_t GPIO_Pin, GPIO_PinState PinState)
 413:../../../../dependencies/stm/STM32F4_Cube/Drivers/STM32F4xx_HAL_Driver/Src/stm32f4xx_hal_gpio.c **** {
 1005              		.loc 1 413 1
 1006              		.cfi_startproc
 1007              		@ args = 0, pretend = 0, frame = 8
 1008              		@ frame_needed = 1, uses_anonymous_args = 0
 1009              		@ link register save eliminated.
 1010 0000 80B4     		push	{r7}
 1011              	.LCFI18:
 1012              		.cfi_def_cfa_offset 4
 1013              		.cfi_offset 7, -4
 1014 0002 83B0     		sub	sp, sp, #12
ARM GAS  /var/folders/kj/yzqgq53j3dg15vgwwwwgf5s00000gn/T//ccz9mChi.s 			page 26


 1015              	.LCFI19:
 1016              		.cfi_def_cfa_offset 16
 1017 0004 00AF     		add	r7, sp, #0
 1018              	.LCFI20:
 1019              		.cfi_def_cfa_register 7
 1020 0006 7860     		str	r0, [r7, #4]
 1021 0008 0B46     		mov	r3, r1
 1022 000a 7B80     		strh	r3, [r7, #2]	@ movhi
 1023 000c 1346     		mov	r3, r2
 1024 000e 7B70     		strb	r3, [r7, #1]
 414:../../../../dependencies/stm/STM32F4_Cube/Drivers/STM32F4xx_HAL_Driver/Src/stm32f4xx_hal_gpio.c ****   /* Check the parameters */
 415:../../../../dependencies/stm/STM32F4_Cube/Drivers/STM32F4xx_HAL_Driver/Src/stm32f4xx_hal_gpio.c ****   assert_param(IS_GPIO_PIN(GPIO_Pin));
 416:../../../../dependencies/stm/STM32F4_Cube/Drivers/STM32F4xx_HAL_Driver/Src/stm32f4xx_hal_gpio.c ****   assert_param(IS_GPIO_PIN_ACTION(PinState));
 417:../../../../dependencies/stm/STM32F4_Cube/Drivers/STM32F4xx_HAL_Driver/Src/stm32f4xx_hal_gpio.c **** 
 418:../../../../dependencies/stm/STM32F4_Cube/Drivers/STM32F4xx_HAL_Driver/Src/stm32f4xx_hal_gpio.c ****   if(PinState != GPIO_PIN_RESET)
 1025              		.loc 1 418 5
 1026 0010 7B78     		ldrb	r3, [r7, #1]	@ zero_extendqisi2
 1027 0012 002B     		cmp	r3, #0
 1028 0014 03D0     		beq	.L55
 419:../../../../dependencies/stm/STM32F4_Cube/Drivers/STM32F4xx_HAL_Driver/Src/stm32f4xx_hal_gpio.c ****   {
 420:../../../../dependencies/stm/STM32F4_Cube/Drivers/STM32F4xx_HAL_Driver/Src/stm32f4xx_hal_gpio.c ****     GPIOx->BSRR = GPIO_Pin;
 1029              		.loc 1 420 17
 1030 0016 7A88     		ldrh	r2, [r7, #2]
 1031 0018 7B68     		ldr	r3, [r7, #4]
 1032 001a 9A61     		str	r2, [r3, #24]
 421:../../../../dependencies/stm/STM32F4_Cube/Drivers/STM32F4xx_HAL_Driver/Src/stm32f4xx_hal_gpio.c ****   }
 422:../../../../dependencies/stm/STM32F4_Cube/Drivers/STM32F4xx_HAL_Driver/Src/stm32f4xx_hal_gpio.c ****   else
 423:../../../../dependencies/stm/STM32F4_Cube/Drivers/STM32F4xx_HAL_Driver/Src/stm32f4xx_hal_gpio.c ****   {
 424:../../../../dependencies/stm/STM32F4_Cube/Drivers/STM32F4xx_HAL_Driver/Src/stm32f4xx_hal_gpio.c ****     GPIOx->BSRR = (uint32_t)GPIO_Pin << 16U;
 425:../../../../dependencies/stm/STM32F4_Cube/Drivers/STM32F4xx_HAL_Driver/Src/stm32f4xx_hal_gpio.c ****   }
 426:../../../../dependencies/stm/STM32F4_Cube/Drivers/STM32F4xx_HAL_Driver/Src/stm32f4xx_hal_gpio.c **** }
 1033              		.loc 1 426 1
 1034 001c 03E0     		b	.L57
 1035              	.L55:
 424:../../../../dependencies/stm/STM32F4_Cube/Drivers/STM32F4xx_HAL_Driver/Src/stm32f4xx_hal_gpio.c ****   }
 1036              		.loc 1 424 19
 1037 001e 7B88     		ldrh	r3, [r7, #2]
 424:../../../../dependencies/stm/STM32F4_Cube/Drivers/STM32F4xx_HAL_Driver/Src/stm32f4xx_hal_gpio.c ****   }
 1038              		.loc 1 424 38
 1039 0020 1A04     		lsls	r2, r3, #16
 424:../../../../dependencies/stm/STM32F4_Cube/Drivers/STM32F4xx_HAL_Driver/Src/stm32f4xx_hal_gpio.c ****   }
 1040              		.loc 1 424 17
 1041 0022 7B68     		ldr	r3, [r7, #4]
 1042 0024 9A61     		str	r2, [r3, #24]
 1043              	.L57:
 1044              		.loc 1 426 1
 1045 0026 00BF     		nop
 1046 0028 0C37     		adds	r7, r7, #12
 1047              	.LCFI21:
 1048              		.cfi_def_cfa_offset 4
 1049 002a BD46     		mov	sp, r7
 1050              	.LCFI22:
 1051              		.cfi_def_cfa_register 13
 1052              		@ sp needed
 1053 002c 5DF8047B 		ldr	r7, [sp], #4
 1054              	.LCFI23:
 1055              		.cfi_restore 7
ARM GAS  /var/folders/kj/yzqgq53j3dg15vgwwwwgf5s00000gn/T//ccz9mChi.s 			page 27


 1056              		.cfi_def_cfa_offset 0
 1057 0030 7047     		bx	lr
 1058              		.cfi_endproc
 1059              	.LFE133:
 1061              		.section	.text.HAL_GPIO_TogglePin,"ax",%progbits
 1062              		.align	1
 1063              		.global	HAL_GPIO_TogglePin
 1064              		.syntax unified
 1065              		.thumb
 1066              		.thumb_func
 1067              		.fpu fpv4-sp-d16
 1069              	HAL_GPIO_TogglePin:
 1070              	.LFB134:
 427:../../../../dependencies/stm/STM32F4_Cube/Drivers/STM32F4xx_HAL_Driver/Src/stm32f4xx_hal_gpio.c **** 
 428:../../../../dependencies/stm/STM32F4_Cube/Drivers/STM32F4xx_HAL_Driver/Src/stm32f4xx_hal_gpio.c **** /**
 429:../../../../dependencies/stm/STM32F4_Cube/Drivers/STM32F4xx_HAL_Driver/Src/stm32f4xx_hal_gpio.c ****   * @brief  Toggles the specified GPIO pins.
 430:../../../../dependencies/stm/STM32F4_Cube/Drivers/STM32F4xx_HAL_Driver/Src/stm32f4xx_hal_gpio.c ****   * @param  GPIOx Where x can be (A..K) to select the GPIO peripheral for STM32F429X device or
 431:../../../../dependencies/stm/STM32F4_Cube/Drivers/STM32F4xx_HAL_Driver/Src/stm32f4xx_hal_gpio.c ****   *                      x can be (A..I) to select the GPIO peripheral for STM32F40XX and STM32F427
 432:../../../../dependencies/stm/STM32F4_Cube/Drivers/STM32F4xx_HAL_Driver/Src/stm32f4xx_hal_gpio.c ****   * @param  GPIO_Pin Specifies the pins to be toggled.
 433:../../../../dependencies/stm/STM32F4_Cube/Drivers/STM32F4xx_HAL_Driver/Src/stm32f4xx_hal_gpio.c ****   * @retval None
 434:../../../../dependencies/stm/STM32F4_Cube/Drivers/STM32F4xx_HAL_Driver/Src/stm32f4xx_hal_gpio.c ****   */
 435:../../../../dependencies/stm/STM32F4_Cube/Drivers/STM32F4xx_HAL_Driver/Src/stm32f4xx_hal_gpio.c **** void HAL_GPIO_TogglePin(GPIO_TypeDef* GPIOx, uint16_t GPIO_Pin)
 436:../../../../dependencies/stm/STM32F4_Cube/Drivers/STM32F4xx_HAL_Driver/Src/stm32f4xx_hal_gpio.c **** {
 1071              		.loc 1 436 1
 1072              		.cfi_startproc
 1073              		@ args = 0, pretend = 0, frame = 8
 1074              		@ frame_needed = 1, uses_anonymous_args = 0
 1075              		@ link register save eliminated.
 1076 0000 80B4     		push	{r7}
 1077              	.LCFI24:
 1078              		.cfi_def_cfa_offset 4
 1079              		.cfi_offset 7, -4
 1080 0002 83B0     		sub	sp, sp, #12
 1081              	.LCFI25:
 1082              		.cfi_def_cfa_offset 16
 1083 0004 00AF     		add	r7, sp, #0
 1084              	.LCFI26:
 1085              		.cfi_def_cfa_register 7
 1086 0006 7860     		str	r0, [r7, #4]
 1087 0008 0B46     		mov	r3, r1
 1088 000a 7B80     		strh	r3, [r7, #2]	@ movhi
 437:../../../../dependencies/stm/STM32F4_Cube/Drivers/STM32F4xx_HAL_Driver/Src/stm32f4xx_hal_gpio.c ****   /* Check the parameters */
 438:../../../../dependencies/stm/STM32F4_Cube/Drivers/STM32F4xx_HAL_Driver/Src/stm32f4xx_hal_gpio.c ****   assert_param(IS_GPIO_PIN(GPIO_Pin));
 439:../../../../dependencies/stm/STM32F4_Cube/Drivers/STM32F4xx_HAL_Driver/Src/stm32f4xx_hal_gpio.c **** 
 440:../../../../dependencies/stm/STM32F4_Cube/Drivers/STM32F4xx_HAL_Driver/Src/stm32f4xx_hal_gpio.c ****   if ((GPIOx->ODR & GPIO_Pin) == GPIO_Pin)
 1089              		.loc 1 440 13
 1090 000c 7B68     		ldr	r3, [r7, #4]
 1091 000e 5A69     		ldr	r2, [r3, #20]
 1092              		.loc 1 440 19
 1093 0010 7B88     		ldrh	r3, [r7, #2]
 1094 0012 1A40     		ands	r2, r2, r3
 1095              		.loc 1 440 31
 1096 0014 7B88     		ldrh	r3, [r7, #2]
 1097              		.loc 1 440 6
 1098 0016 9A42     		cmp	r2, r3
 1099 0018 04D1     		bne	.L59
 441:../../../../dependencies/stm/STM32F4_Cube/Drivers/STM32F4xx_HAL_Driver/Src/stm32f4xx_hal_gpio.c ****   {
ARM GAS  /var/folders/kj/yzqgq53j3dg15vgwwwwgf5s00000gn/T//ccz9mChi.s 			page 28


 442:../../../../dependencies/stm/STM32F4_Cube/Drivers/STM32F4xx_HAL_Driver/Src/stm32f4xx_hal_gpio.c ****     GPIOx->BSRR = (uint32_t)GPIO_Pin << GPIO_NUMBER;
 1100              		.loc 1 442 19
 1101 001a 7B88     		ldrh	r3, [r7, #2]
 1102              		.loc 1 442 38
 1103 001c 1A04     		lsls	r2, r3, #16
 1104              		.loc 1 442 17
 1105 001e 7B68     		ldr	r3, [r7, #4]
 1106 0020 9A61     		str	r2, [r3, #24]
 443:../../../../dependencies/stm/STM32F4_Cube/Drivers/STM32F4xx_HAL_Driver/Src/stm32f4xx_hal_gpio.c ****   }
 444:../../../../dependencies/stm/STM32F4_Cube/Drivers/STM32F4xx_HAL_Driver/Src/stm32f4xx_hal_gpio.c ****   else
 445:../../../../dependencies/stm/STM32F4_Cube/Drivers/STM32F4xx_HAL_Driver/Src/stm32f4xx_hal_gpio.c ****   {
 446:../../../../dependencies/stm/STM32F4_Cube/Drivers/STM32F4xx_HAL_Driver/Src/stm32f4xx_hal_gpio.c ****     GPIOx->BSRR = GPIO_Pin;
 447:../../../../dependencies/stm/STM32F4_Cube/Drivers/STM32F4xx_HAL_Driver/Src/stm32f4xx_hal_gpio.c ****   }
 448:../../../../dependencies/stm/STM32F4_Cube/Drivers/STM32F4xx_HAL_Driver/Src/stm32f4xx_hal_gpio.c **** }
 1107              		.loc 1 448 1
 1108 0022 02E0     		b	.L61
 1109              	.L59:
 446:../../../../dependencies/stm/STM32F4_Cube/Drivers/STM32F4xx_HAL_Driver/Src/stm32f4xx_hal_gpio.c ****   }
 1110              		.loc 1 446 17
 1111 0024 7A88     		ldrh	r2, [r7, #2]
 1112 0026 7B68     		ldr	r3, [r7, #4]
 1113 0028 9A61     		str	r2, [r3, #24]
 1114              	.L61:
 1115              		.loc 1 448 1
 1116 002a 00BF     		nop
 1117 002c 0C37     		adds	r7, r7, #12
 1118              	.LCFI27:
 1119              		.cfi_def_cfa_offset 4
 1120 002e BD46     		mov	sp, r7
 1121              	.LCFI28:
 1122              		.cfi_def_cfa_register 13
 1123              		@ sp needed
 1124 0030 5DF8047B 		ldr	r7, [sp], #4
 1125              	.LCFI29:
 1126              		.cfi_restore 7
 1127              		.cfi_def_cfa_offset 0
 1128 0034 7047     		bx	lr
 1129              		.cfi_endproc
 1130              	.LFE134:
 1132              		.section	.text.HAL_GPIO_LockPin,"ax",%progbits
 1133              		.align	1
 1134              		.global	HAL_GPIO_LockPin
 1135              		.syntax unified
 1136              		.thumb
 1137              		.thumb_func
 1138              		.fpu fpv4-sp-d16
 1140              	HAL_GPIO_LockPin:
 1141              	.LFB135:
 449:../../../../dependencies/stm/STM32F4_Cube/Drivers/STM32F4xx_HAL_Driver/Src/stm32f4xx_hal_gpio.c **** 
 450:../../../../dependencies/stm/STM32F4_Cube/Drivers/STM32F4xx_HAL_Driver/Src/stm32f4xx_hal_gpio.c **** /**
 451:../../../../dependencies/stm/STM32F4_Cube/Drivers/STM32F4xx_HAL_Driver/Src/stm32f4xx_hal_gpio.c ****   * @brief  Locks GPIO Pins configuration registers.
 452:../../../../dependencies/stm/STM32F4_Cube/Drivers/STM32F4xx_HAL_Driver/Src/stm32f4xx_hal_gpio.c ****   * @note   The locked registers are GPIOx_MODER, GPIOx_OTYPER, GPIOx_OSPEEDR,
 453:../../../../dependencies/stm/STM32F4_Cube/Drivers/STM32F4xx_HAL_Driver/Src/stm32f4xx_hal_gpio.c ****   *         GPIOx_PUPDR, GPIOx_AFRL and GPIOx_AFRH.
 454:../../../../dependencies/stm/STM32F4_Cube/Drivers/STM32F4xx_HAL_Driver/Src/stm32f4xx_hal_gpio.c ****   * @note   The configuration of the locked GPIO pins can no longer be modified
 455:../../../../dependencies/stm/STM32F4_Cube/Drivers/STM32F4xx_HAL_Driver/Src/stm32f4xx_hal_gpio.c ****   *         until the next reset.
 456:../../../../dependencies/stm/STM32F4_Cube/Drivers/STM32F4xx_HAL_Driver/Src/stm32f4xx_hal_gpio.c ****   * @param  GPIOx where x can be (A..F) to select the GPIO peripheral for STM32F4 family
 457:../../../../dependencies/stm/STM32F4_Cube/Drivers/STM32F4xx_HAL_Driver/Src/stm32f4xx_hal_gpio.c ****   * @param  GPIO_Pin specifies the port bit to be locked.
ARM GAS  /var/folders/kj/yzqgq53j3dg15vgwwwwgf5s00000gn/T//ccz9mChi.s 			page 29


 458:../../../../dependencies/stm/STM32F4_Cube/Drivers/STM32F4xx_HAL_Driver/Src/stm32f4xx_hal_gpio.c ****   *         This parameter can be any combination of GPIO_PIN_x where x can be (0..15).
 459:../../../../dependencies/stm/STM32F4_Cube/Drivers/STM32F4xx_HAL_Driver/Src/stm32f4xx_hal_gpio.c ****   * @retval None
 460:../../../../dependencies/stm/STM32F4_Cube/Drivers/STM32F4xx_HAL_Driver/Src/stm32f4xx_hal_gpio.c ****   */
 461:../../../../dependencies/stm/STM32F4_Cube/Drivers/STM32F4xx_HAL_Driver/Src/stm32f4xx_hal_gpio.c **** HAL_StatusTypeDef HAL_GPIO_LockPin(GPIO_TypeDef* GPIOx, uint16_t GPIO_Pin)
 462:../../../../dependencies/stm/STM32F4_Cube/Drivers/STM32F4xx_HAL_Driver/Src/stm32f4xx_hal_gpio.c **** {
 1142              		.loc 1 462 1
 1143              		.cfi_startproc
 1144              		@ args = 0, pretend = 0, frame = 16
 1145              		@ frame_needed = 1, uses_anonymous_args = 0
 1146              		@ link register save eliminated.
 1147 0000 80B4     		push	{r7}
 1148              	.LCFI30:
 1149              		.cfi_def_cfa_offset 4
 1150              		.cfi_offset 7, -4
 1151 0002 85B0     		sub	sp, sp, #20
 1152              	.LCFI31:
 1153              		.cfi_def_cfa_offset 24
 1154 0004 00AF     		add	r7, sp, #0
 1155              	.LCFI32:
 1156              		.cfi_def_cfa_register 7
 1157 0006 7860     		str	r0, [r7, #4]
 1158 0008 0B46     		mov	r3, r1
 1159 000a 7B80     		strh	r3, [r7, #2]	@ movhi
 463:../../../../dependencies/stm/STM32F4_Cube/Drivers/STM32F4xx_HAL_Driver/Src/stm32f4xx_hal_gpio.c ****   __IO uint32_t tmp = GPIO_LCKR_LCKK;
 1160              		.loc 1 463 17
 1161 000c 4FF48033 		mov	r3, #65536
 1162 0010 FB60     		str	r3, [r7, #12]
 464:../../../../dependencies/stm/STM32F4_Cube/Drivers/STM32F4xx_HAL_Driver/Src/stm32f4xx_hal_gpio.c **** 
 465:../../../../dependencies/stm/STM32F4_Cube/Drivers/STM32F4xx_HAL_Driver/Src/stm32f4xx_hal_gpio.c ****   /* Check the parameters */
 466:../../../../dependencies/stm/STM32F4_Cube/Drivers/STM32F4xx_HAL_Driver/Src/stm32f4xx_hal_gpio.c ****   assert_param(IS_GPIO_PIN(GPIO_Pin));
 467:../../../../dependencies/stm/STM32F4_Cube/Drivers/STM32F4xx_HAL_Driver/Src/stm32f4xx_hal_gpio.c **** 
 468:../../../../dependencies/stm/STM32F4_Cube/Drivers/STM32F4xx_HAL_Driver/Src/stm32f4xx_hal_gpio.c ****   /* Apply lock key write sequence */
 469:../../../../dependencies/stm/STM32F4_Cube/Drivers/STM32F4xx_HAL_Driver/Src/stm32f4xx_hal_gpio.c ****   tmp |= GPIO_Pin;
 1163              		.loc 1 469 7
 1164 0012 7A88     		ldrh	r2, [r7, #2]
 1165 0014 FB68     		ldr	r3, [r7, #12]
 1166 0016 1343     		orrs	r3, r3, r2
 1167 0018 FB60     		str	r3, [r7, #12]
 470:../../../../dependencies/stm/STM32F4_Cube/Drivers/STM32F4xx_HAL_Driver/Src/stm32f4xx_hal_gpio.c ****   /* Set LCKx bit(s): LCKK='1' + LCK[15-0] */
 471:../../../../dependencies/stm/STM32F4_Cube/Drivers/STM32F4xx_HAL_Driver/Src/stm32f4xx_hal_gpio.c ****   GPIOx->LCKR = tmp;
 1168              		.loc 1 471 15
 1169 001a FA68     		ldr	r2, [r7, #12]
 1170 001c 7B68     		ldr	r3, [r7, #4]
 1171 001e DA61     		str	r2, [r3, #28]
 472:../../../../dependencies/stm/STM32F4_Cube/Drivers/STM32F4xx_HAL_Driver/Src/stm32f4xx_hal_gpio.c ****   /* Reset LCKx bit(s): LCKK='0' + LCK[15-0] */
 473:../../../../dependencies/stm/STM32F4_Cube/Drivers/STM32F4xx_HAL_Driver/Src/stm32f4xx_hal_gpio.c ****   GPIOx->LCKR = GPIO_Pin;
 1172              		.loc 1 473 15
 1173 0020 7A88     		ldrh	r2, [r7, #2]
 1174 0022 7B68     		ldr	r3, [r7, #4]
 1175 0024 DA61     		str	r2, [r3, #28]
 474:../../../../dependencies/stm/STM32F4_Cube/Drivers/STM32F4xx_HAL_Driver/Src/stm32f4xx_hal_gpio.c ****   /* Set LCKx bit(s): LCKK='1' + LCK[15-0] */
 475:../../../../dependencies/stm/STM32F4_Cube/Drivers/STM32F4xx_HAL_Driver/Src/stm32f4xx_hal_gpio.c ****   GPIOx->LCKR = tmp;
 1176              		.loc 1 475 15
 1177 0026 FA68     		ldr	r2, [r7, #12]
 1178 0028 7B68     		ldr	r3, [r7, #4]
 1179 002a DA61     		str	r2, [r3, #28]
 476:../../../../dependencies/stm/STM32F4_Cube/Drivers/STM32F4xx_HAL_Driver/Src/stm32f4xx_hal_gpio.c ****   /* Read LCKR register. This read is mandatory to complete key lock sequence */
ARM GAS  /var/folders/kj/yzqgq53j3dg15vgwwwwgf5s00000gn/T//ccz9mChi.s 			page 30


 477:../../../../dependencies/stm/STM32F4_Cube/Drivers/STM32F4xx_HAL_Driver/Src/stm32f4xx_hal_gpio.c ****   tmp = GPIOx->LCKR;
 1180              		.loc 1 477 14
 1181 002c 7B68     		ldr	r3, [r7, #4]
 1182 002e DB69     		ldr	r3, [r3, #28]
 1183              		.loc 1 477 7
 1184 0030 FB60     		str	r3, [r7, #12]
 478:../../../../dependencies/stm/STM32F4_Cube/Drivers/STM32F4xx_HAL_Driver/Src/stm32f4xx_hal_gpio.c **** 
 479:../../../../dependencies/stm/STM32F4_Cube/Drivers/STM32F4xx_HAL_Driver/Src/stm32f4xx_hal_gpio.c ****   /* Read again in order to confirm lock is active */
 480:../../../../dependencies/stm/STM32F4_Cube/Drivers/STM32F4xx_HAL_Driver/Src/stm32f4xx_hal_gpio.c ****  if((GPIOx->LCKR & GPIO_LCKR_LCKK) != RESET)
 1185              		.loc 1 480 11
 1186 0032 7B68     		ldr	r3, [r7, #4]
 1187 0034 DB69     		ldr	r3, [r3, #28]
 1188              		.loc 1 480 18
 1189 0036 03F48033 		and	r3, r3, #65536
 1190              		.loc 1 480 4
 1191 003a 002B     		cmp	r3, #0
 1192 003c 01D0     		beq	.L63
 481:../../../../dependencies/stm/STM32F4_Cube/Drivers/STM32F4xx_HAL_Driver/Src/stm32f4xx_hal_gpio.c ****   {
 482:../../../../dependencies/stm/STM32F4_Cube/Drivers/STM32F4xx_HAL_Driver/Src/stm32f4xx_hal_gpio.c ****     return HAL_OK;
 1193              		.loc 1 482 12
 1194 003e 0023     		movs	r3, #0
 1195 0040 00E0     		b	.L64
 1196              	.L63:
 483:../../../../dependencies/stm/STM32F4_Cube/Drivers/STM32F4xx_HAL_Driver/Src/stm32f4xx_hal_gpio.c ****   }
 484:../../../../dependencies/stm/STM32F4_Cube/Drivers/STM32F4xx_HAL_Driver/Src/stm32f4xx_hal_gpio.c ****   else
 485:../../../../dependencies/stm/STM32F4_Cube/Drivers/STM32F4xx_HAL_Driver/Src/stm32f4xx_hal_gpio.c ****   {
 486:../../../../dependencies/stm/STM32F4_Cube/Drivers/STM32F4xx_HAL_Driver/Src/stm32f4xx_hal_gpio.c ****     return HAL_ERROR;
 1197              		.loc 1 486 12
 1198 0042 0123     		movs	r3, #1
 1199              	.L64:
 487:../../../../dependencies/stm/STM32F4_Cube/Drivers/STM32F4xx_HAL_Driver/Src/stm32f4xx_hal_gpio.c ****   }
 488:../../../../dependencies/stm/STM32F4_Cube/Drivers/STM32F4xx_HAL_Driver/Src/stm32f4xx_hal_gpio.c **** }
 1200              		.loc 1 488 1
 1201 0044 1846     		mov	r0, r3
 1202 0046 1437     		adds	r7, r7, #20
 1203              	.LCFI33:
 1204              		.cfi_def_cfa_offset 4
 1205 0048 BD46     		mov	sp, r7
 1206              	.LCFI34:
 1207              		.cfi_def_cfa_register 13
 1208              		@ sp needed
 1209 004a 5DF8047B 		ldr	r7, [sp], #4
 1210              	.LCFI35:
 1211              		.cfi_restore 7
 1212              		.cfi_def_cfa_offset 0
 1213 004e 7047     		bx	lr
 1214              		.cfi_endproc
 1215              	.LFE135:
 1217              		.section	.text.HAL_GPIO_EXTI_IRQHandler,"ax",%progbits
 1218              		.align	1
 1219              		.global	HAL_GPIO_EXTI_IRQHandler
 1220              		.syntax unified
 1221              		.thumb
 1222              		.thumb_func
 1223              		.fpu fpv4-sp-d16
 1225              	HAL_GPIO_EXTI_IRQHandler:
 1226              	.LFB136:
ARM GAS  /var/folders/kj/yzqgq53j3dg15vgwwwwgf5s00000gn/T//ccz9mChi.s 			page 31


 489:../../../../dependencies/stm/STM32F4_Cube/Drivers/STM32F4xx_HAL_Driver/Src/stm32f4xx_hal_gpio.c **** 
 490:../../../../dependencies/stm/STM32F4_Cube/Drivers/STM32F4xx_HAL_Driver/Src/stm32f4xx_hal_gpio.c **** /**
 491:../../../../dependencies/stm/STM32F4_Cube/Drivers/STM32F4xx_HAL_Driver/Src/stm32f4xx_hal_gpio.c ****   * @brief  This function handles EXTI interrupt request.
 492:../../../../dependencies/stm/STM32F4_Cube/Drivers/STM32F4xx_HAL_Driver/Src/stm32f4xx_hal_gpio.c ****   * @param  GPIO_Pin Specifies the pins connected EXTI line
 493:../../../../dependencies/stm/STM32F4_Cube/Drivers/STM32F4xx_HAL_Driver/Src/stm32f4xx_hal_gpio.c ****   * @retval None
 494:../../../../dependencies/stm/STM32F4_Cube/Drivers/STM32F4xx_HAL_Driver/Src/stm32f4xx_hal_gpio.c ****   */
 495:../../../../dependencies/stm/STM32F4_Cube/Drivers/STM32F4xx_HAL_Driver/Src/stm32f4xx_hal_gpio.c **** void HAL_GPIO_EXTI_IRQHandler(uint16_t GPIO_Pin)
 496:../../../../dependencies/stm/STM32F4_Cube/Drivers/STM32F4xx_HAL_Driver/Src/stm32f4xx_hal_gpio.c **** {
 1227              		.loc 1 496 1
 1228              		.cfi_startproc
 1229              		@ args = 0, pretend = 0, frame = 8
 1230              		@ frame_needed = 1, uses_anonymous_args = 0
 1231 0000 80B5     		push	{r7, lr}
 1232              	.LCFI36:
 1233              		.cfi_def_cfa_offset 8
 1234              		.cfi_offset 7, -8
 1235              		.cfi_offset 14, -4
 1236 0002 82B0     		sub	sp, sp, #8
 1237              	.LCFI37:
 1238              		.cfi_def_cfa_offset 16
 1239 0004 00AF     		add	r7, sp, #0
 1240              	.LCFI38:
 1241              		.cfi_def_cfa_register 7
 1242 0006 0346     		mov	r3, r0
 1243 0008 FB80     		strh	r3, [r7, #6]	@ movhi
 497:../../../../dependencies/stm/STM32F4_Cube/Drivers/STM32F4xx_HAL_Driver/Src/stm32f4xx_hal_gpio.c ****   /* EXTI line interrupt detected */
 498:../../../../dependencies/stm/STM32F4_Cube/Drivers/STM32F4xx_HAL_Driver/Src/stm32f4xx_hal_gpio.c ****   if(__HAL_GPIO_EXTI_GET_IT(GPIO_Pin) != RESET)
 1244              		.loc 1 498 6
 1245 000a 084B     		ldr	r3, .L68
 1246 000c 5A69     		ldr	r2, [r3, #20]
 1247 000e FB88     		ldrh	r3, [r7, #6]
 1248 0010 1340     		ands	r3, r3, r2
 1249              		.loc 1 498 5
 1250 0012 002B     		cmp	r3, #0
 1251 0014 06D0     		beq	.L67
 499:../../../../dependencies/stm/STM32F4_Cube/Drivers/STM32F4xx_HAL_Driver/Src/stm32f4xx_hal_gpio.c ****   {
 500:../../../../dependencies/stm/STM32F4_Cube/Drivers/STM32F4xx_HAL_Driver/Src/stm32f4xx_hal_gpio.c ****     __HAL_GPIO_EXTI_CLEAR_IT(GPIO_Pin);
 1252              		.loc 1 500 5
 1253 0016 054A     		ldr	r2, .L68
 1254 0018 FB88     		ldrh	r3, [r7, #6]
 1255 001a 5361     		str	r3, [r2, #20]
 501:../../../../dependencies/stm/STM32F4_Cube/Drivers/STM32F4xx_HAL_Driver/Src/stm32f4xx_hal_gpio.c ****     HAL_GPIO_EXTI_Callback(GPIO_Pin);
 1256              		.loc 1 501 5
 1257 001c FB88     		ldrh	r3, [r7, #6]
 1258 001e 1846     		mov	r0, r3
 1259 0020 FFF7FEFF 		bl	HAL_GPIO_EXTI_Callback
 1260              	.L67:
 502:../../../../dependencies/stm/STM32F4_Cube/Drivers/STM32F4xx_HAL_Driver/Src/stm32f4xx_hal_gpio.c ****   }
 503:../../../../dependencies/stm/STM32F4_Cube/Drivers/STM32F4xx_HAL_Driver/Src/stm32f4xx_hal_gpio.c **** }
 1261              		.loc 1 503 1
 1262 0024 00BF     		nop
 1263 0026 0837     		adds	r7, r7, #8
 1264              	.LCFI39:
 1265              		.cfi_def_cfa_offset 8
 1266 0028 BD46     		mov	sp, r7
 1267              	.LCFI40:
 1268              		.cfi_def_cfa_register 13
ARM GAS  /var/folders/kj/yzqgq53j3dg15vgwwwwgf5s00000gn/T//ccz9mChi.s 			page 32


 1269              		@ sp needed
 1270 002a 80BD     		pop	{r7, pc}
 1271              	.L69:
 1272              		.align	2
 1273              	.L68:
 1274 002c 003C0140 		.word	1073822720
 1275              		.cfi_endproc
 1276              	.LFE136:
 1278              		.section	.text.HAL_GPIO_EXTI_Callback,"ax",%progbits
 1279              		.align	1
 1280              		.weak	HAL_GPIO_EXTI_Callback
 1281              		.syntax unified
 1282              		.thumb
 1283              		.thumb_func
 1284              		.fpu fpv4-sp-d16
 1286              	HAL_GPIO_EXTI_Callback:
 1287              	.LFB137:
 504:../../../../dependencies/stm/STM32F4_Cube/Drivers/STM32F4xx_HAL_Driver/Src/stm32f4xx_hal_gpio.c **** 
 505:../../../../dependencies/stm/STM32F4_Cube/Drivers/STM32F4xx_HAL_Driver/Src/stm32f4xx_hal_gpio.c **** /**
 506:../../../../dependencies/stm/STM32F4_Cube/Drivers/STM32F4xx_HAL_Driver/Src/stm32f4xx_hal_gpio.c ****   * @brief  EXTI line detection callbacks.
 507:../../../../dependencies/stm/STM32F4_Cube/Drivers/STM32F4xx_HAL_Driver/Src/stm32f4xx_hal_gpio.c ****   * @param  GPIO_Pin Specifies the pins connected EXTI line
 508:../../../../dependencies/stm/STM32F4_Cube/Drivers/STM32F4xx_HAL_Driver/Src/stm32f4xx_hal_gpio.c ****   * @retval None
 509:../../../../dependencies/stm/STM32F4_Cube/Drivers/STM32F4xx_HAL_Driver/Src/stm32f4xx_hal_gpio.c ****   */
 510:../../../../dependencies/stm/STM32F4_Cube/Drivers/STM32F4xx_HAL_Driver/Src/stm32f4xx_hal_gpio.c **** __weak void HAL_GPIO_EXTI_Callback(uint16_t GPIO_Pin)
 511:../../../../dependencies/stm/STM32F4_Cube/Drivers/STM32F4xx_HAL_Driver/Src/stm32f4xx_hal_gpio.c **** {
 1288              		.loc 1 511 1
 1289              		.cfi_startproc
 1290              		@ args = 0, pretend = 0, frame = 8
 1291              		@ frame_needed = 1, uses_anonymous_args = 0
 1292              		@ link register save eliminated.
 1293 0000 80B4     		push	{r7}
 1294              	.LCFI41:
 1295              		.cfi_def_cfa_offset 4
 1296              		.cfi_offset 7, -4
 1297 0002 83B0     		sub	sp, sp, #12
 1298              	.LCFI42:
 1299              		.cfi_def_cfa_offset 16
 1300 0004 00AF     		add	r7, sp, #0
 1301              	.LCFI43:
 1302              		.cfi_def_cfa_register 7
 1303 0006 0346     		mov	r3, r0
 1304 0008 FB80     		strh	r3, [r7, #6]	@ movhi
 512:../../../../dependencies/stm/STM32F4_Cube/Drivers/STM32F4xx_HAL_Driver/Src/stm32f4xx_hal_gpio.c ****   /* Prevent unused argument(s) compilation warning */
 513:../../../../dependencies/stm/STM32F4_Cube/Drivers/STM32F4xx_HAL_Driver/Src/stm32f4xx_hal_gpio.c ****   UNUSED(GPIO_Pin);
 514:../../../../dependencies/stm/STM32F4_Cube/Drivers/STM32F4xx_HAL_Driver/Src/stm32f4xx_hal_gpio.c ****   /* NOTE: This function Should not be modified, when the callback is needed,
 515:../../../../dependencies/stm/STM32F4_Cube/Drivers/STM32F4xx_HAL_Driver/Src/stm32f4xx_hal_gpio.c ****            the HAL_GPIO_EXTI_Callback could be implemented in the user file
 516:../../../../dependencies/stm/STM32F4_Cube/Drivers/STM32F4xx_HAL_Driver/Src/stm32f4xx_hal_gpio.c ****    */
 517:../../../../dependencies/stm/STM32F4_Cube/Drivers/STM32F4xx_HAL_Driver/Src/stm32f4xx_hal_gpio.c **** }
 1305              		.loc 1 517 1
 1306 000a 00BF     		nop
 1307 000c 0C37     		adds	r7, r7, #12
 1308              	.LCFI44:
 1309              		.cfi_def_cfa_offset 4
 1310 000e BD46     		mov	sp, r7
 1311              	.LCFI45:
 1312              		.cfi_def_cfa_register 13
 1313              		@ sp needed
ARM GAS  /var/folders/kj/yzqgq53j3dg15vgwwwwgf5s00000gn/T//ccz9mChi.s 			page 33


 1314 0010 5DF8047B 		ldr	r7, [sp], #4
 1315              	.LCFI46:
 1316              		.cfi_restore 7
 1317              		.cfi_def_cfa_offset 0
 1318 0014 7047     		bx	lr
 1319              		.cfi_endproc
 1320              	.LFE137:
 1322              		.text
 1323              	.Letext0:
 1324              		.file 2 "/usr/local/Caskroom/gcc-arm-embedded/9-2020-q2-update/gcc-arm-none-eabi-9-2020-q2-update/
 1325              		.file 3 "/usr/local/Caskroom/gcc-arm-embedded/9-2020-q2-update/gcc-arm-none-eabi-9-2020-q2-update/
 1326              		.file 4 "../../../../dependencies/stm/STM32F4_Cube/Drivers/CMSIS/Include/core_cm4.h"
 1327              		.file 5 "../../../../dependencies/stm/STM32F4_Cube/Drivers/CMSIS/Device/ST/STM32F4xx/Include/syste
 1328              		.file 6 "../../../../dependencies/stm/STM32F4_Cube/Drivers/CMSIS/Device/ST/STM32F4xx/Include/stm32
 1329              		.file 7 "../../../../dependencies/stm/STM32F4_Cube/Drivers/CMSIS/Device/ST/STM32F4xx/Include/stm32
 1330              		.file 8 "../../../../dependencies/stm/STM32F4_Cube/Drivers/STM32F4xx_HAL_Driver/Inc/stm32f4xx_hal_
 1331              		.file 9 "../../../../dependencies/stm/STM32F4_Cube/Drivers/STM32F4xx_HAL_Driver/Inc/stm32f4xx_hal_
 1332              		.file 10 "../../../../dependencies/stm/STM32F4_Cube/Drivers/STM32F4xx_HAL_Driver/Inc/stm32f4xx_hal
ARM GAS  /var/folders/kj/yzqgq53j3dg15vgwwwwgf5s00000gn/T//ccz9mChi.s 			page 34

