ARM GAS  /var/folders/kj/yzqgq53j3dg15vgwwwwgf5s00000gn/T//ccSjr9dy.s 			page 1


   1              		.cpu cortex-m4
   2              		.eabi_attribute 27, 1
   3              		.eabi_attribute 28, 1
   4              		.eabi_attribute 20, 1
   5              		.eabi_attribute 21, 1
   6              		.eabi_attribute 23, 3
   7              		.eabi_attribute 24, 1
   8              		.eabi_attribute 25, 1
   9              		.eabi_attribute 26, 1
  10              		.eabi_attribute 30, 6
  11              		.eabi_attribute 34, 1
  12              		.eabi_attribute 18, 4
  13              		.file	"stream_buffer.c"
  14              		.text
  15              	.Ltext0:
  16              		.cfi_sections	.debug_frame
  17              		.section	.text.xStreamBufferGenericCreate,"ax",%progbits
  18              		.align	1
  19              		.global	xStreamBufferGenericCreate
  20              		.arch armv7e-m
  21              		.syntax unified
  22              		.thumb
  23              		.thumb_func
  24              		.fpu fpv4-sp-d16
  26              	xStreamBufferGenericCreate:
  27              	.LFB5:
  28              		.file 1 "../../../../dependencies/freertos/FreeRTOSv10.4.1/FreeRTOS/Source/stream_buffer.c"
   1:../../../../dependencies/freertos/FreeRTOSv10.4.1/FreeRTOS/Source/stream_buffer.c **** /*
   2:../../../../dependencies/freertos/FreeRTOSv10.4.1/FreeRTOS/Source/stream_buffer.c ****  * FreeRTOS Kernel V10.4.1
   3:../../../../dependencies/freertos/FreeRTOSv10.4.1/FreeRTOS/Source/stream_buffer.c ****  * Copyright (C) 2020 Amazon.com, Inc. or its affiliates.  All Rights Reserved.
   4:../../../../dependencies/freertos/FreeRTOSv10.4.1/FreeRTOS/Source/stream_buffer.c ****  *
   5:../../../../dependencies/freertos/FreeRTOSv10.4.1/FreeRTOS/Source/stream_buffer.c ****  * Permission is hereby granted, free of charge, to any person obtaining a copy of
   6:../../../../dependencies/freertos/FreeRTOSv10.4.1/FreeRTOS/Source/stream_buffer.c ****  * this software and associated documentation files (the "Software"), to deal in
   7:../../../../dependencies/freertos/FreeRTOSv10.4.1/FreeRTOS/Source/stream_buffer.c ****  * the Software without restriction, including without limitation the rights to
   8:../../../../dependencies/freertos/FreeRTOSv10.4.1/FreeRTOS/Source/stream_buffer.c ****  * use, copy, modify, merge, publish, distribute, sublicense, and/or sell copies of
   9:../../../../dependencies/freertos/FreeRTOSv10.4.1/FreeRTOS/Source/stream_buffer.c ****  * the Software, and to permit persons to whom the Software is furnished to do so,
  10:../../../../dependencies/freertos/FreeRTOSv10.4.1/FreeRTOS/Source/stream_buffer.c ****  * subject to the following conditions:
  11:../../../../dependencies/freertos/FreeRTOSv10.4.1/FreeRTOS/Source/stream_buffer.c ****  *
  12:../../../../dependencies/freertos/FreeRTOSv10.4.1/FreeRTOS/Source/stream_buffer.c ****  * The above copyright notice and this permission notice shall be included in all
  13:../../../../dependencies/freertos/FreeRTOSv10.4.1/FreeRTOS/Source/stream_buffer.c ****  * copies or substantial portions of the Software.
  14:../../../../dependencies/freertos/FreeRTOSv10.4.1/FreeRTOS/Source/stream_buffer.c ****  *
  15:../../../../dependencies/freertos/FreeRTOSv10.4.1/FreeRTOS/Source/stream_buffer.c ****  * THE SOFTWARE IS PROVIDED "AS IS", WITHOUT WARRANTY OF ANY KIND, EXPRESS OR
  16:../../../../dependencies/freertos/FreeRTOSv10.4.1/FreeRTOS/Source/stream_buffer.c ****  * IMPLIED, INCLUDING BUT NOT LIMITED TO THE WARRANTIES OF MERCHANTABILITY, FITNESS
  17:../../../../dependencies/freertos/FreeRTOSv10.4.1/FreeRTOS/Source/stream_buffer.c ****  * FOR A PARTICULAR PURPOSE AND NONINFRINGEMENT. IN NO EVENT SHALL THE AUTHORS OR
  18:../../../../dependencies/freertos/FreeRTOSv10.4.1/FreeRTOS/Source/stream_buffer.c ****  * COPYRIGHT HOLDERS BE LIABLE FOR ANY CLAIM, DAMAGES OR OTHER LIABILITY, WHETHER
  19:../../../../dependencies/freertos/FreeRTOSv10.4.1/FreeRTOS/Source/stream_buffer.c ****  * IN AN ACTION OF CONTRACT, TORT OR OTHERWISE, ARISING FROM, OUT OF OR IN
  20:../../../../dependencies/freertos/FreeRTOSv10.4.1/FreeRTOS/Source/stream_buffer.c ****  * CONNECTION WITH THE SOFTWARE OR THE USE OR OTHER DEALINGS IN THE SOFTWARE.
  21:../../../../dependencies/freertos/FreeRTOSv10.4.1/FreeRTOS/Source/stream_buffer.c ****  *
  22:../../../../dependencies/freertos/FreeRTOSv10.4.1/FreeRTOS/Source/stream_buffer.c ****  * https://www.FreeRTOS.org
  23:../../../../dependencies/freertos/FreeRTOSv10.4.1/FreeRTOS/Source/stream_buffer.c ****  * https://github.com/FreeRTOS
  24:../../../../dependencies/freertos/FreeRTOSv10.4.1/FreeRTOS/Source/stream_buffer.c ****  *
  25:../../../../dependencies/freertos/FreeRTOSv10.4.1/FreeRTOS/Source/stream_buffer.c ****  */
  26:../../../../dependencies/freertos/FreeRTOSv10.4.1/FreeRTOS/Source/stream_buffer.c **** 
  27:../../../../dependencies/freertos/FreeRTOSv10.4.1/FreeRTOS/Source/stream_buffer.c **** /* Standard includes. */
  28:../../../../dependencies/freertos/FreeRTOSv10.4.1/FreeRTOS/Source/stream_buffer.c **** #include <stdint.h>
  29:../../../../dependencies/freertos/FreeRTOSv10.4.1/FreeRTOS/Source/stream_buffer.c **** #include <string.h>
  30:../../../../dependencies/freertos/FreeRTOSv10.4.1/FreeRTOS/Source/stream_buffer.c **** 
ARM GAS  /var/folders/kj/yzqgq53j3dg15vgwwwwgf5s00000gn/T//ccSjr9dy.s 			page 2


  31:../../../../dependencies/freertos/FreeRTOSv10.4.1/FreeRTOS/Source/stream_buffer.c **** /* Defining MPU_WRAPPERS_INCLUDED_FROM_API_FILE prevents task.h from redefining
  32:../../../../dependencies/freertos/FreeRTOSv10.4.1/FreeRTOS/Source/stream_buffer.c ****  * all the API functions to use the MPU wrappers.  That should only be done when
  33:../../../../dependencies/freertos/FreeRTOSv10.4.1/FreeRTOS/Source/stream_buffer.c ****  * task.h is included from an application file. */
  34:../../../../dependencies/freertos/FreeRTOSv10.4.1/FreeRTOS/Source/stream_buffer.c **** #define MPU_WRAPPERS_INCLUDED_FROM_API_FILE
  35:../../../../dependencies/freertos/FreeRTOSv10.4.1/FreeRTOS/Source/stream_buffer.c **** 
  36:../../../../dependencies/freertos/FreeRTOSv10.4.1/FreeRTOS/Source/stream_buffer.c **** /* FreeRTOS includes. */
  37:../../../../dependencies/freertos/FreeRTOSv10.4.1/FreeRTOS/Source/stream_buffer.c **** #include "FreeRTOS.h"
  38:../../../../dependencies/freertos/FreeRTOSv10.4.1/FreeRTOS/Source/stream_buffer.c **** #include "task.h"
  39:../../../../dependencies/freertos/FreeRTOSv10.4.1/FreeRTOS/Source/stream_buffer.c **** #include "stream_buffer.h"
  40:../../../../dependencies/freertos/FreeRTOSv10.4.1/FreeRTOS/Source/stream_buffer.c **** 
  41:../../../../dependencies/freertos/FreeRTOSv10.4.1/FreeRTOS/Source/stream_buffer.c **** #if ( configUSE_TASK_NOTIFICATIONS != 1 )
  42:../../../../dependencies/freertos/FreeRTOSv10.4.1/FreeRTOS/Source/stream_buffer.c ****     #error configUSE_TASK_NOTIFICATIONS must be set to 1 to build stream_buffer.c
  43:../../../../dependencies/freertos/FreeRTOSv10.4.1/FreeRTOS/Source/stream_buffer.c **** #endif
  44:../../../../dependencies/freertos/FreeRTOSv10.4.1/FreeRTOS/Source/stream_buffer.c **** 
  45:../../../../dependencies/freertos/FreeRTOSv10.4.1/FreeRTOS/Source/stream_buffer.c **** /* Lint e961, e9021 and e750 are suppressed as a MISRA exception justified
  46:../../../../dependencies/freertos/FreeRTOSv10.4.1/FreeRTOS/Source/stream_buffer.c ****  * because the MPU ports require MPU_WRAPPERS_INCLUDED_FROM_API_FILE to be defined
  47:../../../../dependencies/freertos/FreeRTOSv10.4.1/FreeRTOS/Source/stream_buffer.c ****  * for the header files above, but not in this file, in order to generate the
  48:../../../../dependencies/freertos/FreeRTOSv10.4.1/FreeRTOS/Source/stream_buffer.c ****  * correct privileged Vs unprivileged linkage and placement. */
  49:../../../../dependencies/freertos/FreeRTOSv10.4.1/FreeRTOS/Source/stream_buffer.c **** #undef MPU_WRAPPERS_INCLUDED_FROM_API_FILE /*lint !e961 !e750 !e9021. */
  50:../../../../dependencies/freertos/FreeRTOSv10.4.1/FreeRTOS/Source/stream_buffer.c **** 
  51:../../../../dependencies/freertos/FreeRTOSv10.4.1/FreeRTOS/Source/stream_buffer.c **** /* If the user has not provided application specific Rx notification macros,
  52:../../../../dependencies/freertos/FreeRTOSv10.4.1/FreeRTOS/Source/stream_buffer.c ****  * or #defined the notification macros away, them provide default implementations
  53:../../../../dependencies/freertos/FreeRTOSv10.4.1/FreeRTOS/Source/stream_buffer.c ****  * that uses task notifications. */
  54:../../../../dependencies/freertos/FreeRTOSv10.4.1/FreeRTOS/Source/stream_buffer.c **** /*lint -save -e9026 Function like macros allowed and needed here so they can be overridden. */
  55:../../../../dependencies/freertos/FreeRTOSv10.4.1/FreeRTOS/Source/stream_buffer.c **** #ifndef sbRECEIVE_COMPLETED
  56:../../../../dependencies/freertos/FreeRTOSv10.4.1/FreeRTOS/Source/stream_buffer.c ****     #define sbRECEIVE_COMPLETED( pxStreamBuffer )                         \
  57:../../../../dependencies/freertos/FreeRTOSv10.4.1/FreeRTOS/Source/stream_buffer.c ****     vTaskSuspendAll();                                                    \
  58:../../../../dependencies/freertos/FreeRTOSv10.4.1/FreeRTOS/Source/stream_buffer.c ****     {                                                                     \
  59:../../../../dependencies/freertos/FreeRTOSv10.4.1/FreeRTOS/Source/stream_buffer.c ****         if( ( pxStreamBuffer )->xTaskWaitingToSend != NULL )              \
  60:../../../../dependencies/freertos/FreeRTOSv10.4.1/FreeRTOS/Source/stream_buffer.c ****         {                                                                 \
  61:../../../../dependencies/freertos/FreeRTOSv10.4.1/FreeRTOS/Source/stream_buffer.c ****             ( void ) xTaskNotify( ( pxStreamBuffer )->xTaskWaitingToSend, \
  62:../../../../dependencies/freertos/FreeRTOSv10.4.1/FreeRTOS/Source/stream_buffer.c ****                                   ( uint32_t ) 0,                         \
  63:../../../../dependencies/freertos/FreeRTOSv10.4.1/FreeRTOS/Source/stream_buffer.c ****                                   eNoAction );                            \
  64:../../../../dependencies/freertos/FreeRTOSv10.4.1/FreeRTOS/Source/stream_buffer.c ****             ( pxStreamBuffer )->xTaskWaitingToSend = NULL;                \
  65:../../../../dependencies/freertos/FreeRTOSv10.4.1/FreeRTOS/Source/stream_buffer.c ****         }                                                                 \
  66:../../../../dependencies/freertos/FreeRTOSv10.4.1/FreeRTOS/Source/stream_buffer.c ****     }                                                                     \
  67:../../../../dependencies/freertos/FreeRTOSv10.4.1/FreeRTOS/Source/stream_buffer.c ****     ( void ) xTaskResumeAll();
  68:../../../../dependencies/freertos/FreeRTOSv10.4.1/FreeRTOS/Source/stream_buffer.c **** #endif /* sbRECEIVE_COMPLETED */
  69:../../../../dependencies/freertos/FreeRTOSv10.4.1/FreeRTOS/Source/stream_buffer.c **** 
  70:../../../../dependencies/freertos/FreeRTOSv10.4.1/FreeRTOS/Source/stream_buffer.c **** #ifndef sbRECEIVE_COMPLETED_FROM_ISR
  71:../../../../dependencies/freertos/FreeRTOSv10.4.1/FreeRTOS/Source/stream_buffer.c ****     #define sbRECEIVE_COMPLETED_FROM_ISR( pxStreamBuffer,                            \
  72:../../../../dependencies/freertos/FreeRTOSv10.4.1/FreeRTOS/Source/stream_buffer.c ****                                           pxHigherPriorityTaskWoken )                \
  73:../../../../dependencies/freertos/FreeRTOSv10.4.1/FreeRTOS/Source/stream_buffer.c ****     {                                                                                \
  74:../../../../dependencies/freertos/FreeRTOSv10.4.1/FreeRTOS/Source/stream_buffer.c ****         UBaseType_t uxSavedInterruptStatus;                                          \
  75:../../../../dependencies/freertos/FreeRTOSv10.4.1/FreeRTOS/Source/stream_buffer.c ****                                                                                      \
  76:../../../../dependencies/freertos/FreeRTOSv10.4.1/FreeRTOS/Source/stream_buffer.c ****         uxSavedInterruptStatus = ( UBaseType_t ) portSET_INTERRUPT_MASK_FROM_ISR();  \
  77:../../../../dependencies/freertos/FreeRTOSv10.4.1/FreeRTOS/Source/stream_buffer.c ****         {                                                                            \
  78:../../../../dependencies/freertos/FreeRTOSv10.4.1/FreeRTOS/Source/stream_buffer.c ****             if( ( pxStreamBuffer )->xTaskWaitingToSend != NULL )                     \
  79:../../../../dependencies/freertos/FreeRTOSv10.4.1/FreeRTOS/Source/stream_buffer.c ****             {                                                                        \
  80:../../../../dependencies/freertos/FreeRTOSv10.4.1/FreeRTOS/Source/stream_buffer.c ****                 ( void ) xTaskNotifyFromISR( ( pxStreamBuffer )->xTaskWaitingToSend, \
  81:../../../../dependencies/freertos/FreeRTOSv10.4.1/FreeRTOS/Source/stream_buffer.c ****                                              ( uint32_t ) 0,                         \
  82:../../../../dependencies/freertos/FreeRTOSv10.4.1/FreeRTOS/Source/stream_buffer.c ****                                              eNoAction,                              \
  83:../../../../dependencies/freertos/FreeRTOSv10.4.1/FreeRTOS/Source/stream_buffer.c ****                                              pxHigherPriorityTaskWoken );            \
  84:../../../../dependencies/freertos/FreeRTOSv10.4.1/FreeRTOS/Source/stream_buffer.c ****                 ( pxStreamBuffer )->xTaskWaitingToSend = NULL;                       \
  85:../../../../dependencies/freertos/FreeRTOSv10.4.1/FreeRTOS/Source/stream_buffer.c ****             }                                                                        \
  86:../../../../dependencies/freertos/FreeRTOSv10.4.1/FreeRTOS/Source/stream_buffer.c ****         }                                                                            \
  87:../../../../dependencies/freertos/FreeRTOSv10.4.1/FreeRTOS/Source/stream_buffer.c ****         portCLEAR_INTERRUPT_MASK_FROM_ISR( uxSavedInterruptStatus );                 \
ARM GAS  /var/folders/kj/yzqgq53j3dg15vgwwwwgf5s00000gn/T//ccSjr9dy.s 			page 3


  88:../../../../dependencies/freertos/FreeRTOSv10.4.1/FreeRTOS/Source/stream_buffer.c ****     }
  89:../../../../dependencies/freertos/FreeRTOSv10.4.1/FreeRTOS/Source/stream_buffer.c **** #endif /* sbRECEIVE_COMPLETED_FROM_ISR */
  90:../../../../dependencies/freertos/FreeRTOSv10.4.1/FreeRTOS/Source/stream_buffer.c **** 
  91:../../../../dependencies/freertos/FreeRTOSv10.4.1/FreeRTOS/Source/stream_buffer.c **** /* If the user has not provided an application specific Tx notification macro,
  92:../../../../dependencies/freertos/FreeRTOSv10.4.1/FreeRTOS/Source/stream_buffer.c ****  * or #defined the notification macro away, them provide a default implementation
  93:../../../../dependencies/freertos/FreeRTOSv10.4.1/FreeRTOS/Source/stream_buffer.c ****  * that uses task notifications. */
  94:../../../../dependencies/freertos/FreeRTOSv10.4.1/FreeRTOS/Source/stream_buffer.c **** #ifndef sbSEND_COMPLETED
  95:../../../../dependencies/freertos/FreeRTOSv10.4.1/FreeRTOS/Source/stream_buffer.c ****     #define sbSEND_COMPLETED( pxStreamBuffer )                               \
  96:../../../../dependencies/freertos/FreeRTOSv10.4.1/FreeRTOS/Source/stream_buffer.c ****     vTaskSuspendAll();                                                       \
  97:../../../../dependencies/freertos/FreeRTOSv10.4.1/FreeRTOS/Source/stream_buffer.c ****     {                                                                        \
  98:../../../../dependencies/freertos/FreeRTOSv10.4.1/FreeRTOS/Source/stream_buffer.c ****         if( ( pxStreamBuffer )->xTaskWaitingToReceive != NULL )              \
  99:../../../../dependencies/freertos/FreeRTOSv10.4.1/FreeRTOS/Source/stream_buffer.c ****         {                                                                    \
 100:../../../../dependencies/freertos/FreeRTOSv10.4.1/FreeRTOS/Source/stream_buffer.c ****             ( void ) xTaskNotify( ( pxStreamBuffer )->xTaskWaitingToReceive, \
 101:../../../../dependencies/freertos/FreeRTOSv10.4.1/FreeRTOS/Source/stream_buffer.c ****                                   ( uint32_t ) 0,                            \
 102:../../../../dependencies/freertos/FreeRTOSv10.4.1/FreeRTOS/Source/stream_buffer.c ****                                   eNoAction );                               \
 103:../../../../dependencies/freertos/FreeRTOSv10.4.1/FreeRTOS/Source/stream_buffer.c ****             ( pxStreamBuffer )->xTaskWaitingToReceive = NULL;                \
 104:../../../../dependencies/freertos/FreeRTOSv10.4.1/FreeRTOS/Source/stream_buffer.c ****         }                                                                    \
 105:../../../../dependencies/freertos/FreeRTOSv10.4.1/FreeRTOS/Source/stream_buffer.c ****     }                                                                        \
 106:../../../../dependencies/freertos/FreeRTOSv10.4.1/FreeRTOS/Source/stream_buffer.c ****     ( void ) xTaskResumeAll();
 107:../../../../dependencies/freertos/FreeRTOSv10.4.1/FreeRTOS/Source/stream_buffer.c **** #endif /* sbSEND_COMPLETED */
 108:../../../../dependencies/freertos/FreeRTOSv10.4.1/FreeRTOS/Source/stream_buffer.c **** 
 109:../../../../dependencies/freertos/FreeRTOSv10.4.1/FreeRTOS/Source/stream_buffer.c **** #ifndef sbSEND_COMPLETE_FROM_ISR
 110:../../../../dependencies/freertos/FreeRTOSv10.4.1/FreeRTOS/Source/stream_buffer.c ****     #define sbSEND_COMPLETE_FROM_ISR( pxStreamBuffer, pxHigherPriorityTaskWoken )       \
 111:../../../../dependencies/freertos/FreeRTOSv10.4.1/FreeRTOS/Source/stream_buffer.c ****     {                                                                                   \
 112:../../../../dependencies/freertos/FreeRTOSv10.4.1/FreeRTOS/Source/stream_buffer.c ****         UBaseType_t uxSavedInterruptStatus;                                             \
 113:../../../../dependencies/freertos/FreeRTOSv10.4.1/FreeRTOS/Source/stream_buffer.c ****                                                                                         \
 114:../../../../dependencies/freertos/FreeRTOSv10.4.1/FreeRTOS/Source/stream_buffer.c ****         uxSavedInterruptStatus = ( UBaseType_t ) portSET_INTERRUPT_MASK_FROM_ISR();     \
 115:../../../../dependencies/freertos/FreeRTOSv10.4.1/FreeRTOS/Source/stream_buffer.c ****         {                                                                               \
 116:../../../../dependencies/freertos/FreeRTOSv10.4.1/FreeRTOS/Source/stream_buffer.c ****             if( ( pxStreamBuffer )->xTaskWaitingToReceive != NULL )                     \
 117:../../../../dependencies/freertos/FreeRTOSv10.4.1/FreeRTOS/Source/stream_buffer.c ****             {                                                                           \
 118:../../../../dependencies/freertos/FreeRTOSv10.4.1/FreeRTOS/Source/stream_buffer.c ****                 ( void ) xTaskNotifyFromISR( ( pxStreamBuffer )->xTaskWaitingToReceive, \
 119:../../../../dependencies/freertos/FreeRTOSv10.4.1/FreeRTOS/Source/stream_buffer.c ****                                              ( uint32_t ) 0,                            \
 120:../../../../dependencies/freertos/FreeRTOSv10.4.1/FreeRTOS/Source/stream_buffer.c ****                                              eNoAction,                                 \
 121:../../../../dependencies/freertos/FreeRTOSv10.4.1/FreeRTOS/Source/stream_buffer.c ****                                              pxHigherPriorityTaskWoken );               \
 122:../../../../dependencies/freertos/FreeRTOSv10.4.1/FreeRTOS/Source/stream_buffer.c ****                 ( pxStreamBuffer )->xTaskWaitingToReceive = NULL;                       \
 123:../../../../dependencies/freertos/FreeRTOSv10.4.1/FreeRTOS/Source/stream_buffer.c ****             }                                                                           \
 124:../../../../dependencies/freertos/FreeRTOSv10.4.1/FreeRTOS/Source/stream_buffer.c ****         }                                                                               \
 125:../../../../dependencies/freertos/FreeRTOSv10.4.1/FreeRTOS/Source/stream_buffer.c ****         portCLEAR_INTERRUPT_MASK_FROM_ISR( uxSavedInterruptStatus );                    \
 126:../../../../dependencies/freertos/FreeRTOSv10.4.1/FreeRTOS/Source/stream_buffer.c ****     }
 127:../../../../dependencies/freertos/FreeRTOSv10.4.1/FreeRTOS/Source/stream_buffer.c **** #endif /* sbSEND_COMPLETE_FROM_ISR */
 128:../../../../dependencies/freertos/FreeRTOSv10.4.1/FreeRTOS/Source/stream_buffer.c **** /*lint -restore (9026) */
 129:../../../../dependencies/freertos/FreeRTOSv10.4.1/FreeRTOS/Source/stream_buffer.c **** 
 130:../../../../dependencies/freertos/FreeRTOSv10.4.1/FreeRTOS/Source/stream_buffer.c **** /* The number of bytes used to hold the length of a message in the buffer. */
 131:../../../../dependencies/freertos/FreeRTOSv10.4.1/FreeRTOS/Source/stream_buffer.c **** #define sbBYTES_TO_STORE_MESSAGE_LENGTH    ( sizeof( configMESSAGE_BUFFER_LENGTH_TYPE ) )
 132:../../../../dependencies/freertos/FreeRTOSv10.4.1/FreeRTOS/Source/stream_buffer.c **** 
 133:../../../../dependencies/freertos/FreeRTOSv10.4.1/FreeRTOS/Source/stream_buffer.c **** /* Bits stored in the ucFlags field of the stream buffer. */
 134:../../../../dependencies/freertos/FreeRTOSv10.4.1/FreeRTOS/Source/stream_buffer.c **** #define sbFLAGS_IS_MESSAGE_BUFFER          ( ( uint8_t ) 1 ) /* Set if the stream buffer was create
 135:../../../../dependencies/freertos/FreeRTOSv10.4.1/FreeRTOS/Source/stream_buffer.c **** #define sbFLAGS_IS_STATICALLY_ALLOCATED    ( ( uint8_t ) 2 ) /* Set if the stream buffer was create
 136:../../../../dependencies/freertos/FreeRTOSv10.4.1/FreeRTOS/Source/stream_buffer.c **** 
 137:../../../../dependencies/freertos/FreeRTOSv10.4.1/FreeRTOS/Source/stream_buffer.c **** /*-----------------------------------------------------------*/
 138:../../../../dependencies/freertos/FreeRTOSv10.4.1/FreeRTOS/Source/stream_buffer.c **** 
 139:../../../../dependencies/freertos/FreeRTOSv10.4.1/FreeRTOS/Source/stream_buffer.c **** /* Structure that hold state information on the buffer. */
 140:../../../../dependencies/freertos/FreeRTOSv10.4.1/FreeRTOS/Source/stream_buffer.c **** typedef struct StreamBufferDef_t                 /*lint !e9058 Style convention uses tag. */
 141:../../../../dependencies/freertos/FreeRTOSv10.4.1/FreeRTOS/Source/stream_buffer.c **** {
 142:../../../../dependencies/freertos/FreeRTOSv10.4.1/FreeRTOS/Source/stream_buffer.c ****     volatile size_t xTail;                       /* Index to the next item to read within the buffe
 143:../../../../dependencies/freertos/FreeRTOSv10.4.1/FreeRTOS/Source/stream_buffer.c ****     volatile size_t xHead;                       /* Index to the next item to write within the buff
 144:../../../../dependencies/freertos/FreeRTOSv10.4.1/FreeRTOS/Source/stream_buffer.c ****     size_t xLength;                              /* The length of the buffer pointed to by pucBuffe
ARM GAS  /var/folders/kj/yzqgq53j3dg15vgwwwwgf5s00000gn/T//ccSjr9dy.s 			page 4


 145:../../../../dependencies/freertos/FreeRTOSv10.4.1/FreeRTOS/Source/stream_buffer.c ****     size_t xTriggerLevelBytes;                   /* The number of bytes that must be in the stream 
 146:../../../../dependencies/freertos/FreeRTOSv10.4.1/FreeRTOS/Source/stream_buffer.c ****     volatile TaskHandle_t xTaskWaitingToReceive; /* Holds the handle of a task waiting for data, or
 147:../../../../dependencies/freertos/FreeRTOSv10.4.1/FreeRTOS/Source/stream_buffer.c ****     volatile TaskHandle_t xTaskWaitingToSend;    /* Holds the handle of a task waiting to send data
 148:../../../../dependencies/freertos/FreeRTOSv10.4.1/FreeRTOS/Source/stream_buffer.c ****     uint8_t * pucBuffer;                         /* Points to the buffer itself - that is - the RAM
 149:../../../../dependencies/freertos/FreeRTOSv10.4.1/FreeRTOS/Source/stream_buffer.c ****     uint8_t ucFlags;
 150:../../../../dependencies/freertos/FreeRTOSv10.4.1/FreeRTOS/Source/stream_buffer.c **** 
 151:../../../../dependencies/freertos/FreeRTOSv10.4.1/FreeRTOS/Source/stream_buffer.c ****     #if ( configUSE_TRACE_FACILITY == 1 )
 152:../../../../dependencies/freertos/FreeRTOSv10.4.1/FreeRTOS/Source/stream_buffer.c ****         UBaseType_t uxStreamBufferNumber; /* Used for tracing purposes. */
 153:../../../../dependencies/freertos/FreeRTOSv10.4.1/FreeRTOS/Source/stream_buffer.c ****     #endif
 154:../../../../dependencies/freertos/FreeRTOSv10.4.1/FreeRTOS/Source/stream_buffer.c **** } StreamBuffer_t;
 155:../../../../dependencies/freertos/FreeRTOSv10.4.1/FreeRTOS/Source/stream_buffer.c **** 
 156:../../../../dependencies/freertos/FreeRTOSv10.4.1/FreeRTOS/Source/stream_buffer.c **** /*
 157:../../../../dependencies/freertos/FreeRTOSv10.4.1/FreeRTOS/Source/stream_buffer.c ****  * The number of bytes available to be read from the buffer.
 158:../../../../dependencies/freertos/FreeRTOSv10.4.1/FreeRTOS/Source/stream_buffer.c ****  */
 159:../../../../dependencies/freertos/FreeRTOSv10.4.1/FreeRTOS/Source/stream_buffer.c **** static size_t prvBytesInBuffer( const StreamBuffer_t * const pxStreamBuffer ) PRIVILEGED_FUNCTION;
 160:../../../../dependencies/freertos/FreeRTOSv10.4.1/FreeRTOS/Source/stream_buffer.c **** 
 161:../../../../dependencies/freertos/FreeRTOSv10.4.1/FreeRTOS/Source/stream_buffer.c **** /*
 162:../../../../dependencies/freertos/FreeRTOSv10.4.1/FreeRTOS/Source/stream_buffer.c ****  * Add xCount bytes from pucData into the pxStreamBuffer message buffer.
 163:../../../../dependencies/freertos/FreeRTOSv10.4.1/FreeRTOS/Source/stream_buffer.c ****  * Returns the number of bytes written, which will either equal xCount in the
 164:../../../../dependencies/freertos/FreeRTOSv10.4.1/FreeRTOS/Source/stream_buffer.c ****  * success case, or 0 if there was not enough space in the buffer (in which case
 165:../../../../dependencies/freertos/FreeRTOSv10.4.1/FreeRTOS/Source/stream_buffer.c ****  * no data is written into the buffer).
 166:../../../../dependencies/freertos/FreeRTOSv10.4.1/FreeRTOS/Source/stream_buffer.c ****  */
 167:../../../../dependencies/freertos/FreeRTOSv10.4.1/FreeRTOS/Source/stream_buffer.c **** static size_t prvWriteBytesToBuffer( StreamBuffer_t * const pxStreamBuffer,
 168:../../../../dependencies/freertos/FreeRTOSv10.4.1/FreeRTOS/Source/stream_buffer.c ****                                      const uint8_t * pucData,
 169:../../../../dependencies/freertos/FreeRTOSv10.4.1/FreeRTOS/Source/stream_buffer.c ****                                      size_t xCount ) PRIVILEGED_FUNCTION;
 170:../../../../dependencies/freertos/FreeRTOSv10.4.1/FreeRTOS/Source/stream_buffer.c **** 
 171:../../../../dependencies/freertos/FreeRTOSv10.4.1/FreeRTOS/Source/stream_buffer.c **** /*
 172:../../../../dependencies/freertos/FreeRTOSv10.4.1/FreeRTOS/Source/stream_buffer.c ****  * If the stream buffer is being used as a message buffer, then reads an entire
 173:../../../../dependencies/freertos/FreeRTOSv10.4.1/FreeRTOS/Source/stream_buffer.c ****  * message out of the buffer.  If the stream buffer is being used as a stream
 174:../../../../dependencies/freertos/FreeRTOSv10.4.1/FreeRTOS/Source/stream_buffer.c ****  * buffer then read as many bytes as possible from the buffer.
 175:../../../../dependencies/freertos/FreeRTOSv10.4.1/FreeRTOS/Source/stream_buffer.c ****  * prvReadBytesFromBuffer() is called to actually extract the bytes from the
 176:../../../../dependencies/freertos/FreeRTOSv10.4.1/FreeRTOS/Source/stream_buffer.c ****  * buffer's data storage area.
 177:../../../../dependencies/freertos/FreeRTOSv10.4.1/FreeRTOS/Source/stream_buffer.c ****  */
 178:../../../../dependencies/freertos/FreeRTOSv10.4.1/FreeRTOS/Source/stream_buffer.c **** static size_t prvReadMessageFromBuffer( StreamBuffer_t * pxStreamBuffer,
 179:../../../../dependencies/freertos/FreeRTOSv10.4.1/FreeRTOS/Source/stream_buffer.c ****                                         void * pvRxData,
 180:../../../../dependencies/freertos/FreeRTOSv10.4.1/FreeRTOS/Source/stream_buffer.c ****                                         size_t xBufferLengthBytes,
 181:../../../../dependencies/freertos/FreeRTOSv10.4.1/FreeRTOS/Source/stream_buffer.c ****                                         size_t xBytesAvailable,
 182:../../../../dependencies/freertos/FreeRTOSv10.4.1/FreeRTOS/Source/stream_buffer.c ****                                         size_t xBytesToStoreMessageLength ) PRIVILEGED_FUNCTION;
 183:../../../../dependencies/freertos/FreeRTOSv10.4.1/FreeRTOS/Source/stream_buffer.c **** 
 184:../../../../dependencies/freertos/FreeRTOSv10.4.1/FreeRTOS/Source/stream_buffer.c **** /*
 185:../../../../dependencies/freertos/FreeRTOSv10.4.1/FreeRTOS/Source/stream_buffer.c ****  * If the stream buffer is being used as a message buffer, then writes an entire
 186:../../../../dependencies/freertos/FreeRTOSv10.4.1/FreeRTOS/Source/stream_buffer.c ****  * message to the buffer.  If the stream buffer is being used as a stream
 187:../../../../dependencies/freertos/FreeRTOSv10.4.1/FreeRTOS/Source/stream_buffer.c ****  * buffer then write as many bytes as possible to the buffer.
 188:../../../../dependencies/freertos/FreeRTOSv10.4.1/FreeRTOS/Source/stream_buffer.c ****  * prvWriteBytestoBuffer() is called to actually send the bytes to the buffer's
 189:../../../../dependencies/freertos/FreeRTOSv10.4.1/FreeRTOS/Source/stream_buffer.c ****  * data storage area.
 190:../../../../dependencies/freertos/FreeRTOSv10.4.1/FreeRTOS/Source/stream_buffer.c ****  */
 191:../../../../dependencies/freertos/FreeRTOSv10.4.1/FreeRTOS/Source/stream_buffer.c **** static size_t prvWriteMessageToBuffer( StreamBuffer_t * const pxStreamBuffer,
 192:../../../../dependencies/freertos/FreeRTOSv10.4.1/FreeRTOS/Source/stream_buffer.c ****                                        const void * pvTxData,
 193:../../../../dependencies/freertos/FreeRTOSv10.4.1/FreeRTOS/Source/stream_buffer.c ****                                        size_t xDataLengthBytes,
 194:../../../../dependencies/freertos/FreeRTOSv10.4.1/FreeRTOS/Source/stream_buffer.c ****                                        size_t xSpace,
 195:../../../../dependencies/freertos/FreeRTOSv10.4.1/FreeRTOS/Source/stream_buffer.c ****                                        size_t xRequiredSpace ) PRIVILEGED_FUNCTION;
 196:../../../../dependencies/freertos/FreeRTOSv10.4.1/FreeRTOS/Source/stream_buffer.c **** 
 197:../../../../dependencies/freertos/FreeRTOSv10.4.1/FreeRTOS/Source/stream_buffer.c **** /*
 198:../../../../dependencies/freertos/FreeRTOSv10.4.1/FreeRTOS/Source/stream_buffer.c ****  * Read xMaxCount bytes from the pxStreamBuffer message buffer and write them
 199:../../../../dependencies/freertos/FreeRTOSv10.4.1/FreeRTOS/Source/stream_buffer.c ****  * to pucData.
 200:../../../../dependencies/freertos/FreeRTOSv10.4.1/FreeRTOS/Source/stream_buffer.c ****  */
 201:../../../../dependencies/freertos/FreeRTOSv10.4.1/FreeRTOS/Source/stream_buffer.c **** static size_t prvReadBytesFromBuffer( StreamBuffer_t * pxStreamBuffer,
ARM GAS  /var/folders/kj/yzqgq53j3dg15vgwwwwgf5s00000gn/T//ccSjr9dy.s 			page 5


 202:../../../../dependencies/freertos/FreeRTOSv10.4.1/FreeRTOS/Source/stream_buffer.c ****                                       uint8_t * pucData,
 203:../../../../dependencies/freertos/FreeRTOSv10.4.1/FreeRTOS/Source/stream_buffer.c ****                                       size_t xMaxCount,
 204:../../../../dependencies/freertos/FreeRTOSv10.4.1/FreeRTOS/Source/stream_buffer.c ****                                       size_t xBytesAvailable ) PRIVILEGED_FUNCTION;
 205:../../../../dependencies/freertos/FreeRTOSv10.4.1/FreeRTOS/Source/stream_buffer.c **** 
 206:../../../../dependencies/freertos/FreeRTOSv10.4.1/FreeRTOS/Source/stream_buffer.c **** /*
 207:../../../../dependencies/freertos/FreeRTOSv10.4.1/FreeRTOS/Source/stream_buffer.c ****  * Called by both pxStreamBufferCreate() and pxStreamBufferCreateStatic() to
 208:../../../../dependencies/freertos/FreeRTOSv10.4.1/FreeRTOS/Source/stream_buffer.c ****  * initialise the members of the newly created stream buffer structure.
 209:../../../../dependencies/freertos/FreeRTOSv10.4.1/FreeRTOS/Source/stream_buffer.c ****  */
 210:../../../../dependencies/freertos/FreeRTOSv10.4.1/FreeRTOS/Source/stream_buffer.c **** static void prvInitialiseNewStreamBuffer( StreamBuffer_t * const pxStreamBuffer,
 211:../../../../dependencies/freertos/FreeRTOSv10.4.1/FreeRTOS/Source/stream_buffer.c ****                                           uint8_t * const pucBuffer,
 212:../../../../dependencies/freertos/FreeRTOSv10.4.1/FreeRTOS/Source/stream_buffer.c ****                                           size_t xBufferSizeBytes,
 213:../../../../dependencies/freertos/FreeRTOSv10.4.1/FreeRTOS/Source/stream_buffer.c ****                                           size_t xTriggerLevelBytes,
 214:../../../../dependencies/freertos/FreeRTOSv10.4.1/FreeRTOS/Source/stream_buffer.c ****                                           uint8_t ucFlags ) PRIVILEGED_FUNCTION;
 215:../../../../dependencies/freertos/FreeRTOSv10.4.1/FreeRTOS/Source/stream_buffer.c **** 
 216:../../../../dependencies/freertos/FreeRTOSv10.4.1/FreeRTOS/Source/stream_buffer.c **** /*-----------------------------------------------------------*/
 217:../../../../dependencies/freertos/FreeRTOSv10.4.1/FreeRTOS/Source/stream_buffer.c **** 
 218:../../../../dependencies/freertos/FreeRTOSv10.4.1/FreeRTOS/Source/stream_buffer.c **** #if ( configSUPPORT_DYNAMIC_ALLOCATION == 1 )
 219:../../../../dependencies/freertos/FreeRTOSv10.4.1/FreeRTOS/Source/stream_buffer.c **** 
 220:../../../../dependencies/freertos/FreeRTOSv10.4.1/FreeRTOS/Source/stream_buffer.c ****     StreamBufferHandle_t xStreamBufferGenericCreate( size_t xBufferSizeBytes,
 221:../../../../dependencies/freertos/FreeRTOSv10.4.1/FreeRTOS/Source/stream_buffer.c ****                                                      size_t xTriggerLevelBytes,
 222:../../../../dependencies/freertos/FreeRTOSv10.4.1/FreeRTOS/Source/stream_buffer.c ****                                                      BaseType_t xIsMessageBuffer )
 223:../../../../dependencies/freertos/FreeRTOSv10.4.1/FreeRTOS/Source/stream_buffer.c ****     {
  29              		.loc 1 223 5
  30              		.cfi_startproc
  31              		@ args = 0, pretend = 0, frame = 40
  32              		@ frame_needed = 1, uses_anonymous_args = 0
  33 0000 80B5     		push	{r7, lr}
  34              	.LCFI0:
  35              		.cfi_def_cfa_offset 8
  36              		.cfi_offset 7, -8
  37              		.cfi_offset 14, -4
  38 0002 8CB0     		sub	sp, sp, #48
  39              	.LCFI1:
  40              		.cfi_def_cfa_offset 56
  41 0004 02AF     		add	r7, sp, #8
  42              	.LCFI2:
  43              		.cfi_def_cfa 7, 48
  44 0006 F860     		str	r0, [r7, #12]
  45 0008 B960     		str	r1, [r7, #8]
  46 000a 7A60     		str	r2, [r7, #4]
 224:../../../../dependencies/freertos/FreeRTOSv10.4.1/FreeRTOS/Source/stream_buffer.c ****         uint8_t * pucAllocatedMemory;
 225:../../../../dependencies/freertos/FreeRTOSv10.4.1/FreeRTOS/Source/stream_buffer.c ****         uint8_t ucFlags;
 226:../../../../dependencies/freertos/FreeRTOSv10.4.1/FreeRTOS/Source/stream_buffer.c **** 
 227:../../../../dependencies/freertos/FreeRTOSv10.4.1/FreeRTOS/Source/stream_buffer.c ****         /* In case the stream buffer is going to be used as a message buffer
 228:../../../../dependencies/freertos/FreeRTOSv10.4.1/FreeRTOS/Source/stream_buffer.c ****          * (that is, it will hold discrete messages with a little meta data that
 229:../../../../dependencies/freertos/FreeRTOSv10.4.1/FreeRTOS/Source/stream_buffer.c ****          * says how big the next message is) check the buffer will be large enough
 230:../../../../dependencies/freertos/FreeRTOSv10.4.1/FreeRTOS/Source/stream_buffer.c ****          * to hold at least one message. */
 231:../../../../dependencies/freertos/FreeRTOSv10.4.1/FreeRTOS/Source/stream_buffer.c ****         if( xIsMessageBuffer == pdTRUE )
  47              		.loc 1 231 11
  48 000c 7B68     		ldr	r3, [r7, #4]
  49 000e 012B     		cmp	r3, #1
  50 0010 10D1     		bne	.L2
 232:../../../../dependencies/freertos/FreeRTOSv10.4.1/FreeRTOS/Source/stream_buffer.c ****         {
 233:../../../../dependencies/freertos/FreeRTOSv10.4.1/FreeRTOS/Source/stream_buffer.c ****             /* Is a message buffer but not statically allocated. */
 234:../../../../dependencies/freertos/FreeRTOSv10.4.1/FreeRTOS/Source/stream_buffer.c ****             ucFlags = sbFLAGS_IS_MESSAGE_BUFFER;
  51              		.loc 1 234 21
  52 0012 0123     		movs	r3, #1
ARM GAS  /var/folders/kj/yzqgq53j3dg15vgwwwwgf5s00000gn/T//ccSjr9dy.s 			page 6


  53 0014 87F82730 		strb	r3, [r7, #39]
 235:../../../../dependencies/freertos/FreeRTOSv10.4.1/FreeRTOS/Source/stream_buffer.c ****             configASSERT( xBufferSizeBytes > sbBYTES_TO_STORE_MESSAGE_LENGTH );
  54              		.loc 1 235 13
  55 0018 FB68     		ldr	r3, [r7, #12]
  56 001a 042B     		cmp	r3, #4
  57 001c 1BD8     		bhi	.L3
  58              	.LBB85:
  59              	.LBB86:
  60              		.file 2 "../../../../dependencies/freertos/FreeRTOSv10.4.1/FreeRTOS/Source/portable/GCC/ARM_CM4F/p
   1:../../../../dependencies/freertos/FreeRTOSv10.4.1/FreeRTOS/Source/portable/GCC/ARM_CM4F/portmacro.h **** /*
   2:../../../../dependencies/freertos/FreeRTOSv10.4.1/FreeRTOS/Source/portable/GCC/ARM_CM4F/portmacro.h ****  * FreeRTOS Kernel V10.4.1
   3:../../../../dependencies/freertos/FreeRTOSv10.4.1/FreeRTOS/Source/portable/GCC/ARM_CM4F/portmacro.h ****  * Copyright (C) 2020 Amazon.com, Inc. or its affiliates.  All Rights Reserved.
   4:../../../../dependencies/freertos/FreeRTOSv10.4.1/FreeRTOS/Source/portable/GCC/ARM_CM4F/portmacro.h ****  *
   5:../../../../dependencies/freertos/FreeRTOSv10.4.1/FreeRTOS/Source/portable/GCC/ARM_CM4F/portmacro.h ****  * Permission is hereby granted, free of charge, to any person obtaining a copy of
   6:../../../../dependencies/freertos/FreeRTOSv10.4.1/FreeRTOS/Source/portable/GCC/ARM_CM4F/portmacro.h ****  * this software and associated documentation files (the "Software"), to deal in
   7:../../../../dependencies/freertos/FreeRTOSv10.4.1/FreeRTOS/Source/portable/GCC/ARM_CM4F/portmacro.h ****  * the Software without restriction, including without limitation the rights to
   8:../../../../dependencies/freertos/FreeRTOSv10.4.1/FreeRTOS/Source/portable/GCC/ARM_CM4F/portmacro.h ****  * use, copy, modify, merge, publish, distribute, sublicense, and/or sell copies of
   9:../../../../dependencies/freertos/FreeRTOSv10.4.1/FreeRTOS/Source/portable/GCC/ARM_CM4F/portmacro.h ****  * the Software, and to permit persons to whom the Software is furnished to do so,
  10:../../../../dependencies/freertos/FreeRTOSv10.4.1/FreeRTOS/Source/portable/GCC/ARM_CM4F/portmacro.h ****  * subject to the following conditions:
  11:../../../../dependencies/freertos/FreeRTOSv10.4.1/FreeRTOS/Source/portable/GCC/ARM_CM4F/portmacro.h ****  *
  12:../../../../dependencies/freertos/FreeRTOSv10.4.1/FreeRTOS/Source/portable/GCC/ARM_CM4F/portmacro.h ****  * The above copyright notice and this permission notice shall be included in all
  13:../../../../dependencies/freertos/FreeRTOSv10.4.1/FreeRTOS/Source/portable/GCC/ARM_CM4F/portmacro.h ****  * copies or substantial portions of the Software.
  14:../../../../dependencies/freertos/FreeRTOSv10.4.1/FreeRTOS/Source/portable/GCC/ARM_CM4F/portmacro.h ****  *
  15:../../../../dependencies/freertos/FreeRTOSv10.4.1/FreeRTOS/Source/portable/GCC/ARM_CM4F/portmacro.h ****  * THE SOFTWARE IS PROVIDED "AS IS", WITHOUT WARRANTY OF ANY KIND, EXPRESS OR
  16:../../../../dependencies/freertos/FreeRTOSv10.4.1/FreeRTOS/Source/portable/GCC/ARM_CM4F/portmacro.h ****  * IMPLIED, INCLUDING BUT NOT LIMITED TO THE WARRANTIES OF MERCHANTABILITY, FITNESS
  17:../../../../dependencies/freertos/FreeRTOSv10.4.1/FreeRTOS/Source/portable/GCC/ARM_CM4F/portmacro.h ****  * FOR A PARTICULAR PURPOSE AND NONINFRINGEMENT. IN NO EVENT SHALL THE AUTHORS OR
  18:../../../../dependencies/freertos/FreeRTOSv10.4.1/FreeRTOS/Source/portable/GCC/ARM_CM4F/portmacro.h ****  * COPYRIGHT HOLDERS BE LIABLE FOR ANY CLAIM, DAMAGES OR OTHER LIABILITY, WHETHER
  19:../../../../dependencies/freertos/FreeRTOSv10.4.1/FreeRTOS/Source/portable/GCC/ARM_CM4F/portmacro.h ****  * IN AN ACTION OF CONTRACT, TORT OR OTHERWISE, ARISING FROM, OUT OF OR IN
  20:../../../../dependencies/freertos/FreeRTOSv10.4.1/FreeRTOS/Source/portable/GCC/ARM_CM4F/portmacro.h ****  * CONNECTION WITH THE SOFTWARE OR THE USE OR OTHER DEALINGS IN THE SOFTWARE.
  21:../../../../dependencies/freertos/FreeRTOSv10.4.1/FreeRTOS/Source/portable/GCC/ARM_CM4F/portmacro.h ****  *
  22:../../../../dependencies/freertos/FreeRTOSv10.4.1/FreeRTOS/Source/portable/GCC/ARM_CM4F/portmacro.h ****  * https://www.FreeRTOS.org
  23:../../../../dependencies/freertos/FreeRTOSv10.4.1/FreeRTOS/Source/portable/GCC/ARM_CM4F/portmacro.h ****  * https://github.com/FreeRTOS
  24:../../../../dependencies/freertos/FreeRTOSv10.4.1/FreeRTOS/Source/portable/GCC/ARM_CM4F/portmacro.h ****  *
  25:../../../../dependencies/freertos/FreeRTOSv10.4.1/FreeRTOS/Source/portable/GCC/ARM_CM4F/portmacro.h ****  * 1 tab == 4 spaces!
  26:../../../../dependencies/freertos/FreeRTOSv10.4.1/FreeRTOS/Source/portable/GCC/ARM_CM4F/portmacro.h ****  */
  27:../../../../dependencies/freertos/FreeRTOSv10.4.1/FreeRTOS/Source/portable/GCC/ARM_CM4F/portmacro.h **** 
  28:../../../../dependencies/freertos/FreeRTOSv10.4.1/FreeRTOS/Source/portable/GCC/ARM_CM4F/portmacro.h **** 
  29:../../../../dependencies/freertos/FreeRTOSv10.4.1/FreeRTOS/Source/portable/GCC/ARM_CM4F/portmacro.h **** #ifndef PORTMACRO_H
  30:../../../../dependencies/freertos/FreeRTOSv10.4.1/FreeRTOS/Source/portable/GCC/ARM_CM4F/portmacro.h ****     #define PORTMACRO_H
  31:../../../../dependencies/freertos/FreeRTOSv10.4.1/FreeRTOS/Source/portable/GCC/ARM_CM4F/portmacro.h **** 
  32:../../../../dependencies/freertos/FreeRTOSv10.4.1/FreeRTOS/Source/portable/GCC/ARM_CM4F/portmacro.h ****     #ifdef __cplusplus
  33:../../../../dependencies/freertos/FreeRTOSv10.4.1/FreeRTOS/Source/portable/GCC/ARM_CM4F/portmacro.h ****         extern "C" {
  34:../../../../dependencies/freertos/FreeRTOSv10.4.1/FreeRTOS/Source/portable/GCC/ARM_CM4F/portmacro.h ****     #endif
  35:../../../../dependencies/freertos/FreeRTOSv10.4.1/FreeRTOS/Source/portable/GCC/ARM_CM4F/portmacro.h **** 
  36:../../../../dependencies/freertos/FreeRTOSv10.4.1/FreeRTOS/Source/portable/GCC/ARM_CM4F/portmacro.h **** /*-----------------------------------------------------------
  37:../../../../dependencies/freertos/FreeRTOSv10.4.1/FreeRTOS/Source/portable/GCC/ARM_CM4F/portmacro.h ****  * Port specific definitions.
  38:../../../../dependencies/freertos/FreeRTOSv10.4.1/FreeRTOS/Source/portable/GCC/ARM_CM4F/portmacro.h ****  *
  39:../../../../dependencies/freertos/FreeRTOSv10.4.1/FreeRTOS/Source/portable/GCC/ARM_CM4F/portmacro.h ****  * The settings in this file configure FreeRTOS correctly for the
  40:../../../../dependencies/freertos/FreeRTOSv10.4.1/FreeRTOS/Source/portable/GCC/ARM_CM4F/portmacro.h ****  * given hardware and compiler.
  41:../../../../dependencies/freertos/FreeRTOSv10.4.1/FreeRTOS/Source/portable/GCC/ARM_CM4F/portmacro.h ****  *
  42:../../../../dependencies/freertos/FreeRTOSv10.4.1/FreeRTOS/Source/portable/GCC/ARM_CM4F/portmacro.h ****  * These settings should not be altered.
  43:../../../../dependencies/freertos/FreeRTOSv10.4.1/FreeRTOS/Source/portable/GCC/ARM_CM4F/portmacro.h ****  *-----------------------------------------------------------
  44:../../../../dependencies/freertos/FreeRTOSv10.4.1/FreeRTOS/Source/portable/GCC/ARM_CM4F/portmacro.h ****  */
  45:../../../../dependencies/freertos/FreeRTOSv10.4.1/FreeRTOS/Source/portable/GCC/ARM_CM4F/portmacro.h **** 
  46:../../../../dependencies/freertos/FreeRTOSv10.4.1/FreeRTOS/Source/portable/GCC/ARM_CM4F/portmacro.h **** /* Type definitions. */
  47:../../../../dependencies/freertos/FreeRTOSv10.4.1/FreeRTOS/Source/portable/GCC/ARM_CM4F/portmacro.h ****     #define portCHAR          char
  48:../../../../dependencies/freertos/FreeRTOSv10.4.1/FreeRTOS/Source/portable/GCC/ARM_CM4F/portmacro.h ****     #define portFLOAT         float
ARM GAS  /var/folders/kj/yzqgq53j3dg15vgwwwwgf5s00000gn/T//ccSjr9dy.s 			page 7


  49:../../../../dependencies/freertos/FreeRTOSv10.4.1/FreeRTOS/Source/portable/GCC/ARM_CM4F/portmacro.h ****     #define portDOUBLE        double
  50:../../../../dependencies/freertos/FreeRTOSv10.4.1/FreeRTOS/Source/portable/GCC/ARM_CM4F/portmacro.h ****     #define portLONG          long
  51:../../../../dependencies/freertos/FreeRTOSv10.4.1/FreeRTOS/Source/portable/GCC/ARM_CM4F/portmacro.h ****     #define portSHORT         short
  52:../../../../dependencies/freertos/FreeRTOSv10.4.1/FreeRTOS/Source/portable/GCC/ARM_CM4F/portmacro.h ****     #define portSTACK_TYPE    uint32_t
  53:../../../../dependencies/freertos/FreeRTOSv10.4.1/FreeRTOS/Source/portable/GCC/ARM_CM4F/portmacro.h ****     #define portBASE_TYPE     long
  54:../../../../dependencies/freertos/FreeRTOSv10.4.1/FreeRTOS/Source/portable/GCC/ARM_CM4F/portmacro.h **** 
  55:../../../../dependencies/freertos/FreeRTOSv10.4.1/FreeRTOS/Source/portable/GCC/ARM_CM4F/portmacro.h ****     typedef portSTACK_TYPE   StackType_t;
  56:../../../../dependencies/freertos/FreeRTOSv10.4.1/FreeRTOS/Source/portable/GCC/ARM_CM4F/portmacro.h ****     typedef long             BaseType_t;
  57:../../../../dependencies/freertos/FreeRTOSv10.4.1/FreeRTOS/Source/portable/GCC/ARM_CM4F/portmacro.h ****     typedef unsigned long    UBaseType_t;
  58:../../../../dependencies/freertos/FreeRTOSv10.4.1/FreeRTOS/Source/portable/GCC/ARM_CM4F/portmacro.h **** 
  59:../../../../dependencies/freertos/FreeRTOSv10.4.1/FreeRTOS/Source/portable/GCC/ARM_CM4F/portmacro.h ****     #if ( configUSE_16_BIT_TICKS == 1 )
  60:../../../../dependencies/freertos/FreeRTOSv10.4.1/FreeRTOS/Source/portable/GCC/ARM_CM4F/portmacro.h ****         typedef uint16_t     TickType_t;
  61:../../../../dependencies/freertos/FreeRTOSv10.4.1/FreeRTOS/Source/portable/GCC/ARM_CM4F/portmacro.h ****         #define portMAX_DELAY              ( TickType_t ) 0xffff
  62:../../../../dependencies/freertos/FreeRTOSv10.4.1/FreeRTOS/Source/portable/GCC/ARM_CM4F/portmacro.h ****     #else
  63:../../../../dependencies/freertos/FreeRTOSv10.4.1/FreeRTOS/Source/portable/GCC/ARM_CM4F/portmacro.h ****         typedef uint32_t     TickType_t;
  64:../../../../dependencies/freertos/FreeRTOSv10.4.1/FreeRTOS/Source/portable/GCC/ARM_CM4F/portmacro.h ****         #define portMAX_DELAY              ( TickType_t ) 0xffffffffUL
  65:../../../../dependencies/freertos/FreeRTOSv10.4.1/FreeRTOS/Source/portable/GCC/ARM_CM4F/portmacro.h **** 
  66:../../../../dependencies/freertos/FreeRTOSv10.4.1/FreeRTOS/Source/portable/GCC/ARM_CM4F/portmacro.h **** /* 32-bit tick type on a 32-bit architecture, so reads of the tick count do
  67:../../../../dependencies/freertos/FreeRTOSv10.4.1/FreeRTOS/Source/portable/GCC/ARM_CM4F/portmacro.h ****  * not need to be guarded with a critical section. */
  68:../../../../dependencies/freertos/FreeRTOSv10.4.1/FreeRTOS/Source/portable/GCC/ARM_CM4F/portmacro.h ****         #define portTICK_TYPE_IS_ATOMIC    1
  69:../../../../dependencies/freertos/FreeRTOSv10.4.1/FreeRTOS/Source/portable/GCC/ARM_CM4F/portmacro.h ****     #endif
  70:../../../../dependencies/freertos/FreeRTOSv10.4.1/FreeRTOS/Source/portable/GCC/ARM_CM4F/portmacro.h **** /*-----------------------------------------------------------*/
  71:../../../../dependencies/freertos/FreeRTOSv10.4.1/FreeRTOS/Source/portable/GCC/ARM_CM4F/portmacro.h **** 
  72:../../../../dependencies/freertos/FreeRTOSv10.4.1/FreeRTOS/Source/portable/GCC/ARM_CM4F/portmacro.h **** /* Architecture specifics. */
  73:../../../../dependencies/freertos/FreeRTOSv10.4.1/FreeRTOS/Source/portable/GCC/ARM_CM4F/portmacro.h ****     #define portSTACK_GROWTH      ( -1 )
  74:../../../../dependencies/freertos/FreeRTOSv10.4.1/FreeRTOS/Source/portable/GCC/ARM_CM4F/portmacro.h ****     #define portTICK_PERIOD_MS    ( ( TickType_t ) 1000 / configTICK_RATE_HZ )
  75:../../../../dependencies/freertos/FreeRTOSv10.4.1/FreeRTOS/Source/portable/GCC/ARM_CM4F/portmacro.h ****     #define portBYTE_ALIGNMENT    8
  76:../../../../dependencies/freertos/FreeRTOSv10.4.1/FreeRTOS/Source/portable/GCC/ARM_CM4F/portmacro.h ****     #define portDONT_DISCARD      __attribute__( ( used ) )
  77:../../../../dependencies/freertos/FreeRTOSv10.4.1/FreeRTOS/Source/portable/GCC/ARM_CM4F/portmacro.h **** /*-----------------------------------------------------------*/
  78:../../../../dependencies/freertos/FreeRTOSv10.4.1/FreeRTOS/Source/portable/GCC/ARM_CM4F/portmacro.h **** 
  79:../../../../dependencies/freertos/FreeRTOSv10.4.1/FreeRTOS/Source/portable/GCC/ARM_CM4F/portmacro.h **** /* Scheduler utilities. */
  80:../../../../dependencies/freertos/FreeRTOSv10.4.1/FreeRTOS/Source/portable/GCC/ARM_CM4F/portmacro.h ****     #define portYIELD()                                 \
  81:../../../../dependencies/freertos/FreeRTOSv10.4.1/FreeRTOS/Source/portable/GCC/ARM_CM4F/portmacro.h ****     {                                                   \
  82:../../../../dependencies/freertos/FreeRTOSv10.4.1/FreeRTOS/Source/portable/GCC/ARM_CM4F/portmacro.h ****         /* Set a PendSV to request a context switch. */ \
  83:../../../../dependencies/freertos/FreeRTOSv10.4.1/FreeRTOS/Source/portable/GCC/ARM_CM4F/portmacro.h ****         portNVIC_INT_CTRL_REG = portNVIC_PENDSVSET_BIT; \
  84:../../../../dependencies/freertos/FreeRTOSv10.4.1/FreeRTOS/Source/portable/GCC/ARM_CM4F/portmacro.h ****                                                         \
  85:../../../../dependencies/freertos/FreeRTOSv10.4.1/FreeRTOS/Source/portable/GCC/ARM_CM4F/portmacro.h ****         /* Barriers are normally not required but do ensure the code is completely \
  86:../../../../dependencies/freertos/FreeRTOSv10.4.1/FreeRTOS/Source/portable/GCC/ARM_CM4F/portmacro.h ****          * within the specified behaviour for the architecture. */ \
  87:../../../../dependencies/freertos/FreeRTOSv10.4.1/FreeRTOS/Source/portable/GCC/ARM_CM4F/portmacro.h ****         __asm volatile ( "dsb" ::: "memory" );                     \
  88:../../../../dependencies/freertos/FreeRTOSv10.4.1/FreeRTOS/Source/portable/GCC/ARM_CM4F/portmacro.h ****         __asm volatile ( "isb" );                                  \
  89:../../../../dependencies/freertos/FreeRTOSv10.4.1/FreeRTOS/Source/portable/GCC/ARM_CM4F/portmacro.h ****     }
  90:../../../../dependencies/freertos/FreeRTOSv10.4.1/FreeRTOS/Source/portable/GCC/ARM_CM4F/portmacro.h **** 
  91:../../../../dependencies/freertos/FreeRTOSv10.4.1/FreeRTOS/Source/portable/GCC/ARM_CM4F/portmacro.h ****     #define portNVIC_INT_CTRL_REG     ( *( ( volatile uint32_t * ) 0xe000ed04 ) )
  92:../../../../dependencies/freertos/FreeRTOSv10.4.1/FreeRTOS/Source/portable/GCC/ARM_CM4F/portmacro.h ****     #define portNVIC_PENDSVSET_BIT    ( 1UL << 28UL )
  93:../../../../dependencies/freertos/FreeRTOSv10.4.1/FreeRTOS/Source/portable/GCC/ARM_CM4F/portmacro.h ****     #define portEND_SWITCHING_ISR( xSwitchRequired )    if( xSwitchRequired != pdFALSE ) portYIELD(
  94:../../../../dependencies/freertos/FreeRTOSv10.4.1/FreeRTOS/Source/portable/GCC/ARM_CM4F/portmacro.h ****     #define portYIELD_FROM_ISR( x )                     portEND_SWITCHING_ISR( x )
  95:../../../../dependencies/freertos/FreeRTOSv10.4.1/FreeRTOS/Source/portable/GCC/ARM_CM4F/portmacro.h **** /*-----------------------------------------------------------*/
  96:../../../../dependencies/freertos/FreeRTOSv10.4.1/FreeRTOS/Source/portable/GCC/ARM_CM4F/portmacro.h **** 
  97:../../../../dependencies/freertos/FreeRTOSv10.4.1/FreeRTOS/Source/portable/GCC/ARM_CM4F/portmacro.h **** /* Critical section management. */
  98:../../../../dependencies/freertos/FreeRTOSv10.4.1/FreeRTOS/Source/portable/GCC/ARM_CM4F/portmacro.h ****     extern void vPortEnterCritical( void );
  99:../../../../dependencies/freertos/FreeRTOSv10.4.1/FreeRTOS/Source/portable/GCC/ARM_CM4F/portmacro.h ****     extern void vPortExitCritical( void );
 100:../../../../dependencies/freertos/FreeRTOSv10.4.1/FreeRTOS/Source/portable/GCC/ARM_CM4F/portmacro.h ****     #define portSET_INTERRUPT_MASK_FROM_ISR()         ulPortRaiseBASEPRI()
 101:../../../../dependencies/freertos/FreeRTOSv10.4.1/FreeRTOS/Source/portable/GCC/ARM_CM4F/portmacro.h ****     #define portCLEAR_INTERRUPT_MASK_FROM_ISR( x )    vPortSetBASEPRI( x )
 102:../../../../dependencies/freertos/FreeRTOSv10.4.1/FreeRTOS/Source/portable/GCC/ARM_CM4F/portmacro.h ****     #define portDISABLE_INTERRUPTS()                  vPortRaiseBASEPRI()
 103:../../../../dependencies/freertos/FreeRTOSv10.4.1/FreeRTOS/Source/portable/GCC/ARM_CM4F/portmacro.h ****     #define portENABLE_INTERRUPTS()                   vPortSetBASEPRI( 0 )
 104:../../../../dependencies/freertos/FreeRTOSv10.4.1/FreeRTOS/Source/portable/GCC/ARM_CM4F/portmacro.h ****     #define portENTER_CRITICAL()                      vPortEnterCritical()
 105:../../../../dependencies/freertos/FreeRTOSv10.4.1/FreeRTOS/Source/portable/GCC/ARM_CM4F/portmacro.h ****     #define portEXIT_CRITICAL()                       vPortExitCritical()
ARM GAS  /var/folders/kj/yzqgq53j3dg15vgwwwwgf5s00000gn/T//ccSjr9dy.s 			page 8


 106:../../../../dependencies/freertos/FreeRTOSv10.4.1/FreeRTOS/Source/portable/GCC/ARM_CM4F/portmacro.h **** 
 107:../../../../dependencies/freertos/FreeRTOSv10.4.1/FreeRTOS/Source/portable/GCC/ARM_CM4F/portmacro.h **** /*-----------------------------------------------------------*/
 108:../../../../dependencies/freertos/FreeRTOSv10.4.1/FreeRTOS/Source/portable/GCC/ARM_CM4F/portmacro.h **** 
 109:../../../../dependencies/freertos/FreeRTOSv10.4.1/FreeRTOS/Source/portable/GCC/ARM_CM4F/portmacro.h **** /* Task function macros as described on the FreeRTOS.org WEB site.  These are
 110:../../../../dependencies/freertos/FreeRTOSv10.4.1/FreeRTOS/Source/portable/GCC/ARM_CM4F/portmacro.h ****  * not necessary for to use this port.  They are defined so the common demo files
 111:../../../../dependencies/freertos/FreeRTOSv10.4.1/FreeRTOS/Source/portable/GCC/ARM_CM4F/portmacro.h ****  * (which build with all the ports) will build. */
 112:../../../../dependencies/freertos/FreeRTOSv10.4.1/FreeRTOS/Source/portable/GCC/ARM_CM4F/portmacro.h ****     #define portTASK_FUNCTION_PROTO( vFunction, pvParameters )    void vFunction( void * pvParamete
 113:../../../../dependencies/freertos/FreeRTOSv10.4.1/FreeRTOS/Source/portable/GCC/ARM_CM4F/portmacro.h ****     #define portTASK_FUNCTION( vFunction, pvParameters )          void vFunction( void * pvParamete
 114:../../../../dependencies/freertos/FreeRTOSv10.4.1/FreeRTOS/Source/portable/GCC/ARM_CM4F/portmacro.h **** /*-----------------------------------------------------------*/
 115:../../../../dependencies/freertos/FreeRTOSv10.4.1/FreeRTOS/Source/portable/GCC/ARM_CM4F/portmacro.h **** 
 116:../../../../dependencies/freertos/FreeRTOSv10.4.1/FreeRTOS/Source/portable/GCC/ARM_CM4F/portmacro.h **** /* Tickless idle/low power functionality. */
 117:../../../../dependencies/freertos/FreeRTOSv10.4.1/FreeRTOS/Source/portable/GCC/ARM_CM4F/portmacro.h ****     #ifndef portSUPPRESS_TICKS_AND_SLEEP
 118:../../../../dependencies/freertos/FreeRTOSv10.4.1/FreeRTOS/Source/portable/GCC/ARM_CM4F/portmacro.h ****         extern void vPortSuppressTicksAndSleep( TickType_t xExpectedIdleTime );
 119:../../../../dependencies/freertos/FreeRTOSv10.4.1/FreeRTOS/Source/portable/GCC/ARM_CM4F/portmacro.h ****         #define portSUPPRESS_TICKS_AND_SLEEP( xExpectedIdleTime )    vPortSuppressTicksAndSleep( xE
 120:../../../../dependencies/freertos/FreeRTOSv10.4.1/FreeRTOS/Source/portable/GCC/ARM_CM4F/portmacro.h ****     #endif
 121:../../../../dependencies/freertos/FreeRTOSv10.4.1/FreeRTOS/Source/portable/GCC/ARM_CM4F/portmacro.h **** /*-----------------------------------------------------------*/
 122:../../../../dependencies/freertos/FreeRTOSv10.4.1/FreeRTOS/Source/portable/GCC/ARM_CM4F/portmacro.h **** 
 123:../../../../dependencies/freertos/FreeRTOSv10.4.1/FreeRTOS/Source/portable/GCC/ARM_CM4F/portmacro.h **** /* Architecture specific optimisations. */
 124:../../../../dependencies/freertos/FreeRTOSv10.4.1/FreeRTOS/Source/portable/GCC/ARM_CM4F/portmacro.h ****     #ifndef configUSE_PORT_OPTIMISED_TASK_SELECTION
 125:../../../../dependencies/freertos/FreeRTOSv10.4.1/FreeRTOS/Source/portable/GCC/ARM_CM4F/portmacro.h ****         #define configUSE_PORT_OPTIMISED_TASK_SELECTION    1
 126:../../../../dependencies/freertos/FreeRTOSv10.4.1/FreeRTOS/Source/portable/GCC/ARM_CM4F/portmacro.h ****     #endif
 127:../../../../dependencies/freertos/FreeRTOSv10.4.1/FreeRTOS/Source/portable/GCC/ARM_CM4F/portmacro.h **** 
 128:../../../../dependencies/freertos/FreeRTOSv10.4.1/FreeRTOS/Source/portable/GCC/ARM_CM4F/portmacro.h ****     #if configUSE_PORT_OPTIMISED_TASK_SELECTION == 1
 129:../../../../dependencies/freertos/FreeRTOSv10.4.1/FreeRTOS/Source/portable/GCC/ARM_CM4F/portmacro.h **** 
 130:../../../../dependencies/freertos/FreeRTOSv10.4.1/FreeRTOS/Source/portable/GCC/ARM_CM4F/portmacro.h **** /* Generic helper function. */
 131:../../../../dependencies/freertos/FreeRTOSv10.4.1/FreeRTOS/Source/portable/GCC/ARM_CM4F/portmacro.h ****         __attribute__( ( always_inline ) ) static inline uint8_t ucPortCountLeadingZeros( uint32_t 
 132:../../../../dependencies/freertos/FreeRTOSv10.4.1/FreeRTOS/Source/portable/GCC/ARM_CM4F/portmacro.h ****         {
 133:../../../../dependencies/freertos/FreeRTOSv10.4.1/FreeRTOS/Source/portable/GCC/ARM_CM4F/portmacro.h ****             uint8_t ucReturn;
 134:../../../../dependencies/freertos/FreeRTOSv10.4.1/FreeRTOS/Source/portable/GCC/ARM_CM4F/portmacro.h **** 
 135:../../../../dependencies/freertos/FreeRTOSv10.4.1/FreeRTOS/Source/portable/GCC/ARM_CM4F/portmacro.h ****             __asm volatile ( "clz %0, %1" : "=r" ( ucReturn ) : "r" ( ulBitmap ) : "memory" );
 136:../../../../dependencies/freertos/FreeRTOSv10.4.1/FreeRTOS/Source/portable/GCC/ARM_CM4F/portmacro.h **** 
 137:../../../../dependencies/freertos/FreeRTOSv10.4.1/FreeRTOS/Source/portable/GCC/ARM_CM4F/portmacro.h ****             return ucReturn;
 138:../../../../dependencies/freertos/FreeRTOSv10.4.1/FreeRTOS/Source/portable/GCC/ARM_CM4F/portmacro.h ****         }
 139:../../../../dependencies/freertos/FreeRTOSv10.4.1/FreeRTOS/Source/portable/GCC/ARM_CM4F/portmacro.h **** 
 140:../../../../dependencies/freertos/FreeRTOSv10.4.1/FreeRTOS/Source/portable/GCC/ARM_CM4F/portmacro.h **** /* Check the configuration. */
 141:../../../../dependencies/freertos/FreeRTOSv10.4.1/FreeRTOS/Source/portable/GCC/ARM_CM4F/portmacro.h ****         #if ( configMAX_PRIORITIES > 32 )
 142:../../../../dependencies/freertos/FreeRTOSv10.4.1/FreeRTOS/Source/portable/GCC/ARM_CM4F/portmacro.h ****             #error configUSE_PORT_OPTIMISED_TASK_SELECTION can only be set to 1 when configMAX_PRIO
 143:../../../../dependencies/freertos/FreeRTOSv10.4.1/FreeRTOS/Source/portable/GCC/ARM_CM4F/portmacro.h ****         #endif
 144:../../../../dependencies/freertos/FreeRTOSv10.4.1/FreeRTOS/Source/portable/GCC/ARM_CM4F/portmacro.h **** 
 145:../../../../dependencies/freertos/FreeRTOSv10.4.1/FreeRTOS/Source/portable/GCC/ARM_CM4F/portmacro.h **** /* Store/clear the ready priorities in a bit map. */
 146:../../../../dependencies/freertos/FreeRTOSv10.4.1/FreeRTOS/Source/portable/GCC/ARM_CM4F/portmacro.h ****         #define portRECORD_READY_PRIORITY( uxPriority, uxReadyPriorities )    ( uxReadyPriorities )
 147:../../../../dependencies/freertos/FreeRTOSv10.4.1/FreeRTOS/Source/portable/GCC/ARM_CM4F/portmacro.h ****         #define portRESET_READY_PRIORITY( uxPriority, uxReadyPriorities )     ( uxReadyPriorities )
 148:../../../../dependencies/freertos/FreeRTOSv10.4.1/FreeRTOS/Source/portable/GCC/ARM_CM4F/portmacro.h **** 
 149:../../../../dependencies/freertos/FreeRTOSv10.4.1/FreeRTOS/Source/portable/GCC/ARM_CM4F/portmacro.h **** /*-----------------------------------------------------------*/
 150:../../../../dependencies/freertos/FreeRTOSv10.4.1/FreeRTOS/Source/portable/GCC/ARM_CM4F/portmacro.h **** 
 151:../../../../dependencies/freertos/FreeRTOSv10.4.1/FreeRTOS/Source/portable/GCC/ARM_CM4F/portmacro.h ****         #define portGET_HIGHEST_PRIORITY( uxTopPriority, uxReadyPriorities )    uxTopPriority = ( 3
 152:../../../../dependencies/freertos/FreeRTOSv10.4.1/FreeRTOS/Source/portable/GCC/ARM_CM4F/portmacro.h **** 
 153:../../../../dependencies/freertos/FreeRTOSv10.4.1/FreeRTOS/Source/portable/GCC/ARM_CM4F/portmacro.h ****     #endif /* configUSE_PORT_OPTIMISED_TASK_SELECTION */
 154:../../../../dependencies/freertos/FreeRTOSv10.4.1/FreeRTOS/Source/portable/GCC/ARM_CM4F/portmacro.h **** 
 155:../../../../dependencies/freertos/FreeRTOSv10.4.1/FreeRTOS/Source/portable/GCC/ARM_CM4F/portmacro.h **** /*-----------------------------------------------------------*/
 156:../../../../dependencies/freertos/FreeRTOSv10.4.1/FreeRTOS/Source/portable/GCC/ARM_CM4F/portmacro.h **** 
 157:../../../../dependencies/freertos/FreeRTOSv10.4.1/FreeRTOS/Source/portable/GCC/ARM_CM4F/portmacro.h ****     #ifdef configASSERT
 158:../../../../dependencies/freertos/FreeRTOSv10.4.1/FreeRTOS/Source/portable/GCC/ARM_CM4F/portmacro.h ****         void vPortValidateInterruptPriority( void );
 159:../../../../dependencies/freertos/FreeRTOSv10.4.1/FreeRTOS/Source/portable/GCC/ARM_CM4F/portmacro.h ****         #define portASSERT_IF_INTERRUPT_PRIORITY_INVALID()    vPortValidateInterruptPriority()
 160:../../../../dependencies/freertos/FreeRTOSv10.4.1/FreeRTOS/Source/portable/GCC/ARM_CM4F/portmacro.h ****     #endif
 161:../../../../dependencies/freertos/FreeRTOSv10.4.1/FreeRTOS/Source/portable/GCC/ARM_CM4F/portmacro.h **** 
 162:../../../../dependencies/freertos/FreeRTOSv10.4.1/FreeRTOS/Source/portable/GCC/ARM_CM4F/portmacro.h **** /* portNOP() is not required by this port. */
ARM GAS  /var/folders/kj/yzqgq53j3dg15vgwwwwgf5s00000gn/T//ccSjr9dy.s 			page 9


 163:../../../../dependencies/freertos/FreeRTOSv10.4.1/FreeRTOS/Source/portable/GCC/ARM_CM4F/portmacro.h ****     #define portNOP()
 164:../../../../dependencies/freertos/FreeRTOSv10.4.1/FreeRTOS/Source/portable/GCC/ARM_CM4F/portmacro.h **** 
 165:../../../../dependencies/freertos/FreeRTOSv10.4.1/FreeRTOS/Source/portable/GCC/ARM_CM4F/portmacro.h ****     #define portINLINE              __inline
 166:../../../../dependencies/freertos/FreeRTOSv10.4.1/FreeRTOS/Source/portable/GCC/ARM_CM4F/portmacro.h **** 
 167:../../../../dependencies/freertos/FreeRTOSv10.4.1/FreeRTOS/Source/portable/GCC/ARM_CM4F/portmacro.h ****     #ifndef portFORCE_INLINE
 168:../../../../dependencies/freertos/FreeRTOSv10.4.1/FreeRTOS/Source/portable/GCC/ARM_CM4F/portmacro.h ****         #define portFORCE_INLINE    inline __attribute__( ( always_inline ) )
 169:../../../../dependencies/freertos/FreeRTOSv10.4.1/FreeRTOS/Source/portable/GCC/ARM_CM4F/portmacro.h ****     #endif
 170:../../../../dependencies/freertos/FreeRTOSv10.4.1/FreeRTOS/Source/portable/GCC/ARM_CM4F/portmacro.h **** 
 171:../../../../dependencies/freertos/FreeRTOSv10.4.1/FreeRTOS/Source/portable/GCC/ARM_CM4F/portmacro.h ****     portFORCE_INLINE static BaseType_t xPortIsInsideInterrupt( void )
 172:../../../../dependencies/freertos/FreeRTOSv10.4.1/FreeRTOS/Source/portable/GCC/ARM_CM4F/portmacro.h ****     {
 173:../../../../dependencies/freertos/FreeRTOSv10.4.1/FreeRTOS/Source/portable/GCC/ARM_CM4F/portmacro.h ****         uint32_t ulCurrentInterrupt;
 174:../../../../dependencies/freertos/FreeRTOSv10.4.1/FreeRTOS/Source/portable/GCC/ARM_CM4F/portmacro.h ****         BaseType_t xReturn;
 175:../../../../dependencies/freertos/FreeRTOSv10.4.1/FreeRTOS/Source/portable/GCC/ARM_CM4F/portmacro.h **** 
 176:../../../../dependencies/freertos/FreeRTOSv10.4.1/FreeRTOS/Source/portable/GCC/ARM_CM4F/portmacro.h ****         /* Obtain the number of the currently executing interrupt. */
 177:../../../../dependencies/freertos/FreeRTOSv10.4.1/FreeRTOS/Source/portable/GCC/ARM_CM4F/portmacro.h ****         __asm volatile ( "mrs %0, ipsr" : "=r" ( ulCurrentInterrupt )::"memory" );
 178:../../../../dependencies/freertos/FreeRTOSv10.4.1/FreeRTOS/Source/portable/GCC/ARM_CM4F/portmacro.h **** 
 179:../../../../dependencies/freertos/FreeRTOSv10.4.1/FreeRTOS/Source/portable/GCC/ARM_CM4F/portmacro.h ****         if( ulCurrentInterrupt == 0 )
 180:../../../../dependencies/freertos/FreeRTOSv10.4.1/FreeRTOS/Source/portable/GCC/ARM_CM4F/portmacro.h ****         {
 181:../../../../dependencies/freertos/FreeRTOSv10.4.1/FreeRTOS/Source/portable/GCC/ARM_CM4F/portmacro.h ****             xReturn = pdFALSE;
 182:../../../../dependencies/freertos/FreeRTOSv10.4.1/FreeRTOS/Source/portable/GCC/ARM_CM4F/portmacro.h ****         }
 183:../../../../dependencies/freertos/FreeRTOSv10.4.1/FreeRTOS/Source/portable/GCC/ARM_CM4F/portmacro.h ****         else
 184:../../../../dependencies/freertos/FreeRTOSv10.4.1/FreeRTOS/Source/portable/GCC/ARM_CM4F/portmacro.h ****         {
 185:../../../../dependencies/freertos/FreeRTOSv10.4.1/FreeRTOS/Source/portable/GCC/ARM_CM4F/portmacro.h ****             xReturn = pdTRUE;
 186:../../../../dependencies/freertos/FreeRTOSv10.4.1/FreeRTOS/Source/portable/GCC/ARM_CM4F/portmacro.h ****         }
 187:../../../../dependencies/freertos/FreeRTOSv10.4.1/FreeRTOS/Source/portable/GCC/ARM_CM4F/portmacro.h **** 
 188:../../../../dependencies/freertos/FreeRTOSv10.4.1/FreeRTOS/Source/portable/GCC/ARM_CM4F/portmacro.h ****         return xReturn;
 189:../../../../dependencies/freertos/FreeRTOSv10.4.1/FreeRTOS/Source/portable/GCC/ARM_CM4F/portmacro.h ****     }
 190:../../../../dependencies/freertos/FreeRTOSv10.4.1/FreeRTOS/Source/portable/GCC/ARM_CM4F/portmacro.h **** 
 191:../../../../dependencies/freertos/FreeRTOSv10.4.1/FreeRTOS/Source/portable/GCC/ARM_CM4F/portmacro.h **** /*-----------------------------------------------------------*/
 192:../../../../dependencies/freertos/FreeRTOSv10.4.1/FreeRTOS/Source/portable/GCC/ARM_CM4F/portmacro.h **** 
 193:../../../../dependencies/freertos/FreeRTOSv10.4.1/FreeRTOS/Source/portable/GCC/ARM_CM4F/portmacro.h ****     portFORCE_INLINE static void vPortRaiseBASEPRI( void )
 194:../../../../dependencies/freertos/FreeRTOSv10.4.1/FreeRTOS/Source/portable/GCC/ARM_CM4F/portmacro.h ****     {
 195:../../../../dependencies/freertos/FreeRTOSv10.4.1/FreeRTOS/Source/portable/GCC/ARM_CM4F/portmacro.h ****         uint32_t ulNewBASEPRI;
 196:../../../../dependencies/freertos/FreeRTOSv10.4.1/FreeRTOS/Source/portable/GCC/ARM_CM4F/portmacro.h **** 
 197:../../../../dependencies/freertos/FreeRTOSv10.4.1/FreeRTOS/Source/portable/GCC/ARM_CM4F/portmacro.h ****         __asm volatile
  61              		.loc 2 197 9
  62              		.syntax unified
  63              	@ 197 "../../../../dependencies/freertos/FreeRTOSv10.4.1/FreeRTOS/Source/portable/GCC/ARM_CM4F/port
  64 001e 4FF05003 			mov r3, #80												
  65 0022 83F31188 		msr basepri, r3											
  66 0026 BFF36F8F 		isb														
  67 002a BFF34F8F 		dsb														
  68              	
  69              	@ 0 "" 2
  70              		.thumb
  71              		.syntax unified
  72 002e FB61     		str	r3, [r7, #28]
 198:../../../../dependencies/freertos/FreeRTOSv10.4.1/FreeRTOS/Source/portable/GCC/ARM_CM4F/portmacro.h ****         (
 199:../../../../dependencies/freertos/FreeRTOSv10.4.1/FreeRTOS/Source/portable/GCC/ARM_CM4F/portmacro.h ****             "	mov %0, %1												\n"\
 200:../../../../dependencies/freertos/FreeRTOSv10.4.1/FreeRTOS/Source/portable/GCC/ARM_CM4F/portmacro.h ****             "	msr basepri, %0											\n"\
 201:../../../../dependencies/freertos/FreeRTOSv10.4.1/FreeRTOS/Source/portable/GCC/ARM_CM4F/portmacro.h ****             "	isb														\n"\
 202:../../../../dependencies/freertos/FreeRTOSv10.4.1/FreeRTOS/Source/portable/GCC/ARM_CM4F/portmacro.h ****             "	dsb														\n"\
 203:../../../../dependencies/freertos/FreeRTOSv10.4.1/FreeRTOS/Source/portable/GCC/ARM_CM4F/portmacro.h ****             : "=r" ( ulNewBASEPRI ) : "i" ( configMAX_SYSCALL_INTERRUPT_PRIORITY ) : "memory"
 204:../../../../dependencies/freertos/FreeRTOSv10.4.1/FreeRTOS/Source/portable/GCC/ARM_CM4F/portmacro.h ****         );
 205:../../../../dependencies/freertos/FreeRTOSv10.4.1/FreeRTOS/Source/portable/GCC/ARM_CM4F/portmacro.h ****     }
  73              		.loc 2 205 5
  74 0030 00BF     		nop
ARM GAS  /var/folders/kj/yzqgq53j3dg15vgwwwwgf5s00000gn/T//ccSjr9dy.s 			page 10


  75              	.L4:
  76              	.LBE86:
  77              	.LBE85:
  78              		.loc 1 235 13 discriminator 1
  79 0032 FEE7     		b	.L4
  80              	.L2:
 236:../../../../dependencies/freertos/FreeRTOSv10.4.1/FreeRTOS/Source/stream_buffer.c ****         }
 237:../../../../dependencies/freertos/FreeRTOSv10.4.1/FreeRTOS/Source/stream_buffer.c ****         else
 238:../../../../dependencies/freertos/FreeRTOSv10.4.1/FreeRTOS/Source/stream_buffer.c ****         {
 239:../../../../dependencies/freertos/FreeRTOSv10.4.1/FreeRTOS/Source/stream_buffer.c ****             /* Not a message buffer and not statically allocated. */
 240:../../../../dependencies/freertos/FreeRTOSv10.4.1/FreeRTOS/Source/stream_buffer.c ****             ucFlags = 0;
  81              		.loc 1 240 21
  82 0034 0023     		movs	r3, #0
  83 0036 87F82730 		strb	r3, [r7, #39]
 241:../../../../dependencies/freertos/FreeRTOSv10.4.1/FreeRTOS/Source/stream_buffer.c ****             configASSERT( xBufferSizeBytes > 0 );
  84              		.loc 1 241 13
  85 003a FB68     		ldr	r3, [r7, #12]
  86 003c 002B     		cmp	r3, #0
  87 003e 0AD1     		bne	.L3
  88              	.LBB87:
  89              	.LBB88:
 197:../../../../dependencies/freertos/FreeRTOSv10.4.1/FreeRTOS/Source/portable/GCC/ARM_CM4F/portmacro.h ****         (
  90              		.loc 2 197 9
  91              		.syntax unified
  92              	@ 197 "../../../../dependencies/freertos/FreeRTOSv10.4.1/FreeRTOS/Source/portable/GCC/ARM_CM4F/port
  93 0040 4FF05003 			mov r3, #80												
  94 0044 83F31188 		msr basepri, r3											
  95 0048 BFF36F8F 		isb														
  96 004c BFF34F8F 		dsb														
  97              	
  98              	@ 0 "" 2
  99              		.thumb
 100              		.syntax unified
 101 0050 BB61     		str	r3, [r7, #24]
 102              		.loc 2 205 5
 103 0052 00BF     		nop
 104              	.L5:
 105              	.LBE88:
 106              	.LBE87:
 107              		.loc 1 241 13 discriminator 2
 108 0054 FEE7     		b	.L5
 109              	.L3:
 242:../../../../dependencies/freertos/FreeRTOSv10.4.1/FreeRTOS/Source/stream_buffer.c ****         }
 243:../../../../dependencies/freertos/FreeRTOSv10.4.1/FreeRTOS/Source/stream_buffer.c **** 
 244:../../../../dependencies/freertos/FreeRTOSv10.4.1/FreeRTOS/Source/stream_buffer.c ****         configASSERT( xTriggerLevelBytes <= xBufferSizeBytes );
 110              		.loc 1 244 9
 111 0056 BA68     		ldr	r2, [r7, #8]
 112 0058 FB68     		ldr	r3, [r7, #12]
 113 005a 9A42     		cmp	r2, r3
 114 005c 0AD9     		bls	.L6
 115              	.LBB89:
 116              	.LBB90:
 197:../../../../dependencies/freertos/FreeRTOSv10.4.1/FreeRTOS/Source/portable/GCC/ARM_CM4F/portmacro.h ****         (
 117              		.loc 2 197 9
 118              		.syntax unified
 119              	@ 197 "../../../../dependencies/freertos/FreeRTOSv10.4.1/FreeRTOS/Source/portable/GCC/ARM_CM4F/port
 120 005e 4FF05003 			mov r3, #80												
ARM GAS  /var/folders/kj/yzqgq53j3dg15vgwwwwgf5s00000gn/T//ccSjr9dy.s 			page 11


 121 0062 83F31188 		msr basepri, r3											
 122 0066 BFF36F8F 		isb														
 123 006a BFF34F8F 		dsb														
 124              	
 125              	@ 0 "" 2
 126              		.thumb
 127              		.syntax unified
 128 006e 7B61     		str	r3, [r7, #20]
 129              		.loc 2 205 5
 130 0070 00BF     		nop
 131              	.L7:
 132              	.LBE90:
 133              	.LBE89:
 134              		.loc 1 244 9 discriminator 3
 135 0072 FEE7     		b	.L7
 136              	.L6:
 245:../../../../dependencies/freertos/FreeRTOSv10.4.1/FreeRTOS/Source/stream_buffer.c **** 
 246:../../../../dependencies/freertos/FreeRTOSv10.4.1/FreeRTOS/Source/stream_buffer.c ****         /* A trigger level of 0 would cause a waiting task to unblock even when
 247:../../../../dependencies/freertos/FreeRTOSv10.4.1/FreeRTOS/Source/stream_buffer.c ****          * the buffer was empty. */
 248:../../../../dependencies/freertos/FreeRTOSv10.4.1/FreeRTOS/Source/stream_buffer.c ****         if( xTriggerLevelBytes == ( size_t ) 0 )
 137              		.loc 1 248 11
 138 0074 BB68     		ldr	r3, [r7, #8]
 139 0076 002B     		cmp	r3, #0
 140 0078 01D1     		bne	.L8
 249:../../../../dependencies/freertos/FreeRTOSv10.4.1/FreeRTOS/Source/stream_buffer.c ****         {
 250:../../../../dependencies/freertos/FreeRTOSv10.4.1/FreeRTOS/Source/stream_buffer.c ****             xTriggerLevelBytes = ( size_t ) 1;
 141              		.loc 1 250 32
 142 007a 0123     		movs	r3, #1
 143 007c BB60     		str	r3, [r7, #8]
 144              	.L8:
 251:../../../../dependencies/freertos/FreeRTOSv10.4.1/FreeRTOS/Source/stream_buffer.c ****         }
 252:../../../../dependencies/freertos/FreeRTOSv10.4.1/FreeRTOS/Source/stream_buffer.c **** 
 253:../../../../dependencies/freertos/FreeRTOSv10.4.1/FreeRTOS/Source/stream_buffer.c ****         /* A stream buffer requires a StreamBuffer_t structure and a buffer.
 254:../../../../dependencies/freertos/FreeRTOSv10.4.1/FreeRTOS/Source/stream_buffer.c ****          * Both are allocated in a single call to pvPortMalloc().  The
 255:../../../../dependencies/freertos/FreeRTOSv10.4.1/FreeRTOS/Source/stream_buffer.c ****          * StreamBuffer_t structure is placed at the start of the allocated memory
 256:../../../../dependencies/freertos/FreeRTOSv10.4.1/FreeRTOS/Source/stream_buffer.c ****          * and the buffer follows immediately after.  The requested size is
 257:../../../../dependencies/freertos/FreeRTOSv10.4.1/FreeRTOS/Source/stream_buffer.c ****          * incremented so the free space is returned as the user would expect -
 258:../../../../dependencies/freertos/FreeRTOSv10.4.1/FreeRTOS/Source/stream_buffer.c ****          * this is a quirk of the implementation that means otherwise the free
 259:../../../../dependencies/freertos/FreeRTOSv10.4.1/FreeRTOS/Source/stream_buffer.c ****          * space would be reported as one byte smaller than would be logically
 260:../../../../dependencies/freertos/FreeRTOSv10.4.1/FreeRTOS/Source/stream_buffer.c ****          * expected. */
 261:../../../../dependencies/freertos/FreeRTOSv10.4.1/FreeRTOS/Source/stream_buffer.c ****         xBufferSizeBytes++;
 145              		.loc 1 261 25
 146 007e FB68     		ldr	r3, [r7, #12]
 147 0080 0133     		adds	r3, r3, #1
 148 0082 FB60     		str	r3, [r7, #12]
 262:../../../../dependencies/freertos/FreeRTOSv10.4.1/FreeRTOS/Source/stream_buffer.c ****         pucAllocatedMemory = ( uint8_t * ) pvPortMalloc( xBufferSizeBytes + sizeof( StreamBuffer_t 
 149              		.loc 1 262 44
 150 0084 FB68     		ldr	r3, [r7, #12]
 151 0086 2433     		adds	r3, r3, #36
 152 0088 1846     		mov	r0, r3
 153 008a FFF7FEFF 		bl	pvPortMalloc
 154 008e 3862     		str	r0, [r7, #32]
 263:../../../../dependencies/freertos/FreeRTOSv10.4.1/FreeRTOS/Source/stream_buffer.c **** 
 264:../../../../dependencies/freertos/FreeRTOSv10.4.1/FreeRTOS/Source/stream_buffer.c ****         if( pucAllocatedMemory != NULL )
 155              		.loc 1 264 11
 156 0090 3B6A     		ldr	r3, [r7, #32]
 157 0092 002B     		cmp	r3, #0
ARM GAS  /var/folders/kj/yzqgq53j3dg15vgwwwwgf5s00000gn/T//ccSjr9dy.s 			page 12


 158 0094 0AD0     		beq	.L9
 265:../../../../dependencies/freertos/FreeRTOSv10.4.1/FreeRTOS/Source/stream_buffer.c ****         {
 266:../../../../dependencies/freertos/FreeRTOSv10.4.1/FreeRTOS/Source/stream_buffer.c ****             prvInitialiseNewStreamBuffer( ( StreamBuffer_t * ) pucAllocatedMemory,       /* Structu
 159              		.loc 1 266 13
 160 0096 3B6A     		ldr	r3, [r7, #32]
 161 0098 03F12401 		add	r1, r3, #36
 162 009c 97F82730 		ldrb	r3, [r7, #39]	@ zero_extendqisi2
 163 00a0 0093     		str	r3, [sp]
 164 00a2 BB68     		ldr	r3, [r7, #8]
 165 00a4 FA68     		ldr	r2, [r7, #12]
 166 00a6 386A     		ldr	r0, [r7, #32]
 167 00a8 FFF7FEFF 		bl	prvInitialiseNewStreamBuffer
 168              	.L9:
 267:../../../../dependencies/freertos/FreeRTOSv10.4.1/FreeRTOS/Source/stream_buffer.c ****                                           pucAllocatedMemory + sizeof( StreamBuffer_t ), /* Storage
 268:../../../../dependencies/freertos/FreeRTOSv10.4.1/FreeRTOS/Source/stream_buffer.c ****                                           xBufferSizeBytes,
 269:../../../../dependencies/freertos/FreeRTOSv10.4.1/FreeRTOS/Source/stream_buffer.c ****                                           xTriggerLevelBytes,
 270:../../../../dependencies/freertos/FreeRTOSv10.4.1/FreeRTOS/Source/stream_buffer.c ****                                           ucFlags );
 271:../../../../dependencies/freertos/FreeRTOSv10.4.1/FreeRTOS/Source/stream_buffer.c **** 
 272:../../../../dependencies/freertos/FreeRTOSv10.4.1/FreeRTOS/Source/stream_buffer.c ****             traceSTREAM_BUFFER_CREATE( ( ( StreamBuffer_t * ) pucAllocatedMemory ), xIsMessageBuffe
 273:../../../../dependencies/freertos/FreeRTOSv10.4.1/FreeRTOS/Source/stream_buffer.c ****         }
 274:../../../../dependencies/freertos/FreeRTOSv10.4.1/FreeRTOS/Source/stream_buffer.c ****         else
 275:../../../../dependencies/freertos/FreeRTOSv10.4.1/FreeRTOS/Source/stream_buffer.c ****         {
 276:../../../../dependencies/freertos/FreeRTOSv10.4.1/FreeRTOS/Source/stream_buffer.c ****             traceSTREAM_BUFFER_CREATE_FAILED( xIsMessageBuffer );
 277:../../../../dependencies/freertos/FreeRTOSv10.4.1/FreeRTOS/Source/stream_buffer.c ****         }
 278:../../../../dependencies/freertos/FreeRTOSv10.4.1/FreeRTOS/Source/stream_buffer.c **** 
 279:../../../../dependencies/freertos/FreeRTOSv10.4.1/FreeRTOS/Source/stream_buffer.c ****         return ( StreamBufferHandle_t ) pucAllocatedMemory; /*lint !e9087 !e826 Safe cast as alloca
 169              		.loc 1 279 16
 170 00ac 3B6A     		ldr	r3, [r7, #32]
 280:../../../../dependencies/freertos/FreeRTOSv10.4.1/FreeRTOS/Source/stream_buffer.c ****     }
 171              		.loc 1 280 5
 172 00ae 1846     		mov	r0, r3
 173 00b0 2837     		adds	r7, r7, #40
 174              	.LCFI3:
 175              		.cfi_def_cfa_offset 8
 176 00b2 BD46     		mov	sp, r7
 177              	.LCFI4:
 178              		.cfi_def_cfa_register 13
 179              		@ sp needed
 180 00b4 80BD     		pop	{r7, pc}
 181              		.cfi_endproc
 182              	.LFE5:
 184              		.section	.text.vStreamBufferDelete,"ax",%progbits
 185              		.align	1
 186              		.global	vStreamBufferDelete
 187              		.syntax unified
 188              		.thumb
 189              		.thumb_func
 190              		.fpu fpv4-sp-d16
 192              	vStreamBufferDelete:
 193              	.LFB6:
 281:../../../../dependencies/freertos/FreeRTOSv10.4.1/FreeRTOS/Source/stream_buffer.c **** 
 282:../../../../dependencies/freertos/FreeRTOSv10.4.1/FreeRTOS/Source/stream_buffer.c **** #endif /* configSUPPORT_DYNAMIC_ALLOCATION */
 283:../../../../dependencies/freertos/FreeRTOSv10.4.1/FreeRTOS/Source/stream_buffer.c **** /*-----------------------------------------------------------*/
 284:../../../../dependencies/freertos/FreeRTOSv10.4.1/FreeRTOS/Source/stream_buffer.c **** 
 285:../../../../dependencies/freertos/FreeRTOSv10.4.1/FreeRTOS/Source/stream_buffer.c **** #if ( configSUPPORT_STATIC_ALLOCATION == 1 )
 286:../../../../dependencies/freertos/FreeRTOSv10.4.1/FreeRTOS/Source/stream_buffer.c **** 
 287:../../../../dependencies/freertos/FreeRTOSv10.4.1/FreeRTOS/Source/stream_buffer.c ****     StreamBufferHandle_t xStreamBufferGenericCreateStatic( size_t xBufferSizeBytes,
ARM GAS  /var/folders/kj/yzqgq53j3dg15vgwwwwgf5s00000gn/T//ccSjr9dy.s 			page 13


 288:../../../../dependencies/freertos/FreeRTOSv10.4.1/FreeRTOS/Source/stream_buffer.c ****                                                            size_t xTriggerLevelBytes,
 289:../../../../dependencies/freertos/FreeRTOSv10.4.1/FreeRTOS/Source/stream_buffer.c ****                                                            BaseType_t xIsMessageBuffer,
 290:../../../../dependencies/freertos/FreeRTOSv10.4.1/FreeRTOS/Source/stream_buffer.c ****                                                            uint8_t * const pucStreamBufferStorageAr
 291:../../../../dependencies/freertos/FreeRTOSv10.4.1/FreeRTOS/Source/stream_buffer.c ****                                                            StaticStreamBuffer_t * const pxStaticStr
 292:../../../../dependencies/freertos/FreeRTOSv10.4.1/FreeRTOS/Source/stream_buffer.c ****     {
 293:../../../../dependencies/freertos/FreeRTOSv10.4.1/FreeRTOS/Source/stream_buffer.c ****         StreamBuffer_t * const pxStreamBuffer = ( StreamBuffer_t * ) pxStaticStreamBuffer; /*lint !
 294:../../../../dependencies/freertos/FreeRTOSv10.4.1/FreeRTOS/Source/stream_buffer.c ****         StreamBufferHandle_t xReturn;
 295:../../../../dependencies/freertos/FreeRTOSv10.4.1/FreeRTOS/Source/stream_buffer.c ****         uint8_t ucFlags;
 296:../../../../dependencies/freertos/FreeRTOSv10.4.1/FreeRTOS/Source/stream_buffer.c **** 
 297:../../../../dependencies/freertos/FreeRTOSv10.4.1/FreeRTOS/Source/stream_buffer.c ****         configASSERT( pucStreamBufferStorageArea );
 298:../../../../dependencies/freertos/FreeRTOSv10.4.1/FreeRTOS/Source/stream_buffer.c ****         configASSERT( pxStaticStreamBuffer );
 299:../../../../dependencies/freertos/FreeRTOSv10.4.1/FreeRTOS/Source/stream_buffer.c ****         configASSERT( xTriggerLevelBytes <= xBufferSizeBytes );
 300:../../../../dependencies/freertos/FreeRTOSv10.4.1/FreeRTOS/Source/stream_buffer.c **** 
 301:../../../../dependencies/freertos/FreeRTOSv10.4.1/FreeRTOS/Source/stream_buffer.c ****         /* A trigger level of 0 would cause a waiting task to unblock even when
 302:../../../../dependencies/freertos/FreeRTOSv10.4.1/FreeRTOS/Source/stream_buffer.c ****          * the buffer was empty. */
 303:../../../../dependencies/freertos/FreeRTOSv10.4.1/FreeRTOS/Source/stream_buffer.c ****         if( xTriggerLevelBytes == ( size_t ) 0 )
 304:../../../../dependencies/freertos/FreeRTOSv10.4.1/FreeRTOS/Source/stream_buffer.c ****         {
 305:../../../../dependencies/freertos/FreeRTOSv10.4.1/FreeRTOS/Source/stream_buffer.c ****             xTriggerLevelBytes = ( size_t ) 1;
 306:../../../../dependencies/freertos/FreeRTOSv10.4.1/FreeRTOS/Source/stream_buffer.c ****         }
 307:../../../../dependencies/freertos/FreeRTOSv10.4.1/FreeRTOS/Source/stream_buffer.c **** 
 308:../../../../dependencies/freertos/FreeRTOSv10.4.1/FreeRTOS/Source/stream_buffer.c ****         if( xIsMessageBuffer != pdFALSE )
 309:../../../../dependencies/freertos/FreeRTOSv10.4.1/FreeRTOS/Source/stream_buffer.c ****         {
 310:../../../../dependencies/freertos/FreeRTOSv10.4.1/FreeRTOS/Source/stream_buffer.c ****             /* Statically allocated message buffer. */
 311:../../../../dependencies/freertos/FreeRTOSv10.4.1/FreeRTOS/Source/stream_buffer.c ****             ucFlags = sbFLAGS_IS_MESSAGE_BUFFER | sbFLAGS_IS_STATICALLY_ALLOCATED;
 312:../../../../dependencies/freertos/FreeRTOSv10.4.1/FreeRTOS/Source/stream_buffer.c ****         }
 313:../../../../dependencies/freertos/FreeRTOSv10.4.1/FreeRTOS/Source/stream_buffer.c ****         else
 314:../../../../dependencies/freertos/FreeRTOSv10.4.1/FreeRTOS/Source/stream_buffer.c ****         {
 315:../../../../dependencies/freertos/FreeRTOSv10.4.1/FreeRTOS/Source/stream_buffer.c ****             /* Statically allocated stream buffer. */
 316:../../../../dependencies/freertos/FreeRTOSv10.4.1/FreeRTOS/Source/stream_buffer.c ****             ucFlags = sbFLAGS_IS_STATICALLY_ALLOCATED;
 317:../../../../dependencies/freertos/FreeRTOSv10.4.1/FreeRTOS/Source/stream_buffer.c ****         }
 318:../../../../dependencies/freertos/FreeRTOSv10.4.1/FreeRTOS/Source/stream_buffer.c **** 
 319:../../../../dependencies/freertos/FreeRTOSv10.4.1/FreeRTOS/Source/stream_buffer.c ****         /* In case the stream buffer is going to be used as a message buffer
 320:../../../../dependencies/freertos/FreeRTOSv10.4.1/FreeRTOS/Source/stream_buffer.c ****          * (that is, it will hold discrete messages with a little meta data that
 321:../../../../dependencies/freertos/FreeRTOSv10.4.1/FreeRTOS/Source/stream_buffer.c ****          * says how big the next message is) check the buffer will be large enough
 322:../../../../dependencies/freertos/FreeRTOSv10.4.1/FreeRTOS/Source/stream_buffer.c ****          * to hold at least one message. */
 323:../../../../dependencies/freertos/FreeRTOSv10.4.1/FreeRTOS/Source/stream_buffer.c ****         configASSERT( xBufferSizeBytes > sbBYTES_TO_STORE_MESSAGE_LENGTH );
 324:../../../../dependencies/freertos/FreeRTOSv10.4.1/FreeRTOS/Source/stream_buffer.c **** 
 325:../../../../dependencies/freertos/FreeRTOSv10.4.1/FreeRTOS/Source/stream_buffer.c ****         #if ( configASSERT_DEFINED == 1 )
 326:../../../../dependencies/freertos/FreeRTOSv10.4.1/FreeRTOS/Source/stream_buffer.c ****             {
 327:../../../../dependencies/freertos/FreeRTOSv10.4.1/FreeRTOS/Source/stream_buffer.c ****                 /* Sanity check that the size of the structure used to declare a
 328:../../../../dependencies/freertos/FreeRTOSv10.4.1/FreeRTOS/Source/stream_buffer.c ****                  * variable of type StaticStreamBuffer_t equals the size of the real
 329:../../../../dependencies/freertos/FreeRTOSv10.4.1/FreeRTOS/Source/stream_buffer.c ****                  * message buffer structure. */
 330:../../../../dependencies/freertos/FreeRTOSv10.4.1/FreeRTOS/Source/stream_buffer.c ****                 volatile size_t xSize = sizeof( StaticStreamBuffer_t );
 331:../../../../dependencies/freertos/FreeRTOSv10.4.1/FreeRTOS/Source/stream_buffer.c ****                 configASSERT( xSize == sizeof( StreamBuffer_t ) );
 332:../../../../dependencies/freertos/FreeRTOSv10.4.1/FreeRTOS/Source/stream_buffer.c ****             } /*lint !e529 xSize is referenced is configASSERT() is defined. */
 333:../../../../dependencies/freertos/FreeRTOSv10.4.1/FreeRTOS/Source/stream_buffer.c ****         #endif /* configASSERT_DEFINED */
 334:../../../../dependencies/freertos/FreeRTOSv10.4.1/FreeRTOS/Source/stream_buffer.c **** 
 335:../../../../dependencies/freertos/FreeRTOSv10.4.1/FreeRTOS/Source/stream_buffer.c ****         if( ( pucStreamBufferStorageArea != NULL ) && ( pxStaticStreamBuffer != NULL ) )
 336:../../../../dependencies/freertos/FreeRTOSv10.4.1/FreeRTOS/Source/stream_buffer.c ****         {
 337:../../../../dependencies/freertos/FreeRTOSv10.4.1/FreeRTOS/Source/stream_buffer.c ****             prvInitialiseNewStreamBuffer( pxStreamBuffer,
 338:../../../../dependencies/freertos/FreeRTOSv10.4.1/FreeRTOS/Source/stream_buffer.c ****                                           pucStreamBufferStorageArea,
 339:../../../../dependencies/freertos/FreeRTOSv10.4.1/FreeRTOS/Source/stream_buffer.c ****                                           xBufferSizeBytes,
 340:../../../../dependencies/freertos/FreeRTOSv10.4.1/FreeRTOS/Source/stream_buffer.c ****                                           xTriggerLevelBytes,
 341:../../../../dependencies/freertos/FreeRTOSv10.4.1/FreeRTOS/Source/stream_buffer.c ****                                           ucFlags );
 342:../../../../dependencies/freertos/FreeRTOSv10.4.1/FreeRTOS/Source/stream_buffer.c **** 
 343:../../../../dependencies/freertos/FreeRTOSv10.4.1/FreeRTOS/Source/stream_buffer.c ****             /* Remember this was statically allocated in case it is ever deleted
 344:../../../../dependencies/freertos/FreeRTOSv10.4.1/FreeRTOS/Source/stream_buffer.c ****              * again. */
ARM GAS  /var/folders/kj/yzqgq53j3dg15vgwwwwgf5s00000gn/T//ccSjr9dy.s 			page 14


 345:../../../../dependencies/freertos/FreeRTOSv10.4.1/FreeRTOS/Source/stream_buffer.c ****             pxStreamBuffer->ucFlags |= sbFLAGS_IS_STATICALLY_ALLOCATED;
 346:../../../../dependencies/freertos/FreeRTOSv10.4.1/FreeRTOS/Source/stream_buffer.c **** 
 347:../../../../dependencies/freertos/FreeRTOSv10.4.1/FreeRTOS/Source/stream_buffer.c ****             traceSTREAM_BUFFER_CREATE( pxStreamBuffer, xIsMessageBuffer );
 348:../../../../dependencies/freertos/FreeRTOSv10.4.1/FreeRTOS/Source/stream_buffer.c **** 
 349:../../../../dependencies/freertos/FreeRTOSv10.4.1/FreeRTOS/Source/stream_buffer.c ****             xReturn = ( StreamBufferHandle_t ) pxStaticStreamBuffer; /*lint !e9087 Data hiding requ
 350:../../../../dependencies/freertos/FreeRTOSv10.4.1/FreeRTOS/Source/stream_buffer.c ****         }
 351:../../../../dependencies/freertos/FreeRTOSv10.4.1/FreeRTOS/Source/stream_buffer.c ****         else
 352:../../../../dependencies/freertos/FreeRTOSv10.4.1/FreeRTOS/Source/stream_buffer.c ****         {
 353:../../../../dependencies/freertos/FreeRTOSv10.4.1/FreeRTOS/Source/stream_buffer.c ****             xReturn = NULL;
 354:../../../../dependencies/freertos/FreeRTOSv10.4.1/FreeRTOS/Source/stream_buffer.c ****             traceSTREAM_BUFFER_CREATE_STATIC_FAILED( xReturn, xIsMessageBuffer );
 355:../../../../dependencies/freertos/FreeRTOSv10.4.1/FreeRTOS/Source/stream_buffer.c ****         }
 356:../../../../dependencies/freertos/FreeRTOSv10.4.1/FreeRTOS/Source/stream_buffer.c **** 
 357:../../../../dependencies/freertos/FreeRTOSv10.4.1/FreeRTOS/Source/stream_buffer.c ****         return xReturn;
 358:../../../../dependencies/freertos/FreeRTOSv10.4.1/FreeRTOS/Source/stream_buffer.c ****     }
 359:../../../../dependencies/freertos/FreeRTOSv10.4.1/FreeRTOS/Source/stream_buffer.c **** 
 360:../../../../dependencies/freertos/FreeRTOSv10.4.1/FreeRTOS/Source/stream_buffer.c **** #endif /* ( configSUPPORT_STATIC_ALLOCATION == 1 ) */
 361:../../../../dependencies/freertos/FreeRTOSv10.4.1/FreeRTOS/Source/stream_buffer.c **** /*-----------------------------------------------------------*/
 362:../../../../dependencies/freertos/FreeRTOSv10.4.1/FreeRTOS/Source/stream_buffer.c **** 
 363:../../../../dependencies/freertos/FreeRTOSv10.4.1/FreeRTOS/Source/stream_buffer.c **** void vStreamBufferDelete( StreamBufferHandle_t xStreamBuffer )
 364:../../../../dependencies/freertos/FreeRTOSv10.4.1/FreeRTOS/Source/stream_buffer.c **** {
 194              		.loc 1 364 1
 195              		.cfi_startproc
 196              		@ args = 0, pretend = 0, frame = 16
 197              		@ frame_needed = 1, uses_anonymous_args = 0
 198 0000 80B5     		push	{r7, lr}
 199              	.LCFI5:
 200              		.cfi_def_cfa_offset 8
 201              		.cfi_offset 7, -8
 202              		.cfi_offset 14, -4
 203 0002 84B0     		sub	sp, sp, #16
 204              	.LCFI6:
 205              		.cfi_def_cfa_offset 24
 206 0004 00AF     		add	r7, sp, #0
 207              	.LCFI7:
 208              		.cfi_def_cfa_register 7
 209 0006 7860     		str	r0, [r7, #4]
 365:../../../../dependencies/freertos/FreeRTOSv10.4.1/FreeRTOS/Source/stream_buffer.c ****     StreamBuffer_t * pxStreamBuffer = xStreamBuffer;
 210              		.loc 1 365 22
 211 0008 7B68     		ldr	r3, [r7, #4]
 212 000a FB60     		str	r3, [r7, #12]
 366:../../../../dependencies/freertos/FreeRTOSv10.4.1/FreeRTOS/Source/stream_buffer.c **** 
 367:../../../../dependencies/freertos/FreeRTOSv10.4.1/FreeRTOS/Source/stream_buffer.c ****     configASSERT( pxStreamBuffer );
 213              		.loc 1 367 5
 214 000c FB68     		ldr	r3, [r7, #12]
 215 000e 002B     		cmp	r3, #0
 216 0010 0AD1     		bne	.L12
 217              	.LBB91:
 218              	.LBB92:
 197:../../../../dependencies/freertos/FreeRTOSv10.4.1/FreeRTOS/Source/portable/GCC/ARM_CM4F/portmacro.h ****         (
 219              		.loc 2 197 9
 220              		.syntax unified
 221              	@ 197 "../../../../dependencies/freertos/FreeRTOSv10.4.1/FreeRTOS/Source/portable/GCC/ARM_CM4F/port
 222 0012 4FF05003 			mov r3, #80												
 223 0016 83F31188 		msr basepri, r3											
 224 001a BFF36F8F 		isb														
 225 001e BFF34F8F 		dsb														
 226              	
ARM GAS  /var/folders/kj/yzqgq53j3dg15vgwwwwgf5s00000gn/T//ccSjr9dy.s 			page 15


 227              	@ 0 "" 2
 228              		.thumb
 229              		.syntax unified
 230 0022 BB60     		str	r3, [r7, #8]
 231              		.loc 2 205 5
 232 0024 00BF     		nop
 233              	.L13:
 234              	.LBE92:
 235              	.LBE91:
 236              		.loc 1 367 5 discriminator 1
 237 0026 FEE7     		b	.L13
 238              	.L12:
 368:../../../../dependencies/freertos/FreeRTOSv10.4.1/FreeRTOS/Source/stream_buffer.c **** 
 369:../../../../dependencies/freertos/FreeRTOSv10.4.1/FreeRTOS/Source/stream_buffer.c ****     traceSTREAM_BUFFER_DELETE( xStreamBuffer );
 370:../../../../dependencies/freertos/FreeRTOSv10.4.1/FreeRTOS/Source/stream_buffer.c **** 
 371:../../../../dependencies/freertos/FreeRTOSv10.4.1/FreeRTOS/Source/stream_buffer.c ****     if( ( pxStreamBuffer->ucFlags & sbFLAGS_IS_STATICALLY_ALLOCATED ) == ( uint8_t ) pdFALSE )
 239              		.loc 1 371 25
 240 0028 FB68     		ldr	r3, [r7, #12]
 241 002a 1B7F     		ldrb	r3, [r3, #28]	@ zero_extendqisi2
 242              		.loc 1 371 35
 243 002c 03F00203 		and	r3, r3, #2
 244              		.loc 1 371 7
 245 0030 002B     		cmp	r3, #0
 246 0032 03D1     		bne	.L14
 372:../../../../dependencies/freertos/FreeRTOSv10.4.1/FreeRTOS/Source/stream_buffer.c ****     {
 373:../../../../dependencies/freertos/FreeRTOSv10.4.1/FreeRTOS/Source/stream_buffer.c ****         #if ( configSUPPORT_DYNAMIC_ALLOCATION == 1 )
 374:../../../../dependencies/freertos/FreeRTOSv10.4.1/FreeRTOS/Source/stream_buffer.c ****             {
 375:../../../../dependencies/freertos/FreeRTOSv10.4.1/FreeRTOS/Source/stream_buffer.c ****                 /* Both the structure and the buffer were allocated using a single call
 376:../../../../dependencies/freertos/FreeRTOSv10.4.1/FreeRTOS/Source/stream_buffer.c ****                 * to pvPortMalloc(), hence only one call to vPortFree() is required. */
 377:../../../../dependencies/freertos/FreeRTOSv10.4.1/FreeRTOS/Source/stream_buffer.c ****                 vPortFree( ( void * ) pxStreamBuffer ); /*lint !e9087 Standard free() semantics req
 247              		.loc 1 377 17
 248 0034 F868     		ldr	r0, [r7, #12]
 249 0036 FFF7FEFF 		bl	vPortFree
 378:../../../../dependencies/freertos/FreeRTOSv10.4.1/FreeRTOS/Source/stream_buffer.c ****             }
 379:../../../../dependencies/freertos/FreeRTOSv10.4.1/FreeRTOS/Source/stream_buffer.c ****         #else
 380:../../../../dependencies/freertos/FreeRTOSv10.4.1/FreeRTOS/Source/stream_buffer.c ****             {
 381:../../../../dependencies/freertos/FreeRTOSv10.4.1/FreeRTOS/Source/stream_buffer.c ****                 /* Should not be possible to get here, ucFlags must be corrupt.
 382:../../../../dependencies/freertos/FreeRTOSv10.4.1/FreeRTOS/Source/stream_buffer.c ****                  * Force an assert. */
 383:../../../../dependencies/freertos/FreeRTOSv10.4.1/FreeRTOS/Source/stream_buffer.c ****                 configASSERT( xStreamBuffer == ( StreamBufferHandle_t ) ~0 );
 384:../../../../dependencies/freertos/FreeRTOSv10.4.1/FreeRTOS/Source/stream_buffer.c ****             }
 385:../../../../dependencies/freertos/FreeRTOSv10.4.1/FreeRTOS/Source/stream_buffer.c ****         #endif
 386:../../../../dependencies/freertos/FreeRTOSv10.4.1/FreeRTOS/Source/stream_buffer.c ****     }
 387:../../../../dependencies/freertos/FreeRTOSv10.4.1/FreeRTOS/Source/stream_buffer.c ****     else
 388:../../../../dependencies/freertos/FreeRTOSv10.4.1/FreeRTOS/Source/stream_buffer.c ****     {
 389:../../../../dependencies/freertos/FreeRTOSv10.4.1/FreeRTOS/Source/stream_buffer.c ****         /* The structure and buffer were not allocated dynamically and cannot be
 390:../../../../dependencies/freertos/FreeRTOSv10.4.1/FreeRTOS/Source/stream_buffer.c ****          * freed - just scrub the structure so future use will assert. */
 391:../../../../dependencies/freertos/FreeRTOSv10.4.1/FreeRTOS/Source/stream_buffer.c ****         ( void ) memset( pxStreamBuffer, 0x00, sizeof( StreamBuffer_t ) );
 392:../../../../dependencies/freertos/FreeRTOSv10.4.1/FreeRTOS/Source/stream_buffer.c ****     }
 393:../../../../dependencies/freertos/FreeRTOSv10.4.1/FreeRTOS/Source/stream_buffer.c **** }
 250              		.loc 1 393 1
 251 003a 04E0     		b	.L16
 252              	.L14:
 391:../../../../dependencies/freertos/FreeRTOSv10.4.1/FreeRTOS/Source/stream_buffer.c ****     }
 253              		.loc 1 391 18
 254 003c 2422     		movs	r2, #36
 255 003e 0021     		movs	r1, #0
 256 0040 F868     		ldr	r0, [r7, #12]
ARM GAS  /var/folders/kj/yzqgq53j3dg15vgwwwwgf5s00000gn/T//ccSjr9dy.s 			page 16


 257 0042 FFF7FEFF 		bl	memset
 258              	.L16:
 259              		.loc 1 393 1
 260 0046 00BF     		nop
 261 0048 1037     		adds	r7, r7, #16
 262              	.LCFI8:
 263              		.cfi_def_cfa_offset 8
 264 004a BD46     		mov	sp, r7
 265              	.LCFI9:
 266              		.cfi_def_cfa_register 13
 267              		@ sp needed
 268 004c 80BD     		pop	{r7, pc}
 269              		.cfi_endproc
 270              	.LFE6:
 272              		.section	.text.xStreamBufferReset,"ax",%progbits
 273              		.align	1
 274              		.global	xStreamBufferReset
 275              		.syntax unified
 276              		.thumb
 277              		.thumb_func
 278              		.fpu fpv4-sp-d16
 280              	xStreamBufferReset:
 281              	.LFB7:
 394:../../../../dependencies/freertos/FreeRTOSv10.4.1/FreeRTOS/Source/stream_buffer.c **** /*-----------------------------------------------------------*/
 395:../../../../dependencies/freertos/FreeRTOSv10.4.1/FreeRTOS/Source/stream_buffer.c **** 
 396:../../../../dependencies/freertos/FreeRTOSv10.4.1/FreeRTOS/Source/stream_buffer.c **** BaseType_t xStreamBufferReset( StreamBufferHandle_t xStreamBuffer )
 397:../../../../dependencies/freertos/FreeRTOSv10.4.1/FreeRTOS/Source/stream_buffer.c **** {
 282              		.loc 1 397 1
 283              		.cfi_startproc
 284              		@ args = 0, pretend = 0, frame = 24
 285              		@ frame_needed = 1, uses_anonymous_args = 0
 286 0000 80B5     		push	{r7, lr}
 287              	.LCFI10:
 288              		.cfi_def_cfa_offset 8
 289              		.cfi_offset 7, -8
 290              		.cfi_offset 14, -4
 291 0002 88B0     		sub	sp, sp, #32
 292              	.LCFI11:
 293              		.cfi_def_cfa_offset 40
 294 0004 02AF     		add	r7, sp, #8
 295              	.LCFI12:
 296              		.cfi_def_cfa 7, 32
 297 0006 7860     		str	r0, [r7, #4]
 398:../../../../dependencies/freertos/FreeRTOSv10.4.1/FreeRTOS/Source/stream_buffer.c ****     StreamBuffer_t * const pxStreamBuffer = xStreamBuffer;
 298              		.loc 1 398 28
 299 0008 7B68     		ldr	r3, [r7, #4]
 300 000a 3B61     		str	r3, [r7, #16]
 399:../../../../dependencies/freertos/FreeRTOSv10.4.1/FreeRTOS/Source/stream_buffer.c ****     BaseType_t xReturn = pdFAIL;
 301              		.loc 1 399 16
 302 000c 0023     		movs	r3, #0
 303 000e 7B61     		str	r3, [r7, #20]
 400:../../../../dependencies/freertos/FreeRTOSv10.4.1/FreeRTOS/Source/stream_buffer.c **** 
 401:../../../../dependencies/freertos/FreeRTOSv10.4.1/FreeRTOS/Source/stream_buffer.c ****     #if ( configUSE_TRACE_FACILITY == 1 )
 402:../../../../dependencies/freertos/FreeRTOSv10.4.1/FreeRTOS/Source/stream_buffer.c ****         UBaseType_t uxStreamBufferNumber;
 403:../../../../dependencies/freertos/FreeRTOSv10.4.1/FreeRTOS/Source/stream_buffer.c ****     #endif
 404:../../../../dependencies/freertos/FreeRTOSv10.4.1/FreeRTOS/Source/stream_buffer.c **** 
 405:../../../../dependencies/freertos/FreeRTOSv10.4.1/FreeRTOS/Source/stream_buffer.c ****     configASSERT( pxStreamBuffer );
ARM GAS  /var/folders/kj/yzqgq53j3dg15vgwwwwgf5s00000gn/T//ccSjr9dy.s 			page 17


 304              		.loc 1 405 5
 305 0010 3B69     		ldr	r3, [r7, #16]
 306 0012 002B     		cmp	r3, #0
 307 0014 0AD1     		bne	.L18
 308              	.LBB93:
 309              	.LBB94:
 197:../../../../dependencies/freertos/FreeRTOSv10.4.1/FreeRTOS/Source/portable/GCC/ARM_CM4F/portmacro.h ****         (
 310              		.loc 2 197 9
 311              		.syntax unified
 312              	@ 197 "../../../../dependencies/freertos/FreeRTOSv10.4.1/FreeRTOS/Source/portable/GCC/ARM_CM4F/port
 313 0016 4FF05003 			mov r3, #80												
 314 001a 83F31188 		msr basepri, r3											
 315 001e BFF36F8F 		isb														
 316 0022 BFF34F8F 		dsb														
 317              	
 318              	@ 0 "" 2
 319              		.thumb
 320              		.syntax unified
 321 0026 BB60     		str	r3, [r7, #8]
 322              		.loc 2 205 5
 323 0028 00BF     		nop
 324              	.L19:
 325              	.LBE94:
 326              	.LBE93:
 327              		.loc 1 405 5 discriminator 1
 328 002a FEE7     		b	.L19
 329              	.L18:
 406:../../../../dependencies/freertos/FreeRTOSv10.4.1/FreeRTOS/Source/stream_buffer.c **** 
 407:../../../../dependencies/freertos/FreeRTOSv10.4.1/FreeRTOS/Source/stream_buffer.c ****     #if ( configUSE_TRACE_FACILITY == 1 )
 408:../../../../dependencies/freertos/FreeRTOSv10.4.1/FreeRTOS/Source/stream_buffer.c ****         {
 409:../../../../dependencies/freertos/FreeRTOSv10.4.1/FreeRTOS/Source/stream_buffer.c ****             /* Store the stream buffer number so it can be restored after the
 410:../../../../dependencies/freertos/FreeRTOSv10.4.1/FreeRTOS/Source/stream_buffer.c ****              * reset. */
 411:../../../../dependencies/freertos/FreeRTOSv10.4.1/FreeRTOS/Source/stream_buffer.c ****             uxStreamBufferNumber = pxStreamBuffer->uxStreamBufferNumber;
 330              		.loc 1 411 34
 331 002c 3B69     		ldr	r3, [r7, #16]
 332 002e 1B6A     		ldr	r3, [r3, #32]
 333 0030 FB60     		str	r3, [r7, #12]
 412:../../../../dependencies/freertos/FreeRTOSv10.4.1/FreeRTOS/Source/stream_buffer.c ****         }
 413:../../../../dependencies/freertos/FreeRTOSv10.4.1/FreeRTOS/Source/stream_buffer.c ****     #endif
 414:../../../../dependencies/freertos/FreeRTOSv10.4.1/FreeRTOS/Source/stream_buffer.c **** 
 415:../../../../dependencies/freertos/FreeRTOSv10.4.1/FreeRTOS/Source/stream_buffer.c ****     /* Can only reset a message buffer if there are no tasks blocked on it. */
 416:../../../../dependencies/freertos/FreeRTOSv10.4.1/FreeRTOS/Source/stream_buffer.c ****     taskENTER_CRITICAL();
 334              		.loc 1 416 5
 335 0032 FFF7FEFF 		bl	vPortEnterCritical
 417:../../../../dependencies/freertos/FreeRTOSv10.4.1/FreeRTOS/Source/stream_buffer.c ****     {
 418:../../../../dependencies/freertos/FreeRTOSv10.4.1/FreeRTOS/Source/stream_buffer.c ****         if( pxStreamBuffer->xTaskWaitingToReceive == NULL )
 336              		.loc 1 418 27
 337 0036 3B69     		ldr	r3, [r7, #16]
 338 0038 1B69     		ldr	r3, [r3, #16]
 339              		.loc 1 418 11
 340 003a 002B     		cmp	r3, #0
 341 003c 15D1     		bne	.L20
 419:../../../../dependencies/freertos/FreeRTOSv10.4.1/FreeRTOS/Source/stream_buffer.c ****         {
 420:../../../../dependencies/freertos/FreeRTOSv10.4.1/FreeRTOS/Source/stream_buffer.c ****             if( pxStreamBuffer->xTaskWaitingToSend == NULL )
 342              		.loc 1 420 31
 343 003e 3B69     		ldr	r3, [r7, #16]
 344 0040 5B69     		ldr	r3, [r3, #20]
ARM GAS  /var/folders/kj/yzqgq53j3dg15vgwwwwgf5s00000gn/T//ccSjr9dy.s 			page 18


 345              		.loc 1 420 15
 346 0042 002B     		cmp	r3, #0
 347 0044 11D1     		bne	.L20
 421:../../../../dependencies/freertos/FreeRTOSv10.4.1/FreeRTOS/Source/stream_buffer.c ****             {
 422:../../../../dependencies/freertos/FreeRTOSv10.4.1/FreeRTOS/Source/stream_buffer.c ****                 prvInitialiseNewStreamBuffer( pxStreamBuffer,
 348              		.loc 1 422 17
 349 0046 3B69     		ldr	r3, [r7, #16]
 350 0048 9969     		ldr	r1, [r3, #24]
 351 004a 3B69     		ldr	r3, [r7, #16]
 352 004c 9A68     		ldr	r2, [r3, #8]
 353 004e 3B69     		ldr	r3, [r7, #16]
 354 0050 D868     		ldr	r0, [r3, #12]
 355 0052 3B69     		ldr	r3, [r7, #16]
 356 0054 1B7F     		ldrb	r3, [r3, #28]	@ zero_extendqisi2
 357 0056 0093     		str	r3, [sp]
 358 0058 0346     		mov	r3, r0
 359 005a 3869     		ldr	r0, [r7, #16]
 360 005c FFF7FEFF 		bl	prvInitialiseNewStreamBuffer
 423:../../../../dependencies/freertos/FreeRTOSv10.4.1/FreeRTOS/Source/stream_buffer.c ****                                               pxStreamBuffer->pucBuffer,
 424:../../../../dependencies/freertos/FreeRTOSv10.4.1/FreeRTOS/Source/stream_buffer.c ****                                               pxStreamBuffer->xLength,
 425:../../../../dependencies/freertos/FreeRTOSv10.4.1/FreeRTOS/Source/stream_buffer.c ****                                               pxStreamBuffer->xTriggerLevelBytes,
 426:../../../../dependencies/freertos/FreeRTOSv10.4.1/FreeRTOS/Source/stream_buffer.c ****                                               pxStreamBuffer->ucFlags );
 427:../../../../dependencies/freertos/FreeRTOSv10.4.1/FreeRTOS/Source/stream_buffer.c ****                 xReturn = pdPASS;
 361              		.loc 1 427 25
 362 0060 0123     		movs	r3, #1
 363 0062 7B61     		str	r3, [r7, #20]
 428:../../../../dependencies/freertos/FreeRTOSv10.4.1/FreeRTOS/Source/stream_buffer.c **** 
 429:../../../../dependencies/freertos/FreeRTOSv10.4.1/FreeRTOS/Source/stream_buffer.c ****                 #if ( configUSE_TRACE_FACILITY == 1 )
 430:../../../../dependencies/freertos/FreeRTOSv10.4.1/FreeRTOS/Source/stream_buffer.c ****                     {
 431:../../../../dependencies/freertos/FreeRTOSv10.4.1/FreeRTOS/Source/stream_buffer.c ****                         pxStreamBuffer->uxStreamBufferNumber = uxStreamBufferNumber;
 364              		.loc 1 431 62
 365 0064 3B69     		ldr	r3, [r7, #16]
 366 0066 FA68     		ldr	r2, [r7, #12]
 367 0068 1A62     		str	r2, [r3, #32]
 368              	.L20:
 432:../../../../dependencies/freertos/FreeRTOSv10.4.1/FreeRTOS/Source/stream_buffer.c ****                     }
 433:../../../../dependencies/freertos/FreeRTOSv10.4.1/FreeRTOS/Source/stream_buffer.c ****                 #endif
 434:../../../../dependencies/freertos/FreeRTOSv10.4.1/FreeRTOS/Source/stream_buffer.c **** 
 435:../../../../dependencies/freertos/FreeRTOSv10.4.1/FreeRTOS/Source/stream_buffer.c ****                 traceSTREAM_BUFFER_RESET( xStreamBuffer );
 436:../../../../dependencies/freertos/FreeRTOSv10.4.1/FreeRTOS/Source/stream_buffer.c ****             }
 437:../../../../dependencies/freertos/FreeRTOSv10.4.1/FreeRTOS/Source/stream_buffer.c ****         }
 438:../../../../dependencies/freertos/FreeRTOSv10.4.1/FreeRTOS/Source/stream_buffer.c ****     }
 439:../../../../dependencies/freertos/FreeRTOSv10.4.1/FreeRTOS/Source/stream_buffer.c ****     taskEXIT_CRITICAL();
 369              		.loc 1 439 5
 370 006a FFF7FEFF 		bl	vPortExitCritical
 440:../../../../dependencies/freertos/FreeRTOSv10.4.1/FreeRTOS/Source/stream_buffer.c **** 
 441:../../../../dependencies/freertos/FreeRTOSv10.4.1/FreeRTOS/Source/stream_buffer.c ****     return xReturn;
 371              		.loc 1 441 12
 372 006e 7B69     		ldr	r3, [r7, #20]
 442:../../../../dependencies/freertos/FreeRTOSv10.4.1/FreeRTOS/Source/stream_buffer.c **** }
 373              		.loc 1 442 1
 374 0070 1846     		mov	r0, r3
 375 0072 1837     		adds	r7, r7, #24
 376              	.LCFI13:
 377              		.cfi_def_cfa_offset 8
 378 0074 BD46     		mov	sp, r7
 379              	.LCFI14:
ARM GAS  /var/folders/kj/yzqgq53j3dg15vgwwwwgf5s00000gn/T//ccSjr9dy.s 			page 19


 380              		.cfi_def_cfa_register 13
 381              		@ sp needed
 382 0076 80BD     		pop	{r7, pc}
 383              		.cfi_endproc
 384              	.LFE7:
 386              		.section	.text.xStreamBufferSetTriggerLevel,"ax",%progbits
 387              		.align	1
 388              		.global	xStreamBufferSetTriggerLevel
 389              		.syntax unified
 390              		.thumb
 391              		.thumb_func
 392              		.fpu fpv4-sp-d16
 394              	xStreamBufferSetTriggerLevel:
 395              	.LFB8:
 443:../../../../dependencies/freertos/FreeRTOSv10.4.1/FreeRTOS/Source/stream_buffer.c **** /*-----------------------------------------------------------*/
 444:../../../../dependencies/freertos/FreeRTOSv10.4.1/FreeRTOS/Source/stream_buffer.c **** 
 445:../../../../dependencies/freertos/FreeRTOSv10.4.1/FreeRTOS/Source/stream_buffer.c **** BaseType_t xStreamBufferSetTriggerLevel( StreamBufferHandle_t xStreamBuffer,
 446:../../../../dependencies/freertos/FreeRTOSv10.4.1/FreeRTOS/Source/stream_buffer.c ****                                          size_t xTriggerLevel )
 447:../../../../dependencies/freertos/FreeRTOSv10.4.1/FreeRTOS/Source/stream_buffer.c **** {
 396              		.loc 1 447 1
 397              		.cfi_startproc
 398              		@ args = 0, pretend = 0, frame = 24
 399              		@ frame_needed = 1, uses_anonymous_args = 0
 400              		@ link register save eliminated.
 401 0000 80B4     		push	{r7}
 402              	.LCFI15:
 403              		.cfi_def_cfa_offset 4
 404              		.cfi_offset 7, -4
 405 0002 87B0     		sub	sp, sp, #28
 406              	.LCFI16:
 407              		.cfi_def_cfa_offset 32
 408 0004 00AF     		add	r7, sp, #0
 409              	.LCFI17:
 410              		.cfi_def_cfa_register 7
 411 0006 7860     		str	r0, [r7, #4]
 412 0008 3960     		str	r1, [r7]
 448:../../../../dependencies/freertos/FreeRTOSv10.4.1/FreeRTOS/Source/stream_buffer.c ****     StreamBuffer_t * const pxStreamBuffer = xStreamBuffer;
 413              		.loc 1 448 28
 414 000a 7B68     		ldr	r3, [r7, #4]
 415 000c 3B61     		str	r3, [r7, #16]
 449:../../../../dependencies/freertos/FreeRTOSv10.4.1/FreeRTOS/Source/stream_buffer.c ****     BaseType_t xReturn;
 450:../../../../dependencies/freertos/FreeRTOSv10.4.1/FreeRTOS/Source/stream_buffer.c **** 
 451:../../../../dependencies/freertos/FreeRTOSv10.4.1/FreeRTOS/Source/stream_buffer.c ****     configASSERT( pxStreamBuffer );
 416              		.loc 1 451 5
 417 000e 3B69     		ldr	r3, [r7, #16]
 418 0010 002B     		cmp	r3, #0
 419 0012 0AD1     		bne	.L23
 420              	.LBB95:
 421              	.LBB96:
 197:../../../../dependencies/freertos/FreeRTOSv10.4.1/FreeRTOS/Source/portable/GCC/ARM_CM4F/portmacro.h ****         (
 422              		.loc 2 197 9
 423              		.syntax unified
 424              	@ 197 "../../../../dependencies/freertos/FreeRTOSv10.4.1/FreeRTOS/Source/portable/GCC/ARM_CM4F/port
 425 0014 4FF05003 			mov r3, #80												
 426 0018 83F31188 		msr basepri, r3											
 427 001c BFF36F8F 		isb														
 428 0020 BFF34F8F 		dsb														
ARM GAS  /var/folders/kj/yzqgq53j3dg15vgwwwwgf5s00000gn/T//ccSjr9dy.s 			page 20


 429              	
 430              	@ 0 "" 2
 431              		.thumb
 432              		.syntax unified
 433 0024 FB60     		str	r3, [r7, #12]
 434              		.loc 2 205 5
 435 0026 00BF     		nop
 436              	.L24:
 437              	.LBE96:
 438              	.LBE95:
 439              		.loc 1 451 5 discriminator 1
 440 0028 FEE7     		b	.L24
 441              	.L23:
 452:../../../../dependencies/freertos/FreeRTOSv10.4.1/FreeRTOS/Source/stream_buffer.c **** 
 453:../../../../dependencies/freertos/FreeRTOSv10.4.1/FreeRTOS/Source/stream_buffer.c ****     /* It is not valid for the trigger level to be 0. */
 454:../../../../dependencies/freertos/FreeRTOSv10.4.1/FreeRTOS/Source/stream_buffer.c ****     if( xTriggerLevel == ( size_t ) 0 )
 442              		.loc 1 454 7
 443 002a 3B68     		ldr	r3, [r7]
 444 002c 002B     		cmp	r3, #0
 445 002e 01D1     		bne	.L25
 455:../../../../dependencies/freertos/FreeRTOSv10.4.1/FreeRTOS/Source/stream_buffer.c ****     {
 456:../../../../dependencies/freertos/FreeRTOSv10.4.1/FreeRTOS/Source/stream_buffer.c ****         xTriggerLevel = ( size_t ) 1;
 446              		.loc 1 456 23
 447 0030 0123     		movs	r3, #1
 448 0032 3B60     		str	r3, [r7]
 449              	.L25:
 457:../../../../dependencies/freertos/FreeRTOSv10.4.1/FreeRTOS/Source/stream_buffer.c ****     }
 458:../../../../dependencies/freertos/FreeRTOSv10.4.1/FreeRTOS/Source/stream_buffer.c **** 
 459:../../../../dependencies/freertos/FreeRTOSv10.4.1/FreeRTOS/Source/stream_buffer.c ****     /* The trigger level is the number of bytes that must be in the stream
 460:../../../../dependencies/freertos/FreeRTOSv10.4.1/FreeRTOS/Source/stream_buffer.c ****      * buffer before a task that is waiting for data is unblocked. */
 461:../../../../dependencies/freertos/FreeRTOSv10.4.1/FreeRTOS/Source/stream_buffer.c ****     if( xTriggerLevel <= pxStreamBuffer->xLength )
 450              		.loc 1 461 40
 451 0034 3B69     		ldr	r3, [r7, #16]
 452 0036 9B68     		ldr	r3, [r3, #8]
 453              		.loc 1 461 7
 454 0038 3A68     		ldr	r2, [r7]
 455 003a 9A42     		cmp	r2, r3
 456 003c 05D8     		bhi	.L26
 462:../../../../dependencies/freertos/FreeRTOSv10.4.1/FreeRTOS/Source/stream_buffer.c ****     {
 463:../../../../dependencies/freertos/FreeRTOSv10.4.1/FreeRTOS/Source/stream_buffer.c ****         pxStreamBuffer->xTriggerLevelBytes = xTriggerLevel;
 457              		.loc 1 463 44
 458 003e 3B69     		ldr	r3, [r7, #16]
 459 0040 3A68     		ldr	r2, [r7]
 460 0042 DA60     		str	r2, [r3, #12]
 464:../../../../dependencies/freertos/FreeRTOSv10.4.1/FreeRTOS/Source/stream_buffer.c ****         xReturn = pdPASS;
 461              		.loc 1 464 17
 462 0044 0123     		movs	r3, #1
 463 0046 7B61     		str	r3, [r7, #20]
 464 0048 01E0     		b	.L27
 465              	.L26:
 465:../../../../dependencies/freertos/FreeRTOSv10.4.1/FreeRTOS/Source/stream_buffer.c ****     }
 466:../../../../dependencies/freertos/FreeRTOSv10.4.1/FreeRTOS/Source/stream_buffer.c ****     else
 467:../../../../dependencies/freertos/FreeRTOSv10.4.1/FreeRTOS/Source/stream_buffer.c ****     {
 468:../../../../dependencies/freertos/FreeRTOSv10.4.1/FreeRTOS/Source/stream_buffer.c ****         xReturn = pdFALSE;
 466              		.loc 1 468 17
 467 004a 0023     		movs	r3, #0
 468 004c 7B61     		str	r3, [r7, #20]
ARM GAS  /var/folders/kj/yzqgq53j3dg15vgwwwwgf5s00000gn/T//ccSjr9dy.s 			page 21


 469              	.L27:
 469:../../../../dependencies/freertos/FreeRTOSv10.4.1/FreeRTOS/Source/stream_buffer.c ****     }
 470:../../../../dependencies/freertos/FreeRTOSv10.4.1/FreeRTOS/Source/stream_buffer.c **** 
 471:../../../../dependencies/freertos/FreeRTOSv10.4.1/FreeRTOS/Source/stream_buffer.c ****     return xReturn;
 470              		.loc 1 471 12
 471 004e 7B69     		ldr	r3, [r7, #20]
 472:../../../../dependencies/freertos/FreeRTOSv10.4.1/FreeRTOS/Source/stream_buffer.c **** }
 472              		.loc 1 472 1
 473 0050 1846     		mov	r0, r3
 474 0052 1C37     		adds	r7, r7, #28
 475              	.LCFI18:
 476              		.cfi_def_cfa_offset 4
 477 0054 BD46     		mov	sp, r7
 478              	.LCFI19:
 479              		.cfi_def_cfa_register 13
 480              		@ sp needed
 481 0056 5DF8047B 		ldr	r7, [sp], #4
 482              	.LCFI20:
 483              		.cfi_restore 7
 484              		.cfi_def_cfa_offset 0
 485 005a 7047     		bx	lr
 486              		.cfi_endproc
 487              	.LFE8:
 489              		.section	.text.xStreamBufferSpacesAvailable,"ax",%progbits
 490              		.align	1
 491              		.global	xStreamBufferSpacesAvailable
 492              		.syntax unified
 493              		.thumb
 494              		.thumb_func
 495              		.fpu fpv4-sp-d16
 497              	xStreamBufferSpacesAvailable:
 498              	.LFB9:
 473:../../../../dependencies/freertos/FreeRTOSv10.4.1/FreeRTOS/Source/stream_buffer.c **** /*-----------------------------------------------------------*/
 474:../../../../dependencies/freertos/FreeRTOSv10.4.1/FreeRTOS/Source/stream_buffer.c **** 
 475:../../../../dependencies/freertos/FreeRTOSv10.4.1/FreeRTOS/Source/stream_buffer.c **** size_t xStreamBufferSpacesAvailable( StreamBufferHandle_t xStreamBuffer )
 476:../../../../dependencies/freertos/FreeRTOSv10.4.1/FreeRTOS/Source/stream_buffer.c **** {
 499              		.loc 1 476 1
 500              		.cfi_startproc
 501              		@ args = 0, pretend = 0, frame = 24
 502              		@ frame_needed = 1, uses_anonymous_args = 0
 503              		@ link register save eliminated.
 504 0000 80B4     		push	{r7}
 505              	.LCFI21:
 506              		.cfi_def_cfa_offset 4
 507              		.cfi_offset 7, -4
 508 0002 87B0     		sub	sp, sp, #28
 509              	.LCFI22:
 510              		.cfi_def_cfa_offset 32
 511 0004 00AF     		add	r7, sp, #0
 512              	.LCFI23:
 513              		.cfi_def_cfa_register 7
 514 0006 7860     		str	r0, [r7, #4]
 477:../../../../dependencies/freertos/FreeRTOSv10.4.1/FreeRTOS/Source/stream_buffer.c ****     const StreamBuffer_t * const pxStreamBuffer = xStreamBuffer;
 515              		.loc 1 477 34
 516 0008 7B68     		ldr	r3, [r7, #4]
 517 000a 3B61     		str	r3, [r7, #16]
 478:../../../../dependencies/freertos/FreeRTOSv10.4.1/FreeRTOS/Source/stream_buffer.c ****     size_t xSpace;
ARM GAS  /var/folders/kj/yzqgq53j3dg15vgwwwwgf5s00000gn/T//ccSjr9dy.s 			page 22


 479:../../../../dependencies/freertos/FreeRTOSv10.4.1/FreeRTOS/Source/stream_buffer.c **** 
 480:../../../../dependencies/freertos/FreeRTOSv10.4.1/FreeRTOS/Source/stream_buffer.c ****     configASSERT( pxStreamBuffer );
 518              		.loc 1 480 5
 519 000c 3B69     		ldr	r3, [r7, #16]
 520 000e 002B     		cmp	r3, #0
 521 0010 0AD1     		bne	.L30
 522              	.LBB97:
 523              	.LBB98:
 197:../../../../dependencies/freertos/FreeRTOSv10.4.1/FreeRTOS/Source/portable/GCC/ARM_CM4F/portmacro.h ****         (
 524              		.loc 2 197 9
 525              		.syntax unified
 526              	@ 197 "../../../../dependencies/freertos/FreeRTOSv10.4.1/FreeRTOS/Source/portable/GCC/ARM_CM4F/port
 527 0012 4FF05003 			mov r3, #80												
 528 0016 83F31188 		msr basepri, r3											
 529 001a BFF36F8F 		isb														
 530 001e BFF34F8F 		dsb														
 531              	
 532              	@ 0 "" 2
 533              		.thumb
 534              		.syntax unified
 535 0022 FB60     		str	r3, [r7, #12]
 536              		.loc 2 205 5
 537 0024 00BF     		nop
 538              	.L31:
 539              	.LBE98:
 540              	.LBE97:
 541              		.loc 1 480 5 discriminator 1
 542 0026 FEE7     		b	.L31
 543              	.L30:
 481:../../../../dependencies/freertos/FreeRTOSv10.4.1/FreeRTOS/Source/stream_buffer.c **** 
 482:../../../../dependencies/freertos/FreeRTOSv10.4.1/FreeRTOS/Source/stream_buffer.c ****     xSpace = pxStreamBuffer->xLength + pxStreamBuffer->xTail;
 544              		.loc 1 482 28
 545 0028 3B69     		ldr	r3, [r7, #16]
 546 002a 9A68     		ldr	r2, [r3, #8]
 547              		.loc 1 482 54
 548 002c 3B69     		ldr	r3, [r7, #16]
 549 002e 1B68     		ldr	r3, [r3]
 550              		.loc 1 482 12
 551 0030 1344     		add	r3, r3, r2
 552 0032 7B61     		str	r3, [r7, #20]
 483:../../../../dependencies/freertos/FreeRTOSv10.4.1/FreeRTOS/Source/stream_buffer.c ****     xSpace -= pxStreamBuffer->xHead;
 553              		.loc 1 483 29
 554 0034 3B69     		ldr	r3, [r7, #16]
 555 0036 5B68     		ldr	r3, [r3, #4]
 556              		.loc 1 483 12
 557 0038 7A69     		ldr	r2, [r7, #20]
 558 003a D31A     		subs	r3, r2, r3
 559 003c 7B61     		str	r3, [r7, #20]
 484:../../../../dependencies/freertos/FreeRTOSv10.4.1/FreeRTOS/Source/stream_buffer.c ****     xSpace -= ( size_t ) 1;
 560              		.loc 1 484 12
 561 003e 7B69     		ldr	r3, [r7, #20]
 562 0040 013B     		subs	r3, r3, #1
 563 0042 7B61     		str	r3, [r7, #20]
 485:../../../../dependencies/freertos/FreeRTOSv10.4.1/FreeRTOS/Source/stream_buffer.c **** 
 486:../../../../dependencies/freertos/FreeRTOSv10.4.1/FreeRTOS/Source/stream_buffer.c ****     if( xSpace >= pxStreamBuffer->xLength )
 564              		.loc 1 486 33
 565 0044 3B69     		ldr	r3, [r7, #16]
ARM GAS  /var/folders/kj/yzqgq53j3dg15vgwwwwgf5s00000gn/T//ccSjr9dy.s 			page 23


 566 0046 9B68     		ldr	r3, [r3, #8]
 567              		.loc 1 486 7
 568 0048 7A69     		ldr	r2, [r7, #20]
 569 004a 9A42     		cmp	r2, r3
 570 004c 04D3     		bcc	.L32
 487:../../../../dependencies/freertos/FreeRTOSv10.4.1/FreeRTOS/Source/stream_buffer.c ****     {
 488:../../../../dependencies/freertos/FreeRTOSv10.4.1/FreeRTOS/Source/stream_buffer.c ****         xSpace -= pxStreamBuffer->xLength;
 571              		.loc 1 488 33
 572 004e 3B69     		ldr	r3, [r7, #16]
 573 0050 9B68     		ldr	r3, [r3, #8]
 574              		.loc 1 488 16
 575 0052 7A69     		ldr	r2, [r7, #20]
 576 0054 D31A     		subs	r3, r2, r3
 577 0056 7B61     		str	r3, [r7, #20]
 578              	.L32:
 489:../../../../dependencies/freertos/FreeRTOSv10.4.1/FreeRTOS/Source/stream_buffer.c ****     }
 490:../../../../dependencies/freertos/FreeRTOSv10.4.1/FreeRTOS/Source/stream_buffer.c ****     else
 491:../../../../dependencies/freertos/FreeRTOSv10.4.1/FreeRTOS/Source/stream_buffer.c ****     {
 492:../../../../dependencies/freertos/FreeRTOSv10.4.1/FreeRTOS/Source/stream_buffer.c ****         mtCOVERAGE_TEST_MARKER();
 493:../../../../dependencies/freertos/FreeRTOSv10.4.1/FreeRTOS/Source/stream_buffer.c ****     }
 494:../../../../dependencies/freertos/FreeRTOSv10.4.1/FreeRTOS/Source/stream_buffer.c **** 
 495:../../../../dependencies/freertos/FreeRTOSv10.4.1/FreeRTOS/Source/stream_buffer.c ****     return xSpace;
 579              		.loc 1 495 12
 580 0058 7B69     		ldr	r3, [r7, #20]
 496:../../../../dependencies/freertos/FreeRTOSv10.4.1/FreeRTOS/Source/stream_buffer.c **** }
 581              		.loc 1 496 1
 582 005a 1846     		mov	r0, r3
 583 005c 1C37     		adds	r7, r7, #28
 584              	.LCFI24:
 585              		.cfi_def_cfa_offset 4
 586 005e BD46     		mov	sp, r7
 587              	.LCFI25:
 588              		.cfi_def_cfa_register 13
 589              		@ sp needed
 590 0060 5DF8047B 		ldr	r7, [sp], #4
 591              	.LCFI26:
 592              		.cfi_restore 7
 593              		.cfi_def_cfa_offset 0
 594 0064 7047     		bx	lr
 595              		.cfi_endproc
 596              	.LFE9:
 598              		.section	.text.xStreamBufferBytesAvailable,"ax",%progbits
 599              		.align	1
 600              		.global	xStreamBufferBytesAvailable
 601              		.syntax unified
 602              		.thumb
 603              		.thumb_func
 604              		.fpu fpv4-sp-d16
 606              	xStreamBufferBytesAvailable:
 607              	.LFB10:
 497:../../../../dependencies/freertos/FreeRTOSv10.4.1/FreeRTOS/Source/stream_buffer.c **** /*-----------------------------------------------------------*/
 498:../../../../dependencies/freertos/FreeRTOSv10.4.1/FreeRTOS/Source/stream_buffer.c **** 
 499:../../../../dependencies/freertos/FreeRTOSv10.4.1/FreeRTOS/Source/stream_buffer.c **** size_t xStreamBufferBytesAvailable( StreamBufferHandle_t xStreamBuffer )
 500:../../../../dependencies/freertos/FreeRTOSv10.4.1/FreeRTOS/Source/stream_buffer.c **** {
 608              		.loc 1 500 1
 609              		.cfi_startproc
 610              		@ args = 0, pretend = 0, frame = 24
ARM GAS  /var/folders/kj/yzqgq53j3dg15vgwwwwgf5s00000gn/T//ccSjr9dy.s 			page 24


 611              		@ frame_needed = 1, uses_anonymous_args = 0
 612 0000 80B5     		push	{r7, lr}
 613              	.LCFI27:
 614              		.cfi_def_cfa_offset 8
 615              		.cfi_offset 7, -8
 616              		.cfi_offset 14, -4
 617 0002 86B0     		sub	sp, sp, #24
 618              	.LCFI28:
 619              		.cfi_def_cfa_offset 32
 620 0004 00AF     		add	r7, sp, #0
 621              	.LCFI29:
 622              		.cfi_def_cfa_register 7
 623 0006 7860     		str	r0, [r7, #4]
 501:../../../../dependencies/freertos/FreeRTOSv10.4.1/FreeRTOS/Source/stream_buffer.c ****     const StreamBuffer_t * const pxStreamBuffer = xStreamBuffer;
 624              		.loc 1 501 34
 625 0008 7B68     		ldr	r3, [r7, #4]
 626 000a 7B61     		str	r3, [r7, #20]
 502:../../../../dependencies/freertos/FreeRTOSv10.4.1/FreeRTOS/Source/stream_buffer.c ****     size_t xReturn;
 503:../../../../dependencies/freertos/FreeRTOSv10.4.1/FreeRTOS/Source/stream_buffer.c **** 
 504:../../../../dependencies/freertos/FreeRTOSv10.4.1/FreeRTOS/Source/stream_buffer.c ****     configASSERT( pxStreamBuffer );
 627              		.loc 1 504 5
 628 000c 7B69     		ldr	r3, [r7, #20]
 629 000e 002B     		cmp	r3, #0
 630 0010 0AD1     		bne	.L35
 631              	.LBB99:
 632              	.LBB100:
 197:../../../../dependencies/freertos/FreeRTOSv10.4.1/FreeRTOS/Source/portable/GCC/ARM_CM4F/portmacro.h ****         (
 633              		.loc 2 197 9
 634              		.syntax unified
 635              	@ 197 "../../../../dependencies/freertos/FreeRTOSv10.4.1/FreeRTOS/Source/portable/GCC/ARM_CM4F/port
 636 0012 4FF05003 			mov r3, #80												
 637 0016 83F31188 		msr basepri, r3											
 638 001a BFF36F8F 		isb														
 639 001e BFF34F8F 		dsb														
 640              	
 641              	@ 0 "" 2
 642              		.thumb
 643              		.syntax unified
 644 0022 FB60     		str	r3, [r7, #12]
 645              		.loc 2 205 5
 646 0024 00BF     		nop
 647              	.L36:
 648              	.LBE100:
 649              	.LBE99:
 650              		.loc 1 504 5 discriminator 1
 651 0026 FEE7     		b	.L36
 652              	.L35:
 505:../../../../dependencies/freertos/FreeRTOSv10.4.1/FreeRTOS/Source/stream_buffer.c **** 
 506:../../../../dependencies/freertos/FreeRTOSv10.4.1/FreeRTOS/Source/stream_buffer.c ****     xReturn = prvBytesInBuffer( pxStreamBuffer );
 653              		.loc 1 506 15
 654 0028 7869     		ldr	r0, [r7, #20]
 655 002a FFF7FEFF 		bl	prvBytesInBuffer
 656 002e 3861     		str	r0, [r7, #16]
 507:../../../../dependencies/freertos/FreeRTOSv10.4.1/FreeRTOS/Source/stream_buffer.c ****     return xReturn;
 657              		.loc 1 507 12
 658 0030 3B69     		ldr	r3, [r7, #16]
 508:../../../../dependencies/freertos/FreeRTOSv10.4.1/FreeRTOS/Source/stream_buffer.c **** }
ARM GAS  /var/folders/kj/yzqgq53j3dg15vgwwwwgf5s00000gn/T//ccSjr9dy.s 			page 25


 659              		.loc 1 508 1
 660 0032 1846     		mov	r0, r3
 661 0034 1837     		adds	r7, r7, #24
 662              	.LCFI30:
 663              		.cfi_def_cfa_offset 8
 664 0036 BD46     		mov	sp, r7
 665              	.LCFI31:
 666              		.cfi_def_cfa_register 13
 667              		@ sp needed
 668 0038 80BD     		pop	{r7, pc}
 669              		.cfi_endproc
 670              	.LFE10:
 672              		.section	.text.xStreamBufferSend,"ax",%progbits
 673              		.align	1
 674              		.global	xStreamBufferSend
 675              		.syntax unified
 676              		.thumb
 677              		.thumb_func
 678              		.fpu fpv4-sp-d16
 680              	xStreamBufferSend:
 681              	.LFB11:
 509:../../../../dependencies/freertos/FreeRTOSv10.4.1/FreeRTOS/Source/stream_buffer.c **** /*-----------------------------------------------------------*/
 510:../../../../dependencies/freertos/FreeRTOSv10.4.1/FreeRTOS/Source/stream_buffer.c **** 
 511:../../../../dependencies/freertos/FreeRTOSv10.4.1/FreeRTOS/Source/stream_buffer.c **** size_t xStreamBufferSend( StreamBufferHandle_t xStreamBuffer,
 512:../../../../dependencies/freertos/FreeRTOSv10.4.1/FreeRTOS/Source/stream_buffer.c ****                           const void * pvTxData,
 513:../../../../dependencies/freertos/FreeRTOSv10.4.1/FreeRTOS/Source/stream_buffer.c ****                           size_t xDataLengthBytes,
 514:../../../../dependencies/freertos/FreeRTOSv10.4.1/FreeRTOS/Source/stream_buffer.c ****                           TickType_t xTicksToWait )
 515:../../../../dependencies/freertos/FreeRTOSv10.4.1/FreeRTOS/Source/stream_buffer.c **** {
 682              		.loc 1 515 1
 683              		.cfi_startproc
 684              		@ args = 0, pretend = 0, frame = 64
 685              		@ frame_needed = 1, uses_anonymous_args = 0
 686 0000 80B5     		push	{r7, lr}
 687              	.LCFI32:
 688              		.cfi_def_cfa_offset 8
 689              		.cfi_offset 7, -8
 690              		.cfi_offset 14, -4
 691 0002 92B0     		sub	sp, sp, #72
 692              	.LCFI33:
 693              		.cfi_def_cfa_offset 80
 694 0004 02AF     		add	r7, sp, #8
 695              	.LCFI34:
 696              		.cfi_def_cfa 7, 72
 697 0006 F860     		str	r0, [r7, #12]
 698 0008 B960     		str	r1, [r7, #8]
 699 000a 7A60     		str	r2, [r7, #4]
 700 000c 3B60     		str	r3, [r7]
 516:../../../../dependencies/freertos/FreeRTOSv10.4.1/FreeRTOS/Source/stream_buffer.c ****     StreamBuffer_t * const pxStreamBuffer = xStreamBuffer;
 701              		.loc 1 516 28
 702 000e FB68     		ldr	r3, [r7, #12]
 703 0010 3B63     		str	r3, [r7, #48]
 517:../../../../dependencies/freertos/FreeRTOSv10.4.1/FreeRTOS/Source/stream_buffer.c ****     size_t xReturn, xSpace = 0;
 704              		.loc 1 517 21
 705 0012 0023     		movs	r3, #0
 706 0014 FB63     		str	r3, [r7, #60]
 518:../../../../dependencies/freertos/FreeRTOSv10.4.1/FreeRTOS/Source/stream_buffer.c ****     size_t xRequiredSpace = xDataLengthBytes;
 707              		.loc 1 518 12
ARM GAS  /var/folders/kj/yzqgq53j3dg15vgwwwwgf5s00000gn/T//ccSjr9dy.s 			page 26


 708 0016 7B68     		ldr	r3, [r7, #4]
 709 0018 BB63     		str	r3, [r7, #56]
 519:../../../../dependencies/freertos/FreeRTOSv10.4.1/FreeRTOS/Source/stream_buffer.c ****     TimeOut_t xTimeOut;
 520:../../../../dependencies/freertos/FreeRTOSv10.4.1/FreeRTOS/Source/stream_buffer.c **** 
 521:../../../../dependencies/freertos/FreeRTOSv10.4.1/FreeRTOS/Source/stream_buffer.c ****     /* Having a 'isFeasible' variable allows to respect the convention that there is only a return 
 522:../../../../dependencies/freertos/FreeRTOSv10.4.1/FreeRTOS/Source/stream_buffer.c ****      * could be done as soon as we realise the send cannot happen. We will let the call to 'prvWrit
 523:../../../../dependencies/freertos/FreeRTOSv10.4.1/FreeRTOS/Source/stream_buffer.c ****     BaseType_t xIsFeasible;
 524:../../../../dependencies/freertos/FreeRTOSv10.4.1/FreeRTOS/Source/stream_buffer.c **** 
 525:../../../../dependencies/freertos/FreeRTOSv10.4.1/FreeRTOS/Source/stream_buffer.c ****     configASSERT( pvTxData );
 710              		.loc 1 525 5
 711 001a BB68     		ldr	r3, [r7, #8]
 712 001c 002B     		cmp	r3, #0
 713 001e 0AD1     		bne	.L39
 714              	.LBB101:
 715              	.LBB102:
 197:../../../../dependencies/freertos/FreeRTOSv10.4.1/FreeRTOS/Source/portable/GCC/ARM_CM4F/portmacro.h ****         (
 716              		.loc 2 197 9
 717              		.syntax unified
 718              	@ 197 "../../../../dependencies/freertos/FreeRTOSv10.4.1/FreeRTOS/Source/portable/GCC/ARM_CM4F/port
 719 0020 4FF05003 			mov r3, #80												
 720 0024 83F31188 		msr basepri, r3											
 721 0028 BFF36F8F 		isb														
 722 002c BFF34F8F 		dsb														
 723              	
 724              	@ 0 "" 2
 725              		.thumb
 726              		.syntax unified
 727 0030 BB62     		str	r3, [r7, #40]
 728              		.loc 2 205 5
 729 0032 00BF     		nop
 730              	.L40:
 731              	.LBE102:
 732              	.LBE101:
 733              		.loc 1 525 5 discriminator 1
 734 0034 FEE7     		b	.L40
 735              	.L39:
 526:../../../../dependencies/freertos/FreeRTOSv10.4.1/FreeRTOS/Source/stream_buffer.c ****     configASSERT( pxStreamBuffer );
 736              		.loc 1 526 5
 737 0036 3B6B     		ldr	r3, [r7, #48]
 738 0038 002B     		cmp	r3, #0
 739 003a 0AD1     		bne	.L41
 740              	.LBB103:
 741              	.LBB104:
 197:../../../../dependencies/freertos/FreeRTOSv10.4.1/FreeRTOS/Source/portable/GCC/ARM_CM4F/portmacro.h ****         (
 742              		.loc 2 197 9
 743              		.syntax unified
 744              	@ 197 "../../../../dependencies/freertos/FreeRTOSv10.4.1/FreeRTOS/Source/portable/GCC/ARM_CM4F/port
 745 003c 4FF05003 			mov r3, #80												
 746 0040 83F31188 		msr basepri, r3											
 747 0044 BFF36F8F 		isb														
 748 0048 BFF34F8F 		dsb														
 749              	
 750              	@ 0 "" 2
 751              		.thumb
 752              		.syntax unified
 753 004c 7B62     		str	r3, [r7, #36]
 754              		.loc 2 205 5
ARM GAS  /var/folders/kj/yzqgq53j3dg15vgwwwwgf5s00000gn/T//ccSjr9dy.s 			page 27


 755 004e 00BF     		nop
 756              	.L42:
 757              	.LBE104:
 758              	.LBE103:
 759              		.loc 1 526 5 discriminator 2
 760 0050 FEE7     		b	.L42
 761              	.L41:
 527:../../../../dependencies/freertos/FreeRTOSv10.4.1/FreeRTOS/Source/stream_buffer.c **** 
 528:../../../../dependencies/freertos/FreeRTOSv10.4.1/FreeRTOS/Source/stream_buffer.c ****     /* This send function is used to write to both message buffers and stream
 529:../../../../dependencies/freertos/FreeRTOSv10.4.1/FreeRTOS/Source/stream_buffer.c ****      * buffers.  If this is a message buffer then the space needed must be
 530:../../../../dependencies/freertos/FreeRTOSv10.4.1/FreeRTOS/Source/stream_buffer.c ****      * increased by the amount of bytes needed to store the length of the
 531:../../../../dependencies/freertos/FreeRTOSv10.4.1/FreeRTOS/Source/stream_buffer.c ****      * message. */
 532:../../../../dependencies/freertos/FreeRTOSv10.4.1/FreeRTOS/Source/stream_buffer.c ****     if( ( pxStreamBuffer->ucFlags & sbFLAGS_IS_MESSAGE_BUFFER ) != ( uint8_t ) 0 )
 762              		.loc 1 532 25
 763 0052 3B6B     		ldr	r3, [r7, #48]
 764 0054 1B7F     		ldrb	r3, [r3, #28]	@ zero_extendqisi2
 765              		.loc 1 532 35
 766 0056 03F00103 		and	r3, r3, #1
 767              		.loc 1 532 7
 768 005a 002B     		cmp	r3, #0
 769 005c 1CD0     		beq	.L43
 533:../../../../dependencies/freertos/FreeRTOSv10.4.1/FreeRTOS/Source/stream_buffer.c ****     {
 534:../../../../dependencies/freertos/FreeRTOSv10.4.1/FreeRTOS/Source/stream_buffer.c ****         xRequiredSpace += sbBYTES_TO_STORE_MESSAGE_LENGTH;
 770              		.loc 1 534 24
 771 005e BB6B     		ldr	r3, [r7, #56]
 772 0060 0433     		adds	r3, r3, #4
 773 0062 BB63     		str	r3, [r7, #56]
 535:../../../../dependencies/freertos/FreeRTOSv10.4.1/FreeRTOS/Source/stream_buffer.c **** 
 536:../../../../dependencies/freertos/FreeRTOSv10.4.1/FreeRTOS/Source/stream_buffer.c ****         /* Overflow? */
 537:../../../../dependencies/freertos/FreeRTOSv10.4.1/FreeRTOS/Source/stream_buffer.c ****         configASSERT( xRequiredSpace > xDataLengthBytes );
 774              		.loc 1 537 9
 775 0064 BA6B     		ldr	r2, [r7, #56]
 776 0066 7B68     		ldr	r3, [r7, #4]
 777 0068 9A42     		cmp	r2, r3
 778 006a 0AD8     		bhi	.L44
 779              	.LBB105:
 780              	.LBB106:
 197:../../../../dependencies/freertos/FreeRTOSv10.4.1/FreeRTOS/Source/portable/GCC/ARM_CM4F/portmacro.h ****         (
 781              		.loc 2 197 9
 782              		.syntax unified
 783              	@ 197 "../../../../dependencies/freertos/FreeRTOSv10.4.1/FreeRTOS/Source/portable/GCC/ARM_CM4F/port
 784 006c 4FF05003 			mov r3, #80												
 785 0070 83F31188 		msr basepri, r3											
 786 0074 BFF36F8F 		isb														
 787 0078 BFF34F8F 		dsb														
 788              	
 789              	@ 0 "" 2
 790              		.thumb
 791              		.syntax unified
 792 007c 3B62     		str	r3, [r7, #32]
 793              		.loc 2 205 5
 794 007e 00BF     		nop
 795              	.L45:
 796              	.LBE106:
 797              	.LBE105:
 798              		.loc 1 537 9 discriminator 3
 799 0080 FEE7     		b	.L45
ARM GAS  /var/folders/kj/yzqgq53j3dg15vgwwwwgf5s00000gn/T//ccSjr9dy.s 			page 28


 800              	.L44:
 538:../../../../dependencies/freertos/FreeRTOSv10.4.1/FreeRTOS/Source/stream_buffer.c **** 
 539:../../../../dependencies/freertos/FreeRTOSv10.4.1/FreeRTOS/Source/stream_buffer.c ****         /* In the case of the message buffer, one has to be able to write the complete message as o
 540:../../../../dependencies/freertos/FreeRTOSv10.4.1/FreeRTOS/Source/stream_buffer.c ****          * a stream buffer for semantic reasons. Check if it is physically possible to write the me
 541:../../../../dependencies/freertos/FreeRTOSv10.4.1/FreeRTOS/Source/stream_buffer.c ****          * the length of the buffer. */
 542:../../../../dependencies/freertos/FreeRTOSv10.4.1/FreeRTOS/Source/stream_buffer.c ****         if( xRequiredSpace > pxStreamBuffer->xLength )
 801              		.loc 1 542 44
 802 0082 3B6B     		ldr	r3, [r7, #48]
 803 0084 9B68     		ldr	r3, [r3, #8]
 804              		.loc 1 542 11
 805 0086 BA6B     		ldr	r2, [r7, #56]
 806 0088 9A42     		cmp	r2, r3
 807 008a 02D9     		bls	.L46
 543:../../../../dependencies/freertos/FreeRTOSv10.4.1/FreeRTOS/Source/stream_buffer.c ****         {
 544:../../../../dependencies/freertos/FreeRTOSv10.4.1/FreeRTOS/Source/stream_buffer.c ****             /* The message could never be written because it is greater than the buffer length.
 545:../../../../dependencies/freertos/FreeRTOSv10.4.1/FreeRTOS/Source/stream_buffer.c ****              * By setting xIsFeasable to FALSE, we skip over the following do..while loop, thus avo
 546:../../../../dependencies/freertos/FreeRTOSv10.4.1/FreeRTOS/Source/stream_buffer.c ****              * a deadlock. The call to 'prvWriteMessageToBuffer' toward the end of this function wi
 547:../../../../dependencies/freertos/FreeRTOSv10.4.1/FreeRTOS/Source/stream_buffer.c ****              * xRequiredSpace greater than xSpace will suffice in not writing anything to the inter
 548:../../../../dependencies/freertos/FreeRTOSv10.4.1/FreeRTOS/Source/stream_buffer.c ****              * Now, the function will return 0 because the message could not be written. Should an 
 549:../../../../dependencies/freertos/FreeRTOSv10.4.1/FreeRTOS/Source/stream_buffer.c ****              * returned instead ??? In my opinion, probably.. But the return type doesn't allow for
 550:../../../../dependencies/freertos/FreeRTOSv10.4.1/FreeRTOS/Source/stream_buffer.c ****              * values to be returned. A confusion could exist to the caller. Returning 0 because a 
 551:../../../../dependencies/freertos/FreeRTOSv10.4.1/FreeRTOS/Source/stream_buffer.c ****              * and a subsequent send attempts could eventually succeed, and returning 0 because a w
 552:../../../../dependencies/freertos/FreeRTOSv10.4.1/FreeRTOS/Source/stream_buffer.c ****              * happen because of the size are two scenarios to me :/ */
 553:../../../../dependencies/freertos/FreeRTOSv10.4.1/FreeRTOS/Source/stream_buffer.c ****             xIsFeasible = pdFALSE;
 808              		.loc 1 553 25
 809 008c 0023     		movs	r3, #0
 810 008e 7B63     		str	r3, [r7, #52]
 811 0090 0FE0     		b	.L47
 812              	.L46:
 554:../../../../dependencies/freertos/FreeRTOSv10.4.1/FreeRTOS/Source/stream_buffer.c ****         }
 555:../../../../dependencies/freertos/FreeRTOSv10.4.1/FreeRTOS/Source/stream_buffer.c ****         else
 556:../../../../dependencies/freertos/FreeRTOSv10.4.1/FreeRTOS/Source/stream_buffer.c ****         {
 557:../../../../dependencies/freertos/FreeRTOSv10.4.1/FreeRTOS/Source/stream_buffer.c ****             /* It is possible to write the message completely in the buffer. This is the intended r
 558:../../../../dependencies/freertos/FreeRTOSv10.4.1/FreeRTOS/Source/stream_buffer.c ****              * Let's continue with the regular timeout logic. */
 559:../../../../dependencies/freertos/FreeRTOSv10.4.1/FreeRTOS/Source/stream_buffer.c ****             xIsFeasible = pdTRUE;
 813              		.loc 1 559 25
 814 0092 0123     		movs	r3, #1
 815 0094 7B63     		str	r3, [r7, #52]
 816 0096 0CE0     		b	.L47
 817              	.L43:
 560:../../../../dependencies/freertos/FreeRTOSv10.4.1/FreeRTOS/Source/stream_buffer.c ****         }
 561:../../../../dependencies/freertos/FreeRTOSv10.4.1/FreeRTOS/Source/stream_buffer.c ****     }
 562:../../../../dependencies/freertos/FreeRTOSv10.4.1/FreeRTOS/Source/stream_buffer.c ****     else
 563:../../../../dependencies/freertos/FreeRTOSv10.4.1/FreeRTOS/Source/stream_buffer.c ****     {
 564:../../../../dependencies/freertos/FreeRTOSv10.4.1/FreeRTOS/Source/stream_buffer.c ****         /* In the case of the stream buffer, not being able to completely write the message in the 
 565:../../../../dependencies/freertos/FreeRTOSv10.4.1/FreeRTOS/Source/stream_buffer.c ****          * is an acceptable scenario, but it has to be dealt with properly */
 566:../../../../dependencies/freertos/FreeRTOSv10.4.1/FreeRTOS/Source/stream_buffer.c ****         if( xRequiredSpace > pxStreamBuffer->xLength )
 818              		.loc 1 566 44
 819 0098 3B6B     		ldr	r3, [r7, #48]
 820 009a 9B68     		ldr	r3, [r3, #8]
 821              		.loc 1 566 11
 822 009c BA6B     		ldr	r2, [r7, #56]
 823 009e 9A42     		cmp	r2, r3
 824 00a0 05D9     		bls	.L48
 567:../../../../dependencies/freertos/FreeRTOSv10.4.1/FreeRTOS/Source/stream_buffer.c ****         {
 568:../../../../dependencies/freertos/FreeRTOSv10.4.1/FreeRTOS/Source/stream_buffer.c ****             /* Not enough buffer space. We will attempt to write as much as we can in this run
 569:../../../../dependencies/freertos/FreeRTOSv10.4.1/FreeRTOS/Source/stream_buffer.c ****              * so that the caller can send the remaining in subsequent calls. We avoid a deadlock b
ARM GAS  /var/folders/kj/yzqgq53j3dg15vgwwwwgf5s00000gn/T//ccSjr9dy.s 			page 29


 570:../../../../dependencies/freertos/FreeRTOSv10.4.1/FreeRTOS/Source/stream_buffer.c ****              * offering the possibility to take the 'else' branch in the  'if( xSpace < xRequiredSp
 571:../../../../dependencies/freertos/FreeRTOSv10.4.1/FreeRTOS/Source/stream_buffer.c ****              * condition inside the following do..while loop */
 572:../../../../dependencies/freertos/FreeRTOSv10.4.1/FreeRTOS/Source/stream_buffer.c ****             xRequiredSpace = pxStreamBuffer->xLength;
 825              		.loc 1 572 28
 826 00a2 3B6B     		ldr	r3, [r7, #48]
 827 00a4 9B68     		ldr	r3, [r3, #8]
 828 00a6 BB63     		str	r3, [r7, #56]
 573:../../../../dependencies/freertos/FreeRTOSv10.4.1/FreeRTOS/Source/stream_buffer.c **** 
 574:../../../../dependencies/freertos/FreeRTOSv10.4.1/FreeRTOS/Source/stream_buffer.c ****             /* TODO FIXME: Is there a check we should do with the xTriggerLevelBytes value ? */
 575:../../../../dependencies/freertos/FreeRTOSv10.4.1/FreeRTOS/Source/stream_buffer.c **** 
 576:../../../../dependencies/freertos/FreeRTOSv10.4.1/FreeRTOS/Source/stream_buffer.c ****             /* With the adjustment to 'xRequiredSpace', the deadlock is avoided, thus it's now feas
 577:../../../../dependencies/freertos/FreeRTOSv10.4.1/FreeRTOS/Source/stream_buffer.c ****             xIsFeasible = pdTRUE;
 829              		.loc 1 577 25
 830 00a8 0123     		movs	r3, #1
 831 00aa 7B63     		str	r3, [r7, #52]
 832 00ac 01E0     		b	.L47
 833              	.L48:
 578:../../../../dependencies/freertos/FreeRTOSv10.4.1/FreeRTOS/Source/stream_buffer.c ****         }
 579:../../../../dependencies/freertos/FreeRTOSv10.4.1/FreeRTOS/Source/stream_buffer.c ****         else
 580:../../../../dependencies/freertos/FreeRTOSv10.4.1/FreeRTOS/Source/stream_buffer.c ****         {
 581:../../../../dependencies/freertos/FreeRTOSv10.4.1/FreeRTOS/Source/stream_buffer.c ****             /* It is possible to write the message completely in the buffer. */
 582:../../../../dependencies/freertos/FreeRTOSv10.4.1/FreeRTOS/Source/stream_buffer.c ****             xIsFeasible = pdTRUE;
 834              		.loc 1 582 25
 835 00ae 0123     		movs	r3, #1
 836 00b0 7B63     		str	r3, [r7, #52]
 837              	.L47:
 583:../../../../dependencies/freertos/FreeRTOSv10.4.1/FreeRTOS/Source/stream_buffer.c ****         }
 584:../../../../dependencies/freertos/FreeRTOSv10.4.1/FreeRTOS/Source/stream_buffer.c ****     }
 585:../../../../dependencies/freertos/FreeRTOSv10.4.1/FreeRTOS/Source/stream_buffer.c **** 
 586:../../../../dependencies/freertos/FreeRTOSv10.4.1/FreeRTOS/Source/stream_buffer.c ****     /* Added check against xIsFeasible. If it's not feasible, don't even wait for notification, let
 587:../../../../dependencies/freertos/FreeRTOSv10.4.1/FreeRTOS/Source/stream_buffer.c ****     if( ( xTicksToWait != ( TickType_t ) 0 ) && ( xIsFeasible == pdTRUE ) )
 838              		.loc 1 587 24
 839 00b2 3B68     		ldr	r3, [r7]
 840              		.loc 1 587 7
 841 00b4 002B     		cmp	r3, #0
 842 00b6 44D0     		beq	.L49
 843              		.loc 1 587 46 discriminator 1
 844 00b8 7B6B     		ldr	r3, [r7, #52]
 845 00ba 012B     		cmp	r3, #1
 846 00bc 41D1     		bne	.L49
 588:../../../../dependencies/freertos/FreeRTOSv10.4.1/FreeRTOS/Source/stream_buffer.c ****     {
 589:../../../../dependencies/freertos/FreeRTOSv10.4.1/FreeRTOS/Source/stream_buffer.c ****         vTaskSetTimeOutState( &xTimeOut );
 847              		.loc 1 589 9
 848 00be 07F11403 		add	r3, r7, #20
 849 00c2 1846     		mov	r0, r3
 850 00c4 FFF7FEFF 		bl	vTaskSetTimeOutState
 851              	.L55:
 590:../../../../dependencies/freertos/FreeRTOSv10.4.1/FreeRTOS/Source/stream_buffer.c **** 
 591:../../../../dependencies/freertos/FreeRTOSv10.4.1/FreeRTOS/Source/stream_buffer.c ****         do
 592:../../../../dependencies/freertos/FreeRTOSv10.4.1/FreeRTOS/Source/stream_buffer.c ****         {
 593:../../../../dependencies/freertos/FreeRTOSv10.4.1/FreeRTOS/Source/stream_buffer.c ****             /* Wait until the required number of bytes are free in the message
 594:../../../../dependencies/freertos/FreeRTOSv10.4.1/FreeRTOS/Source/stream_buffer.c ****              * buffer. */
 595:../../../../dependencies/freertos/FreeRTOSv10.4.1/FreeRTOS/Source/stream_buffer.c ****             taskENTER_CRITICAL();
 852              		.loc 1 595 13
 853 00c8 FFF7FEFF 		bl	vPortEnterCritical
 596:../../../../dependencies/freertos/FreeRTOSv10.4.1/FreeRTOS/Source/stream_buffer.c ****             {
 597:../../../../dependencies/freertos/FreeRTOSv10.4.1/FreeRTOS/Source/stream_buffer.c ****                 xSpace = xStreamBufferSpacesAvailable( pxStreamBuffer );
ARM GAS  /var/folders/kj/yzqgq53j3dg15vgwwwwgf5s00000gn/T//ccSjr9dy.s 			page 30


 854              		.loc 1 597 26
 855 00cc 386B     		ldr	r0, [r7, #48]
 856 00ce FFF7FEFF 		bl	xStreamBufferSpacesAvailable
 857 00d2 F863     		str	r0, [r7, #60]
 598:../../../../dependencies/freertos/FreeRTOSv10.4.1/FreeRTOS/Source/stream_buffer.c **** 
 599:../../../../dependencies/freertos/FreeRTOSv10.4.1/FreeRTOS/Source/stream_buffer.c ****                 if( xSpace < xRequiredSpace )
 858              		.loc 1 599 19
 859 00d4 FA6B     		ldr	r2, [r7, #60]
 860 00d6 BB6B     		ldr	r3, [r7, #56]
 861 00d8 9A42     		cmp	r2, r3
 862 00da 18D2     		bcs	.L50
 600:../../../../dependencies/freertos/FreeRTOSv10.4.1/FreeRTOS/Source/stream_buffer.c ****                 {
 601:../../../../dependencies/freertos/FreeRTOSv10.4.1/FreeRTOS/Source/stream_buffer.c ****                     /* Clear notification state as going to wait for space. */
 602:../../../../dependencies/freertos/FreeRTOSv10.4.1/FreeRTOS/Source/stream_buffer.c ****                     ( void ) xTaskNotifyStateClear( NULL );
 863              		.loc 1 602 30
 864 00dc 0021     		movs	r1, #0
 865 00de 0020     		movs	r0, #0
 866 00e0 FFF7FEFF 		bl	xTaskGenericNotifyStateClear
 603:../../../../dependencies/freertos/FreeRTOSv10.4.1/FreeRTOS/Source/stream_buffer.c **** 
 604:../../../../dependencies/freertos/FreeRTOSv10.4.1/FreeRTOS/Source/stream_buffer.c ****                     /* Should only be one writer. */
 605:../../../../dependencies/freertos/FreeRTOSv10.4.1/FreeRTOS/Source/stream_buffer.c ****                     configASSERT( pxStreamBuffer->xTaskWaitingToSend == NULL );
 867              		.loc 1 605 21
 868 00e4 3B6B     		ldr	r3, [r7, #48]
 869 00e6 5B69     		ldr	r3, [r3, #20]
 870 00e8 002B     		cmp	r3, #0
 871 00ea 0AD0     		beq	.L51
 872              	.LBB107:
 873              	.LBB108:
 197:../../../../dependencies/freertos/FreeRTOSv10.4.1/FreeRTOS/Source/portable/GCC/ARM_CM4F/portmacro.h ****         (
 874              		.loc 2 197 9
 875              		.syntax unified
 876              	@ 197 "../../../../dependencies/freertos/FreeRTOSv10.4.1/FreeRTOS/Source/portable/GCC/ARM_CM4F/port
 877 00ec 4FF05003 			mov r3, #80												
 878 00f0 83F31188 		msr basepri, r3											
 879 00f4 BFF36F8F 		isb														
 880 00f8 BFF34F8F 		dsb														
 881              	
 882              	@ 0 "" 2
 883              		.thumb
 884              		.syntax unified
 885 00fc FB61     		str	r3, [r7, #28]
 886              		.loc 2 205 5
 887 00fe 00BF     		nop
 888              	.L52:
 889              	.LBE108:
 890              	.LBE107:
 891              		.loc 1 605 21 discriminator 4
 892 0100 FEE7     		b	.L52
 893              	.L51:
 606:../../../../dependencies/freertos/FreeRTOSv10.4.1/FreeRTOS/Source/stream_buffer.c ****                     pxStreamBuffer->xTaskWaitingToSend = xTaskGetCurrentTaskHandle();
 894              		.loc 1 606 58
 895 0102 FFF7FEFF 		bl	xTaskGetCurrentTaskHandle
 896 0106 0246     		mov	r2, r0
 897              		.loc 1 606 56
 898 0108 3B6B     		ldr	r3, [r7, #48]
 899 010a 5A61     		str	r2, [r3, #20]
 900 010c 02E0     		b	.L60
ARM GAS  /var/folders/kj/yzqgq53j3dg15vgwwwwgf5s00000gn/T//ccSjr9dy.s 			page 31


 901              	.L50:
 607:../../../../dependencies/freertos/FreeRTOSv10.4.1/FreeRTOS/Source/stream_buffer.c ****                 }
 608:../../../../dependencies/freertos/FreeRTOSv10.4.1/FreeRTOS/Source/stream_buffer.c ****                 else
 609:../../../../dependencies/freertos/FreeRTOSv10.4.1/FreeRTOS/Source/stream_buffer.c ****                 {
 610:../../../../dependencies/freertos/FreeRTOSv10.4.1/FreeRTOS/Source/stream_buffer.c ****                     taskEXIT_CRITICAL();
 902              		.loc 1 610 21
 903 010e FFF7FEFF 		bl	vPortExitCritical
 611:../../../../dependencies/freertos/FreeRTOSv10.4.1/FreeRTOS/Source/stream_buffer.c ****                     break;
 904              		.loc 1 611 21
 905 0112 16E0     		b	.L49
 906              	.L60:
 612:../../../../dependencies/freertos/FreeRTOSv10.4.1/FreeRTOS/Source/stream_buffer.c ****                 }
 613:../../../../dependencies/freertos/FreeRTOSv10.4.1/FreeRTOS/Source/stream_buffer.c ****             }
 614:../../../../dependencies/freertos/FreeRTOSv10.4.1/FreeRTOS/Source/stream_buffer.c ****             taskEXIT_CRITICAL();
 907              		.loc 1 614 13
 908 0114 FFF7FEFF 		bl	vPortExitCritical
 615:../../../../dependencies/freertos/FreeRTOSv10.4.1/FreeRTOS/Source/stream_buffer.c **** 
 616:../../../../dependencies/freertos/FreeRTOSv10.4.1/FreeRTOS/Source/stream_buffer.c ****             traceBLOCKING_ON_STREAM_BUFFER_SEND( xStreamBuffer );
 617:../../../../dependencies/freertos/FreeRTOSv10.4.1/FreeRTOS/Source/stream_buffer.c ****             ( void ) xTaskNotifyWait( ( uint32_t ) 0, ( uint32_t ) 0, NULL, xTicksToWait );
 909              		.loc 1 617 13
 910 0118 3B68     		ldr	r3, [r7]
 911              		.loc 1 617 22
 912 011a 0093     		str	r3, [sp]
 913 011c 0023     		movs	r3, #0
 914 011e 0022     		movs	r2, #0
 915 0120 0021     		movs	r1, #0
 916 0122 0020     		movs	r0, #0
 917 0124 FFF7FEFF 		bl	xTaskGenericNotifyWait
 618:../../../../dependencies/freertos/FreeRTOSv10.4.1/FreeRTOS/Source/stream_buffer.c ****             pxStreamBuffer->xTaskWaitingToSend = NULL;
 918              		.loc 1 618 48
 919 0128 3B6B     		ldr	r3, [r7, #48]
 920 012a 0022     		movs	r2, #0
 921 012c 5A61     		str	r2, [r3, #20]
 619:../../../../dependencies/freertos/FreeRTOSv10.4.1/FreeRTOS/Source/stream_buffer.c ****         } while( xTaskCheckForTimeOut( &xTimeOut, &xTicksToWait ) == pdFALSE );
 922              		.loc 1 619 18
 923 012e 3A46     		mov	r2, r7
 924 0130 07F11403 		add	r3, r7, #20
 925 0134 1146     		mov	r1, r2
 926 0136 1846     		mov	r0, r3
 927 0138 FFF7FEFF 		bl	xTaskCheckForTimeOut
 928 013c 0346     		mov	r3, r0
 929              		.loc 1 619 9
 930 013e 002B     		cmp	r3, #0
 931 0140 C2D0     		beq	.L55
 932              	.L49:
 620:../../../../dependencies/freertos/FreeRTOSv10.4.1/FreeRTOS/Source/stream_buffer.c ****     }
 621:../../../../dependencies/freertos/FreeRTOSv10.4.1/FreeRTOS/Source/stream_buffer.c ****     else
 622:../../../../dependencies/freertos/FreeRTOSv10.4.1/FreeRTOS/Source/stream_buffer.c ****     {
 623:../../../../dependencies/freertos/FreeRTOSv10.4.1/FreeRTOS/Source/stream_buffer.c ****         mtCOVERAGE_TEST_MARKER();
 624:../../../../dependencies/freertos/FreeRTOSv10.4.1/FreeRTOS/Source/stream_buffer.c ****     }
 625:../../../../dependencies/freertos/FreeRTOSv10.4.1/FreeRTOS/Source/stream_buffer.c **** 
 626:../../../../dependencies/freertos/FreeRTOSv10.4.1/FreeRTOS/Source/stream_buffer.c ****     if( xSpace == ( size_t ) 0 )
 933              		.loc 1 626 7
 934 0142 FB6B     		ldr	r3, [r7, #60]
 935 0144 002B     		cmp	r3, #0
 936 0146 03D1     		bne	.L56
 627:../../../../dependencies/freertos/FreeRTOSv10.4.1/FreeRTOS/Source/stream_buffer.c ****     {
ARM GAS  /var/folders/kj/yzqgq53j3dg15vgwwwwgf5s00000gn/T//ccSjr9dy.s 			page 32


 628:../../../../dependencies/freertos/FreeRTOSv10.4.1/FreeRTOS/Source/stream_buffer.c ****         xSpace = xStreamBufferSpacesAvailable( pxStreamBuffer );
 937              		.loc 1 628 18
 938 0148 386B     		ldr	r0, [r7, #48]
 939 014a FFF7FEFF 		bl	xStreamBufferSpacesAvailable
 940 014e F863     		str	r0, [r7, #60]
 941              	.L56:
 629:../../../../dependencies/freertos/FreeRTOSv10.4.1/FreeRTOS/Source/stream_buffer.c ****     }
 630:../../../../dependencies/freertos/FreeRTOSv10.4.1/FreeRTOS/Source/stream_buffer.c ****     else
 631:../../../../dependencies/freertos/FreeRTOSv10.4.1/FreeRTOS/Source/stream_buffer.c ****     {
 632:../../../../dependencies/freertos/FreeRTOSv10.4.1/FreeRTOS/Source/stream_buffer.c ****         mtCOVERAGE_TEST_MARKER();
 633:../../../../dependencies/freertos/FreeRTOSv10.4.1/FreeRTOS/Source/stream_buffer.c ****     }
 634:../../../../dependencies/freertos/FreeRTOSv10.4.1/FreeRTOS/Source/stream_buffer.c **** 
 635:../../../../dependencies/freertos/FreeRTOSv10.4.1/FreeRTOS/Source/stream_buffer.c ****     xReturn = prvWriteMessageToBuffer( pxStreamBuffer, pvTxData, xDataLengthBytes, xSpace, xRequire
 942              		.loc 1 635 15
 943 0150 BB6B     		ldr	r3, [r7, #56]
 944 0152 0093     		str	r3, [sp]
 945 0154 FB6B     		ldr	r3, [r7, #60]
 946 0156 7A68     		ldr	r2, [r7, #4]
 947 0158 B968     		ldr	r1, [r7, #8]
 948 015a 386B     		ldr	r0, [r7, #48]
 949 015c FFF7FEFF 		bl	prvWriteMessageToBuffer
 950 0160 F862     		str	r0, [r7, #44]
 636:../../../../dependencies/freertos/FreeRTOSv10.4.1/FreeRTOS/Source/stream_buffer.c **** 
 637:../../../../dependencies/freertos/FreeRTOSv10.4.1/FreeRTOS/Source/stream_buffer.c ****     if( xReturn > ( size_t ) 0 )
 951              		.loc 1 637 7
 952 0162 FB6A     		ldr	r3, [r7, #44]
 953 0164 002B     		cmp	r3, #0
 954 0166 1BD0     		beq	.L57
 638:../../../../dependencies/freertos/FreeRTOSv10.4.1/FreeRTOS/Source/stream_buffer.c ****     {
 639:../../../../dependencies/freertos/FreeRTOSv10.4.1/FreeRTOS/Source/stream_buffer.c ****         traceSTREAM_BUFFER_SEND( xStreamBuffer, xReturn );
 640:../../../../dependencies/freertos/FreeRTOSv10.4.1/FreeRTOS/Source/stream_buffer.c **** 
 641:../../../../dependencies/freertos/FreeRTOSv10.4.1/FreeRTOS/Source/stream_buffer.c ****         /* Was a task waiting for the data? */
 642:../../../../dependencies/freertos/FreeRTOSv10.4.1/FreeRTOS/Source/stream_buffer.c ****         if( prvBytesInBuffer( pxStreamBuffer ) >= pxStreamBuffer->xTriggerLevelBytes )
 955              		.loc 1 642 13
 956 0168 386B     		ldr	r0, [r7, #48]
 957 016a FFF7FEFF 		bl	prvBytesInBuffer
 958 016e 0246     		mov	r2, r0
 959              		.loc 1 642 65
 960 0170 3B6B     		ldr	r3, [r7, #48]
 961 0172 DB68     		ldr	r3, [r3, #12]
 962              		.loc 1 642 11
 963 0174 9A42     		cmp	r2, r3
 964 0176 13D3     		bcc	.L57
 643:../../../../dependencies/freertos/FreeRTOSv10.4.1/FreeRTOS/Source/stream_buffer.c ****         {
 644:../../../../dependencies/freertos/FreeRTOSv10.4.1/FreeRTOS/Source/stream_buffer.c ****             sbSEND_COMPLETED( pxStreamBuffer );
 965              		.loc 1 644 13
 966 0178 FFF7FEFF 		bl	vTaskSuspendAll
 967 017c 3B6B     		ldr	r3, [r7, #48]
 968 017e 1B69     		ldr	r3, [r3, #16]
 969 0180 002B     		cmp	r3, #0
 970 0182 0BD0     		beq	.L58
 971              		.loc 1 644 13 is_stmt 0 discriminator 1
 972 0184 3B6B     		ldr	r3, [r7, #48]
 973 0186 1869     		ldr	r0, [r3, #16]
 974 0188 0023     		movs	r3, #0
 975 018a 0093     		str	r3, [sp]
 976 018c 0023     		movs	r3, #0
ARM GAS  /var/folders/kj/yzqgq53j3dg15vgwwwwgf5s00000gn/T//ccSjr9dy.s 			page 33


 977 018e 0022     		movs	r2, #0
 978 0190 0021     		movs	r1, #0
 979 0192 FFF7FEFF 		bl	xTaskGenericNotify
 980 0196 3B6B     		ldr	r3, [r7, #48]
 981 0198 0022     		movs	r2, #0
 982 019a 1A61     		str	r2, [r3, #16]
 983              	.L58:
 984              		.loc 1 644 13 discriminator 3
 985 019c FFF7FEFF 		bl	xTaskResumeAll
 986              	.L57:
 645:../../../../dependencies/freertos/FreeRTOSv10.4.1/FreeRTOS/Source/stream_buffer.c ****         }
 646:../../../../dependencies/freertos/FreeRTOSv10.4.1/FreeRTOS/Source/stream_buffer.c ****         else
 647:../../../../dependencies/freertos/FreeRTOSv10.4.1/FreeRTOS/Source/stream_buffer.c ****         {
 648:../../../../dependencies/freertos/FreeRTOSv10.4.1/FreeRTOS/Source/stream_buffer.c ****             mtCOVERAGE_TEST_MARKER();
 649:../../../../dependencies/freertos/FreeRTOSv10.4.1/FreeRTOS/Source/stream_buffer.c ****         }
 650:../../../../dependencies/freertos/FreeRTOSv10.4.1/FreeRTOS/Source/stream_buffer.c ****     }
 651:../../../../dependencies/freertos/FreeRTOSv10.4.1/FreeRTOS/Source/stream_buffer.c ****     else
 652:../../../../dependencies/freertos/FreeRTOSv10.4.1/FreeRTOS/Source/stream_buffer.c ****     {
 653:../../../../dependencies/freertos/FreeRTOSv10.4.1/FreeRTOS/Source/stream_buffer.c ****         mtCOVERAGE_TEST_MARKER();
 654:../../../../dependencies/freertos/FreeRTOSv10.4.1/FreeRTOS/Source/stream_buffer.c ****         traceSTREAM_BUFFER_SEND_FAILED( xStreamBuffer );
 655:../../../../dependencies/freertos/FreeRTOSv10.4.1/FreeRTOS/Source/stream_buffer.c ****     }
 656:../../../../dependencies/freertos/FreeRTOSv10.4.1/FreeRTOS/Source/stream_buffer.c **** 
 657:../../../../dependencies/freertos/FreeRTOSv10.4.1/FreeRTOS/Source/stream_buffer.c ****     return xReturn;
 987              		.loc 1 657 12 is_stmt 1
 988 01a0 FB6A     		ldr	r3, [r7, #44]
 658:../../../../dependencies/freertos/FreeRTOSv10.4.1/FreeRTOS/Source/stream_buffer.c **** }
 989              		.loc 1 658 1
 990 01a2 1846     		mov	r0, r3
 991 01a4 4037     		adds	r7, r7, #64
 992              	.LCFI35:
 993              		.cfi_def_cfa_offset 8
 994 01a6 BD46     		mov	sp, r7
 995              	.LCFI36:
 996              		.cfi_def_cfa_register 13
 997              		@ sp needed
 998 01a8 80BD     		pop	{r7, pc}
 999              		.cfi_endproc
 1000              	.LFE11:
 1002              		.section	.text.xStreamBufferSendFromISR,"ax",%progbits
 1003              		.align	1
 1004              		.global	xStreamBufferSendFromISR
 1005              		.syntax unified
 1006              		.thumb
 1007              		.thumb_func
 1008              		.fpu fpv4-sp-d16
 1010              	xStreamBufferSendFromISR:
 1011              	.LFB12:
 659:../../../../dependencies/freertos/FreeRTOSv10.4.1/FreeRTOS/Source/stream_buffer.c **** /*-----------------------------------------------------------*/
 660:../../../../dependencies/freertos/FreeRTOSv10.4.1/FreeRTOS/Source/stream_buffer.c **** 
 661:../../../../dependencies/freertos/FreeRTOSv10.4.1/FreeRTOS/Source/stream_buffer.c **** size_t xStreamBufferSendFromISR( StreamBufferHandle_t xStreamBuffer,
 662:../../../../dependencies/freertos/FreeRTOSv10.4.1/FreeRTOS/Source/stream_buffer.c ****                                  const void * pvTxData,
 663:../../../../dependencies/freertos/FreeRTOSv10.4.1/FreeRTOS/Source/stream_buffer.c ****                                  size_t xDataLengthBytes,
 664:../../../../dependencies/freertos/FreeRTOSv10.4.1/FreeRTOS/Source/stream_buffer.c ****                                  BaseType_t * const pxHigherPriorityTaskWoken )
 665:../../../../dependencies/freertos/FreeRTOSv10.4.1/FreeRTOS/Source/stream_buffer.c **** {
 1012              		.loc 1 665 1
 1013              		.cfi_startproc
 1014              		@ args = 0, pretend = 0, frame = 56
ARM GAS  /var/folders/kj/yzqgq53j3dg15vgwwwwgf5s00000gn/T//ccSjr9dy.s 			page 34


 1015              		@ frame_needed = 1, uses_anonymous_args = 0
 1016 0000 80B5     		push	{r7, lr}
 1017              	.LCFI37:
 1018              		.cfi_def_cfa_offset 8
 1019              		.cfi_offset 7, -8
 1020              		.cfi_offset 14, -4
 1021 0002 90B0     		sub	sp, sp, #64
 1022              	.LCFI38:
 1023              		.cfi_def_cfa_offset 72
 1024 0004 02AF     		add	r7, sp, #8
 1025              	.LCFI39:
 1026              		.cfi_def_cfa 7, 64
 1027 0006 F860     		str	r0, [r7, #12]
 1028 0008 B960     		str	r1, [r7, #8]
 1029 000a 7A60     		str	r2, [r7, #4]
 1030 000c 3B60     		str	r3, [r7]
 666:../../../../dependencies/freertos/FreeRTOSv10.4.1/FreeRTOS/Source/stream_buffer.c ****     StreamBuffer_t * const pxStreamBuffer = xStreamBuffer;
 1031              		.loc 1 666 28
 1032 000e FB68     		ldr	r3, [r7, #12]
 1033 0010 3B63     		str	r3, [r7, #48]
 667:../../../../dependencies/freertos/FreeRTOSv10.4.1/FreeRTOS/Source/stream_buffer.c ****     size_t xReturn, xSpace;
 668:../../../../dependencies/freertos/FreeRTOSv10.4.1/FreeRTOS/Source/stream_buffer.c ****     size_t xRequiredSpace = xDataLengthBytes;
 1034              		.loc 1 668 12
 1035 0012 7B68     		ldr	r3, [r7, #4]
 1036 0014 7B63     		str	r3, [r7, #52]
 669:../../../../dependencies/freertos/FreeRTOSv10.4.1/FreeRTOS/Source/stream_buffer.c **** 
 670:../../../../dependencies/freertos/FreeRTOSv10.4.1/FreeRTOS/Source/stream_buffer.c ****     configASSERT( pvTxData );
 1037              		.loc 1 670 5
 1038 0016 BB68     		ldr	r3, [r7, #8]
 1039 0018 002B     		cmp	r3, #0
 1040 001a 0AD1     		bne	.L62
 1041              	.LBB109:
 1042              	.LBB110:
 197:../../../../dependencies/freertos/FreeRTOSv10.4.1/FreeRTOS/Source/portable/GCC/ARM_CM4F/portmacro.h ****         (
 1043              		.loc 2 197 9
 1044              		.syntax unified
 1045              	@ 197 "../../../../dependencies/freertos/FreeRTOSv10.4.1/FreeRTOS/Source/portable/GCC/ARM_CM4F/port
 1046 001c 4FF05003 			mov r3, #80												
 1047 0020 83F31188 		msr basepri, r3											
 1048 0024 BFF36F8F 		isb														
 1049 0028 BFF34F8F 		dsb														
 1050              	
 1051              	@ 0 "" 2
 1052              		.thumb
 1053              		.syntax unified
 1054 002c 3B62     		str	r3, [r7, #32]
 1055              		.loc 2 205 5
 1056 002e 00BF     		nop
 1057              	.L63:
 1058              	.LBE110:
 1059              	.LBE109:
 1060              		.loc 1 670 5 discriminator 1
 1061 0030 FEE7     		b	.L63
 1062              	.L62:
 671:../../../../dependencies/freertos/FreeRTOSv10.4.1/FreeRTOS/Source/stream_buffer.c ****     configASSERT( pxStreamBuffer );
 1063              		.loc 1 671 5
 1064 0032 3B6B     		ldr	r3, [r7, #48]
ARM GAS  /var/folders/kj/yzqgq53j3dg15vgwwwwgf5s00000gn/T//ccSjr9dy.s 			page 35


 1065 0034 002B     		cmp	r3, #0
 1066 0036 0AD1     		bne	.L64
 1067              	.LBB111:
 1068              	.LBB112:
 197:../../../../dependencies/freertos/FreeRTOSv10.4.1/FreeRTOS/Source/portable/GCC/ARM_CM4F/portmacro.h ****         (
 1069              		.loc 2 197 9
 1070              		.syntax unified
 1071              	@ 197 "../../../../dependencies/freertos/FreeRTOSv10.4.1/FreeRTOS/Source/portable/GCC/ARM_CM4F/port
 1072 0038 4FF05003 			mov r3, #80												
 1073 003c 83F31188 		msr basepri, r3											
 1074 0040 BFF36F8F 		isb														
 1075 0044 BFF34F8F 		dsb														
 1076              	
 1077              	@ 0 "" 2
 1078              		.thumb
 1079              		.syntax unified
 1080 0048 FB61     		str	r3, [r7, #28]
 1081              		.loc 2 205 5
 1082 004a 00BF     		nop
 1083              	.L65:
 1084              	.LBE112:
 1085              	.LBE111:
 1086              		.loc 1 671 5 discriminator 2
 1087 004c FEE7     		b	.L65
 1088              	.L64:
 672:../../../../dependencies/freertos/FreeRTOSv10.4.1/FreeRTOS/Source/stream_buffer.c **** 
 673:../../../../dependencies/freertos/FreeRTOSv10.4.1/FreeRTOS/Source/stream_buffer.c ****     /* This send function is used to write to both message buffers and stream
 674:../../../../dependencies/freertos/FreeRTOSv10.4.1/FreeRTOS/Source/stream_buffer.c ****      * buffers.  If this is a message buffer then the space needed must be
 675:../../../../dependencies/freertos/FreeRTOSv10.4.1/FreeRTOS/Source/stream_buffer.c ****      * increased by the amount of bytes needed to store the length of the
 676:../../../../dependencies/freertos/FreeRTOSv10.4.1/FreeRTOS/Source/stream_buffer.c ****      * message. */
 677:../../../../dependencies/freertos/FreeRTOSv10.4.1/FreeRTOS/Source/stream_buffer.c ****     if( ( pxStreamBuffer->ucFlags & sbFLAGS_IS_MESSAGE_BUFFER ) != ( uint8_t ) 0 )
 1089              		.loc 1 677 25
 1090 004e 3B6B     		ldr	r3, [r7, #48]
 1091 0050 1B7F     		ldrb	r3, [r3, #28]	@ zero_extendqisi2
 1092              		.loc 1 677 35
 1093 0052 03F00103 		and	r3, r3, #1
 1094              		.loc 1 677 7
 1095 0056 002B     		cmp	r3, #0
 1096 0058 02D0     		beq	.L66
 678:../../../../dependencies/freertos/FreeRTOSv10.4.1/FreeRTOS/Source/stream_buffer.c ****     {
 679:../../../../dependencies/freertos/FreeRTOSv10.4.1/FreeRTOS/Source/stream_buffer.c ****         xRequiredSpace += sbBYTES_TO_STORE_MESSAGE_LENGTH;
 1097              		.loc 1 679 24
 1098 005a 7B6B     		ldr	r3, [r7, #52]
 1099 005c 0433     		adds	r3, r3, #4
 1100 005e 7B63     		str	r3, [r7, #52]
 1101              	.L66:
 680:../../../../dependencies/freertos/FreeRTOSv10.4.1/FreeRTOS/Source/stream_buffer.c ****     }
 681:../../../../dependencies/freertos/FreeRTOSv10.4.1/FreeRTOS/Source/stream_buffer.c ****     else
 682:../../../../dependencies/freertos/FreeRTOSv10.4.1/FreeRTOS/Source/stream_buffer.c ****     {
 683:../../../../dependencies/freertos/FreeRTOSv10.4.1/FreeRTOS/Source/stream_buffer.c ****         mtCOVERAGE_TEST_MARKER();
 684:../../../../dependencies/freertos/FreeRTOSv10.4.1/FreeRTOS/Source/stream_buffer.c ****     }
 685:../../../../dependencies/freertos/FreeRTOSv10.4.1/FreeRTOS/Source/stream_buffer.c **** 
 686:../../../../dependencies/freertos/FreeRTOSv10.4.1/FreeRTOS/Source/stream_buffer.c ****     xSpace = xStreamBufferSpacesAvailable( pxStreamBuffer );
 1102              		.loc 1 686 14
 1103 0060 386B     		ldr	r0, [r7, #48]
 1104 0062 FFF7FEFF 		bl	xStreamBufferSpacesAvailable
 1105 0066 F862     		str	r0, [r7, #44]
ARM GAS  /var/folders/kj/yzqgq53j3dg15vgwwwwgf5s00000gn/T//ccSjr9dy.s 			page 36


 687:../../../../dependencies/freertos/FreeRTOSv10.4.1/FreeRTOS/Source/stream_buffer.c ****     xReturn = prvWriteMessageToBuffer( pxStreamBuffer, pvTxData, xDataLengthBytes, xSpace, xRequire
 1106              		.loc 1 687 15
 1107 0068 7B6B     		ldr	r3, [r7, #52]
 1108 006a 0093     		str	r3, [sp]
 1109 006c FB6A     		ldr	r3, [r7, #44]
 1110 006e 7A68     		ldr	r2, [r7, #4]
 1111 0070 B968     		ldr	r1, [r7, #8]
 1112 0072 386B     		ldr	r0, [r7, #48]
 1113 0074 FFF7FEFF 		bl	prvWriteMessageToBuffer
 1114 0078 B862     		str	r0, [r7, #40]
 688:../../../../dependencies/freertos/FreeRTOSv10.4.1/FreeRTOS/Source/stream_buffer.c **** 
 689:../../../../dependencies/freertos/FreeRTOSv10.4.1/FreeRTOS/Source/stream_buffer.c ****     if( xReturn > ( size_t ) 0 )
 1115              		.loc 1 689 7
 1116 007a BB6A     		ldr	r3, [r7, #40]
 1117 007c 002B     		cmp	r3, #0
 1118 007e 2DD0     		beq	.L67
 690:../../../../dependencies/freertos/FreeRTOSv10.4.1/FreeRTOS/Source/stream_buffer.c ****     {
 691:../../../../dependencies/freertos/FreeRTOSv10.4.1/FreeRTOS/Source/stream_buffer.c ****         /* Was a task waiting for the data? */
 692:../../../../dependencies/freertos/FreeRTOSv10.4.1/FreeRTOS/Source/stream_buffer.c ****         if( prvBytesInBuffer( pxStreamBuffer ) >= pxStreamBuffer->xTriggerLevelBytes )
 1119              		.loc 1 692 13
 1120 0080 386B     		ldr	r0, [r7, #48]
 1121 0082 FFF7FEFF 		bl	prvBytesInBuffer
 1122 0086 0246     		mov	r2, r0
 1123              		.loc 1 692 65
 1124 0088 3B6B     		ldr	r3, [r7, #48]
 1125 008a DB68     		ldr	r3, [r3, #12]
 1126              		.loc 1 692 11
 1127 008c 9A42     		cmp	r2, r3
 1128 008e 25D3     		bcc	.L67
 1129              	.LBB113:
 1130              	.LBB114:
 1131              	.LBB115:
 206:../../../../dependencies/freertos/FreeRTOSv10.4.1/FreeRTOS/Source/portable/GCC/ARM_CM4F/portmacro.h **** 
 207:../../../../dependencies/freertos/FreeRTOSv10.4.1/FreeRTOS/Source/portable/GCC/ARM_CM4F/portmacro.h **** /*-----------------------------------------------------------*/
 208:../../../../dependencies/freertos/FreeRTOSv10.4.1/FreeRTOS/Source/portable/GCC/ARM_CM4F/portmacro.h **** 
 209:../../../../dependencies/freertos/FreeRTOSv10.4.1/FreeRTOS/Source/portable/GCC/ARM_CM4F/portmacro.h ****     portFORCE_INLINE static uint32_t ulPortRaiseBASEPRI( void )
 210:../../../../dependencies/freertos/FreeRTOSv10.4.1/FreeRTOS/Source/portable/GCC/ARM_CM4F/portmacro.h ****     {
 211:../../../../dependencies/freertos/FreeRTOSv10.4.1/FreeRTOS/Source/portable/GCC/ARM_CM4F/portmacro.h ****         uint32_t ulOriginalBASEPRI, ulNewBASEPRI;
 212:../../../../dependencies/freertos/FreeRTOSv10.4.1/FreeRTOS/Source/portable/GCC/ARM_CM4F/portmacro.h **** 
 213:../../../../dependencies/freertos/FreeRTOSv10.4.1/FreeRTOS/Source/portable/GCC/ARM_CM4F/portmacro.h ****         __asm volatile
 1132              		.loc 2 213 9
 1133              		.syntax unified
 1134              	@ 213 "../../../../dependencies/freertos/FreeRTOSv10.4.1/FreeRTOS/Source/portable/GCC/ARM_CM4F/port
 1135 0090 EFF31182 			mrs r2, basepri											
 1136 0094 4FF05003 		mov r3, #80												
 1137 0098 83F31188 		msr basepri, r3											
 1138 009c BFF36F8F 		isb														
 1139 00a0 BFF34F8F 		dsb														
 1140              	
 1141              	@ 0 "" 2
 1142              		.thumb
 1143              		.syntax unified
 1144 00a4 BA61     		str	r2, [r7, #24]
 1145 00a6 7B61     		str	r3, [r7, #20]
 214:../../../../dependencies/freertos/FreeRTOSv10.4.1/FreeRTOS/Source/portable/GCC/ARM_CM4F/portmacro.h ****         (
 215:../../../../dependencies/freertos/FreeRTOSv10.4.1/FreeRTOS/Source/portable/GCC/ARM_CM4F/portmacro.h ****             "	mrs %0, basepri											\n"\
 216:../../../../dependencies/freertos/FreeRTOSv10.4.1/FreeRTOS/Source/portable/GCC/ARM_CM4F/portmacro.h ****             "	mov %1, %2												\n"\
ARM GAS  /var/folders/kj/yzqgq53j3dg15vgwwwwgf5s00000gn/T//ccSjr9dy.s 			page 37


 217:../../../../dependencies/freertos/FreeRTOSv10.4.1/FreeRTOS/Source/portable/GCC/ARM_CM4F/portmacro.h ****             "	msr basepri, %1											\n"\
 218:../../../../dependencies/freertos/FreeRTOSv10.4.1/FreeRTOS/Source/portable/GCC/ARM_CM4F/portmacro.h ****             "	isb														\n"\
 219:../../../../dependencies/freertos/FreeRTOSv10.4.1/FreeRTOS/Source/portable/GCC/ARM_CM4F/portmacro.h ****             "	dsb														\n"\
 220:../../../../dependencies/freertos/FreeRTOSv10.4.1/FreeRTOS/Source/portable/GCC/ARM_CM4F/portmacro.h ****             : "=r" ( ulOriginalBASEPRI ), "=r" ( ulNewBASEPRI ) : "i" ( configMAX_SYSCALL_INTERRUPT
 221:../../../../dependencies/freertos/FreeRTOSv10.4.1/FreeRTOS/Source/portable/GCC/ARM_CM4F/portmacro.h ****         );
 222:../../../../dependencies/freertos/FreeRTOSv10.4.1/FreeRTOS/Source/portable/GCC/ARM_CM4F/portmacro.h **** 
 223:../../../../dependencies/freertos/FreeRTOSv10.4.1/FreeRTOS/Source/portable/GCC/ARM_CM4F/portmacro.h ****         /* This return will not be reached but is necessary to prevent compiler
 224:../../../../dependencies/freertos/FreeRTOSv10.4.1/FreeRTOS/Source/portable/GCC/ARM_CM4F/portmacro.h ****          * warnings. */
 225:../../../../dependencies/freertos/FreeRTOSv10.4.1/FreeRTOS/Source/portable/GCC/ARM_CM4F/portmacro.h ****         return ulOriginalBASEPRI;
 1146              		.loc 2 225 16
 1147 00a8 BB69     		ldr	r3, [r7, #24]
 1148              	.LBE115:
 1149              	.LBE114:
 693:../../../../dependencies/freertos/FreeRTOSv10.4.1/FreeRTOS/Source/stream_buffer.c ****         {
 694:../../../../dependencies/freertos/FreeRTOSv10.4.1/FreeRTOS/Source/stream_buffer.c ****             sbSEND_COMPLETE_FROM_ISR( pxStreamBuffer, pxHigherPriorityTaskWoken );
 1150              		.loc 1 694 13
 1151 00aa 7B62     		str	r3, [r7, #36]
 1152 00ac 3B6B     		ldr	r3, [r7, #48]
 1153 00ae 1B69     		ldr	r3, [r3, #16]
 1154 00b0 002B     		cmp	r3, #0
 1155 00b2 0DD0     		beq	.L69
 1156              		.loc 1 694 13 is_stmt 0 discriminator 1
 1157 00b4 3B6B     		ldr	r3, [r7, #48]
 1158 00b6 1869     		ldr	r0, [r3, #16]
 1159 00b8 3B68     		ldr	r3, [r7]
 1160 00ba 0193     		str	r3, [sp, #4]
 1161 00bc 0023     		movs	r3, #0
 1162 00be 0093     		str	r3, [sp]
 1163 00c0 0023     		movs	r3, #0
 1164 00c2 0022     		movs	r2, #0
 1165 00c4 0021     		movs	r1, #0
 1166 00c6 FFF7FEFF 		bl	xTaskGenericNotifyFromISR
 1167 00ca 3B6B     		ldr	r3, [r7, #48]
 1168 00cc 0022     		movs	r2, #0
 1169 00ce 1A61     		str	r2, [r3, #16]
 1170              	.L69:
 1171 00d0 7B6A     		ldr	r3, [r7, #36]
 1172 00d2 3B61     		str	r3, [r7, #16]
 1173              	.LBB116:
 1174              	.LBB117:
 226:../../../../dependencies/freertos/FreeRTOSv10.4.1/FreeRTOS/Source/portable/GCC/ARM_CM4F/portmacro.h ****     }
 227:../../../../dependencies/freertos/FreeRTOSv10.4.1/FreeRTOS/Source/portable/GCC/ARM_CM4F/portmacro.h **** /*-----------------------------------------------------------*/
 228:../../../../dependencies/freertos/FreeRTOSv10.4.1/FreeRTOS/Source/portable/GCC/ARM_CM4F/portmacro.h **** 
 229:../../../../dependencies/freertos/FreeRTOSv10.4.1/FreeRTOS/Source/portable/GCC/ARM_CM4F/portmacro.h ****     portFORCE_INLINE static void vPortSetBASEPRI( uint32_t ulNewMaskValue )
 230:../../../../dependencies/freertos/FreeRTOSv10.4.1/FreeRTOS/Source/portable/GCC/ARM_CM4F/portmacro.h ****     {
 231:../../../../dependencies/freertos/FreeRTOSv10.4.1/FreeRTOS/Source/portable/GCC/ARM_CM4F/portmacro.h ****         __asm volatile
 1175              		.loc 2 231 9 is_stmt 1 discriminator 3
 1176 00d4 3B69     		ldr	r3, [r7, #16]
 1177              		.syntax unified
 1178              	@ 231 "../../../../dependencies/freertos/FreeRTOSv10.4.1/FreeRTOS/Source/portable/GCC/ARM_CM4F/port
 1179 00d6 83F31188 			msr basepri, r3	
 1180              	@ 0 "" 2
 232:../../../../dependencies/freertos/FreeRTOSv10.4.1/FreeRTOS/Source/portable/GCC/ARM_CM4F/portmacro.h ****         (
 233:../../../../dependencies/freertos/FreeRTOSv10.4.1/FreeRTOS/Source/portable/GCC/ARM_CM4F/portmacro.h ****             "	msr basepri, %0	"::"r" ( ulNewMaskValue ) : "memory"
 234:../../../../dependencies/freertos/FreeRTOSv10.4.1/FreeRTOS/Source/portable/GCC/ARM_CM4F/portmacro.h ****         );
 235:../../../../dependencies/freertos/FreeRTOSv10.4.1/FreeRTOS/Source/portable/GCC/ARM_CM4F/portmacro.h ****     }
 1181              		.loc 2 235 5 discriminator 3
ARM GAS  /var/folders/kj/yzqgq53j3dg15vgwwwwgf5s00000gn/T//ccSjr9dy.s 			page 38


 1182              		.thumb
 1183              		.syntax unified
 1184 00da 00BF     		nop
 1185              	.L67:
 1186              	.LBE117:
 1187              	.LBE116:
 1188              	.LBE113:
 695:../../../../dependencies/freertos/FreeRTOSv10.4.1/FreeRTOS/Source/stream_buffer.c ****         }
 696:../../../../dependencies/freertos/FreeRTOSv10.4.1/FreeRTOS/Source/stream_buffer.c ****         else
 697:../../../../dependencies/freertos/FreeRTOSv10.4.1/FreeRTOS/Source/stream_buffer.c ****         {
 698:../../../../dependencies/freertos/FreeRTOSv10.4.1/FreeRTOS/Source/stream_buffer.c ****             mtCOVERAGE_TEST_MARKER();
 699:../../../../dependencies/freertos/FreeRTOSv10.4.1/FreeRTOS/Source/stream_buffer.c ****         }
 700:../../../../dependencies/freertos/FreeRTOSv10.4.1/FreeRTOS/Source/stream_buffer.c ****     }
 701:../../../../dependencies/freertos/FreeRTOSv10.4.1/FreeRTOS/Source/stream_buffer.c ****     else
 702:../../../../dependencies/freertos/FreeRTOSv10.4.1/FreeRTOS/Source/stream_buffer.c ****     {
 703:../../../../dependencies/freertos/FreeRTOSv10.4.1/FreeRTOS/Source/stream_buffer.c ****         mtCOVERAGE_TEST_MARKER();
 704:../../../../dependencies/freertos/FreeRTOSv10.4.1/FreeRTOS/Source/stream_buffer.c ****     }
 705:../../../../dependencies/freertos/FreeRTOSv10.4.1/FreeRTOS/Source/stream_buffer.c **** 
 706:../../../../dependencies/freertos/FreeRTOSv10.4.1/FreeRTOS/Source/stream_buffer.c ****     traceSTREAM_BUFFER_SEND_FROM_ISR( xStreamBuffer, xReturn );
 707:../../../../dependencies/freertos/FreeRTOSv10.4.1/FreeRTOS/Source/stream_buffer.c **** 
 708:../../../../dependencies/freertos/FreeRTOSv10.4.1/FreeRTOS/Source/stream_buffer.c ****     return xReturn;
 1189              		.loc 1 708 12
 1190 00dc BB6A     		ldr	r3, [r7, #40]
 709:../../../../dependencies/freertos/FreeRTOSv10.4.1/FreeRTOS/Source/stream_buffer.c **** }
 1191              		.loc 1 709 1
 1192 00de 1846     		mov	r0, r3
 1193 00e0 3837     		adds	r7, r7, #56
 1194              	.LCFI40:
 1195              		.cfi_def_cfa_offset 8
 1196 00e2 BD46     		mov	sp, r7
 1197              	.LCFI41:
 1198              		.cfi_def_cfa_register 13
 1199              		@ sp needed
 1200 00e4 80BD     		pop	{r7, pc}
 1201              		.cfi_endproc
 1202              	.LFE12:
 1204              		.section	.text.prvWriteMessageToBuffer,"ax",%progbits
 1205              		.align	1
 1206              		.syntax unified
 1207              		.thumb
 1208              		.thumb_func
 1209              		.fpu fpv4-sp-d16
 1211              	prvWriteMessageToBuffer:
 1212              	.LFB13:
 710:../../../../dependencies/freertos/FreeRTOSv10.4.1/FreeRTOS/Source/stream_buffer.c **** /*-----------------------------------------------------------*/
 711:../../../../dependencies/freertos/FreeRTOSv10.4.1/FreeRTOS/Source/stream_buffer.c **** 
 712:../../../../dependencies/freertos/FreeRTOSv10.4.1/FreeRTOS/Source/stream_buffer.c **** static size_t prvWriteMessageToBuffer( StreamBuffer_t * const pxStreamBuffer,
 713:../../../../dependencies/freertos/FreeRTOSv10.4.1/FreeRTOS/Source/stream_buffer.c ****                                        const void * pvTxData,
 714:../../../../dependencies/freertos/FreeRTOSv10.4.1/FreeRTOS/Source/stream_buffer.c ****                                        size_t xDataLengthBytes,
 715:../../../../dependencies/freertos/FreeRTOSv10.4.1/FreeRTOS/Source/stream_buffer.c ****                                        size_t xSpace,
 716:../../../../dependencies/freertos/FreeRTOSv10.4.1/FreeRTOS/Source/stream_buffer.c ****                                        size_t xRequiredSpace )
 717:../../../../dependencies/freertos/FreeRTOSv10.4.1/FreeRTOS/Source/stream_buffer.c **** {
 1213              		.loc 1 717 1
 1214              		.cfi_startproc
 1215              		@ args = 4, pretend = 0, frame = 24
 1216              		@ frame_needed = 1, uses_anonymous_args = 0
 1217 0000 80B5     		push	{r7, lr}
ARM GAS  /var/folders/kj/yzqgq53j3dg15vgwwwwgf5s00000gn/T//ccSjr9dy.s 			page 39


 1218              	.LCFI42:
 1219              		.cfi_def_cfa_offset 8
 1220              		.cfi_offset 7, -8
 1221              		.cfi_offset 14, -4
 1222 0002 86B0     		sub	sp, sp, #24
 1223              	.LCFI43:
 1224              		.cfi_def_cfa_offset 32
 1225 0004 00AF     		add	r7, sp, #0
 1226              	.LCFI44:
 1227              		.cfi_def_cfa_register 7
 1228 0006 F860     		str	r0, [r7, #12]
 1229 0008 B960     		str	r1, [r7, #8]
 1230 000a 7A60     		str	r2, [r7, #4]
 1231 000c 3B60     		str	r3, [r7]
 718:../../../../dependencies/freertos/FreeRTOSv10.4.1/FreeRTOS/Source/stream_buffer.c ****     BaseType_t xShouldWrite;
 719:../../../../dependencies/freertos/FreeRTOSv10.4.1/FreeRTOS/Source/stream_buffer.c ****     size_t xReturn;
 720:../../../../dependencies/freertos/FreeRTOSv10.4.1/FreeRTOS/Source/stream_buffer.c **** 
 721:../../../../dependencies/freertos/FreeRTOSv10.4.1/FreeRTOS/Source/stream_buffer.c ****     if( xSpace == ( size_t ) 0 )
 1232              		.loc 1 721 7
 1233 000e 3B68     		ldr	r3, [r7]
 1234 0010 002B     		cmp	r3, #0
 1235 0012 02D1     		bne	.L72
 722:../../../../dependencies/freertos/FreeRTOSv10.4.1/FreeRTOS/Source/stream_buffer.c ****     {
 723:../../../../dependencies/freertos/FreeRTOSv10.4.1/FreeRTOS/Source/stream_buffer.c ****         /* Doesn't matter if this is a stream buffer or a message buffer, there
 724:../../../../dependencies/freertos/FreeRTOSv10.4.1/FreeRTOS/Source/stream_buffer.c ****          * is no space to write. */
 725:../../../../dependencies/freertos/FreeRTOSv10.4.1/FreeRTOS/Source/stream_buffer.c ****         xShouldWrite = pdFALSE;
 1236              		.loc 1 725 22
 1237 0014 0023     		movs	r3, #0
 1238 0016 7B61     		str	r3, [r7, #20]
 1239 0018 1DE0     		b	.L73
 1240              	.L72:
 726:../../../../dependencies/freertos/FreeRTOSv10.4.1/FreeRTOS/Source/stream_buffer.c ****     }
 727:../../../../dependencies/freertos/FreeRTOSv10.4.1/FreeRTOS/Source/stream_buffer.c ****     else if( ( pxStreamBuffer->ucFlags & sbFLAGS_IS_MESSAGE_BUFFER ) == ( uint8_t ) 0 )
 1241              		.loc 1 727 30
 1242 001a FB68     		ldr	r3, [r7, #12]
 1243 001c 1B7F     		ldrb	r3, [r3, #28]	@ zero_extendqisi2
 1244              		.loc 1 727 40
 1245 001e 03F00103 		and	r3, r3, #1
 1246              		.loc 1 727 12
 1247 0022 002B     		cmp	r3, #0
 1248 0024 08D1     		bne	.L74
 728:../../../../dependencies/freertos/FreeRTOSv10.4.1/FreeRTOS/Source/stream_buffer.c ****     {
 729:../../../../dependencies/freertos/FreeRTOSv10.4.1/FreeRTOS/Source/stream_buffer.c ****         /* This is a stream buffer, as opposed to a message buffer, so writing a
 730:../../../../dependencies/freertos/FreeRTOSv10.4.1/FreeRTOS/Source/stream_buffer.c ****          * stream of bytes rather than discrete messages.  Write as many bytes as
 731:../../../../dependencies/freertos/FreeRTOSv10.4.1/FreeRTOS/Source/stream_buffer.c ****          * possible. */
 732:../../../../dependencies/freertos/FreeRTOSv10.4.1/FreeRTOS/Source/stream_buffer.c ****         xShouldWrite = pdTRUE;
 1249              		.loc 1 732 22
 1250 0026 0123     		movs	r3, #1
 1251 0028 7B61     		str	r3, [r7, #20]
 733:../../../../dependencies/freertos/FreeRTOSv10.4.1/FreeRTOS/Source/stream_buffer.c ****         xDataLengthBytes = configMIN( xDataLengthBytes, xSpace );
 1252              		.loc 1 733 28
 1253 002a 7A68     		ldr	r2, [r7, #4]
 1254 002c 3B68     		ldr	r3, [r7]
 1255 002e 9342     		cmp	r3, r2
 1256 0030 28BF     		it	cs
 1257 0032 1346     		movcs	r3, r2
 1258              		.loc 1 733 26
ARM GAS  /var/folders/kj/yzqgq53j3dg15vgwwwwgf5s00000gn/T//ccSjr9dy.s 			page 40


 1259 0034 7B60     		str	r3, [r7, #4]
 1260 0036 0EE0     		b	.L73
 1261              	.L74:
 734:../../../../dependencies/freertos/FreeRTOSv10.4.1/FreeRTOS/Source/stream_buffer.c ****     }
 735:../../../../dependencies/freertos/FreeRTOSv10.4.1/FreeRTOS/Source/stream_buffer.c ****     else if( xSpace >= xRequiredSpace )
 1262              		.loc 1 735 12
 1263 0038 3A68     		ldr	r2, [r7]
 1264 003a 3B6A     		ldr	r3, [r7, #32]
 1265 003c 9A42     		cmp	r2, r3
 1266 003e 08D3     		bcc	.L75
 736:../../../../dependencies/freertos/FreeRTOSv10.4.1/FreeRTOS/Source/stream_buffer.c ****     {
 737:../../../../dependencies/freertos/FreeRTOSv10.4.1/FreeRTOS/Source/stream_buffer.c ****         /* This is a message buffer, as opposed to a stream buffer, and there
 738:../../../../dependencies/freertos/FreeRTOSv10.4.1/FreeRTOS/Source/stream_buffer.c ****          * is enough space to write both the message length and the message itself
 739:../../../../dependencies/freertos/FreeRTOSv10.4.1/FreeRTOS/Source/stream_buffer.c ****          * into the buffer.  Start by writing the length of the data, the data
 740:../../../../dependencies/freertos/FreeRTOSv10.4.1/FreeRTOS/Source/stream_buffer.c ****          * itself will be written later in this function. */
 741:../../../../dependencies/freertos/FreeRTOSv10.4.1/FreeRTOS/Source/stream_buffer.c ****         xShouldWrite = pdTRUE;
 1267              		.loc 1 741 22
 1268 0040 0123     		movs	r3, #1
 1269 0042 7B61     		str	r3, [r7, #20]
 742:../../../../dependencies/freertos/FreeRTOSv10.4.1/FreeRTOS/Source/stream_buffer.c ****         ( void ) prvWriteBytesToBuffer( pxStreamBuffer, ( const uint8_t * ) &( xDataLengthBytes ), 
 1270              		.loc 1 742 18
 1271 0044 3B1D     		adds	r3, r7, #4
 1272 0046 0422     		movs	r2, #4
 1273 0048 1946     		mov	r1, r3
 1274 004a F868     		ldr	r0, [r7, #12]
 1275 004c FFF7FEFF 		bl	prvWriteBytesToBuffer
 1276 0050 01E0     		b	.L73
 1277              	.L75:
 743:../../../../dependencies/freertos/FreeRTOSv10.4.1/FreeRTOS/Source/stream_buffer.c ****     }
 744:../../../../dependencies/freertos/FreeRTOSv10.4.1/FreeRTOS/Source/stream_buffer.c ****     else
 745:../../../../dependencies/freertos/FreeRTOSv10.4.1/FreeRTOS/Source/stream_buffer.c ****     {
 746:../../../../dependencies/freertos/FreeRTOSv10.4.1/FreeRTOS/Source/stream_buffer.c ****         /* There is space available, but not enough space. */
 747:../../../../dependencies/freertos/FreeRTOSv10.4.1/FreeRTOS/Source/stream_buffer.c ****         xShouldWrite = pdFALSE;
 1278              		.loc 1 747 22
 1279 0052 0023     		movs	r3, #0
 1280 0054 7B61     		str	r3, [r7, #20]
 1281              	.L73:
 748:../../../../dependencies/freertos/FreeRTOSv10.4.1/FreeRTOS/Source/stream_buffer.c ****     }
 749:../../../../dependencies/freertos/FreeRTOSv10.4.1/FreeRTOS/Source/stream_buffer.c **** 
 750:../../../../dependencies/freertos/FreeRTOSv10.4.1/FreeRTOS/Source/stream_buffer.c ****     if( xShouldWrite != pdFALSE )
 1282              		.loc 1 750 7
 1283 0056 7B69     		ldr	r3, [r7, #20]
 1284 0058 002B     		cmp	r3, #0
 1285 005a 07D0     		beq	.L76
 751:../../../../dependencies/freertos/FreeRTOSv10.4.1/FreeRTOS/Source/stream_buffer.c ****     {
 752:../../../../dependencies/freertos/FreeRTOSv10.4.1/FreeRTOS/Source/stream_buffer.c ****         /* Writes the data itself. */
 753:../../../../dependencies/freertos/FreeRTOSv10.4.1/FreeRTOS/Source/stream_buffer.c ****         xReturn = prvWriteBytesToBuffer( pxStreamBuffer, ( const uint8_t * ) pvTxData, xDataLengthB
 1286              		.loc 1 753 19
 1287 005c 7B68     		ldr	r3, [r7, #4]
 1288 005e 1A46     		mov	r2, r3
 1289 0060 B968     		ldr	r1, [r7, #8]
 1290 0062 F868     		ldr	r0, [r7, #12]
 1291 0064 FFF7FEFF 		bl	prvWriteBytesToBuffer
 1292 0068 3861     		str	r0, [r7, #16]
 1293 006a 01E0     		b	.L77
 1294              	.L76:
 754:../../../../dependencies/freertos/FreeRTOSv10.4.1/FreeRTOS/Source/stream_buffer.c ****     }
ARM GAS  /var/folders/kj/yzqgq53j3dg15vgwwwwgf5s00000gn/T//ccSjr9dy.s 			page 41


 755:../../../../dependencies/freertos/FreeRTOSv10.4.1/FreeRTOS/Source/stream_buffer.c ****     else
 756:../../../../dependencies/freertos/FreeRTOSv10.4.1/FreeRTOS/Source/stream_buffer.c ****     {
 757:../../../../dependencies/freertos/FreeRTOSv10.4.1/FreeRTOS/Source/stream_buffer.c ****         xReturn = 0;
 1295              		.loc 1 757 17
 1296 006c 0023     		movs	r3, #0
 1297 006e 3B61     		str	r3, [r7, #16]
 1298              	.L77:
 758:../../../../dependencies/freertos/FreeRTOSv10.4.1/FreeRTOS/Source/stream_buffer.c ****     }
 759:../../../../dependencies/freertos/FreeRTOSv10.4.1/FreeRTOS/Source/stream_buffer.c **** 
 760:../../../../dependencies/freertos/FreeRTOSv10.4.1/FreeRTOS/Source/stream_buffer.c ****     return xReturn;
 1299              		.loc 1 760 12
 1300 0070 3B69     		ldr	r3, [r7, #16]
 761:../../../../dependencies/freertos/FreeRTOSv10.4.1/FreeRTOS/Source/stream_buffer.c **** }
 1301              		.loc 1 761 1
 1302 0072 1846     		mov	r0, r3
 1303 0074 1837     		adds	r7, r7, #24
 1304              	.LCFI45:
 1305              		.cfi_def_cfa_offset 8
 1306 0076 BD46     		mov	sp, r7
 1307              	.LCFI46:
 1308              		.cfi_def_cfa_register 13
 1309              		@ sp needed
 1310 0078 80BD     		pop	{r7, pc}
 1311              		.cfi_endproc
 1312              	.LFE13:
 1314              		.section	.text.xStreamBufferReceive,"ax",%progbits
 1315              		.align	1
 1316              		.global	xStreamBufferReceive
 1317              		.syntax unified
 1318              		.thumb
 1319              		.thumb_func
 1320              		.fpu fpv4-sp-d16
 1322              	xStreamBufferReceive:
 1323              	.LFB14:
 762:../../../../dependencies/freertos/FreeRTOSv10.4.1/FreeRTOS/Source/stream_buffer.c **** /*-----------------------------------------------------------*/
 763:../../../../dependencies/freertos/FreeRTOSv10.4.1/FreeRTOS/Source/stream_buffer.c **** 
 764:../../../../dependencies/freertos/FreeRTOSv10.4.1/FreeRTOS/Source/stream_buffer.c **** size_t xStreamBufferReceive( StreamBufferHandle_t xStreamBuffer,
 765:../../../../dependencies/freertos/FreeRTOSv10.4.1/FreeRTOS/Source/stream_buffer.c ****                              void * pvRxData,
 766:../../../../dependencies/freertos/FreeRTOSv10.4.1/FreeRTOS/Source/stream_buffer.c ****                              size_t xBufferLengthBytes,
 767:../../../../dependencies/freertos/FreeRTOSv10.4.1/FreeRTOS/Source/stream_buffer.c ****                              TickType_t xTicksToWait )
 768:../../../../dependencies/freertos/FreeRTOSv10.4.1/FreeRTOS/Source/stream_buffer.c **** {
 1324              		.loc 1 768 1
 1325              		.cfi_startproc
 1326              		@ args = 0, pretend = 0, frame = 48
 1327              		@ frame_needed = 1, uses_anonymous_args = 0
 1328 0000 80B5     		push	{r7, lr}
 1329              	.LCFI47:
 1330              		.cfi_def_cfa_offset 8
 1331              		.cfi_offset 7, -8
 1332              		.cfi_offset 14, -4
 1333 0002 8EB0     		sub	sp, sp, #56
 1334              	.LCFI48:
 1335              		.cfi_def_cfa_offset 64
 1336 0004 02AF     		add	r7, sp, #8
 1337              	.LCFI49:
 1338              		.cfi_def_cfa 7, 56
 1339 0006 F860     		str	r0, [r7, #12]
ARM GAS  /var/folders/kj/yzqgq53j3dg15vgwwwwgf5s00000gn/T//ccSjr9dy.s 			page 42


 1340 0008 B960     		str	r1, [r7, #8]
 1341 000a 7A60     		str	r2, [r7, #4]
 1342 000c 3B60     		str	r3, [r7]
 769:../../../../dependencies/freertos/FreeRTOSv10.4.1/FreeRTOS/Source/stream_buffer.c ****     StreamBuffer_t * const pxStreamBuffer = xStreamBuffer;
 1343              		.loc 1 769 28
 1344 000e FB68     		ldr	r3, [r7, #12]
 1345 0010 3B62     		str	r3, [r7, #32]
 770:../../../../dependencies/freertos/FreeRTOSv10.4.1/FreeRTOS/Source/stream_buffer.c ****     size_t xReceivedLength = 0, xBytesAvailable, xBytesToStoreMessageLength;
 1346              		.loc 1 770 12
 1347 0012 0023     		movs	r3, #0
 1348 0014 FB62     		str	r3, [r7, #44]
 771:../../../../dependencies/freertos/FreeRTOSv10.4.1/FreeRTOS/Source/stream_buffer.c **** 
 772:../../../../dependencies/freertos/FreeRTOSv10.4.1/FreeRTOS/Source/stream_buffer.c ****     configASSERT( pvRxData );
 1349              		.loc 1 772 5
 1350 0016 BB68     		ldr	r3, [r7, #8]
 1351 0018 002B     		cmp	r3, #0
 1352 001a 0AD1     		bne	.L80
 1353              	.LBB118:
 1354              	.LBB119:
 197:../../../../dependencies/freertos/FreeRTOSv10.4.1/FreeRTOS/Source/portable/GCC/ARM_CM4F/portmacro.h ****         (
 1355              		.loc 2 197 9
 1356              		.syntax unified
 1357              	@ 197 "../../../../dependencies/freertos/FreeRTOSv10.4.1/FreeRTOS/Source/portable/GCC/ARM_CM4F/port
 1358 001c 4FF05003 			mov r3, #80												
 1359 0020 83F31188 		msr basepri, r3											
 1360 0024 BFF36F8F 		isb														
 1361 0028 BFF34F8F 		dsb														
 1362              	
 1363              	@ 0 "" 2
 1364              		.thumb
 1365              		.syntax unified
 1366 002c FB61     		str	r3, [r7, #28]
 205:../../../../dependencies/freertos/FreeRTOSv10.4.1/FreeRTOS/Source/portable/GCC/ARM_CM4F/portmacro.h **** 
 1367              		.loc 2 205 5
 1368 002e 00BF     		nop
 1369              	.L81:
 1370              	.LBE119:
 1371              	.LBE118:
 1372              		.loc 1 772 5 discriminator 1
 1373 0030 FEE7     		b	.L81
 1374              	.L80:
 773:../../../../dependencies/freertos/FreeRTOSv10.4.1/FreeRTOS/Source/stream_buffer.c ****     configASSERT( pxStreamBuffer );
 1375              		.loc 1 773 5
 1376 0032 3B6A     		ldr	r3, [r7, #32]
 1377 0034 002B     		cmp	r3, #0
 1378 0036 0AD1     		bne	.L82
 1379              	.LBB120:
 1380              	.LBB121:
 197:../../../../dependencies/freertos/FreeRTOSv10.4.1/FreeRTOS/Source/portable/GCC/ARM_CM4F/portmacro.h ****         (
 1381              		.loc 2 197 9
 1382              		.syntax unified
 1383              	@ 197 "../../../../dependencies/freertos/FreeRTOSv10.4.1/FreeRTOS/Source/portable/GCC/ARM_CM4F/port
 1384 0038 4FF05003 			mov r3, #80												
 1385 003c 83F31188 		msr basepri, r3											
 1386 0040 BFF36F8F 		isb														
 1387 0044 BFF34F8F 		dsb														
 1388              	
ARM GAS  /var/folders/kj/yzqgq53j3dg15vgwwwwgf5s00000gn/T//ccSjr9dy.s 			page 43


 1389              	@ 0 "" 2
 1390              		.thumb
 1391              		.syntax unified
 1392 0048 BB61     		str	r3, [r7, #24]
 205:../../../../dependencies/freertos/FreeRTOSv10.4.1/FreeRTOS/Source/portable/GCC/ARM_CM4F/portmacro.h **** 
 1393              		.loc 2 205 5
 1394 004a 00BF     		nop
 1395              	.L83:
 1396              	.LBE121:
 1397              	.LBE120:
 1398              		.loc 1 773 5 discriminator 2
 1399 004c FEE7     		b	.L83
 1400              	.L82:
 774:../../../../dependencies/freertos/FreeRTOSv10.4.1/FreeRTOS/Source/stream_buffer.c **** 
 775:../../../../dependencies/freertos/FreeRTOSv10.4.1/FreeRTOS/Source/stream_buffer.c ****     /* This receive function is used by both message buffers, which store
 776:../../../../dependencies/freertos/FreeRTOSv10.4.1/FreeRTOS/Source/stream_buffer.c ****      * discrete messages, and stream buffers, which store a continuous stream of
 777:../../../../dependencies/freertos/FreeRTOSv10.4.1/FreeRTOS/Source/stream_buffer.c ****      * bytes.  Discrete messages include an additional
 778:../../../../dependencies/freertos/FreeRTOSv10.4.1/FreeRTOS/Source/stream_buffer.c ****      * sbBYTES_TO_STORE_MESSAGE_LENGTH bytes that hold the length of the
 779:../../../../dependencies/freertos/FreeRTOSv10.4.1/FreeRTOS/Source/stream_buffer.c ****      * message. */
 780:../../../../dependencies/freertos/FreeRTOSv10.4.1/FreeRTOS/Source/stream_buffer.c ****     if( ( pxStreamBuffer->ucFlags & sbFLAGS_IS_MESSAGE_BUFFER ) != ( uint8_t ) 0 )
 1401              		.loc 1 780 25
 1402 004e 3B6A     		ldr	r3, [r7, #32]
 1403 0050 1B7F     		ldrb	r3, [r3, #28]	@ zero_extendqisi2
 1404              		.loc 1 780 35
 1405 0052 03F00103 		and	r3, r3, #1
 1406              		.loc 1 780 7
 1407 0056 002B     		cmp	r3, #0
 1408 0058 02D0     		beq	.L84
 781:../../../../dependencies/freertos/FreeRTOSv10.4.1/FreeRTOS/Source/stream_buffer.c ****     {
 782:../../../../dependencies/freertos/FreeRTOSv10.4.1/FreeRTOS/Source/stream_buffer.c ****         xBytesToStoreMessageLength = sbBYTES_TO_STORE_MESSAGE_LENGTH;
 1409              		.loc 1 782 36
 1410 005a 0423     		movs	r3, #4
 1411 005c 7B62     		str	r3, [r7, #36]
 1412 005e 01E0     		b	.L85
 1413              	.L84:
 783:../../../../dependencies/freertos/FreeRTOSv10.4.1/FreeRTOS/Source/stream_buffer.c ****     }
 784:../../../../dependencies/freertos/FreeRTOSv10.4.1/FreeRTOS/Source/stream_buffer.c ****     else
 785:../../../../dependencies/freertos/FreeRTOSv10.4.1/FreeRTOS/Source/stream_buffer.c ****     {
 786:../../../../dependencies/freertos/FreeRTOSv10.4.1/FreeRTOS/Source/stream_buffer.c ****         xBytesToStoreMessageLength = 0;
 1414              		.loc 1 786 36
 1415 0060 0023     		movs	r3, #0
 1416 0062 7B62     		str	r3, [r7, #36]
 1417              	.L85:
 787:../../../../dependencies/freertos/FreeRTOSv10.4.1/FreeRTOS/Source/stream_buffer.c ****     }
 788:../../../../dependencies/freertos/FreeRTOSv10.4.1/FreeRTOS/Source/stream_buffer.c **** 
 789:../../../../dependencies/freertos/FreeRTOSv10.4.1/FreeRTOS/Source/stream_buffer.c ****     if( xTicksToWait != ( TickType_t ) 0 )
 1418              		.loc 1 789 7
 1419 0064 3B68     		ldr	r3, [r7]
 1420 0066 002B     		cmp	r3, #0
 1421 0068 37D0     		beq	.L86
 790:../../../../dependencies/freertos/FreeRTOSv10.4.1/FreeRTOS/Source/stream_buffer.c ****     {
 791:../../../../dependencies/freertos/FreeRTOSv10.4.1/FreeRTOS/Source/stream_buffer.c ****         /* Checking if there is data and clearing the notification state must be
 792:../../../../dependencies/freertos/FreeRTOSv10.4.1/FreeRTOS/Source/stream_buffer.c ****          * performed atomically. */
 793:../../../../dependencies/freertos/FreeRTOSv10.4.1/FreeRTOS/Source/stream_buffer.c ****         taskENTER_CRITICAL();
 1422              		.loc 1 793 9
 1423 006a FFF7FEFF 		bl	vPortEnterCritical
 794:../../../../dependencies/freertos/FreeRTOSv10.4.1/FreeRTOS/Source/stream_buffer.c ****         {
ARM GAS  /var/folders/kj/yzqgq53j3dg15vgwwwwgf5s00000gn/T//ccSjr9dy.s 			page 44


 795:../../../../dependencies/freertos/FreeRTOSv10.4.1/FreeRTOS/Source/stream_buffer.c ****             xBytesAvailable = prvBytesInBuffer( pxStreamBuffer );
 1424              		.loc 1 795 31
 1425 006e 386A     		ldr	r0, [r7, #32]
 1426 0070 FFF7FEFF 		bl	prvBytesInBuffer
 1427 0074 B862     		str	r0, [r7, #40]
 796:../../../../dependencies/freertos/FreeRTOSv10.4.1/FreeRTOS/Source/stream_buffer.c **** 
 797:../../../../dependencies/freertos/FreeRTOSv10.4.1/FreeRTOS/Source/stream_buffer.c ****             /* If this function was invoked by a message buffer read then
 798:../../../../dependencies/freertos/FreeRTOSv10.4.1/FreeRTOS/Source/stream_buffer.c ****              * xBytesToStoreMessageLength holds the number of bytes used to hold
 799:../../../../dependencies/freertos/FreeRTOSv10.4.1/FreeRTOS/Source/stream_buffer.c ****              * the length of the next discrete message.  If this function was
 800:../../../../dependencies/freertos/FreeRTOSv10.4.1/FreeRTOS/Source/stream_buffer.c ****              * invoked by a stream buffer read then xBytesToStoreMessageLength will
 801:../../../../dependencies/freertos/FreeRTOSv10.4.1/FreeRTOS/Source/stream_buffer.c ****              * be 0. */
 802:../../../../dependencies/freertos/FreeRTOSv10.4.1/FreeRTOS/Source/stream_buffer.c ****             if( xBytesAvailable <= xBytesToStoreMessageLength )
 1428              		.loc 1 802 15
 1429 0076 BA6A     		ldr	r2, [r7, #40]
 1430 0078 7B6A     		ldr	r3, [r7, #36]
 1431 007a 9A42     		cmp	r2, r3
 1432 007c 17D8     		bhi	.L87
 803:../../../../dependencies/freertos/FreeRTOSv10.4.1/FreeRTOS/Source/stream_buffer.c ****             {
 804:../../../../dependencies/freertos/FreeRTOSv10.4.1/FreeRTOS/Source/stream_buffer.c ****                 /* Clear notification state as going to wait for data. */
 805:../../../../dependencies/freertos/FreeRTOSv10.4.1/FreeRTOS/Source/stream_buffer.c ****                 ( void ) xTaskNotifyStateClear( NULL );
 1433              		.loc 1 805 26
 1434 007e 0021     		movs	r1, #0
 1435 0080 0020     		movs	r0, #0
 1436 0082 FFF7FEFF 		bl	xTaskGenericNotifyStateClear
 806:../../../../dependencies/freertos/FreeRTOSv10.4.1/FreeRTOS/Source/stream_buffer.c **** 
 807:../../../../dependencies/freertos/FreeRTOSv10.4.1/FreeRTOS/Source/stream_buffer.c ****                 /* Should only be one reader. */
 808:../../../../dependencies/freertos/FreeRTOSv10.4.1/FreeRTOS/Source/stream_buffer.c ****                 configASSERT( pxStreamBuffer->xTaskWaitingToReceive == NULL );
 1437              		.loc 1 808 17
 1438 0086 3B6A     		ldr	r3, [r7, #32]
 1439 0088 1B69     		ldr	r3, [r3, #16]
 1440 008a 002B     		cmp	r3, #0
 1441 008c 0AD0     		beq	.L88
 1442              	.LBB122:
 1443              	.LBB123:
 197:../../../../dependencies/freertos/FreeRTOSv10.4.1/FreeRTOS/Source/portable/GCC/ARM_CM4F/portmacro.h ****         (
 1444              		.loc 2 197 9
 1445              		.syntax unified
 1446              	@ 197 "../../../../dependencies/freertos/FreeRTOSv10.4.1/FreeRTOS/Source/portable/GCC/ARM_CM4F/port
 1447 008e 4FF05003 			mov r3, #80												
 1448 0092 83F31188 		msr basepri, r3											
 1449 0096 BFF36F8F 		isb														
 1450 009a BFF34F8F 		dsb														
 1451              	
 1452              	@ 0 "" 2
 1453              		.thumb
 1454              		.syntax unified
 1455 009e 7B61     		str	r3, [r7, #20]
 205:../../../../dependencies/freertos/FreeRTOSv10.4.1/FreeRTOS/Source/portable/GCC/ARM_CM4F/portmacro.h **** 
 1456              		.loc 2 205 5
 1457 00a0 00BF     		nop
 1458              	.L89:
 1459              	.LBE123:
 1460              	.LBE122:
 1461              		.loc 1 808 17 discriminator 3
 1462 00a2 FEE7     		b	.L89
 1463              	.L88:
 809:../../../../dependencies/freertos/FreeRTOSv10.4.1/FreeRTOS/Source/stream_buffer.c ****                 pxStreamBuffer->xTaskWaitingToReceive = xTaskGetCurrentTaskHandle();
ARM GAS  /var/folders/kj/yzqgq53j3dg15vgwwwwgf5s00000gn/T//ccSjr9dy.s 			page 45


 1464              		.loc 1 809 57
 1465 00a4 FFF7FEFF 		bl	xTaskGetCurrentTaskHandle
 1466 00a8 0246     		mov	r2, r0
 1467              		.loc 1 809 55
 1468 00aa 3B6A     		ldr	r3, [r7, #32]
 1469 00ac 1A61     		str	r2, [r3, #16]
 1470              	.L87:
 810:../../../../dependencies/freertos/FreeRTOSv10.4.1/FreeRTOS/Source/stream_buffer.c ****             }
 811:../../../../dependencies/freertos/FreeRTOSv10.4.1/FreeRTOS/Source/stream_buffer.c ****             else
 812:../../../../dependencies/freertos/FreeRTOSv10.4.1/FreeRTOS/Source/stream_buffer.c ****             {
 813:../../../../dependencies/freertos/FreeRTOSv10.4.1/FreeRTOS/Source/stream_buffer.c ****                 mtCOVERAGE_TEST_MARKER();
 814:../../../../dependencies/freertos/FreeRTOSv10.4.1/FreeRTOS/Source/stream_buffer.c ****             }
 815:../../../../dependencies/freertos/FreeRTOSv10.4.1/FreeRTOS/Source/stream_buffer.c ****         }
 816:../../../../dependencies/freertos/FreeRTOSv10.4.1/FreeRTOS/Source/stream_buffer.c ****         taskEXIT_CRITICAL();
 1471              		.loc 1 816 9
 1472 00ae FFF7FEFF 		bl	vPortExitCritical
 817:../../../../dependencies/freertos/FreeRTOSv10.4.1/FreeRTOS/Source/stream_buffer.c **** 
 818:../../../../dependencies/freertos/FreeRTOSv10.4.1/FreeRTOS/Source/stream_buffer.c ****         if( xBytesAvailable <= xBytesToStoreMessageLength )
 1473              		.loc 1 818 11
 1474 00b2 BA6A     		ldr	r2, [r7, #40]
 1475 00b4 7B6A     		ldr	r3, [r7, #36]
 1476 00b6 9A42     		cmp	r2, r3
 1477 00b8 13D8     		bhi	.L90
 819:../../../../dependencies/freertos/FreeRTOSv10.4.1/FreeRTOS/Source/stream_buffer.c ****         {
 820:../../../../dependencies/freertos/FreeRTOSv10.4.1/FreeRTOS/Source/stream_buffer.c ****             /* Wait for data to be available. */
 821:../../../../dependencies/freertos/FreeRTOSv10.4.1/FreeRTOS/Source/stream_buffer.c ****             traceBLOCKING_ON_STREAM_BUFFER_RECEIVE( xStreamBuffer );
 822:../../../../dependencies/freertos/FreeRTOSv10.4.1/FreeRTOS/Source/stream_buffer.c ****             ( void ) xTaskNotifyWait( ( uint32_t ) 0, ( uint32_t ) 0, NULL, xTicksToWait );
 1478              		.loc 1 822 22
 1479 00ba 3B68     		ldr	r3, [r7]
 1480 00bc 0093     		str	r3, [sp]
 1481 00be 0023     		movs	r3, #0
 1482 00c0 0022     		movs	r2, #0
 1483 00c2 0021     		movs	r1, #0
 1484 00c4 0020     		movs	r0, #0
 1485 00c6 FFF7FEFF 		bl	xTaskGenericNotifyWait
 823:../../../../dependencies/freertos/FreeRTOSv10.4.1/FreeRTOS/Source/stream_buffer.c ****             pxStreamBuffer->xTaskWaitingToReceive = NULL;
 1486              		.loc 1 823 51
 1487 00ca 3B6A     		ldr	r3, [r7, #32]
 1488 00cc 0022     		movs	r2, #0
 1489 00ce 1A61     		str	r2, [r3, #16]
 824:../../../../dependencies/freertos/FreeRTOSv10.4.1/FreeRTOS/Source/stream_buffer.c **** 
 825:../../../../dependencies/freertos/FreeRTOSv10.4.1/FreeRTOS/Source/stream_buffer.c ****             /* Recheck the data available after blocking. */
 826:../../../../dependencies/freertos/FreeRTOSv10.4.1/FreeRTOS/Source/stream_buffer.c ****             xBytesAvailable = prvBytesInBuffer( pxStreamBuffer );
 1490              		.loc 1 826 31
 1491 00d0 386A     		ldr	r0, [r7, #32]
 1492 00d2 FFF7FEFF 		bl	prvBytesInBuffer
 1493 00d6 B862     		str	r0, [r7, #40]
 1494 00d8 03E0     		b	.L90
 1495              	.L86:
 827:../../../../dependencies/freertos/FreeRTOSv10.4.1/FreeRTOS/Source/stream_buffer.c ****         }
 828:../../../../dependencies/freertos/FreeRTOSv10.4.1/FreeRTOS/Source/stream_buffer.c ****         else
 829:../../../../dependencies/freertos/FreeRTOSv10.4.1/FreeRTOS/Source/stream_buffer.c ****         {
 830:../../../../dependencies/freertos/FreeRTOSv10.4.1/FreeRTOS/Source/stream_buffer.c ****             mtCOVERAGE_TEST_MARKER();
 831:../../../../dependencies/freertos/FreeRTOSv10.4.1/FreeRTOS/Source/stream_buffer.c ****         }
 832:../../../../dependencies/freertos/FreeRTOSv10.4.1/FreeRTOS/Source/stream_buffer.c ****     }
 833:../../../../dependencies/freertos/FreeRTOSv10.4.1/FreeRTOS/Source/stream_buffer.c ****     else
 834:../../../../dependencies/freertos/FreeRTOSv10.4.1/FreeRTOS/Source/stream_buffer.c ****     {
ARM GAS  /var/folders/kj/yzqgq53j3dg15vgwwwwgf5s00000gn/T//ccSjr9dy.s 			page 46


 835:../../../../dependencies/freertos/FreeRTOSv10.4.1/FreeRTOS/Source/stream_buffer.c ****         xBytesAvailable = prvBytesInBuffer( pxStreamBuffer );
 1496              		.loc 1 835 27
 1497 00da 386A     		ldr	r0, [r7, #32]
 1498 00dc FFF7FEFF 		bl	prvBytesInBuffer
 1499 00e0 B862     		str	r0, [r7, #40]
 1500              	.L90:
 836:../../../../dependencies/freertos/FreeRTOSv10.4.1/FreeRTOS/Source/stream_buffer.c ****     }
 837:../../../../dependencies/freertos/FreeRTOSv10.4.1/FreeRTOS/Source/stream_buffer.c **** 
 838:../../../../dependencies/freertos/FreeRTOSv10.4.1/FreeRTOS/Source/stream_buffer.c ****     /* Whether receiving a discrete message (where xBytesToStoreMessageLength
 839:../../../../dependencies/freertos/FreeRTOSv10.4.1/FreeRTOS/Source/stream_buffer.c ****      * holds the number of bytes used to store the message length) or a stream of
 840:../../../../dependencies/freertos/FreeRTOSv10.4.1/FreeRTOS/Source/stream_buffer.c ****      * bytes (where xBytesToStoreMessageLength is zero), the number of bytes
 841:../../../../dependencies/freertos/FreeRTOSv10.4.1/FreeRTOS/Source/stream_buffer.c ****      * available must be greater than xBytesToStoreMessageLength to be able to
 842:../../../../dependencies/freertos/FreeRTOSv10.4.1/FreeRTOS/Source/stream_buffer.c ****      * read bytes from the buffer. */
 843:../../../../dependencies/freertos/FreeRTOSv10.4.1/FreeRTOS/Source/stream_buffer.c ****     if( xBytesAvailable > xBytesToStoreMessageLength )
 1501              		.loc 1 843 7
 1502 00e2 BA6A     		ldr	r2, [r7, #40]
 1503 00e4 7B6A     		ldr	r3, [r7, #36]
 1504 00e6 9A42     		cmp	r2, r3
 1505 00e8 1FD9     		bls	.L91
 844:../../../../dependencies/freertos/FreeRTOSv10.4.1/FreeRTOS/Source/stream_buffer.c ****     {
 845:../../../../dependencies/freertos/FreeRTOSv10.4.1/FreeRTOS/Source/stream_buffer.c ****         xReceivedLength = prvReadMessageFromBuffer( pxStreamBuffer, pvRxData, xBufferLengthBytes, x
 1506              		.loc 1 845 27
 1507 00ea 7B6A     		ldr	r3, [r7, #36]
 1508 00ec 0093     		str	r3, [sp]
 1509 00ee BB6A     		ldr	r3, [r7, #40]
 1510 00f0 7A68     		ldr	r2, [r7, #4]
 1511 00f2 B968     		ldr	r1, [r7, #8]
 1512 00f4 386A     		ldr	r0, [r7, #32]
 1513 00f6 FFF7FEFF 		bl	prvReadMessageFromBuffer
 1514 00fa F862     		str	r0, [r7, #44]
 846:../../../../dependencies/freertos/FreeRTOSv10.4.1/FreeRTOS/Source/stream_buffer.c **** 
 847:../../../../dependencies/freertos/FreeRTOSv10.4.1/FreeRTOS/Source/stream_buffer.c ****         /* Was a task waiting for space in the buffer? */
 848:../../../../dependencies/freertos/FreeRTOSv10.4.1/FreeRTOS/Source/stream_buffer.c ****         if( xReceivedLength != ( size_t ) 0 )
 1515              		.loc 1 848 11
 1516 00fc FB6A     		ldr	r3, [r7, #44]
 1517 00fe 002B     		cmp	r3, #0
 1518 0100 13D0     		beq	.L91
 849:../../../../dependencies/freertos/FreeRTOSv10.4.1/FreeRTOS/Source/stream_buffer.c ****         {
 850:../../../../dependencies/freertos/FreeRTOSv10.4.1/FreeRTOS/Source/stream_buffer.c ****             traceSTREAM_BUFFER_RECEIVE( xStreamBuffer, xReceivedLength );
 851:../../../../dependencies/freertos/FreeRTOSv10.4.1/FreeRTOS/Source/stream_buffer.c ****             sbRECEIVE_COMPLETED( pxStreamBuffer );
 1519              		.loc 1 851 13
 1520 0102 FFF7FEFF 		bl	vTaskSuspendAll
 1521 0106 3B6A     		ldr	r3, [r7, #32]
 1522 0108 5B69     		ldr	r3, [r3, #20]
 1523 010a 002B     		cmp	r3, #0
 1524 010c 0BD0     		beq	.L92
 1525              		.loc 1 851 13 is_stmt 0 discriminator 1
 1526 010e 3B6A     		ldr	r3, [r7, #32]
 1527 0110 5869     		ldr	r0, [r3, #20]
 1528 0112 0023     		movs	r3, #0
 1529 0114 0093     		str	r3, [sp]
 1530 0116 0023     		movs	r3, #0
 1531 0118 0022     		movs	r2, #0
 1532 011a 0021     		movs	r1, #0
 1533 011c FFF7FEFF 		bl	xTaskGenericNotify
 1534 0120 3B6A     		ldr	r3, [r7, #32]
 1535 0122 0022     		movs	r2, #0
ARM GAS  /var/folders/kj/yzqgq53j3dg15vgwwwwgf5s00000gn/T//ccSjr9dy.s 			page 47


 1536 0124 5A61     		str	r2, [r3, #20]
 1537              	.L92:
 1538              		.loc 1 851 13 discriminator 3
 1539 0126 FFF7FEFF 		bl	xTaskResumeAll
 1540              	.L91:
 852:../../../../dependencies/freertos/FreeRTOSv10.4.1/FreeRTOS/Source/stream_buffer.c ****         }
 853:../../../../dependencies/freertos/FreeRTOSv10.4.1/FreeRTOS/Source/stream_buffer.c ****         else
 854:../../../../dependencies/freertos/FreeRTOSv10.4.1/FreeRTOS/Source/stream_buffer.c ****         {
 855:../../../../dependencies/freertos/FreeRTOSv10.4.1/FreeRTOS/Source/stream_buffer.c ****             mtCOVERAGE_TEST_MARKER();
 856:../../../../dependencies/freertos/FreeRTOSv10.4.1/FreeRTOS/Source/stream_buffer.c ****         }
 857:../../../../dependencies/freertos/FreeRTOSv10.4.1/FreeRTOS/Source/stream_buffer.c ****     }
 858:../../../../dependencies/freertos/FreeRTOSv10.4.1/FreeRTOS/Source/stream_buffer.c ****     else
 859:../../../../dependencies/freertos/FreeRTOSv10.4.1/FreeRTOS/Source/stream_buffer.c ****     {
 860:../../../../dependencies/freertos/FreeRTOSv10.4.1/FreeRTOS/Source/stream_buffer.c ****         traceSTREAM_BUFFER_RECEIVE_FAILED( xStreamBuffer );
 861:../../../../dependencies/freertos/FreeRTOSv10.4.1/FreeRTOS/Source/stream_buffer.c ****         mtCOVERAGE_TEST_MARKER();
 862:../../../../dependencies/freertos/FreeRTOSv10.4.1/FreeRTOS/Source/stream_buffer.c ****     }
 863:../../../../dependencies/freertos/FreeRTOSv10.4.1/FreeRTOS/Source/stream_buffer.c **** 
 864:../../../../dependencies/freertos/FreeRTOSv10.4.1/FreeRTOS/Source/stream_buffer.c ****     return xReceivedLength;
 1541              		.loc 1 864 12 is_stmt 1
 1542 012a FB6A     		ldr	r3, [r7, #44]
 865:../../../../dependencies/freertos/FreeRTOSv10.4.1/FreeRTOS/Source/stream_buffer.c **** }
 1543              		.loc 1 865 1
 1544 012c 1846     		mov	r0, r3
 1545 012e 3037     		adds	r7, r7, #48
 1546              	.LCFI50:
 1547              		.cfi_def_cfa_offset 8
 1548 0130 BD46     		mov	sp, r7
 1549              	.LCFI51:
 1550              		.cfi_def_cfa_register 13
 1551              		@ sp needed
 1552 0132 80BD     		pop	{r7, pc}
 1553              		.cfi_endproc
 1554              	.LFE14:
 1556              		.section	.text.xStreamBufferNextMessageLengthBytes,"ax",%progbits
 1557              		.align	1
 1558              		.global	xStreamBufferNextMessageLengthBytes
 1559              		.syntax unified
 1560              		.thumb
 1561              		.thumb_func
 1562              		.fpu fpv4-sp-d16
 1564              	xStreamBufferNextMessageLengthBytes:
 1565              	.LFB15:
 866:../../../../dependencies/freertos/FreeRTOSv10.4.1/FreeRTOS/Source/stream_buffer.c **** /*-----------------------------------------------------------*/
 867:../../../../dependencies/freertos/FreeRTOSv10.4.1/FreeRTOS/Source/stream_buffer.c **** 
 868:../../../../dependencies/freertos/FreeRTOSv10.4.1/FreeRTOS/Source/stream_buffer.c **** size_t xStreamBufferNextMessageLengthBytes( StreamBufferHandle_t xStreamBuffer )
 869:../../../../dependencies/freertos/FreeRTOSv10.4.1/FreeRTOS/Source/stream_buffer.c **** {
 1566              		.loc 1 869 1
 1567              		.cfi_startproc
 1568              		@ args = 0, pretend = 0, frame = 40
 1569              		@ frame_needed = 1, uses_anonymous_args = 0
 1570 0000 80B5     		push	{r7, lr}
 1571              	.LCFI52:
 1572              		.cfi_def_cfa_offset 8
 1573              		.cfi_offset 7, -8
 1574              		.cfi_offset 14, -4
 1575 0002 8AB0     		sub	sp, sp, #40
 1576              	.LCFI53:
ARM GAS  /var/folders/kj/yzqgq53j3dg15vgwwwwgf5s00000gn/T//ccSjr9dy.s 			page 48


 1577              		.cfi_def_cfa_offset 48
 1578 0004 00AF     		add	r7, sp, #0
 1579              	.LCFI54:
 1580              		.cfi_def_cfa_register 7
 1581 0006 7860     		str	r0, [r7, #4]
 870:../../../../dependencies/freertos/FreeRTOSv10.4.1/FreeRTOS/Source/stream_buffer.c ****     StreamBuffer_t * const pxStreamBuffer = xStreamBuffer;
 1582              		.loc 1 870 28
 1583 0008 7B68     		ldr	r3, [r7, #4]
 1584 000a 3B62     		str	r3, [r7, #32]
 871:../../../../dependencies/freertos/FreeRTOSv10.4.1/FreeRTOS/Source/stream_buffer.c ****     size_t xReturn, xBytesAvailable, xOriginalTail;
 872:../../../../dependencies/freertos/FreeRTOSv10.4.1/FreeRTOS/Source/stream_buffer.c ****     configMESSAGE_BUFFER_LENGTH_TYPE xTempReturn;
 873:../../../../dependencies/freertos/FreeRTOSv10.4.1/FreeRTOS/Source/stream_buffer.c **** 
 874:../../../../dependencies/freertos/FreeRTOSv10.4.1/FreeRTOS/Source/stream_buffer.c ****     configASSERT( pxStreamBuffer );
 1585              		.loc 1 874 5
 1586 000c 3B6A     		ldr	r3, [r7, #32]
 1587 000e 002B     		cmp	r3, #0
 1588 0010 0AD1     		bne	.L95
 1589              	.LBB124:
 1590              	.LBB125:
 197:../../../../dependencies/freertos/FreeRTOSv10.4.1/FreeRTOS/Source/portable/GCC/ARM_CM4F/portmacro.h ****         (
 1591              		.loc 2 197 9
 1592              		.syntax unified
 1593              	@ 197 "../../../../dependencies/freertos/FreeRTOSv10.4.1/FreeRTOS/Source/portable/GCC/ARM_CM4F/port
 1594 0012 4FF05003 			mov r3, #80												
 1595 0016 83F31188 		msr basepri, r3											
 1596 001a BFF36F8F 		isb														
 1597 001e BFF34F8F 		dsb														
 1598              	
 1599              	@ 0 "" 2
 1600              		.thumb
 1601              		.syntax unified
 1602 0022 7B61     		str	r3, [r7, #20]
 205:../../../../dependencies/freertos/FreeRTOSv10.4.1/FreeRTOS/Source/portable/GCC/ARM_CM4F/portmacro.h **** 
 1603              		.loc 2 205 5
 1604 0024 00BF     		nop
 1605              	.L96:
 1606              	.LBE125:
 1607              	.LBE124:
 1608              		.loc 1 874 5 discriminator 1
 1609 0026 FEE7     		b	.L96
 1610              	.L95:
 875:../../../../dependencies/freertos/FreeRTOSv10.4.1/FreeRTOS/Source/stream_buffer.c **** 
 876:../../../../dependencies/freertos/FreeRTOSv10.4.1/FreeRTOS/Source/stream_buffer.c ****     /* Ensure the stream buffer is being used as a message buffer. */
 877:../../../../dependencies/freertos/FreeRTOSv10.4.1/FreeRTOS/Source/stream_buffer.c ****     if( ( pxStreamBuffer->ucFlags & sbFLAGS_IS_MESSAGE_BUFFER ) != ( uint8_t ) 0 )
 1611              		.loc 1 877 25
 1612 0028 3B6A     		ldr	r3, [r7, #32]
 1613 002a 1B7F     		ldrb	r3, [r3, #28]	@ zero_extendqisi2
 1614              		.loc 1 877 35
 1615 002c 03F00103 		and	r3, r3, #1
 1616              		.loc 1 877 7
 1617 0030 002B     		cmp	r3, #0
 1618 0032 27D0     		beq	.L97
 878:../../../../dependencies/freertos/FreeRTOSv10.4.1/FreeRTOS/Source/stream_buffer.c ****     {
 879:../../../../dependencies/freertos/FreeRTOSv10.4.1/FreeRTOS/Source/stream_buffer.c ****         xBytesAvailable = prvBytesInBuffer( pxStreamBuffer );
 1619              		.loc 1 879 27
 1620 0034 386A     		ldr	r0, [r7, #32]
 1621 0036 FFF7FEFF 		bl	prvBytesInBuffer
ARM GAS  /var/folders/kj/yzqgq53j3dg15vgwwwwgf5s00000gn/T//ccSjr9dy.s 			page 49


 1622 003a F861     		str	r0, [r7, #28]
 880:../../../../dependencies/freertos/FreeRTOSv10.4.1/FreeRTOS/Source/stream_buffer.c **** 
 881:../../../../dependencies/freertos/FreeRTOSv10.4.1/FreeRTOS/Source/stream_buffer.c ****         if( xBytesAvailable > sbBYTES_TO_STORE_MESSAGE_LENGTH )
 1623              		.loc 1 881 11
 1624 003c FB69     		ldr	r3, [r7, #28]
 1625 003e 042B     		cmp	r3, #4
 1626 0040 0FD9     		bls	.L98
 882:../../../../dependencies/freertos/FreeRTOSv10.4.1/FreeRTOS/Source/stream_buffer.c ****         {
 883:../../../../dependencies/freertos/FreeRTOSv10.4.1/FreeRTOS/Source/stream_buffer.c ****             /* The number of bytes available is greater than the number of bytes
 884:../../../../dependencies/freertos/FreeRTOSv10.4.1/FreeRTOS/Source/stream_buffer.c ****              * required to hold the length of the next message, so another message
 885:../../../../dependencies/freertos/FreeRTOSv10.4.1/FreeRTOS/Source/stream_buffer.c ****              * is available.  Return its length without removing the length bytes
 886:../../../../dependencies/freertos/FreeRTOSv10.4.1/FreeRTOS/Source/stream_buffer.c ****              * from the buffer.  A copy of the tail is stored so the buffer can be
 887:../../../../dependencies/freertos/FreeRTOSv10.4.1/FreeRTOS/Source/stream_buffer.c ****              * returned to its prior state as the message is not actually being
 888:../../../../dependencies/freertos/FreeRTOSv10.4.1/FreeRTOS/Source/stream_buffer.c ****              * removed from the buffer. */
 889:../../../../dependencies/freertos/FreeRTOSv10.4.1/FreeRTOS/Source/stream_buffer.c ****             xOriginalTail = pxStreamBuffer->xTail;
 1627              		.loc 1 889 27
 1628 0042 3B6A     		ldr	r3, [r7, #32]
 1629 0044 1B68     		ldr	r3, [r3]
 1630 0046 BB61     		str	r3, [r7, #24]
 890:../../../../dependencies/freertos/FreeRTOSv10.4.1/FreeRTOS/Source/stream_buffer.c ****             ( void ) prvReadBytesFromBuffer( pxStreamBuffer, ( uint8_t * ) &xTempReturn, sbBYTES_TO
 1631              		.loc 1 890 22
 1632 0048 07F10C01 		add	r1, r7, #12
 1633 004c FB69     		ldr	r3, [r7, #28]
 1634 004e 0422     		movs	r2, #4
 1635 0050 386A     		ldr	r0, [r7, #32]
 1636 0052 FFF7FEFF 		bl	prvReadBytesFromBuffer
 891:../../../../dependencies/freertos/FreeRTOSv10.4.1/FreeRTOS/Source/stream_buffer.c ****             xReturn = ( size_t ) xTempReturn;
 1637              		.loc 1 891 21
 1638 0056 FB68     		ldr	r3, [r7, #12]
 1639 0058 7B62     		str	r3, [r7, #36]
 892:../../../../dependencies/freertos/FreeRTOSv10.4.1/FreeRTOS/Source/stream_buffer.c ****             pxStreamBuffer->xTail = xOriginalTail;
 1640              		.loc 1 892 35
 1641 005a 3B6A     		ldr	r3, [r7, #32]
 1642 005c BA69     		ldr	r2, [r7, #24]
 1643 005e 1A60     		str	r2, [r3]
 1644 0060 12E0     		b	.L99
 1645              	.L98:
 893:../../../../dependencies/freertos/FreeRTOSv10.4.1/FreeRTOS/Source/stream_buffer.c ****         }
 894:../../../../dependencies/freertos/FreeRTOSv10.4.1/FreeRTOS/Source/stream_buffer.c ****         else
 895:../../../../dependencies/freertos/FreeRTOSv10.4.1/FreeRTOS/Source/stream_buffer.c ****         {
 896:../../../../dependencies/freertos/FreeRTOSv10.4.1/FreeRTOS/Source/stream_buffer.c ****             /* The minimum amount of bytes in a message buffer is
 897:../../../../dependencies/freertos/FreeRTOSv10.4.1/FreeRTOS/Source/stream_buffer.c ****              * ( sbBYTES_TO_STORE_MESSAGE_LENGTH + 1 ), so if xBytesAvailable is
 898:../../../../dependencies/freertos/FreeRTOSv10.4.1/FreeRTOS/Source/stream_buffer.c ****              * less than sbBYTES_TO_STORE_MESSAGE_LENGTH the only other valid
 899:../../../../dependencies/freertos/FreeRTOSv10.4.1/FreeRTOS/Source/stream_buffer.c ****              * value is 0. */
 900:../../../../dependencies/freertos/FreeRTOSv10.4.1/FreeRTOS/Source/stream_buffer.c ****             configASSERT( xBytesAvailable == 0 );
 1646              		.loc 1 900 13
 1647 0062 FB69     		ldr	r3, [r7, #28]
 1648 0064 002B     		cmp	r3, #0
 1649 0066 0AD0     		beq	.L100
 1650              	.LBB126:
 1651              	.LBB127:
 197:../../../../dependencies/freertos/FreeRTOSv10.4.1/FreeRTOS/Source/portable/GCC/ARM_CM4F/portmacro.h ****         (
 1652              		.loc 2 197 9
 1653              		.syntax unified
 1654              	@ 197 "../../../../dependencies/freertos/FreeRTOSv10.4.1/FreeRTOS/Source/portable/GCC/ARM_CM4F/port
 1655 0068 4FF05003 			mov r3, #80												
 1656 006c 83F31188 		msr basepri, r3											
ARM GAS  /var/folders/kj/yzqgq53j3dg15vgwwwwgf5s00000gn/T//ccSjr9dy.s 			page 50


 1657 0070 BFF36F8F 		isb														
 1658 0074 BFF34F8F 		dsb														
 1659              	
 1660              	@ 0 "" 2
 1661              		.thumb
 1662              		.syntax unified
 1663 0078 3B61     		str	r3, [r7, #16]
 205:../../../../dependencies/freertos/FreeRTOSv10.4.1/FreeRTOS/Source/portable/GCC/ARM_CM4F/portmacro.h **** 
 1664              		.loc 2 205 5
 1665 007a 00BF     		nop
 1666              	.L101:
 1667              	.LBE127:
 1668              	.LBE126:
 1669              		.loc 1 900 13 discriminator 2
 1670 007c FEE7     		b	.L101
 1671              	.L100:
 901:../../../../dependencies/freertos/FreeRTOSv10.4.1/FreeRTOS/Source/stream_buffer.c ****             xReturn = 0;
 1672              		.loc 1 901 21
 1673 007e 0023     		movs	r3, #0
 1674 0080 7B62     		str	r3, [r7, #36]
 1675 0082 01E0     		b	.L99
 1676              	.L97:
 902:../../../../dependencies/freertos/FreeRTOSv10.4.1/FreeRTOS/Source/stream_buffer.c ****         }
 903:../../../../dependencies/freertos/FreeRTOSv10.4.1/FreeRTOS/Source/stream_buffer.c ****     }
 904:../../../../dependencies/freertos/FreeRTOSv10.4.1/FreeRTOS/Source/stream_buffer.c ****     else
 905:../../../../dependencies/freertos/FreeRTOSv10.4.1/FreeRTOS/Source/stream_buffer.c ****     {
 906:../../../../dependencies/freertos/FreeRTOSv10.4.1/FreeRTOS/Source/stream_buffer.c ****         xReturn = 0;
 1677              		.loc 1 906 17
 1678 0084 0023     		movs	r3, #0
 1679 0086 7B62     		str	r3, [r7, #36]
 1680              	.L99:
 907:../../../../dependencies/freertos/FreeRTOSv10.4.1/FreeRTOS/Source/stream_buffer.c ****     }
 908:../../../../dependencies/freertos/FreeRTOSv10.4.1/FreeRTOS/Source/stream_buffer.c **** 
 909:../../../../dependencies/freertos/FreeRTOSv10.4.1/FreeRTOS/Source/stream_buffer.c ****     return xReturn;
 1681              		.loc 1 909 12
 1682 0088 7B6A     		ldr	r3, [r7, #36]
 910:../../../../dependencies/freertos/FreeRTOSv10.4.1/FreeRTOS/Source/stream_buffer.c **** }
 1683              		.loc 1 910 1
 1684 008a 1846     		mov	r0, r3
 1685 008c 2837     		adds	r7, r7, #40
 1686              	.LCFI55:
 1687              		.cfi_def_cfa_offset 8
 1688 008e BD46     		mov	sp, r7
 1689              	.LCFI56:
 1690              		.cfi_def_cfa_register 13
 1691              		@ sp needed
 1692 0090 80BD     		pop	{r7, pc}
 1693              		.cfi_endproc
 1694              	.LFE15:
 1696              		.section	.text.xStreamBufferReceiveFromISR,"ax",%progbits
 1697              		.align	1
 1698              		.global	xStreamBufferReceiveFromISR
 1699              		.syntax unified
 1700              		.thumb
 1701              		.thumb_func
 1702              		.fpu fpv4-sp-d16
 1704              	xStreamBufferReceiveFromISR:
ARM GAS  /var/folders/kj/yzqgq53j3dg15vgwwwwgf5s00000gn/T//ccSjr9dy.s 			page 51


 1705              	.LFB16:
 911:../../../../dependencies/freertos/FreeRTOSv10.4.1/FreeRTOS/Source/stream_buffer.c **** /*-----------------------------------------------------------*/
 912:../../../../dependencies/freertos/FreeRTOSv10.4.1/FreeRTOS/Source/stream_buffer.c **** 
 913:../../../../dependencies/freertos/FreeRTOSv10.4.1/FreeRTOS/Source/stream_buffer.c **** size_t xStreamBufferReceiveFromISR( StreamBufferHandle_t xStreamBuffer,
 914:../../../../dependencies/freertos/FreeRTOSv10.4.1/FreeRTOS/Source/stream_buffer.c ****                                     void * pvRxData,
 915:../../../../dependencies/freertos/FreeRTOSv10.4.1/FreeRTOS/Source/stream_buffer.c ****                                     size_t xBufferLengthBytes,
 916:../../../../dependencies/freertos/FreeRTOSv10.4.1/FreeRTOS/Source/stream_buffer.c ****                                     BaseType_t * const pxHigherPriorityTaskWoken )
 917:../../../../dependencies/freertos/FreeRTOSv10.4.1/FreeRTOS/Source/stream_buffer.c **** {
 1706              		.loc 1 917 1
 1707              		.cfi_startproc
 1708              		@ args = 0, pretend = 0, frame = 56
 1709              		@ frame_needed = 1, uses_anonymous_args = 0
 1710 0000 80B5     		push	{r7, lr}
 1711              	.LCFI57:
 1712              		.cfi_def_cfa_offset 8
 1713              		.cfi_offset 7, -8
 1714              		.cfi_offset 14, -4
 1715 0002 90B0     		sub	sp, sp, #64
 1716              	.LCFI58:
 1717              		.cfi_def_cfa_offset 72
 1718 0004 02AF     		add	r7, sp, #8
 1719              	.LCFI59:
 1720              		.cfi_def_cfa 7, 64
 1721 0006 F860     		str	r0, [r7, #12]
 1722 0008 B960     		str	r1, [r7, #8]
 1723 000a 7A60     		str	r2, [r7, #4]
 1724 000c 3B60     		str	r3, [r7]
 918:../../../../dependencies/freertos/FreeRTOSv10.4.1/FreeRTOS/Source/stream_buffer.c ****     StreamBuffer_t * const pxStreamBuffer = xStreamBuffer;
 1725              		.loc 1 918 28
 1726 000e FB68     		ldr	r3, [r7, #12]
 1727 0010 FB62     		str	r3, [r7, #44]
 919:../../../../dependencies/freertos/FreeRTOSv10.4.1/FreeRTOS/Source/stream_buffer.c ****     size_t xReceivedLength = 0, xBytesAvailable, xBytesToStoreMessageLength;
 1728              		.loc 1 919 12
 1729 0012 0023     		movs	r3, #0
 1730 0014 7B63     		str	r3, [r7, #52]
 920:../../../../dependencies/freertos/FreeRTOSv10.4.1/FreeRTOS/Source/stream_buffer.c **** 
 921:../../../../dependencies/freertos/FreeRTOSv10.4.1/FreeRTOS/Source/stream_buffer.c ****     configASSERT( pvRxData );
 1731              		.loc 1 921 5
 1732 0016 BB68     		ldr	r3, [r7, #8]
 1733 0018 002B     		cmp	r3, #0
 1734 001a 0AD1     		bne	.L104
 1735              	.LBB128:
 1736              	.LBB129:
 197:../../../../dependencies/freertos/FreeRTOSv10.4.1/FreeRTOS/Source/portable/GCC/ARM_CM4F/portmacro.h ****         (
 1737              		.loc 2 197 9
 1738              		.syntax unified
 1739              	@ 197 "../../../../dependencies/freertos/FreeRTOSv10.4.1/FreeRTOS/Source/portable/GCC/ARM_CM4F/port
 1740 001c 4FF05003 			mov r3, #80												
 1741 0020 83F31188 		msr basepri, r3											
 1742 0024 BFF36F8F 		isb														
 1743 0028 BFF34F8F 		dsb														
 1744              	
 1745              	@ 0 "" 2
 1746              		.thumb
 1747              		.syntax unified
 1748 002c 3B62     		str	r3, [r7, #32]
 205:../../../../dependencies/freertos/FreeRTOSv10.4.1/FreeRTOS/Source/portable/GCC/ARM_CM4F/portmacro.h **** 
ARM GAS  /var/folders/kj/yzqgq53j3dg15vgwwwwgf5s00000gn/T//ccSjr9dy.s 			page 52


 1749              		.loc 2 205 5
 1750 002e 00BF     		nop
 1751              	.L105:
 1752              	.LBE129:
 1753              	.LBE128:
 1754              		.loc 1 921 5 discriminator 1
 1755 0030 FEE7     		b	.L105
 1756              	.L104:
 922:../../../../dependencies/freertos/FreeRTOSv10.4.1/FreeRTOS/Source/stream_buffer.c ****     configASSERT( pxStreamBuffer );
 1757              		.loc 1 922 5
 1758 0032 FB6A     		ldr	r3, [r7, #44]
 1759 0034 002B     		cmp	r3, #0
 1760 0036 0AD1     		bne	.L106
 1761              	.LBB130:
 1762              	.LBB131:
 197:../../../../dependencies/freertos/FreeRTOSv10.4.1/FreeRTOS/Source/portable/GCC/ARM_CM4F/portmacro.h ****         (
 1763              		.loc 2 197 9
 1764              		.syntax unified
 1765              	@ 197 "../../../../dependencies/freertos/FreeRTOSv10.4.1/FreeRTOS/Source/portable/GCC/ARM_CM4F/port
 1766 0038 4FF05003 			mov r3, #80												
 1767 003c 83F31188 		msr basepri, r3											
 1768 0040 BFF36F8F 		isb														
 1769 0044 BFF34F8F 		dsb														
 1770              	
 1771              	@ 0 "" 2
 1772              		.thumb
 1773              		.syntax unified
 1774 0048 FB61     		str	r3, [r7, #28]
 205:../../../../dependencies/freertos/FreeRTOSv10.4.1/FreeRTOS/Source/portable/GCC/ARM_CM4F/portmacro.h **** 
 1775              		.loc 2 205 5
 1776 004a 00BF     		nop
 1777              	.L107:
 1778              	.LBE131:
 1779              	.LBE130:
 1780              		.loc 1 922 5 discriminator 2
 1781 004c FEE7     		b	.L107
 1782              	.L106:
 923:../../../../dependencies/freertos/FreeRTOSv10.4.1/FreeRTOS/Source/stream_buffer.c **** 
 924:../../../../dependencies/freertos/FreeRTOSv10.4.1/FreeRTOS/Source/stream_buffer.c ****     /* This receive function is used by both message buffers, which store
 925:../../../../dependencies/freertos/FreeRTOSv10.4.1/FreeRTOS/Source/stream_buffer.c ****      * discrete messages, and stream buffers, which store a continuous stream of
 926:../../../../dependencies/freertos/FreeRTOSv10.4.1/FreeRTOS/Source/stream_buffer.c ****      * bytes.  Discrete messages include an additional
 927:../../../../dependencies/freertos/FreeRTOSv10.4.1/FreeRTOS/Source/stream_buffer.c ****      * sbBYTES_TO_STORE_MESSAGE_LENGTH bytes that hold the length of the
 928:../../../../dependencies/freertos/FreeRTOSv10.4.1/FreeRTOS/Source/stream_buffer.c ****      * message. */
 929:../../../../dependencies/freertos/FreeRTOSv10.4.1/FreeRTOS/Source/stream_buffer.c ****     if( ( pxStreamBuffer->ucFlags & sbFLAGS_IS_MESSAGE_BUFFER ) != ( uint8_t ) 0 )
 1783              		.loc 1 929 25
 1784 004e FB6A     		ldr	r3, [r7, #44]
 1785 0050 1B7F     		ldrb	r3, [r3, #28]	@ zero_extendqisi2
 1786              		.loc 1 929 35
 1787 0052 03F00103 		and	r3, r3, #1
 1788              		.loc 1 929 7
 1789 0056 002B     		cmp	r3, #0
 1790 0058 02D0     		beq	.L108
 930:../../../../dependencies/freertos/FreeRTOSv10.4.1/FreeRTOS/Source/stream_buffer.c ****     {
 931:../../../../dependencies/freertos/FreeRTOSv10.4.1/FreeRTOS/Source/stream_buffer.c ****         xBytesToStoreMessageLength = sbBYTES_TO_STORE_MESSAGE_LENGTH;
 1791              		.loc 1 931 36
 1792 005a 0423     		movs	r3, #4
 1793 005c 3B63     		str	r3, [r7, #48]
ARM GAS  /var/folders/kj/yzqgq53j3dg15vgwwwwgf5s00000gn/T//ccSjr9dy.s 			page 53


 1794 005e 01E0     		b	.L109
 1795              	.L108:
 932:../../../../dependencies/freertos/FreeRTOSv10.4.1/FreeRTOS/Source/stream_buffer.c ****     }
 933:../../../../dependencies/freertos/FreeRTOSv10.4.1/FreeRTOS/Source/stream_buffer.c ****     else
 934:../../../../dependencies/freertos/FreeRTOSv10.4.1/FreeRTOS/Source/stream_buffer.c ****     {
 935:../../../../dependencies/freertos/FreeRTOSv10.4.1/FreeRTOS/Source/stream_buffer.c ****         xBytesToStoreMessageLength = 0;
 1796              		.loc 1 935 36
 1797 0060 0023     		movs	r3, #0
 1798 0062 3B63     		str	r3, [r7, #48]
 1799              	.L109:
 936:../../../../dependencies/freertos/FreeRTOSv10.4.1/FreeRTOS/Source/stream_buffer.c ****     }
 937:../../../../dependencies/freertos/FreeRTOSv10.4.1/FreeRTOS/Source/stream_buffer.c **** 
 938:../../../../dependencies/freertos/FreeRTOSv10.4.1/FreeRTOS/Source/stream_buffer.c ****     xBytesAvailable = prvBytesInBuffer( pxStreamBuffer );
 1800              		.loc 1 938 23
 1801 0064 F86A     		ldr	r0, [r7, #44]
 1802 0066 FFF7FEFF 		bl	prvBytesInBuffer
 1803 006a B862     		str	r0, [r7, #40]
 939:../../../../dependencies/freertos/FreeRTOSv10.4.1/FreeRTOS/Source/stream_buffer.c **** 
 940:../../../../dependencies/freertos/FreeRTOSv10.4.1/FreeRTOS/Source/stream_buffer.c ****     /* Whether receiving a discrete message (where xBytesToStoreMessageLength
 941:../../../../dependencies/freertos/FreeRTOSv10.4.1/FreeRTOS/Source/stream_buffer.c ****      * holds the number of bytes used to store the message length) or a stream of
 942:../../../../dependencies/freertos/FreeRTOSv10.4.1/FreeRTOS/Source/stream_buffer.c ****      * bytes (where xBytesToStoreMessageLength is zero), the number of bytes
 943:../../../../dependencies/freertos/FreeRTOSv10.4.1/FreeRTOS/Source/stream_buffer.c ****      * available must be greater than xBytesToStoreMessageLength to be able to
 944:../../../../dependencies/freertos/FreeRTOSv10.4.1/FreeRTOS/Source/stream_buffer.c ****      * read bytes from the buffer. */
 945:../../../../dependencies/freertos/FreeRTOSv10.4.1/FreeRTOS/Source/stream_buffer.c ****     if( xBytesAvailable > xBytesToStoreMessageLength )
 1804              		.loc 1 945 7
 1805 006c BA6A     		ldr	r2, [r7, #40]
 1806 006e 3B6B     		ldr	r3, [r7, #48]
 1807 0070 9A42     		cmp	r2, r3
 1808 0072 31D9     		bls	.L110
 946:../../../../dependencies/freertos/FreeRTOSv10.4.1/FreeRTOS/Source/stream_buffer.c ****     {
 947:../../../../dependencies/freertos/FreeRTOSv10.4.1/FreeRTOS/Source/stream_buffer.c ****         xReceivedLength = prvReadMessageFromBuffer( pxStreamBuffer, pvRxData, xBufferLengthBytes, x
 1809              		.loc 1 947 27
 1810 0074 3B6B     		ldr	r3, [r7, #48]
 1811 0076 0093     		str	r3, [sp]
 1812 0078 BB6A     		ldr	r3, [r7, #40]
 1813 007a 7A68     		ldr	r2, [r7, #4]
 1814 007c B968     		ldr	r1, [r7, #8]
 1815 007e F86A     		ldr	r0, [r7, #44]
 1816 0080 FFF7FEFF 		bl	prvReadMessageFromBuffer
 1817 0084 7863     		str	r0, [r7, #52]
 948:../../../../dependencies/freertos/FreeRTOSv10.4.1/FreeRTOS/Source/stream_buffer.c **** 
 949:../../../../dependencies/freertos/FreeRTOSv10.4.1/FreeRTOS/Source/stream_buffer.c ****         /* Was a task waiting for space in the buffer? */
 950:../../../../dependencies/freertos/FreeRTOSv10.4.1/FreeRTOS/Source/stream_buffer.c ****         if( xReceivedLength != ( size_t ) 0 )
 1818              		.loc 1 950 11
 1819 0086 7B6B     		ldr	r3, [r7, #52]
 1820 0088 002B     		cmp	r3, #0
 1821 008a 25D0     		beq	.L110
 1822              	.LBB132:
 1823              	.LBB133:
 1824              	.LBB134:
 213:../../../../dependencies/freertos/FreeRTOSv10.4.1/FreeRTOS/Source/portable/GCC/ARM_CM4F/portmacro.h ****         (
 1825              		.loc 2 213 9
 1826              		.syntax unified
 1827              	@ 213 "../../../../dependencies/freertos/FreeRTOSv10.4.1/FreeRTOS/Source/portable/GCC/ARM_CM4F/port
 1828 008c EFF31182 			mrs r2, basepri											
 1829 0090 4FF05003 		mov r3, #80												
 1830 0094 83F31188 		msr basepri, r3											
ARM GAS  /var/folders/kj/yzqgq53j3dg15vgwwwwgf5s00000gn/T//ccSjr9dy.s 			page 54


 1831 0098 BFF36F8F 		isb														
 1832 009c BFF34F8F 		dsb														
 1833              	
 1834              	@ 0 "" 2
 1835              		.thumb
 1836              		.syntax unified
 1837 00a0 BA61     		str	r2, [r7, #24]
 1838 00a2 7B61     		str	r3, [r7, #20]
 225:../../../../dependencies/freertos/FreeRTOSv10.4.1/FreeRTOS/Source/portable/GCC/ARM_CM4F/portmacro.h ****     }
 1839              		.loc 2 225 16
 1840 00a4 BB69     		ldr	r3, [r7, #24]
 1841              	.LBE134:
 1842              	.LBE133:
 951:../../../../dependencies/freertos/FreeRTOSv10.4.1/FreeRTOS/Source/stream_buffer.c ****         {
 952:../../../../dependencies/freertos/FreeRTOSv10.4.1/FreeRTOS/Source/stream_buffer.c ****             sbRECEIVE_COMPLETED_FROM_ISR( pxStreamBuffer, pxHigherPriorityTaskWoken );
 1843              		.loc 1 952 13
 1844 00a6 7B62     		str	r3, [r7, #36]
 1845 00a8 FB6A     		ldr	r3, [r7, #44]
 1846 00aa 5B69     		ldr	r3, [r3, #20]
 1847 00ac 002B     		cmp	r3, #0
 1848 00ae 0DD0     		beq	.L112
 1849              		.loc 1 952 13 is_stmt 0 discriminator 1
 1850 00b0 FB6A     		ldr	r3, [r7, #44]
 1851 00b2 5869     		ldr	r0, [r3, #20]
 1852 00b4 3B68     		ldr	r3, [r7]
 1853 00b6 0193     		str	r3, [sp, #4]
 1854 00b8 0023     		movs	r3, #0
 1855 00ba 0093     		str	r3, [sp]
 1856 00bc 0023     		movs	r3, #0
 1857 00be 0022     		movs	r2, #0
 1858 00c0 0021     		movs	r1, #0
 1859 00c2 FFF7FEFF 		bl	xTaskGenericNotifyFromISR
 1860 00c6 FB6A     		ldr	r3, [r7, #44]
 1861 00c8 0022     		movs	r2, #0
 1862 00ca 5A61     		str	r2, [r3, #20]
 1863              	.L112:
 1864 00cc 7B6A     		ldr	r3, [r7, #36]
 1865 00ce 3B61     		str	r3, [r7, #16]
 1866              	.LBB135:
 1867              	.LBB136:
 231:../../../../dependencies/freertos/FreeRTOSv10.4.1/FreeRTOS/Source/portable/GCC/ARM_CM4F/portmacro.h ****         (
 1868              		.loc 2 231 9 is_stmt 1 discriminator 3
 1869 00d0 3B69     		ldr	r3, [r7, #16]
 1870              		.syntax unified
 1871              	@ 231 "../../../../dependencies/freertos/FreeRTOSv10.4.1/FreeRTOS/Source/portable/GCC/ARM_CM4F/port
 1872 00d2 83F31188 			msr basepri, r3	
 1873              	@ 0 "" 2
 1874              		.loc 2 235 5 discriminator 3
 1875              		.thumb
 1876              		.syntax unified
 1877 00d6 00BF     		nop
 1878              	.L110:
 1879              	.LBE136:
 1880              	.LBE135:
 1881              	.LBE132:
 953:../../../../dependencies/freertos/FreeRTOSv10.4.1/FreeRTOS/Source/stream_buffer.c ****         }
 954:../../../../dependencies/freertos/FreeRTOSv10.4.1/FreeRTOS/Source/stream_buffer.c ****         else
ARM GAS  /var/folders/kj/yzqgq53j3dg15vgwwwwgf5s00000gn/T//ccSjr9dy.s 			page 55


 955:../../../../dependencies/freertos/FreeRTOSv10.4.1/FreeRTOS/Source/stream_buffer.c ****         {
 956:../../../../dependencies/freertos/FreeRTOSv10.4.1/FreeRTOS/Source/stream_buffer.c ****             mtCOVERAGE_TEST_MARKER();
 957:../../../../dependencies/freertos/FreeRTOSv10.4.1/FreeRTOS/Source/stream_buffer.c ****         }
 958:../../../../dependencies/freertos/FreeRTOSv10.4.1/FreeRTOS/Source/stream_buffer.c ****     }
 959:../../../../dependencies/freertos/FreeRTOSv10.4.1/FreeRTOS/Source/stream_buffer.c ****     else
 960:../../../../dependencies/freertos/FreeRTOSv10.4.1/FreeRTOS/Source/stream_buffer.c ****     {
 961:../../../../dependencies/freertos/FreeRTOSv10.4.1/FreeRTOS/Source/stream_buffer.c ****         mtCOVERAGE_TEST_MARKER();
 962:../../../../dependencies/freertos/FreeRTOSv10.4.1/FreeRTOS/Source/stream_buffer.c ****     }
 963:../../../../dependencies/freertos/FreeRTOSv10.4.1/FreeRTOS/Source/stream_buffer.c **** 
 964:../../../../dependencies/freertos/FreeRTOSv10.4.1/FreeRTOS/Source/stream_buffer.c ****     traceSTREAM_BUFFER_RECEIVE_FROM_ISR( xStreamBuffer, xReceivedLength );
 965:../../../../dependencies/freertos/FreeRTOSv10.4.1/FreeRTOS/Source/stream_buffer.c **** 
 966:../../../../dependencies/freertos/FreeRTOSv10.4.1/FreeRTOS/Source/stream_buffer.c ****     return xReceivedLength;
 1882              		.loc 1 966 12
 1883 00d8 7B6B     		ldr	r3, [r7, #52]
 967:../../../../dependencies/freertos/FreeRTOSv10.4.1/FreeRTOS/Source/stream_buffer.c **** }
 1884              		.loc 1 967 1
 1885 00da 1846     		mov	r0, r3
 1886 00dc 3837     		adds	r7, r7, #56
 1887              	.LCFI60:
 1888              		.cfi_def_cfa_offset 8
 1889 00de BD46     		mov	sp, r7
 1890              	.LCFI61:
 1891              		.cfi_def_cfa_register 13
 1892              		@ sp needed
 1893 00e0 80BD     		pop	{r7, pc}
 1894              		.cfi_endproc
 1895              	.LFE16:
 1897              		.section	.text.prvReadMessageFromBuffer,"ax",%progbits
 1898              		.align	1
 1899              		.syntax unified
 1900              		.thumb
 1901              		.thumb_func
 1902              		.fpu fpv4-sp-d16
 1904              	prvReadMessageFromBuffer:
 1905              	.LFB17:
 968:../../../../dependencies/freertos/FreeRTOSv10.4.1/FreeRTOS/Source/stream_buffer.c **** /*-----------------------------------------------------------*/
 969:../../../../dependencies/freertos/FreeRTOSv10.4.1/FreeRTOS/Source/stream_buffer.c **** 
 970:../../../../dependencies/freertos/FreeRTOSv10.4.1/FreeRTOS/Source/stream_buffer.c **** static size_t prvReadMessageFromBuffer( StreamBuffer_t * pxStreamBuffer,
 971:../../../../dependencies/freertos/FreeRTOSv10.4.1/FreeRTOS/Source/stream_buffer.c ****                                         void * pvRxData,
 972:../../../../dependencies/freertos/FreeRTOSv10.4.1/FreeRTOS/Source/stream_buffer.c ****                                         size_t xBufferLengthBytes,
 973:../../../../dependencies/freertos/FreeRTOSv10.4.1/FreeRTOS/Source/stream_buffer.c ****                                         size_t xBytesAvailable,
 974:../../../../dependencies/freertos/FreeRTOSv10.4.1/FreeRTOS/Source/stream_buffer.c ****                                         size_t xBytesToStoreMessageLength )
 975:../../../../dependencies/freertos/FreeRTOSv10.4.1/FreeRTOS/Source/stream_buffer.c **** {
 1906              		.loc 1 975 1
 1907              		.cfi_startproc
 1908              		@ args = 4, pretend = 0, frame = 32
 1909              		@ frame_needed = 1, uses_anonymous_args = 0
 1910 0000 80B5     		push	{r7, lr}
 1911              	.LCFI62:
 1912              		.cfi_def_cfa_offset 8
 1913              		.cfi_offset 7, -8
 1914              		.cfi_offset 14, -4
 1915 0002 88B0     		sub	sp, sp, #32
 1916              	.LCFI63:
 1917              		.cfi_def_cfa_offset 40
 1918 0004 00AF     		add	r7, sp, #0
 1919              	.LCFI64:
ARM GAS  /var/folders/kj/yzqgq53j3dg15vgwwwwgf5s00000gn/T//ccSjr9dy.s 			page 56


 1920              		.cfi_def_cfa_register 7
 1921 0006 F860     		str	r0, [r7, #12]
 1922 0008 B960     		str	r1, [r7, #8]
 1923 000a 7A60     		str	r2, [r7, #4]
 1924 000c 3B60     		str	r3, [r7]
 976:../../../../dependencies/freertos/FreeRTOSv10.4.1/FreeRTOS/Source/stream_buffer.c ****     size_t xOriginalTail, xReceivedLength, xNextMessageLength;
 977:../../../../dependencies/freertos/FreeRTOSv10.4.1/FreeRTOS/Source/stream_buffer.c ****     configMESSAGE_BUFFER_LENGTH_TYPE xTempNextMessageLength;
 978:../../../../dependencies/freertos/FreeRTOSv10.4.1/FreeRTOS/Source/stream_buffer.c **** 
 979:../../../../dependencies/freertos/FreeRTOSv10.4.1/FreeRTOS/Source/stream_buffer.c ****     if( xBytesToStoreMessageLength != ( size_t ) 0 )
 1925              		.loc 1 979 7
 1926 000e BB6A     		ldr	r3, [r7, #40]
 1927 0010 002B     		cmp	r3, #0
 1928 0012 19D0     		beq	.L115
 980:../../../../dependencies/freertos/FreeRTOSv10.4.1/FreeRTOS/Source/stream_buffer.c ****     {
 981:../../../../dependencies/freertos/FreeRTOSv10.4.1/FreeRTOS/Source/stream_buffer.c ****         /* A discrete message is being received.  First receive the length
 982:../../../../dependencies/freertos/FreeRTOSv10.4.1/FreeRTOS/Source/stream_buffer.c ****          * of the message.  A copy of the tail is stored so the buffer can be
 983:../../../../dependencies/freertos/FreeRTOSv10.4.1/FreeRTOS/Source/stream_buffer.c ****          * returned to its prior state if the length of the message is too
 984:../../../../dependencies/freertos/FreeRTOSv10.4.1/FreeRTOS/Source/stream_buffer.c ****          * large for the provided buffer. */
 985:../../../../dependencies/freertos/FreeRTOSv10.4.1/FreeRTOS/Source/stream_buffer.c ****         xOriginalTail = pxStreamBuffer->xTail;
 1929              		.loc 1 985 23
 1930 0014 FB68     		ldr	r3, [r7, #12]
 1931 0016 1B68     		ldr	r3, [r3]
 1932 0018 BB61     		str	r3, [r7, #24]
 986:../../../../dependencies/freertos/FreeRTOSv10.4.1/FreeRTOS/Source/stream_buffer.c ****         ( void ) prvReadBytesFromBuffer( pxStreamBuffer, ( uint8_t * ) &xTempNextMessageLength, xBy
 1933              		.loc 1 986 18
 1934 001a 07F11001 		add	r1, r7, #16
 1935 001e 3B68     		ldr	r3, [r7]
 1936 0020 BA6A     		ldr	r2, [r7, #40]
 1937 0022 F868     		ldr	r0, [r7, #12]
 1938 0024 FFF7FEFF 		bl	prvReadBytesFromBuffer
 987:../../../../dependencies/freertos/FreeRTOSv10.4.1/FreeRTOS/Source/stream_buffer.c ****         xNextMessageLength = ( size_t ) xTempNextMessageLength;
 1939              		.loc 1 987 28
 1940 0028 3B69     		ldr	r3, [r7, #16]
 1941 002a FB61     		str	r3, [r7, #28]
 988:../../../../dependencies/freertos/FreeRTOSv10.4.1/FreeRTOS/Source/stream_buffer.c **** 
 989:../../../../dependencies/freertos/FreeRTOSv10.4.1/FreeRTOS/Source/stream_buffer.c ****         /* Reduce the number of bytes available by the number of bytes just
 990:../../../../dependencies/freertos/FreeRTOSv10.4.1/FreeRTOS/Source/stream_buffer.c ****          * read out. */
 991:../../../../dependencies/freertos/FreeRTOSv10.4.1/FreeRTOS/Source/stream_buffer.c ****         xBytesAvailable -= xBytesToStoreMessageLength;
 1942              		.loc 1 991 25
 1943 002c 3A68     		ldr	r2, [r7]
 1944 002e BB6A     		ldr	r3, [r7, #40]
 1945 0030 D31A     		subs	r3, r2, r3
 1946 0032 3B60     		str	r3, [r7]
 992:../../../../dependencies/freertos/FreeRTOSv10.4.1/FreeRTOS/Source/stream_buffer.c **** 
 993:../../../../dependencies/freertos/FreeRTOSv10.4.1/FreeRTOS/Source/stream_buffer.c ****         /* Check there is enough space in the buffer provided by the
 994:../../../../dependencies/freertos/FreeRTOSv10.4.1/FreeRTOS/Source/stream_buffer.c ****          * user. */
 995:../../../../dependencies/freertos/FreeRTOSv10.4.1/FreeRTOS/Source/stream_buffer.c ****         if( xNextMessageLength > xBufferLengthBytes )
 1947              		.loc 1 995 11
 1948 0034 FA69     		ldr	r2, [r7, #28]
 1949 0036 7B68     		ldr	r3, [r7, #4]
 1950 0038 9A42     		cmp	r2, r3
 1951 003a 07D9     		bls	.L116
 996:../../../../dependencies/freertos/FreeRTOSv10.4.1/FreeRTOS/Source/stream_buffer.c ****         {
 997:../../../../dependencies/freertos/FreeRTOSv10.4.1/FreeRTOS/Source/stream_buffer.c ****             /* The user has provided insufficient space to read the message
 998:../../../../dependencies/freertos/FreeRTOSv10.4.1/FreeRTOS/Source/stream_buffer.c ****              * so return the buffer to its previous state (so the length of
 999:../../../../dependencies/freertos/FreeRTOSv10.4.1/FreeRTOS/Source/stream_buffer.c ****              * the message is in the buffer again). */
1000:../../../../dependencies/freertos/FreeRTOSv10.4.1/FreeRTOS/Source/stream_buffer.c ****             pxStreamBuffer->xTail = xOriginalTail;
ARM GAS  /var/folders/kj/yzqgq53j3dg15vgwwwwgf5s00000gn/T//ccSjr9dy.s 			page 57


 1952              		.loc 1 1000 35
 1953 003c FB68     		ldr	r3, [r7, #12]
 1954 003e BA69     		ldr	r2, [r7, #24]
 1955 0040 1A60     		str	r2, [r3]
1001:../../../../dependencies/freertos/FreeRTOSv10.4.1/FreeRTOS/Source/stream_buffer.c ****             xNextMessageLength = 0;
 1956              		.loc 1 1001 32
 1957 0042 0023     		movs	r3, #0
 1958 0044 FB61     		str	r3, [r7, #28]
 1959 0046 01E0     		b	.L116
 1960              	.L115:
1002:../../../../dependencies/freertos/FreeRTOSv10.4.1/FreeRTOS/Source/stream_buffer.c ****         }
1003:../../../../dependencies/freertos/FreeRTOSv10.4.1/FreeRTOS/Source/stream_buffer.c ****         else
1004:../../../../dependencies/freertos/FreeRTOSv10.4.1/FreeRTOS/Source/stream_buffer.c ****         {
1005:../../../../dependencies/freertos/FreeRTOSv10.4.1/FreeRTOS/Source/stream_buffer.c ****             mtCOVERAGE_TEST_MARKER();
1006:../../../../dependencies/freertos/FreeRTOSv10.4.1/FreeRTOS/Source/stream_buffer.c ****         }
1007:../../../../dependencies/freertos/FreeRTOSv10.4.1/FreeRTOS/Source/stream_buffer.c ****     }
1008:../../../../dependencies/freertos/FreeRTOSv10.4.1/FreeRTOS/Source/stream_buffer.c ****     else
1009:../../../../dependencies/freertos/FreeRTOSv10.4.1/FreeRTOS/Source/stream_buffer.c ****     {
1010:../../../../dependencies/freertos/FreeRTOSv10.4.1/FreeRTOS/Source/stream_buffer.c ****         /* A stream of bytes is being received (as opposed to a discrete
1011:../../../../dependencies/freertos/FreeRTOSv10.4.1/FreeRTOS/Source/stream_buffer.c ****          * message), so read as many bytes as possible. */
