ARM GAS  /var/folders/kj/yzqgq53j3dg15vgwwwwgf5s00000gn/T//cc5BPkVE.s 			page 1


   1              		.cpu cortex-m4
   2              		.eabi_attribute 27, 1
   3              		.eabi_attribute 28, 1
   4              		.eabi_attribute 20, 1
   5              		.eabi_attribute 21, 1
   6              		.eabi_attribute 23, 3
   7              		.eabi_attribute 24, 1
   8              		.eabi_attribute 25, 1
   9              		.eabi_attribute 26, 1
  10              		.eabi_attribute 30, 6
  11              		.eabi_attribute 34, 1
  12              		.eabi_attribute 18, 4
  13              		.file	"timers.c"
  14              		.text
  15              	.Ltext0:
  16              		.cfi_sections	.debug_frame
  17              		.section	.bss.xActiveTimerList1,"aw",%nobits
  18              		.align	2
  21              	xActiveTimerList1:
  22 0000 00000000 		.space	20
  22      00000000 
  22      00000000 
  22      00000000 
  22      00000000 
  23              		.section	.bss.xActiveTimerList2,"aw",%nobits
  24              		.align	2
  27              	xActiveTimerList2:
  28 0000 00000000 		.space	20
  28      00000000 
  28      00000000 
  28      00000000 
  28      00000000 
  29              		.section	.bss.pxCurrentTimerList,"aw",%nobits
  30              		.align	2
  33              	pxCurrentTimerList:
  34 0000 00000000 		.space	4
  35              		.section	.bss.pxOverflowTimerList,"aw",%nobits
  36              		.align	2
  39              	pxOverflowTimerList:
  40 0000 00000000 		.space	4
  41              		.section	.bss.xTimerQueue,"aw",%nobits
  42              		.align	2
  45              	xTimerQueue:
  46 0000 00000000 		.space	4
  47              		.section	.bss.xTimerTaskHandle,"aw",%nobits
  48              		.align	2
  51              	xTimerTaskHandle:
  52 0000 00000000 		.space	4
  53              		.section	.rodata
  54              		.align	2
  55              	.LC0:
  56 0000 546D7220 		.ascii	"Tmr Svc\000"
  56      53766300 
  57              		.section	.text.xTimerCreateTimerTask,"ax",%progbits
  58              		.align	1
  59              		.global	xTimerCreateTimerTask
  60              		.arch armv7e-m
ARM GAS  /var/folders/kj/yzqgq53j3dg15vgwwwwgf5s00000gn/T//cc5BPkVE.s 			page 2


  61              		.syntax unified
  62              		.thumb
  63              		.thumb_func
  64              		.fpu fpv4-sp-d16
  66              	xTimerCreateTimerTask:
  67              	.LFB5:
  68              		.file 1 "../../../../dependencies/freertos/FreeRTOSv10.4.1/FreeRTOS/Source/timers.c"
   1:../../../../dependencies/freertos/FreeRTOSv10.4.1/FreeRTOS/Source/timers.c **** /*
   2:../../../../dependencies/freertos/FreeRTOSv10.4.1/FreeRTOS/Source/timers.c ****  * FreeRTOS Kernel V10.4.1
   3:../../../../dependencies/freertos/FreeRTOSv10.4.1/FreeRTOS/Source/timers.c ****  * Copyright (C) 2020 Amazon.com, Inc. or its affiliates.  All Rights Reserved.
   4:../../../../dependencies/freertos/FreeRTOSv10.4.1/FreeRTOS/Source/timers.c ****  *
   5:../../../../dependencies/freertos/FreeRTOSv10.4.1/FreeRTOS/Source/timers.c ****  * Permission is hereby granted, free of charge, to any person obtaining a copy of
   6:../../../../dependencies/freertos/FreeRTOSv10.4.1/FreeRTOS/Source/timers.c ****  * this software and associated documentation files (the "Software"), to deal in
   7:../../../../dependencies/freertos/FreeRTOSv10.4.1/FreeRTOS/Source/timers.c ****  * the Software without restriction, including without limitation the rights to
   8:../../../../dependencies/freertos/FreeRTOSv10.4.1/FreeRTOS/Source/timers.c ****  * use, copy, modify, merge, publish, distribute, sublicense, and/or sell copies of
   9:../../../../dependencies/freertos/FreeRTOSv10.4.1/FreeRTOS/Source/timers.c ****  * the Software, and to permit persons to whom the Software is furnished to do so,
  10:../../../../dependencies/freertos/FreeRTOSv10.4.1/FreeRTOS/Source/timers.c ****  * subject to the following conditions:
  11:../../../../dependencies/freertos/FreeRTOSv10.4.1/FreeRTOS/Source/timers.c ****  *
  12:../../../../dependencies/freertos/FreeRTOSv10.4.1/FreeRTOS/Source/timers.c ****  * The above copyright notice and this permission notice shall be included in all
  13:../../../../dependencies/freertos/FreeRTOSv10.4.1/FreeRTOS/Source/timers.c ****  * copies or substantial portions of the Software.
  14:../../../../dependencies/freertos/FreeRTOSv10.4.1/FreeRTOS/Source/timers.c ****  *
  15:../../../../dependencies/freertos/FreeRTOSv10.4.1/FreeRTOS/Source/timers.c ****  * THE SOFTWARE IS PROVIDED "AS IS", WITHOUT WARRANTY OF ANY KIND, EXPRESS OR
  16:../../../../dependencies/freertos/FreeRTOSv10.4.1/FreeRTOS/Source/timers.c ****  * IMPLIED, INCLUDING BUT NOT LIMITED TO THE WARRANTIES OF MERCHANTABILITY, FITNESS
  17:../../../../dependencies/freertos/FreeRTOSv10.4.1/FreeRTOS/Source/timers.c ****  * FOR A PARTICULAR PURPOSE AND NONINFRINGEMENT. IN NO EVENT SHALL THE AUTHORS OR
  18:../../../../dependencies/freertos/FreeRTOSv10.4.1/FreeRTOS/Source/timers.c ****  * COPYRIGHT HOLDERS BE LIABLE FOR ANY CLAIM, DAMAGES OR OTHER LIABILITY, WHETHER
  19:../../../../dependencies/freertos/FreeRTOSv10.4.1/FreeRTOS/Source/timers.c ****  * IN AN ACTION OF CONTRACT, TORT OR OTHERWISE, ARISING FROM, OUT OF OR IN
  20:../../../../dependencies/freertos/FreeRTOSv10.4.1/FreeRTOS/Source/timers.c ****  * CONNECTION WITH THE SOFTWARE OR THE USE OR OTHER DEALINGS IN THE SOFTWARE.
  21:../../../../dependencies/freertos/FreeRTOSv10.4.1/FreeRTOS/Source/timers.c ****  *
  22:../../../../dependencies/freertos/FreeRTOSv10.4.1/FreeRTOS/Source/timers.c ****  * https://www.FreeRTOS.org
  23:../../../../dependencies/freertos/FreeRTOSv10.4.1/FreeRTOS/Source/timers.c ****  * https://github.com/FreeRTOS
  24:../../../../dependencies/freertos/FreeRTOSv10.4.1/FreeRTOS/Source/timers.c ****  *
  25:../../../../dependencies/freertos/FreeRTOSv10.4.1/FreeRTOS/Source/timers.c ****  */
  26:../../../../dependencies/freertos/FreeRTOSv10.4.1/FreeRTOS/Source/timers.c **** 
  27:../../../../dependencies/freertos/FreeRTOSv10.4.1/FreeRTOS/Source/timers.c **** /* Standard includes. */
  28:../../../../dependencies/freertos/FreeRTOSv10.4.1/FreeRTOS/Source/timers.c **** #include <stdlib.h>
  29:../../../../dependencies/freertos/FreeRTOSv10.4.1/FreeRTOS/Source/timers.c **** 
  30:../../../../dependencies/freertos/FreeRTOSv10.4.1/FreeRTOS/Source/timers.c **** /* Defining MPU_WRAPPERS_INCLUDED_FROM_API_FILE prevents task.h from redefining
  31:../../../../dependencies/freertos/FreeRTOSv10.4.1/FreeRTOS/Source/timers.c ****  * all the API functions to use the MPU wrappers.  That should only be done when
  32:../../../../dependencies/freertos/FreeRTOSv10.4.1/FreeRTOS/Source/timers.c ****  * task.h is included from an application file. */
  33:../../../../dependencies/freertos/FreeRTOSv10.4.1/FreeRTOS/Source/timers.c **** #define MPU_WRAPPERS_INCLUDED_FROM_API_FILE
  34:../../../../dependencies/freertos/FreeRTOSv10.4.1/FreeRTOS/Source/timers.c **** 
  35:../../../../dependencies/freertos/FreeRTOSv10.4.1/FreeRTOS/Source/timers.c **** #include "FreeRTOS.h"
  36:../../../../dependencies/freertos/FreeRTOSv10.4.1/FreeRTOS/Source/timers.c **** #include "task.h"
  37:../../../../dependencies/freertos/FreeRTOSv10.4.1/FreeRTOS/Source/timers.c **** #include "queue.h"
  38:../../../../dependencies/freertos/FreeRTOSv10.4.1/FreeRTOS/Source/timers.c **** #include "timers.h"
  39:../../../../dependencies/freertos/FreeRTOSv10.4.1/FreeRTOS/Source/timers.c **** 
  40:../../../../dependencies/freertos/FreeRTOSv10.4.1/FreeRTOS/Source/timers.c **** #if ( INCLUDE_xTimerPendFunctionCall == 1 ) && ( configUSE_TIMERS == 0 )
  41:../../../../dependencies/freertos/FreeRTOSv10.4.1/FreeRTOS/Source/timers.c ****     #error configUSE_TIMERS must be set to 1 to make the xTimerPendFunctionCall() function availabl
  42:../../../../dependencies/freertos/FreeRTOSv10.4.1/FreeRTOS/Source/timers.c **** #endif
  43:../../../../dependencies/freertos/FreeRTOSv10.4.1/FreeRTOS/Source/timers.c **** 
  44:../../../../dependencies/freertos/FreeRTOSv10.4.1/FreeRTOS/Source/timers.c **** /* Lint e9021, e961 and e750 are suppressed as a MISRA exception justified
  45:../../../../dependencies/freertos/FreeRTOSv10.4.1/FreeRTOS/Source/timers.c ****  * because the MPU ports require MPU_WRAPPERS_INCLUDED_FROM_API_FILE to be defined
  46:../../../../dependencies/freertos/FreeRTOSv10.4.1/FreeRTOS/Source/timers.c ****  * for the header files above, but not in this file, in order to generate the
  47:../../../../dependencies/freertos/FreeRTOSv10.4.1/FreeRTOS/Source/timers.c ****  * correct privileged Vs unprivileged linkage and placement. */
  48:../../../../dependencies/freertos/FreeRTOSv10.4.1/FreeRTOS/Source/timers.c **** #undef MPU_WRAPPERS_INCLUDED_FROM_API_FILE /*lint !e9021 !e961 !e750. */
  49:../../../../dependencies/freertos/FreeRTOSv10.4.1/FreeRTOS/Source/timers.c **** 
  50:../../../../dependencies/freertos/FreeRTOSv10.4.1/FreeRTOS/Source/timers.c **** 
ARM GAS  /var/folders/kj/yzqgq53j3dg15vgwwwwgf5s00000gn/T//cc5BPkVE.s 			page 3


  51:../../../../dependencies/freertos/FreeRTOSv10.4.1/FreeRTOS/Source/timers.c **** /* This entire source file will be skipped if the application is not configured
  52:../../../../dependencies/freertos/FreeRTOSv10.4.1/FreeRTOS/Source/timers.c ****  * to include software timer functionality.  This #if is closed at the very bottom
  53:../../../../dependencies/freertos/FreeRTOSv10.4.1/FreeRTOS/Source/timers.c ****  * of this file.  If you want to include software timer functionality then ensure
  54:../../../../dependencies/freertos/FreeRTOSv10.4.1/FreeRTOS/Source/timers.c ****  * configUSE_TIMERS is set to 1 in FreeRTOSConfig.h. */
  55:../../../../dependencies/freertos/FreeRTOSv10.4.1/FreeRTOS/Source/timers.c **** #if ( configUSE_TIMERS == 1 )
  56:../../../../dependencies/freertos/FreeRTOSv10.4.1/FreeRTOS/Source/timers.c **** 
  57:../../../../dependencies/freertos/FreeRTOSv10.4.1/FreeRTOS/Source/timers.c **** /* Misc definitions. */
  58:../../../../dependencies/freertos/FreeRTOSv10.4.1/FreeRTOS/Source/timers.c ****     #define tmrNO_DELAY    ( TickType_t ) 0U
  59:../../../../dependencies/freertos/FreeRTOSv10.4.1/FreeRTOS/Source/timers.c **** 
  60:../../../../dependencies/freertos/FreeRTOSv10.4.1/FreeRTOS/Source/timers.c **** /* The name assigned to the timer service task.  This can be overridden by
  61:../../../../dependencies/freertos/FreeRTOSv10.4.1/FreeRTOS/Source/timers.c ****  * defining trmTIMER_SERVICE_TASK_NAME in FreeRTOSConfig.h. */
  62:../../../../dependencies/freertos/FreeRTOSv10.4.1/FreeRTOS/Source/timers.c ****     #ifndef configTIMER_SERVICE_TASK_NAME
  63:../../../../dependencies/freertos/FreeRTOSv10.4.1/FreeRTOS/Source/timers.c ****         #define configTIMER_SERVICE_TASK_NAME    "Tmr Svc"
  64:../../../../dependencies/freertos/FreeRTOSv10.4.1/FreeRTOS/Source/timers.c ****     #endif
  65:../../../../dependencies/freertos/FreeRTOSv10.4.1/FreeRTOS/Source/timers.c **** 
  66:../../../../dependencies/freertos/FreeRTOSv10.4.1/FreeRTOS/Source/timers.c **** /* Bit definitions used in the ucStatus member of a timer structure. */
  67:../../../../dependencies/freertos/FreeRTOSv10.4.1/FreeRTOS/Source/timers.c ****     #define tmrSTATUS_IS_ACTIVE                  ( ( uint8_t ) 0x01 )
  68:../../../../dependencies/freertos/FreeRTOSv10.4.1/FreeRTOS/Source/timers.c ****     #define tmrSTATUS_IS_STATICALLY_ALLOCATED    ( ( uint8_t ) 0x02 )
  69:../../../../dependencies/freertos/FreeRTOSv10.4.1/FreeRTOS/Source/timers.c ****     #define tmrSTATUS_IS_AUTORELOAD              ( ( uint8_t ) 0x04 )
  70:../../../../dependencies/freertos/FreeRTOSv10.4.1/FreeRTOS/Source/timers.c **** 
  71:../../../../dependencies/freertos/FreeRTOSv10.4.1/FreeRTOS/Source/timers.c **** /* The definition of the timers themselves. */
  72:../../../../dependencies/freertos/FreeRTOSv10.4.1/FreeRTOS/Source/timers.c ****     typedef struct tmrTimerControl                  /* The old naming convention is used to prevent
  73:../../../../dependencies/freertos/FreeRTOSv10.4.1/FreeRTOS/Source/timers.c ****     {
  74:../../../../dependencies/freertos/FreeRTOSv10.4.1/FreeRTOS/Source/timers.c ****         const char * pcTimerName;                   /*<< Text name.  This is not used by the kernel
  75:../../../../dependencies/freertos/FreeRTOSv10.4.1/FreeRTOS/Source/timers.c ****         ListItem_t xTimerListItem;                  /*<< Standard linked list item as used by all k
  76:../../../../dependencies/freertos/FreeRTOSv10.4.1/FreeRTOS/Source/timers.c ****         TickType_t xTimerPeriodInTicks;             /*<< How quickly and often the timer expires. *
  77:../../../../dependencies/freertos/FreeRTOSv10.4.1/FreeRTOS/Source/timers.c ****         void * pvTimerID;                           /*<< An ID to identify the timer.  This allows 
  78:../../../../dependencies/freertos/FreeRTOSv10.4.1/FreeRTOS/Source/timers.c ****         TimerCallbackFunction_t pxCallbackFunction; /*<< The function that will be called when the 
  79:../../../../dependencies/freertos/FreeRTOSv10.4.1/FreeRTOS/Source/timers.c ****         #if ( configUSE_TRACE_FACILITY == 1 )
  80:../../../../dependencies/freertos/FreeRTOSv10.4.1/FreeRTOS/Source/timers.c ****             UBaseType_t uxTimerNumber;              /*<< An ID assigned by trace tools such as Free
  81:../../../../dependencies/freertos/FreeRTOSv10.4.1/FreeRTOS/Source/timers.c ****         #endif
  82:../../../../dependencies/freertos/FreeRTOSv10.4.1/FreeRTOS/Source/timers.c ****         uint8_t ucStatus;                           /*<< Holds bits to say if the timer was statica
  83:../../../../dependencies/freertos/FreeRTOSv10.4.1/FreeRTOS/Source/timers.c ****     } xTIMER;
  84:../../../../dependencies/freertos/FreeRTOSv10.4.1/FreeRTOS/Source/timers.c **** 
  85:../../../../dependencies/freertos/FreeRTOSv10.4.1/FreeRTOS/Source/timers.c **** /* The old xTIMER name is maintained above then typedefed to the new Timer_t
  86:../../../../dependencies/freertos/FreeRTOSv10.4.1/FreeRTOS/Source/timers.c ****  * name below to enable the use of older kernel aware debuggers. */
  87:../../../../dependencies/freertos/FreeRTOSv10.4.1/FreeRTOS/Source/timers.c ****     typedef xTIMER Timer_t;
  88:../../../../dependencies/freertos/FreeRTOSv10.4.1/FreeRTOS/Source/timers.c **** 
  89:../../../../dependencies/freertos/FreeRTOSv10.4.1/FreeRTOS/Source/timers.c **** /* The definition of messages that can be sent and received on the timer queue.
  90:../../../../dependencies/freertos/FreeRTOSv10.4.1/FreeRTOS/Source/timers.c ****  * Two types of message can be queued - messages that manipulate a software timer,
  91:../../../../dependencies/freertos/FreeRTOSv10.4.1/FreeRTOS/Source/timers.c ****  * and messages that request the execution of a non-timer related callback.  The
  92:../../../../dependencies/freertos/FreeRTOSv10.4.1/FreeRTOS/Source/timers.c ****  * two message types are defined in two separate structures, xTimerParametersType
  93:../../../../dependencies/freertos/FreeRTOSv10.4.1/FreeRTOS/Source/timers.c ****  * and xCallbackParametersType respectively. */
  94:../../../../dependencies/freertos/FreeRTOSv10.4.1/FreeRTOS/Source/timers.c ****     typedef struct tmrTimerParameters
  95:../../../../dependencies/freertos/FreeRTOSv10.4.1/FreeRTOS/Source/timers.c ****     {
  96:../../../../dependencies/freertos/FreeRTOSv10.4.1/FreeRTOS/Source/timers.c ****         TickType_t xMessageValue; /*<< An optional value used by a subset of commands, for example,
  97:../../../../dependencies/freertos/FreeRTOSv10.4.1/FreeRTOS/Source/timers.c ****         Timer_t * pxTimer;        /*<< The timer to which the command will be applied. */
  98:../../../../dependencies/freertos/FreeRTOSv10.4.1/FreeRTOS/Source/timers.c ****     } TimerParameter_t;
  99:../../../../dependencies/freertos/FreeRTOSv10.4.1/FreeRTOS/Source/timers.c **** 
 100:../../../../dependencies/freertos/FreeRTOSv10.4.1/FreeRTOS/Source/timers.c **** 
 101:../../../../dependencies/freertos/FreeRTOSv10.4.1/FreeRTOS/Source/timers.c ****     typedef struct tmrCallbackParameters
 102:../../../../dependencies/freertos/FreeRTOSv10.4.1/FreeRTOS/Source/timers.c ****     {
 103:../../../../dependencies/freertos/FreeRTOSv10.4.1/FreeRTOS/Source/timers.c ****         PendedFunction_t pxCallbackFunction; /* << The callback function to execute. */
 104:../../../../dependencies/freertos/FreeRTOSv10.4.1/FreeRTOS/Source/timers.c ****         void * pvParameter1;                 /* << The value that will be used as the callback func
 105:../../../../dependencies/freertos/FreeRTOSv10.4.1/FreeRTOS/Source/timers.c ****         uint32_t ulParameter2;               /* << The value that will be used as the callback func
 106:../../../../dependencies/freertos/FreeRTOSv10.4.1/FreeRTOS/Source/timers.c ****     } CallbackParameters_t;
 107:../../../../dependencies/freertos/FreeRTOSv10.4.1/FreeRTOS/Source/timers.c **** 
ARM GAS  /var/folders/kj/yzqgq53j3dg15vgwwwwgf5s00000gn/T//cc5BPkVE.s 			page 4


 108:../../../../dependencies/freertos/FreeRTOSv10.4.1/FreeRTOS/Source/timers.c **** /* The structure that contains the two message types, along with an identifier
 109:../../../../dependencies/freertos/FreeRTOSv10.4.1/FreeRTOS/Source/timers.c ****  * that is used to determine which message type is valid. */
 110:../../../../dependencies/freertos/FreeRTOSv10.4.1/FreeRTOS/Source/timers.c ****     typedef struct tmrTimerQueueMessage
 111:../../../../dependencies/freertos/FreeRTOSv10.4.1/FreeRTOS/Source/timers.c ****     {
 112:../../../../dependencies/freertos/FreeRTOSv10.4.1/FreeRTOS/Source/timers.c ****         BaseType_t xMessageID; /*<< The command being sent to the timer service task. */
 113:../../../../dependencies/freertos/FreeRTOSv10.4.1/FreeRTOS/Source/timers.c ****         union
 114:../../../../dependencies/freertos/FreeRTOSv10.4.1/FreeRTOS/Source/timers.c ****         {
 115:../../../../dependencies/freertos/FreeRTOSv10.4.1/FreeRTOS/Source/timers.c ****             TimerParameter_t xTimerParameters;
 116:../../../../dependencies/freertos/FreeRTOSv10.4.1/FreeRTOS/Source/timers.c **** 
 117:../../../../dependencies/freertos/FreeRTOSv10.4.1/FreeRTOS/Source/timers.c ****             /* Don't include xCallbackParameters if it is not going to be used as
 118:../../../../dependencies/freertos/FreeRTOSv10.4.1/FreeRTOS/Source/timers.c ****              * it makes the structure (and therefore the timer queue) larger. */
 119:../../../../dependencies/freertos/FreeRTOSv10.4.1/FreeRTOS/Source/timers.c ****             #if ( INCLUDE_xTimerPendFunctionCall == 1 )
 120:../../../../dependencies/freertos/FreeRTOSv10.4.1/FreeRTOS/Source/timers.c ****                 CallbackParameters_t xCallbackParameters;
 121:../../../../dependencies/freertos/FreeRTOSv10.4.1/FreeRTOS/Source/timers.c ****             #endif /* INCLUDE_xTimerPendFunctionCall */
 122:../../../../dependencies/freertos/FreeRTOSv10.4.1/FreeRTOS/Source/timers.c ****         } u;
 123:../../../../dependencies/freertos/FreeRTOSv10.4.1/FreeRTOS/Source/timers.c ****     } DaemonTaskMessage_t;
 124:../../../../dependencies/freertos/FreeRTOSv10.4.1/FreeRTOS/Source/timers.c **** 
 125:../../../../dependencies/freertos/FreeRTOSv10.4.1/FreeRTOS/Source/timers.c **** /*lint -save -e956 A manual analysis and inspection has been used to determine
 126:../../../../dependencies/freertos/FreeRTOSv10.4.1/FreeRTOS/Source/timers.c ****  * which static variables must be declared volatile. */
 127:../../../../dependencies/freertos/FreeRTOSv10.4.1/FreeRTOS/Source/timers.c **** 
 128:../../../../dependencies/freertos/FreeRTOSv10.4.1/FreeRTOS/Source/timers.c **** /* The list in which active timers are stored.  Timers are referenced in expire
 129:../../../../dependencies/freertos/FreeRTOSv10.4.1/FreeRTOS/Source/timers.c ****  * time order, with the nearest expiry time at the front of the list.  Only the
 130:../../../../dependencies/freertos/FreeRTOSv10.4.1/FreeRTOS/Source/timers.c ****  * timer service task is allowed to access these lists.
 131:../../../../dependencies/freertos/FreeRTOSv10.4.1/FreeRTOS/Source/timers.c ****  * xActiveTimerList1 and xActiveTimerList2 could be at function scope but that
 132:../../../../dependencies/freertos/FreeRTOSv10.4.1/FreeRTOS/Source/timers.c ****  * breaks some kernel aware debuggers, and debuggers that reply on removing the
 133:../../../../dependencies/freertos/FreeRTOSv10.4.1/FreeRTOS/Source/timers.c ****  * static qualifier. */
 134:../../../../dependencies/freertos/FreeRTOSv10.4.1/FreeRTOS/Source/timers.c ****     PRIVILEGED_DATA static List_t xActiveTimerList1;
 135:../../../../dependencies/freertos/FreeRTOSv10.4.1/FreeRTOS/Source/timers.c ****     PRIVILEGED_DATA static List_t xActiveTimerList2;
 136:../../../../dependencies/freertos/FreeRTOSv10.4.1/FreeRTOS/Source/timers.c ****     PRIVILEGED_DATA static List_t * pxCurrentTimerList;
 137:../../../../dependencies/freertos/FreeRTOSv10.4.1/FreeRTOS/Source/timers.c ****     PRIVILEGED_DATA static List_t * pxOverflowTimerList;
 138:../../../../dependencies/freertos/FreeRTOSv10.4.1/FreeRTOS/Source/timers.c **** 
 139:../../../../dependencies/freertos/FreeRTOSv10.4.1/FreeRTOS/Source/timers.c **** /* A queue that is used to send commands to the timer service task. */
 140:../../../../dependencies/freertos/FreeRTOSv10.4.1/FreeRTOS/Source/timers.c ****     PRIVILEGED_DATA static QueueHandle_t xTimerQueue = NULL;
 141:../../../../dependencies/freertos/FreeRTOSv10.4.1/FreeRTOS/Source/timers.c ****     PRIVILEGED_DATA static TaskHandle_t xTimerTaskHandle = NULL;
 142:../../../../dependencies/freertos/FreeRTOSv10.4.1/FreeRTOS/Source/timers.c **** 
 143:../../../../dependencies/freertos/FreeRTOSv10.4.1/FreeRTOS/Source/timers.c **** /*lint -restore */
 144:../../../../dependencies/freertos/FreeRTOSv10.4.1/FreeRTOS/Source/timers.c **** 
 145:../../../../dependencies/freertos/FreeRTOSv10.4.1/FreeRTOS/Source/timers.c **** /*-----------------------------------------------------------*/
 146:../../../../dependencies/freertos/FreeRTOSv10.4.1/FreeRTOS/Source/timers.c **** 
 147:../../../../dependencies/freertos/FreeRTOSv10.4.1/FreeRTOS/Source/timers.c **** /*
 148:../../../../dependencies/freertos/FreeRTOSv10.4.1/FreeRTOS/Source/timers.c ****  * Initialise the infrastructure used by the timer service task if it has not
 149:../../../../dependencies/freertos/FreeRTOSv10.4.1/FreeRTOS/Source/timers.c ****  * been initialised already.
 150:../../../../dependencies/freertos/FreeRTOSv10.4.1/FreeRTOS/Source/timers.c ****  */
 151:../../../../dependencies/freertos/FreeRTOSv10.4.1/FreeRTOS/Source/timers.c ****     static void prvCheckForValidListAndQueue( void ) PRIVILEGED_FUNCTION;
 152:../../../../dependencies/freertos/FreeRTOSv10.4.1/FreeRTOS/Source/timers.c **** 
 153:../../../../dependencies/freertos/FreeRTOSv10.4.1/FreeRTOS/Source/timers.c **** /*
 154:../../../../dependencies/freertos/FreeRTOSv10.4.1/FreeRTOS/Source/timers.c ****  * The timer service task (daemon).  Timer functionality is controlled by this
 155:../../../../dependencies/freertos/FreeRTOSv10.4.1/FreeRTOS/Source/timers.c ****  * task.  Other tasks communicate with the timer service task using the
 156:../../../../dependencies/freertos/FreeRTOSv10.4.1/FreeRTOS/Source/timers.c ****  * xTimerQueue queue.
 157:../../../../dependencies/freertos/FreeRTOSv10.4.1/FreeRTOS/Source/timers.c ****  */
 158:../../../../dependencies/freertos/FreeRTOSv10.4.1/FreeRTOS/Source/timers.c ****     static portTASK_FUNCTION_PROTO( prvTimerTask, pvParameters ) PRIVILEGED_FUNCTION;
 159:../../../../dependencies/freertos/FreeRTOSv10.4.1/FreeRTOS/Source/timers.c **** 
 160:../../../../dependencies/freertos/FreeRTOSv10.4.1/FreeRTOS/Source/timers.c **** /*
 161:../../../../dependencies/freertos/FreeRTOSv10.4.1/FreeRTOS/Source/timers.c ****  * Called by the timer service task to interpret and process a command it
 162:../../../../dependencies/freertos/FreeRTOSv10.4.1/FreeRTOS/Source/timers.c ****  * received on the timer queue.
 163:../../../../dependencies/freertos/FreeRTOSv10.4.1/FreeRTOS/Source/timers.c ****  */
 164:../../../../dependencies/freertos/FreeRTOSv10.4.1/FreeRTOS/Source/timers.c ****     static void prvProcessReceivedCommands( void ) PRIVILEGED_FUNCTION;
ARM GAS  /var/folders/kj/yzqgq53j3dg15vgwwwwgf5s00000gn/T//cc5BPkVE.s 			page 5


 165:../../../../dependencies/freertos/FreeRTOSv10.4.1/FreeRTOS/Source/timers.c **** 
 166:../../../../dependencies/freertos/FreeRTOSv10.4.1/FreeRTOS/Source/timers.c **** /*
 167:../../../../dependencies/freertos/FreeRTOSv10.4.1/FreeRTOS/Source/timers.c ****  * Insert the timer into either xActiveTimerList1, or xActiveTimerList2,
 168:../../../../dependencies/freertos/FreeRTOSv10.4.1/FreeRTOS/Source/timers.c ****  * depending on if the expire time causes a timer counter overflow.
 169:../../../../dependencies/freertos/FreeRTOSv10.4.1/FreeRTOS/Source/timers.c ****  */
 170:../../../../dependencies/freertos/FreeRTOSv10.4.1/FreeRTOS/Source/timers.c ****     static BaseType_t prvInsertTimerInActiveList( Timer_t * const pxTimer,
 171:../../../../dependencies/freertos/FreeRTOSv10.4.1/FreeRTOS/Source/timers.c ****                                                   const TickType_t xNextExpiryTime,
 172:../../../../dependencies/freertos/FreeRTOSv10.4.1/FreeRTOS/Source/timers.c ****                                                   const TickType_t xTimeNow,
 173:../../../../dependencies/freertos/FreeRTOSv10.4.1/FreeRTOS/Source/timers.c ****                                                   const TickType_t xCommandTime ) PRIVILEGED_FUNCTI
 174:../../../../dependencies/freertos/FreeRTOSv10.4.1/FreeRTOS/Source/timers.c **** 
 175:../../../../dependencies/freertos/FreeRTOSv10.4.1/FreeRTOS/Source/timers.c **** /*
 176:../../../../dependencies/freertos/FreeRTOSv10.4.1/FreeRTOS/Source/timers.c ****  * An active timer has reached its expire time.  Reload the timer if it is an
 177:../../../../dependencies/freertos/FreeRTOSv10.4.1/FreeRTOS/Source/timers.c ****  * auto-reload timer, then call its callback.
 178:../../../../dependencies/freertos/FreeRTOSv10.4.1/FreeRTOS/Source/timers.c ****  */
 179:../../../../dependencies/freertos/FreeRTOSv10.4.1/FreeRTOS/Source/timers.c ****     static void prvProcessExpiredTimer( const TickType_t xNextExpireTime,
 180:../../../../dependencies/freertos/FreeRTOSv10.4.1/FreeRTOS/Source/timers.c ****                                         const TickType_t xTimeNow ) PRIVILEGED_FUNCTION;
 181:../../../../dependencies/freertos/FreeRTOSv10.4.1/FreeRTOS/Source/timers.c **** 
 182:../../../../dependencies/freertos/FreeRTOSv10.4.1/FreeRTOS/Source/timers.c **** /*
 183:../../../../dependencies/freertos/FreeRTOSv10.4.1/FreeRTOS/Source/timers.c ****  * The tick count has overflowed.  Switch the timer lists after ensuring the
 184:../../../../dependencies/freertos/FreeRTOSv10.4.1/FreeRTOS/Source/timers.c ****  * current timer list does not still reference some timers.
 185:../../../../dependencies/freertos/FreeRTOSv10.4.1/FreeRTOS/Source/timers.c ****  */
 186:../../../../dependencies/freertos/FreeRTOSv10.4.1/FreeRTOS/Source/timers.c ****     static void prvSwitchTimerLists( void ) PRIVILEGED_FUNCTION;
 187:../../../../dependencies/freertos/FreeRTOSv10.4.1/FreeRTOS/Source/timers.c **** 
 188:../../../../dependencies/freertos/FreeRTOSv10.4.1/FreeRTOS/Source/timers.c **** /*
 189:../../../../dependencies/freertos/FreeRTOSv10.4.1/FreeRTOS/Source/timers.c ****  * Obtain the current tick count, setting *pxTimerListsWereSwitched to pdTRUE
 190:../../../../dependencies/freertos/FreeRTOSv10.4.1/FreeRTOS/Source/timers.c ****  * if a tick count overflow occurred since prvSampleTimeNow() was last called.
 191:../../../../dependencies/freertos/FreeRTOSv10.4.1/FreeRTOS/Source/timers.c ****  */
 192:../../../../dependencies/freertos/FreeRTOSv10.4.1/FreeRTOS/Source/timers.c ****     static TickType_t prvSampleTimeNow( BaseType_t * const pxTimerListsWereSwitched ) PRIVILEGED_FU
 193:../../../../dependencies/freertos/FreeRTOSv10.4.1/FreeRTOS/Source/timers.c **** 
 194:../../../../dependencies/freertos/FreeRTOSv10.4.1/FreeRTOS/Source/timers.c **** /*
 195:../../../../dependencies/freertos/FreeRTOSv10.4.1/FreeRTOS/Source/timers.c ****  * If the timer list contains any active timers then return the expire time of
 196:../../../../dependencies/freertos/FreeRTOSv10.4.1/FreeRTOS/Source/timers.c ****  * the timer that will expire first and set *pxListWasEmpty to false.  If the
 197:../../../../dependencies/freertos/FreeRTOSv10.4.1/FreeRTOS/Source/timers.c ****  * timer list does not contain any timers then return 0 and set *pxListWasEmpty
 198:../../../../dependencies/freertos/FreeRTOSv10.4.1/FreeRTOS/Source/timers.c ****  * to pdTRUE.
 199:../../../../dependencies/freertos/FreeRTOSv10.4.1/FreeRTOS/Source/timers.c ****  */
 200:../../../../dependencies/freertos/FreeRTOSv10.4.1/FreeRTOS/Source/timers.c ****     static TickType_t prvGetNextExpireTime( BaseType_t * const pxListWasEmpty ) PRIVILEGED_FUNCTION
 201:../../../../dependencies/freertos/FreeRTOSv10.4.1/FreeRTOS/Source/timers.c **** 
 202:../../../../dependencies/freertos/FreeRTOSv10.4.1/FreeRTOS/Source/timers.c **** /*
 203:../../../../dependencies/freertos/FreeRTOSv10.4.1/FreeRTOS/Source/timers.c ****  * If a timer has expired, process it.  Otherwise, block the timer service task
 204:../../../../dependencies/freertos/FreeRTOSv10.4.1/FreeRTOS/Source/timers.c ****  * until either a timer does expire or a command is received.
 205:../../../../dependencies/freertos/FreeRTOSv10.4.1/FreeRTOS/Source/timers.c ****  */
 206:../../../../dependencies/freertos/FreeRTOSv10.4.1/FreeRTOS/Source/timers.c ****     static void prvProcessTimerOrBlockTask( const TickType_t xNextExpireTime,
 207:../../../../dependencies/freertos/FreeRTOSv10.4.1/FreeRTOS/Source/timers.c ****                                             BaseType_t xListWasEmpty ) PRIVILEGED_FUNCTION;
 208:../../../../dependencies/freertos/FreeRTOSv10.4.1/FreeRTOS/Source/timers.c **** 
 209:../../../../dependencies/freertos/FreeRTOSv10.4.1/FreeRTOS/Source/timers.c **** /*
 210:../../../../dependencies/freertos/FreeRTOSv10.4.1/FreeRTOS/Source/timers.c ****  * Called after a Timer_t structure has been allocated either statically or
 211:../../../../dependencies/freertos/FreeRTOSv10.4.1/FreeRTOS/Source/timers.c ****  * dynamically to fill in the structure's members.
 212:../../../../dependencies/freertos/FreeRTOSv10.4.1/FreeRTOS/Source/timers.c ****  */
 213:../../../../dependencies/freertos/FreeRTOSv10.4.1/FreeRTOS/Source/timers.c ****     static void prvInitialiseNewTimer( const char * const pcTimerName, /*lint !e971 Unqualified cha
 214:../../../../dependencies/freertos/FreeRTOSv10.4.1/FreeRTOS/Source/timers.c ****                                        const TickType_t xTimerPeriodInTicks,
 215:../../../../dependencies/freertos/FreeRTOSv10.4.1/FreeRTOS/Source/timers.c ****                                        const UBaseType_t uxAutoReload,
 216:../../../../dependencies/freertos/FreeRTOSv10.4.1/FreeRTOS/Source/timers.c ****                                        void * const pvTimerID,
 217:../../../../dependencies/freertos/FreeRTOSv10.4.1/FreeRTOS/Source/timers.c ****                                        TimerCallbackFunction_t pxCallbackFunction,
 218:../../../../dependencies/freertos/FreeRTOSv10.4.1/FreeRTOS/Source/timers.c ****                                        Timer_t * pxNewTimer ) PRIVILEGED_FUNCTION;
 219:../../../../dependencies/freertos/FreeRTOSv10.4.1/FreeRTOS/Source/timers.c **** /*-----------------------------------------------------------*/
 220:../../../../dependencies/freertos/FreeRTOSv10.4.1/FreeRTOS/Source/timers.c **** 
 221:../../../../dependencies/freertos/FreeRTOSv10.4.1/FreeRTOS/Source/timers.c ****     BaseType_t xTimerCreateTimerTask( void )
ARM GAS  /var/folders/kj/yzqgq53j3dg15vgwwwwgf5s00000gn/T//cc5BPkVE.s 			page 6


 222:../../../../dependencies/freertos/FreeRTOSv10.4.1/FreeRTOS/Source/timers.c ****     {
  69              		.loc 1 222 5
  70              		.cfi_startproc
  71              		@ args = 0, pretend = 0, frame = 8
  72              		@ frame_needed = 1, uses_anonymous_args = 0
  73 0000 80B5     		push	{r7, lr}
  74              	.LCFI0:
  75              		.cfi_def_cfa_offset 8
  76              		.cfi_offset 7, -8
  77              		.cfi_offset 14, -4
  78 0002 84B0     		sub	sp, sp, #16
  79              	.LCFI1:
  80              		.cfi_def_cfa_offset 24
  81 0004 02AF     		add	r7, sp, #8
  82              	.LCFI2:
  83              		.cfi_def_cfa 7, 16
 223:../../../../dependencies/freertos/FreeRTOSv10.4.1/FreeRTOS/Source/timers.c ****         BaseType_t xReturn = pdFAIL;
  84              		.loc 1 223 20
  85 0006 0023     		movs	r3, #0
  86 0008 7B60     		str	r3, [r7, #4]
 224:../../../../dependencies/freertos/FreeRTOSv10.4.1/FreeRTOS/Source/timers.c **** 
 225:../../../../dependencies/freertos/FreeRTOSv10.4.1/FreeRTOS/Source/timers.c ****         /* This function is called when the scheduler is started if
 226:../../../../dependencies/freertos/FreeRTOSv10.4.1/FreeRTOS/Source/timers.c ****          * configUSE_TIMERS is set to 1.  Check that the infrastructure used by the
 227:../../../../dependencies/freertos/FreeRTOSv10.4.1/FreeRTOS/Source/timers.c ****          * timer service task has been created/initialised.  If timers have already
 228:../../../../dependencies/freertos/FreeRTOSv10.4.1/FreeRTOS/Source/timers.c ****          * been created then the initialisation will already have been performed. */
 229:../../../../dependencies/freertos/FreeRTOSv10.4.1/FreeRTOS/Source/timers.c ****         prvCheckForValidListAndQueue();
  87              		.loc 1 229 9
  88 000a FFF7FEFF 		bl	prvCheckForValidListAndQueue
 230:../../../../dependencies/freertos/FreeRTOSv10.4.1/FreeRTOS/Source/timers.c **** 
 231:../../../../dependencies/freertos/FreeRTOSv10.4.1/FreeRTOS/Source/timers.c ****         if( xTimerQueue != NULL )
  89              		.loc 1 231 25
  90 000e 114B     		ldr	r3, .L6
  91 0010 1B68     		ldr	r3, [r3]
  92              		.loc 1 231 11
  93 0012 002B     		cmp	r3, #0
  94 0014 0BD0     		beq	.L2
 232:../../../../dependencies/freertos/FreeRTOSv10.4.1/FreeRTOS/Source/timers.c ****         {
 233:../../../../dependencies/freertos/FreeRTOSv10.4.1/FreeRTOS/Source/timers.c ****             #if ( configSUPPORT_STATIC_ALLOCATION == 1 )
 234:../../../../dependencies/freertos/FreeRTOSv10.4.1/FreeRTOS/Source/timers.c ****                 {
 235:../../../../dependencies/freertos/FreeRTOSv10.4.1/FreeRTOS/Source/timers.c ****                     StaticTask_t * pxTimerTaskTCBBuffer = NULL;
 236:../../../../dependencies/freertos/FreeRTOSv10.4.1/FreeRTOS/Source/timers.c ****                     StackType_t * pxTimerTaskStackBuffer = NULL;
 237:../../../../dependencies/freertos/FreeRTOSv10.4.1/FreeRTOS/Source/timers.c ****                     uint32_t ulTimerTaskStackSize;
 238:../../../../dependencies/freertos/FreeRTOSv10.4.1/FreeRTOS/Source/timers.c **** 
 239:../../../../dependencies/freertos/FreeRTOSv10.4.1/FreeRTOS/Source/timers.c ****                     vApplicationGetTimerTaskMemory( &pxTimerTaskTCBBuffer, &pxTimerTaskStackBuffer,
 240:../../../../dependencies/freertos/FreeRTOSv10.4.1/FreeRTOS/Source/timers.c ****                     xTimerTaskHandle = xTaskCreateStatic( prvTimerTask,
 241:../../../../dependencies/freertos/FreeRTOSv10.4.1/FreeRTOS/Source/timers.c ****                                                           configTIMER_SERVICE_TASK_NAME,
 242:../../../../dependencies/freertos/FreeRTOSv10.4.1/FreeRTOS/Source/timers.c ****                                                           ulTimerTaskStackSize,
 243:../../../../dependencies/freertos/FreeRTOSv10.4.1/FreeRTOS/Source/timers.c ****                                                           NULL,
 244:../../../../dependencies/freertos/FreeRTOSv10.4.1/FreeRTOS/Source/timers.c ****                                                           ( ( UBaseType_t ) configTIMER_TASK_PRIORI
 245:../../../../dependencies/freertos/FreeRTOSv10.4.1/FreeRTOS/Source/timers.c ****                                                           pxTimerTaskStackBuffer,
 246:../../../../dependencies/freertos/FreeRTOSv10.4.1/FreeRTOS/Source/timers.c ****                                                           pxTimerTaskTCBBuffer );
 247:../../../../dependencies/freertos/FreeRTOSv10.4.1/FreeRTOS/Source/timers.c **** 
 248:../../../../dependencies/freertos/FreeRTOSv10.4.1/FreeRTOS/Source/timers.c ****                     if( xTimerTaskHandle != NULL )
 249:../../../../dependencies/freertos/FreeRTOSv10.4.1/FreeRTOS/Source/timers.c ****                     {
 250:../../../../dependencies/freertos/FreeRTOSv10.4.1/FreeRTOS/Source/timers.c ****                         xReturn = pdPASS;
 251:../../../../dependencies/freertos/FreeRTOSv10.4.1/FreeRTOS/Source/timers.c ****                     }
 252:../../../../dependencies/freertos/FreeRTOSv10.4.1/FreeRTOS/Source/timers.c ****                 }
ARM GAS  /var/folders/kj/yzqgq53j3dg15vgwwwwgf5s00000gn/T//cc5BPkVE.s 			page 7


 253:../../../../dependencies/freertos/FreeRTOSv10.4.1/FreeRTOS/Source/timers.c ****             #else /* if ( configSUPPORT_STATIC_ALLOCATION == 1 ) */
 254:../../../../dependencies/freertos/FreeRTOSv10.4.1/FreeRTOS/Source/timers.c ****                 {
 255:../../../../dependencies/freertos/FreeRTOSv10.4.1/FreeRTOS/Source/timers.c ****                     xReturn = xTaskCreate( prvTimerTask,
  95              		.loc 1 255 31
  96 0016 104B     		ldr	r3, .L6+4
  97 0018 0193     		str	r3, [sp, #4]
  98 001a 0223     		movs	r3, #2
  99 001c 0093     		str	r3, [sp]
 100 001e 0023     		movs	r3, #0
 101 0020 4FF48072 		mov	r2, #256
 102 0024 0D49     		ldr	r1, .L6+8
 103 0026 0E48     		ldr	r0, .L6+12
 104 0028 FFF7FEFF 		bl	xTaskCreate
 105 002c 7860     		str	r0, [r7, #4]
 106              	.L2:
 256:../../../../dependencies/freertos/FreeRTOSv10.4.1/FreeRTOS/Source/timers.c ****                                            configTIMER_SERVICE_TASK_NAME,
 257:../../../../dependencies/freertos/FreeRTOSv10.4.1/FreeRTOS/Source/timers.c ****                                            configTIMER_TASK_STACK_DEPTH,
 258:../../../../dependencies/freertos/FreeRTOSv10.4.1/FreeRTOS/Source/timers.c ****                                            NULL,
 259:../../../../dependencies/freertos/FreeRTOSv10.4.1/FreeRTOS/Source/timers.c ****                                            ( ( UBaseType_t ) configTIMER_TASK_PRIORITY ) | portPRIV
 260:../../../../dependencies/freertos/FreeRTOSv10.4.1/FreeRTOS/Source/timers.c ****                                            &xTimerTaskHandle );
 261:../../../../dependencies/freertos/FreeRTOSv10.4.1/FreeRTOS/Source/timers.c ****                 }
 262:../../../../dependencies/freertos/FreeRTOSv10.4.1/FreeRTOS/Source/timers.c ****             #endif /* configSUPPORT_STATIC_ALLOCATION */
 263:../../../../dependencies/freertos/FreeRTOSv10.4.1/FreeRTOS/Source/timers.c ****         }
 264:../../../../dependencies/freertos/FreeRTOSv10.4.1/FreeRTOS/Source/timers.c ****         else
 265:../../../../dependencies/freertos/FreeRTOSv10.4.1/FreeRTOS/Source/timers.c ****         {
 266:../../../../dependencies/freertos/FreeRTOSv10.4.1/FreeRTOS/Source/timers.c ****             mtCOVERAGE_TEST_MARKER();
 267:../../../../dependencies/freertos/FreeRTOSv10.4.1/FreeRTOS/Source/timers.c ****         }
 268:../../../../dependencies/freertos/FreeRTOSv10.4.1/FreeRTOS/Source/timers.c **** 
 269:../../../../dependencies/freertos/FreeRTOSv10.4.1/FreeRTOS/Source/timers.c ****         configASSERT( xReturn );
 107              		.loc 1 269 9
 108 002e 7B68     		ldr	r3, [r7, #4]
 109 0030 002B     		cmp	r3, #0
 110 0032 0AD1     		bne	.L3
 111              	.LBB34:
 112              	.LBB35:
 113              		.file 2 "../../../../dependencies/freertos/FreeRTOSv10.4.1/FreeRTOS/Source/portable/GCC/ARM_CM4F/p
   1:../../../../dependencies/freertos/FreeRTOSv10.4.1/FreeRTOS/Source/portable/GCC/ARM_CM4F/portmacro.h **** /*
   2:../../../../dependencies/freertos/FreeRTOSv10.4.1/FreeRTOS/Source/portable/GCC/ARM_CM4F/portmacro.h ****  * FreeRTOS Kernel V10.4.1
   3:../../../../dependencies/freertos/FreeRTOSv10.4.1/FreeRTOS/Source/portable/GCC/ARM_CM4F/portmacro.h ****  * Copyright (C) 2020 Amazon.com, Inc. or its affiliates.  All Rights Reserved.
   4:../../../../dependencies/freertos/FreeRTOSv10.4.1/FreeRTOS/Source/portable/GCC/ARM_CM4F/portmacro.h ****  *
   5:../../../../dependencies/freertos/FreeRTOSv10.4.1/FreeRTOS/Source/portable/GCC/ARM_CM4F/portmacro.h ****  * Permission is hereby granted, free of charge, to any person obtaining a copy of
   6:../../../../dependencies/freertos/FreeRTOSv10.4.1/FreeRTOS/Source/portable/GCC/ARM_CM4F/portmacro.h ****  * this software and associated documentation files (the "Software"), to deal in
   7:../../../../dependencies/freertos/FreeRTOSv10.4.1/FreeRTOS/Source/portable/GCC/ARM_CM4F/portmacro.h ****  * the Software without restriction, including without limitation the rights to
   8:../../../../dependencies/freertos/FreeRTOSv10.4.1/FreeRTOS/Source/portable/GCC/ARM_CM4F/portmacro.h ****  * use, copy, modify, merge, publish, distribute, sublicense, and/or sell copies of
   9:../../../../dependencies/freertos/FreeRTOSv10.4.1/FreeRTOS/Source/portable/GCC/ARM_CM4F/portmacro.h ****  * the Software, and to permit persons to whom the Software is furnished to do so,
  10:../../../../dependencies/freertos/FreeRTOSv10.4.1/FreeRTOS/Source/portable/GCC/ARM_CM4F/portmacro.h ****  * subject to the following conditions:
  11:../../../../dependencies/freertos/FreeRTOSv10.4.1/FreeRTOS/Source/portable/GCC/ARM_CM4F/portmacro.h ****  *
  12:../../../../dependencies/freertos/FreeRTOSv10.4.1/FreeRTOS/Source/portable/GCC/ARM_CM4F/portmacro.h ****  * The above copyright notice and this permission notice shall be included in all
  13:../../../../dependencies/freertos/FreeRTOSv10.4.1/FreeRTOS/Source/portable/GCC/ARM_CM4F/portmacro.h ****  * copies or substantial portions of the Software.
  14:../../../../dependencies/freertos/FreeRTOSv10.4.1/FreeRTOS/Source/portable/GCC/ARM_CM4F/portmacro.h ****  *
  15:../../../../dependencies/freertos/FreeRTOSv10.4.1/FreeRTOS/Source/portable/GCC/ARM_CM4F/portmacro.h ****  * THE SOFTWARE IS PROVIDED "AS IS", WITHOUT WARRANTY OF ANY KIND, EXPRESS OR
  16:../../../../dependencies/freertos/FreeRTOSv10.4.1/FreeRTOS/Source/portable/GCC/ARM_CM4F/portmacro.h ****  * IMPLIED, INCLUDING BUT NOT LIMITED TO THE WARRANTIES OF MERCHANTABILITY, FITNESS
  17:../../../../dependencies/freertos/FreeRTOSv10.4.1/FreeRTOS/Source/portable/GCC/ARM_CM4F/portmacro.h ****  * FOR A PARTICULAR PURPOSE AND NONINFRINGEMENT. IN NO EVENT SHALL THE AUTHORS OR
  18:../../../../dependencies/freertos/FreeRTOSv10.4.1/FreeRTOS/Source/portable/GCC/ARM_CM4F/portmacro.h ****  * COPYRIGHT HOLDERS BE LIABLE FOR ANY CLAIM, DAMAGES OR OTHER LIABILITY, WHETHER
  19:../../../../dependencies/freertos/FreeRTOSv10.4.1/FreeRTOS/Source/portable/GCC/ARM_CM4F/portmacro.h ****  * IN AN ACTION OF CONTRACT, TORT OR OTHERWISE, ARISING FROM, OUT OF OR IN
  20:../../../../dependencies/freertos/FreeRTOSv10.4.1/FreeRTOS/Source/portable/GCC/ARM_CM4F/portmacro.h ****  * CONNECTION WITH THE SOFTWARE OR THE USE OR OTHER DEALINGS IN THE SOFTWARE.
  21:../../../../dependencies/freertos/FreeRTOSv10.4.1/FreeRTOS/Source/portable/GCC/ARM_CM4F/portmacro.h ****  *
ARM GAS  /var/folders/kj/yzqgq53j3dg15vgwwwwgf5s00000gn/T//cc5BPkVE.s 			page 8


  22:../../../../dependencies/freertos/FreeRTOSv10.4.1/FreeRTOS/Source/portable/GCC/ARM_CM4F/portmacro.h ****  * https://www.FreeRTOS.org
  23:../../../../dependencies/freertos/FreeRTOSv10.4.1/FreeRTOS/Source/portable/GCC/ARM_CM4F/portmacro.h ****  * https://github.com/FreeRTOS
  24:../../../../dependencies/freertos/FreeRTOSv10.4.1/FreeRTOS/Source/portable/GCC/ARM_CM4F/portmacro.h ****  *
  25:../../../../dependencies/freertos/FreeRTOSv10.4.1/FreeRTOS/Source/portable/GCC/ARM_CM4F/portmacro.h ****  * 1 tab == 4 spaces!
  26:../../../../dependencies/freertos/FreeRTOSv10.4.1/FreeRTOS/Source/portable/GCC/ARM_CM4F/portmacro.h ****  */
  27:../../../../dependencies/freertos/FreeRTOSv10.4.1/FreeRTOS/Source/portable/GCC/ARM_CM4F/portmacro.h **** 
  28:../../../../dependencies/freertos/FreeRTOSv10.4.1/FreeRTOS/Source/portable/GCC/ARM_CM4F/portmacro.h **** 
  29:../../../../dependencies/freertos/FreeRTOSv10.4.1/FreeRTOS/Source/portable/GCC/ARM_CM4F/portmacro.h **** #ifndef PORTMACRO_H
  30:../../../../dependencies/freertos/FreeRTOSv10.4.1/FreeRTOS/Source/portable/GCC/ARM_CM4F/portmacro.h ****     #define PORTMACRO_H
  31:../../../../dependencies/freertos/FreeRTOSv10.4.1/FreeRTOS/Source/portable/GCC/ARM_CM4F/portmacro.h **** 
  32:../../../../dependencies/freertos/FreeRTOSv10.4.1/FreeRTOS/Source/portable/GCC/ARM_CM4F/portmacro.h ****     #ifdef __cplusplus
  33:../../../../dependencies/freertos/FreeRTOSv10.4.1/FreeRTOS/Source/portable/GCC/ARM_CM4F/portmacro.h ****         extern "C" {
  34:../../../../dependencies/freertos/FreeRTOSv10.4.1/FreeRTOS/Source/portable/GCC/ARM_CM4F/portmacro.h ****     #endif
  35:../../../../dependencies/freertos/FreeRTOSv10.4.1/FreeRTOS/Source/portable/GCC/ARM_CM4F/portmacro.h **** 
  36:../../../../dependencies/freertos/FreeRTOSv10.4.1/FreeRTOS/Source/portable/GCC/ARM_CM4F/portmacro.h **** /*-----------------------------------------------------------
  37:../../../../dependencies/freertos/FreeRTOSv10.4.1/FreeRTOS/Source/portable/GCC/ARM_CM4F/portmacro.h ****  * Port specific definitions.
  38:../../../../dependencies/freertos/FreeRTOSv10.4.1/FreeRTOS/Source/portable/GCC/ARM_CM4F/portmacro.h ****  *
  39:../../../../dependencies/freertos/FreeRTOSv10.4.1/FreeRTOS/Source/portable/GCC/ARM_CM4F/portmacro.h ****  * The settings in this file configure FreeRTOS correctly for the
  40:../../../../dependencies/freertos/FreeRTOSv10.4.1/FreeRTOS/Source/portable/GCC/ARM_CM4F/portmacro.h ****  * given hardware and compiler.
  41:../../../../dependencies/freertos/FreeRTOSv10.4.1/FreeRTOS/Source/portable/GCC/ARM_CM4F/portmacro.h ****  *
  42:../../../../dependencies/freertos/FreeRTOSv10.4.1/FreeRTOS/Source/portable/GCC/ARM_CM4F/portmacro.h ****  * These settings should not be altered.
  43:../../../../dependencies/freertos/FreeRTOSv10.4.1/FreeRTOS/Source/portable/GCC/ARM_CM4F/portmacro.h ****  *-----------------------------------------------------------
  44:../../../../dependencies/freertos/FreeRTOSv10.4.1/FreeRTOS/Source/portable/GCC/ARM_CM4F/portmacro.h ****  */
  45:../../../../dependencies/freertos/FreeRTOSv10.4.1/FreeRTOS/Source/portable/GCC/ARM_CM4F/portmacro.h **** 
  46:../../../../dependencies/freertos/FreeRTOSv10.4.1/FreeRTOS/Source/portable/GCC/ARM_CM4F/portmacro.h **** /* Type definitions. */
  47:../../../../dependencies/freertos/FreeRTOSv10.4.1/FreeRTOS/Source/portable/GCC/ARM_CM4F/portmacro.h ****     #define portCHAR          char
  48:../../../../dependencies/freertos/FreeRTOSv10.4.1/FreeRTOS/Source/portable/GCC/ARM_CM4F/portmacro.h ****     #define portFLOAT         float
  49:../../../../dependencies/freertos/FreeRTOSv10.4.1/FreeRTOS/Source/portable/GCC/ARM_CM4F/portmacro.h ****     #define portDOUBLE        double
  50:../../../../dependencies/freertos/FreeRTOSv10.4.1/FreeRTOS/Source/portable/GCC/ARM_CM4F/portmacro.h ****     #define portLONG          long
  51:../../../../dependencies/freertos/FreeRTOSv10.4.1/FreeRTOS/Source/portable/GCC/ARM_CM4F/portmacro.h ****     #define portSHORT         short
  52:../../../../dependencies/freertos/FreeRTOSv10.4.1/FreeRTOS/Source/portable/GCC/ARM_CM4F/portmacro.h ****     #define portSTACK_TYPE    uint32_t
  53:../../../../dependencies/freertos/FreeRTOSv10.4.1/FreeRTOS/Source/portable/GCC/ARM_CM4F/portmacro.h ****     #define portBASE_TYPE     long
  54:../../../../dependencies/freertos/FreeRTOSv10.4.1/FreeRTOS/Source/portable/GCC/ARM_CM4F/portmacro.h **** 
  55:../../../../dependencies/freertos/FreeRTOSv10.4.1/FreeRTOS/Source/portable/GCC/ARM_CM4F/portmacro.h ****     typedef portSTACK_TYPE   StackType_t;
  56:../../../../dependencies/freertos/FreeRTOSv10.4.1/FreeRTOS/Source/portable/GCC/ARM_CM4F/portmacro.h ****     typedef long             BaseType_t;
  57:../../../../dependencies/freertos/FreeRTOSv10.4.1/FreeRTOS/Source/portable/GCC/ARM_CM4F/portmacro.h ****     typedef unsigned long    UBaseType_t;
  58:../../../../dependencies/freertos/FreeRTOSv10.4.1/FreeRTOS/Source/portable/GCC/ARM_CM4F/portmacro.h **** 
  59:../../../../dependencies/freertos/FreeRTOSv10.4.1/FreeRTOS/Source/portable/GCC/ARM_CM4F/portmacro.h ****     #if ( configUSE_16_BIT_TICKS == 1 )
  60:../../../../dependencies/freertos/FreeRTOSv10.4.1/FreeRTOS/Source/portable/GCC/ARM_CM4F/portmacro.h ****         typedef uint16_t     TickType_t;
  61:../../../../dependencies/freertos/FreeRTOSv10.4.1/FreeRTOS/Source/portable/GCC/ARM_CM4F/portmacro.h ****         #define portMAX_DELAY              ( TickType_t ) 0xffff
  62:../../../../dependencies/freertos/FreeRTOSv10.4.1/FreeRTOS/Source/portable/GCC/ARM_CM4F/portmacro.h ****     #else
  63:../../../../dependencies/freertos/FreeRTOSv10.4.1/FreeRTOS/Source/portable/GCC/ARM_CM4F/portmacro.h ****         typedef uint32_t     TickType_t;
  64:../../../../dependencies/freertos/FreeRTOSv10.4.1/FreeRTOS/Source/portable/GCC/ARM_CM4F/portmacro.h ****         #define portMAX_DELAY              ( TickType_t ) 0xffffffffUL
  65:../../../../dependencies/freertos/FreeRTOSv10.4.1/FreeRTOS/Source/portable/GCC/ARM_CM4F/portmacro.h **** 
  66:../../../../dependencies/freertos/FreeRTOSv10.4.1/FreeRTOS/Source/portable/GCC/ARM_CM4F/portmacro.h **** /* 32-bit tick type on a 32-bit architecture, so reads of the tick count do
  67:../../../../dependencies/freertos/FreeRTOSv10.4.1/FreeRTOS/Source/portable/GCC/ARM_CM4F/portmacro.h ****  * not need to be guarded with a critical section. */
  68:../../../../dependencies/freertos/FreeRTOSv10.4.1/FreeRTOS/Source/portable/GCC/ARM_CM4F/portmacro.h ****         #define portTICK_TYPE_IS_ATOMIC    1
  69:../../../../dependencies/freertos/FreeRTOSv10.4.1/FreeRTOS/Source/portable/GCC/ARM_CM4F/portmacro.h ****     #endif
  70:../../../../dependencies/freertos/FreeRTOSv10.4.1/FreeRTOS/Source/portable/GCC/ARM_CM4F/portmacro.h **** /*-----------------------------------------------------------*/
  71:../../../../dependencies/freertos/FreeRTOSv10.4.1/FreeRTOS/Source/portable/GCC/ARM_CM4F/portmacro.h **** 
  72:../../../../dependencies/freertos/FreeRTOSv10.4.1/FreeRTOS/Source/portable/GCC/ARM_CM4F/portmacro.h **** /* Architecture specifics. */
  73:../../../../dependencies/freertos/FreeRTOSv10.4.1/FreeRTOS/Source/portable/GCC/ARM_CM4F/portmacro.h ****     #define portSTACK_GROWTH      ( -1 )
  74:../../../../dependencies/freertos/FreeRTOSv10.4.1/FreeRTOS/Source/portable/GCC/ARM_CM4F/portmacro.h ****     #define portTICK_PERIOD_MS    ( ( TickType_t ) 1000 / configTICK_RATE_HZ )
  75:../../../../dependencies/freertos/FreeRTOSv10.4.1/FreeRTOS/Source/portable/GCC/ARM_CM4F/portmacro.h ****     #define portBYTE_ALIGNMENT    8
  76:../../../../dependencies/freertos/FreeRTOSv10.4.1/FreeRTOS/Source/portable/GCC/ARM_CM4F/portmacro.h ****     #define portDONT_DISCARD      __attribute__( ( used ) )
  77:../../../../dependencies/freertos/FreeRTOSv10.4.1/FreeRTOS/Source/portable/GCC/ARM_CM4F/portmacro.h **** /*-----------------------------------------------------------*/
  78:../../../../dependencies/freertos/FreeRTOSv10.4.1/FreeRTOS/Source/portable/GCC/ARM_CM4F/portmacro.h **** 
ARM GAS  /var/folders/kj/yzqgq53j3dg15vgwwwwgf5s00000gn/T//cc5BPkVE.s 			page 9


  79:../../../../dependencies/freertos/FreeRTOSv10.4.1/FreeRTOS/Source/portable/GCC/ARM_CM4F/portmacro.h **** /* Scheduler utilities. */
  80:../../../../dependencies/freertos/FreeRTOSv10.4.1/FreeRTOS/Source/portable/GCC/ARM_CM4F/portmacro.h ****     #define portYIELD()                                 \
  81:../../../../dependencies/freertos/FreeRTOSv10.4.1/FreeRTOS/Source/portable/GCC/ARM_CM4F/portmacro.h ****     {                                                   \
  82:../../../../dependencies/freertos/FreeRTOSv10.4.1/FreeRTOS/Source/portable/GCC/ARM_CM4F/portmacro.h ****         /* Set a PendSV to request a context switch. */ \
  83:../../../../dependencies/freertos/FreeRTOSv10.4.1/FreeRTOS/Source/portable/GCC/ARM_CM4F/portmacro.h ****         portNVIC_INT_CTRL_REG = portNVIC_PENDSVSET_BIT; \
  84:../../../../dependencies/freertos/FreeRTOSv10.4.1/FreeRTOS/Source/portable/GCC/ARM_CM4F/portmacro.h ****                                                         \
  85:../../../../dependencies/freertos/FreeRTOSv10.4.1/FreeRTOS/Source/portable/GCC/ARM_CM4F/portmacro.h ****         /* Barriers are normally not required but do ensure the code is completely \
  86:../../../../dependencies/freertos/FreeRTOSv10.4.1/FreeRTOS/Source/portable/GCC/ARM_CM4F/portmacro.h ****          * within the specified behaviour for the architecture. */ \
  87:../../../../dependencies/freertos/FreeRTOSv10.4.1/FreeRTOS/Source/portable/GCC/ARM_CM4F/portmacro.h ****         __asm volatile ( "dsb" ::: "memory" );                     \
  88:../../../../dependencies/freertos/FreeRTOSv10.4.1/FreeRTOS/Source/portable/GCC/ARM_CM4F/portmacro.h ****         __asm volatile ( "isb" );                                  \
  89:../../../../dependencies/freertos/FreeRTOSv10.4.1/FreeRTOS/Source/portable/GCC/ARM_CM4F/portmacro.h ****     }
  90:../../../../dependencies/freertos/FreeRTOSv10.4.1/FreeRTOS/Source/portable/GCC/ARM_CM4F/portmacro.h **** 
  91:../../../../dependencies/freertos/FreeRTOSv10.4.1/FreeRTOS/Source/portable/GCC/ARM_CM4F/portmacro.h ****     #define portNVIC_INT_CTRL_REG     ( *( ( volatile uint32_t * ) 0xe000ed04 ) )
  92:../../../../dependencies/freertos/FreeRTOSv10.4.1/FreeRTOS/Source/portable/GCC/ARM_CM4F/portmacro.h ****     #define portNVIC_PENDSVSET_BIT    ( 1UL << 28UL )
  93:../../../../dependencies/freertos/FreeRTOSv10.4.1/FreeRTOS/Source/portable/GCC/ARM_CM4F/portmacro.h ****     #define portEND_SWITCHING_ISR( xSwitchRequired )    if( xSwitchRequired != pdFALSE ) portYIELD(
  94:../../../../dependencies/freertos/FreeRTOSv10.4.1/FreeRTOS/Source/portable/GCC/ARM_CM4F/portmacro.h ****     #define portYIELD_FROM_ISR( x )                     portEND_SWITCHING_ISR( x )
  95:../../../../dependencies/freertos/FreeRTOSv10.4.1/FreeRTOS/Source/portable/GCC/ARM_CM4F/portmacro.h **** /*-----------------------------------------------------------*/
  96:../../../../dependencies/freertos/FreeRTOSv10.4.1/FreeRTOS/Source/portable/GCC/ARM_CM4F/portmacro.h **** 
  97:../../../../dependencies/freertos/FreeRTOSv10.4.1/FreeRTOS/Source/portable/GCC/ARM_CM4F/portmacro.h **** /* Critical section management. */
  98:../../../../dependencies/freertos/FreeRTOSv10.4.1/FreeRTOS/Source/portable/GCC/ARM_CM4F/portmacro.h ****     extern void vPortEnterCritical( void );
  99:../../../../dependencies/freertos/FreeRTOSv10.4.1/FreeRTOS/Source/portable/GCC/ARM_CM4F/portmacro.h ****     extern void vPortExitCritical( void );
 100:../../../../dependencies/freertos/FreeRTOSv10.4.1/FreeRTOS/Source/portable/GCC/ARM_CM4F/portmacro.h ****     #define portSET_INTERRUPT_MASK_FROM_ISR()         ulPortRaiseBASEPRI()
 101:../../../../dependencies/freertos/FreeRTOSv10.4.1/FreeRTOS/Source/portable/GCC/ARM_CM4F/portmacro.h ****     #define portCLEAR_INTERRUPT_MASK_FROM_ISR( x )    vPortSetBASEPRI( x )
 102:../../../../dependencies/freertos/FreeRTOSv10.4.1/FreeRTOS/Source/portable/GCC/ARM_CM4F/portmacro.h ****     #define portDISABLE_INTERRUPTS()                  vPortRaiseBASEPRI()
 103:../../../../dependencies/freertos/FreeRTOSv10.4.1/FreeRTOS/Source/portable/GCC/ARM_CM4F/portmacro.h ****     #define portENABLE_INTERRUPTS()                   vPortSetBASEPRI( 0 )
 104:../../../../dependencies/freertos/FreeRTOSv10.4.1/FreeRTOS/Source/portable/GCC/ARM_CM4F/portmacro.h ****     #define portENTER_CRITICAL()                      vPortEnterCritical()
 105:../../../../dependencies/freertos/FreeRTOSv10.4.1/FreeRTOS/Source/portable/GCC/ARM_CM4F/portmacro.h ****     #define portEXIT_CRITICAL()                       vPortExitCritical()
 106:../../../../dependencies/freertos/FreeRTOSv10.4.1/FreeRTOS/Source/portable/GCC/ARM_CM4F/portmacro.h **** 
 107:../../../../dependencies/freertos/FreeRTOSv10.4.1/FreeRTOS/Source/portable/GCC/ARM_CM4F/portmacro.h **** /*-----------------------------------------------------------*/
 108:../../../../dependencies/freertos/FreeRTOSv10.4.1/FreeRTOS/Source/portable/GCC/ARM_CM4F/portmacro.h **** 
 109:../../../../dependencies/freertos/FreeRTOSv10.4.1/FreeRTOS/Source/portable/GCC/ARM_CM4F/portmacro.h **** /* Task function macros as described on the FreeRTOS.org WEB site.  These are
 110:../../../../dependencies/freertos/FreeRTOSv10.4.1/FreeRTOS/Source/portable/GCC/ARM_CM4F/portmacro.h ****  * not necessary for to use this port.  They are defined so the common demo files
 111:../../../../dependencies/freertos/FreeRTOSv10.4.1/FreeRTOS/Source/portable/GCC/ARM_CM4F/portmacro.h ****  * (which build with all the ports) will build. */
 112:../../../../dependencies/freertos/FreeRTOSv10.4.1/FreeRTOS/Source/portable/GCC/ARM_CM4F/portmacro.h ****     #define portTASK_FUNCTION_PROTO( vFunction, pvParameters )    void vFunction( void * pvParamete
 113:../../../../dependencies/freertos/FreeRTOSv10.4.1/FreeRTOS/Source/portable/GCC/ARM_CM4F/portmacro.h ****     #define portTASK_FUNCTION( vFunction, pvParameters )          void vFunction( void * pvParamete
 114:../../../../dependencies/freertos/FreeRTOSv10.4.1/FreeRTOS/Source/portable/GCC/ARM_CM4F/portmacro.h **** /*-----------------------------------------------------------*/
 115:../../../../dependencies/freertos/FreeRTOSv10.4.1/FreeRTOS/Source/portable/GCC/ARM_CM4F/portmacro.h **** 
 116:../../../../dependencies/freertos/FreeRTOSv10.4.1/FreeRTOS/Source/portable/GCC/ARM_CM4F/portmacro.h **** /* Tickless idle/low power functionality. */
 117:../../../../dependencies/freertos/FreeRTOSv10.4.1/FreeRTOS/Source/portable/GCC/ARM_CM4F/portmacro.h ****     #ifndef portSUPPRESS_TICKS_AND_SLEEP
 118:../../../../dependencies/freertos/FreeRTOSv10.4.1/FreeRTOS/Source/portable/GCC/ARM_CM4F/portmacro.h ****         extern void vPortSuppressTicksAndSleep( TickType_t xExpectedIdleTime );
 119:../../../../dependencies/freertos/FreeRTOSv10.4.1/FreeRTOS/Source/portable/GCC/ARM_CM4F/portmacro.h ****         #define portSUPPRESS_TICKS_AND_SLEEP( xExpectedIdleTime )    vPortSuppressTicksAndSleep( xE
 120:../../../../dependencies/freertos/FreeRTOSv10.4.1/FreeRTOS/Source/portable/GCC/ARM_CM4F/portmacro.h ****     #endif
 121:../../../../dependencies/freertos/FreeRTOSv10.4.1/FreeRTOS/Source/portable/GCC/ARM_CM4F/portmacro.h **** /*-----------------------------------------------------------*/
 122:../../../../dependencies/freertos/FreeRTOSv10.4.1/FreeRTOS/Source/portable/GCC/ARM_CM4F/portmacro.h **** 
 123:../../../../dependencies/freertos/FreeRTOSv10.4.1/FreeRTOS/Source/portable/GCC/ARM_CM4F/portmacro.h **** /* Architecture specific optimisations. */
 124:../../../../dependencies/freertos/FreeRTOSv10.4.1/FreeRTOS/Source/portable/GCC/ARM_CM4F/portmacro.h ****     #ifndef configUSE_PORT_OPTIMISED_TASK_SELECTION
 125:../../../../dependencies/freertos/FreeRTOSv10.4.1/FreeRTOS/Source/portable/GCC/ARM_CM4F/portmacro.h ****         #define configUSE_PORT_OPTIMISED_TASK_SELECTION    1
 126:../../../../dependencies/freertos/FreeRTOSv10.4.1/FreeRTOS/Source/portable/GCC/ARM_CM4F/portmacro.h ****     #endif
 127:../../../../dependencies/freertos/FreeRTOSv10.4.1/FreeRTOS/Source/portable/GCC/ARM_CM4F/portmacro.h **** 
 128:../../../../dependencies/freertos/FreeRTOSv10.4.1/FreeRTOS/Source/portable/GCC/ARM_CM4F/portmacro.h ****     #if configUSE_PORT_OPTIMISED_TASK_SELECTION == 1
 129:../../../../dependencies/freertos/FreeRTOSv10.4.1/FreeRTOS/Source/portable/GCC/ARM_CM4F/portmacro.h **** 
 130:../../../../dependencies/freertos/FreeRTOSv10.4.1/FreeRTOS/Source/portable/GCC/ARM_CM4F/portmacro.h **** /* Generic helper function. */
 131:../../../../dependencies/freertos/FreeRTOSv10.4.1/FreeRTOS/Source/portable/GCC/ARM_CM4F/portmacro.h ****         __attribute__( ( always_inline ) ) static inline uint8_t ucPortCountLeadingZeros( uint32_t 
 132:../../../../dependencies/freertos/FreeRTOSv10.4.1/FreeRTOS/Source/portable/GCC/ARM_CM4F/portmacro.h ****         {
 133:../../../../dependencies/freertos/FreeRTOSv10.4.1/FreeRTOS/Source/portable/GCC/ARM_CM4F/portmacro.h ****             uint8_t ucReturn;
 134:../../../../dependencies/freertos/FreeRTOSv10.4.1/FreeRTOS/Source/portable/GCC/ARM_CM4F/portmacro.h **** 
 135:../../../../dependencies/freertos/FreeRTOSv10.4.1/FreeRTOS/Source/portable/GCC/ARM_CM4F/portmacro.h ****             __asm volatile ( "clz %0, %1" : "=r" ( ucReturn ) : "r" ( ulBitmap ) : "memory" );
ARM GAS  /var/folders/kj/yzqgq53j3dg15vgwwwwgf5s00000gn/T//cc5BPkVE.s 			page 10


 136:../../../../dependencies/freertos/FreeRTOSv10.4.1/FreeRTOS/Source/portable/GCC/ARM_CM4F/portmacro.h **** 
 137:../../../../dependencies/freertos/FreeRTOSv10.4.1/FreeRTOS/Source/portable/GCC/ARM_CM4F/portmacro.h ****             return ucReturn;
 138:../../../../dependencies/freertos/FreeRTOSv10.4.1/FreeRTOS/Source/portable/GCC/ARM_CM4F/portmacro.h ****         }
 139:../../../../dependencies/freertos/FreeRTOSv10.4.1/FreeRTOS/Source/portable/GCC/ARM_CM4F/portmacro.h **** 
 140:../../../../dependencies/freertos/FreeRTOSv10.4.1/FreeRTOS/Source/portable/GCC/ARM_CM4F/portmacro.h **** /* Check the configuration. */
 141:../../../../dependencies/freertos/FreeRTOSv10.4.1/FreeRTOS/Source/portable/GCC/ARM_CM4F/portmacro.h ****         #if ( configMAX_PRIORITIES > 32 )
 142:../../../../dependencies/freertos/FreeRTOSv10.4.1/FreeRTOS/Source/portable/GCC/ARM_CM4F/portmacro.h ****             #error configUSE_PORT_OPTIMISED_TASK_SELECTION can only be set to 1 when configMAX_PRIO
 143:../../../../dependencies/freertos/FreeRTOSv10.4.1/FreeRTOS/Source/portable/GCC/ARM_CM4F/portmacro.h ****         #endif
 144:../../../../dependencies/freertos/FreeRTOSv10.4.1/FreeRTOS/Source/portable/GCC/ARM_CM4F/portmacro.h **** 
 145:../../../../dependencies/freertos/FreeRTOSv10.4.1/FreeRTOS/Source/portable/GCC/ARM_CM4F/portmacro.h **** /* Store/clear the ready priorities in a bit map. */
 146:../../../../dependencies/freertos/FreeRTOSv10.4.1/FreeRTOS/Source/portable/GCC/ARM_CM4F/portmacro.h ****         #define portRECORD_READY_PRIORITY( uxPriority, uxReadyPriorities )    ( uxReadyPriorities )
 147:../../../../dependencies/freertos/FreeRTOSv10.4.1/FreeRTOS/Source/portable/GCC/ARM_CM4F/portmacro.h ****         #define portRESET_READY_PRIORITY( uxPriority, uxReadyPriorities )     ( uxReadyPriorities )
 148:../../../../dependencies/freertos/FreeRTOSv10.4.1/FreeRTOS/Source/portable/GCC/ARM_CM4F/portmacro.h **** 
 149:../../../../dependencies/freertos/FreeRTOSv10.4.1/FreeRTOS/Source/portable/GCC/ARM_CM4F/portmacro.h **** /*-----------------------------------------------------------*/
 150:../../../../dependencies/freertos/FreeRTOSv10.4.1/FreeRTOS/Source/portable/GCC/ARM_CM4F/portmacro.h **** 
 151:../../../../dependencies/freertos/FreeRTOSv10.4.1/FreeRTOS/Source/portable/GCC/ARM_CM4F/portmacro.h ****         #define portGET_HIGHEST_PRIORITY( uxTopPriority, uxReadyPriorities )    uxTopPriority = ( 3
 152:../../../../dependencies/freertos/FreeRTOSv10.4.1/FreeRTOS/Source/portable/GCC/ARM_CM4F/portmacro.h **** 
 153:../../../../dependencies/freertos/FreeRTOSv10.4.1/FreeRTOS/Source/portable/GCC/ARM_CM4F/portmacro.h ****     #endif /* configUSE_PORT_OPTIMISED_TASK_SELECTION */
 154:../../../../dependencies/freertos/FreeRTOSv10.4.1/FreeRTOS/Source/portable/GCC/ARM_CM4F/portmacro.h **** 
 155:../../../../dependencies/freertos/FreeRTOSv10.4.1/FreeRTOS/Source/portable/GCC/ARM_CM4F/portmacro.h **** /*-----------------------------------------------------------*/
 156:../../../../dependencies/freertos/FreeRTOSv10.4.1/FreeRTOS/Source/portable/GCC/ARM_CM4F/portmacro.h **** 
 157:../../../../dependencies/freertos/FreeRTOSv10.4.1/FreeRTOS/Source/portable/GCC/ARM_CM4F/portmacro.h ****     #ifdef configASSERT
 158:../../../../dependencies/freertos/FreeRTOSv10.4.1/FreeRTOS/Source/portable/GCC/ARM_CM4F/portmacro.h ****         void vPortValidateInterruptPriority( void );
 159:../../../../dependencies/freertos/FreeRTOSv10.4.1/FreeRTOS/Source/portable/GCC/ARM_CM4F/portmacro.h ****         #define portASSERT_IF_INTERRUPT_PRIORITY_INVALID()    vPortValidateInterruptPriority()
 160:../../../../dependencies/freertos/FreeRTOSv10.4.1/FreeRTOS/Source/portable/GCC/ARM_CM4F/portmacro.h ****     #endif
 161:../../../../dependencies/freertos/FreeRTOSv10.4.1/FreeRTOS/Source/portable/GCC/ARM_CM4F/portmacro.h **** 
 162:../../../../dependencies/freertos/FreeRTOSv10.4.1/FreeRTOS/Source/portable/GCC/ARM_CM4F/portmacro.h **** /* portNOP() is not required by this port. */
 163:../../../../dependencies/freertos/FreeRTOSv10.4.1/FreeRTOS/Source/portable/GCC/ARM_CM4F/portmacro.h ****     #define portNOP()
 164:../../../../dependencies/freertos/FreeRTOSv10.4.1/FreeRTOS/Source/portable/GCC/ARM_CM4F/portmacro.h **** 
 165:../../../../dependencies/freertos/FreeRTOSv10.4.1/FreeRTOS/Source/portable/GCC/ARM_CM4F/portmacro.h ****     #define portINLINE              __inline
 166:../../../../dependencies/freertos/FreeRTOSv10.4.1/FreeRTOS/Source/portable/GCC/ARM_CM4F/portmacro.h **** 
 167:../../../../dependencies/freertos/FreeRTOSv10.4.1/FreeRTOS/Source/portable/GCC/ARM_CM4F/portmacro.h ****     #ifndef portFORCE_INLINE
 168:../../../../dependencies/freertos/FreeRTOSv10.4.1/FreeRTOS/Source/portable/GCC/ARM_CM4F/portmacro.h ****         #define portFORCE_INLINE    inline __attribute__( ( always_inline ) )
 169:../../../../dependencies/freertos/FreeRTOSv10.4.1/FreeRTOS/Source/portable/GCC/ARM_CM4F/portmacro.h ****     #endif
 170:../../../../dependencies/freertos/FreeRTOSv10.4.1/FreeRTOS/Source/portable/GCC/ARM_CM4F/portmacro.h **** 
 171:../../../../dependencies/freertos/FreeRTOSv10.4.1/FreeRTOS/Source/portable/GCC/ARM_CM4F/portmacro.h ****     portFORCE_INLINE static BaseType_t xPortIsInsideInterrupt( void )
 172:../../../../dependencies/freertos/FreeRTOSv10.4.1/FreeRTOS/Source/portable/GCC/ARM_CM4F/portmacro.h ****     {
 173:../../../../dependencies/freertos/FreeRTOSv10.4.1/FreeRTOS/Source/portable/GCC/ARM_CM4F/portmacro.h ****         uint32_t ulCurrentInterrupt;
 174:../../../../dependencies/freertos/FreeRTOSv10.4.1/FreeRTOS/Source/portable/GCC/ARM_CM4F/portmacro.h ****         BaseType_t xReturn;
 175:../../../../dependencies/freertos/FreeRTOSv10.4.1/FreeRTOS/Source/portable/GCC/ARM_CM4F/portmacro.h **** 
 176:../../../../dependencies/freertos/FreeRTOSv10.4.1/FreeRTOS/Source/portable/GCC/ARM_CM4F/portmacro.h ****         /* Obtain the number of the currently executing interrupt. */
 177:../../../../dependencies/freertos/FreeRTOSv10.4.1/FreeRTOS/Source/portable/GCC/ARM_CM4F/portmacro.h ****         __asm volatile ( "mrs %0, ipsr" : "=r" ( ulCurrentInterrupt )::"memory" );
 178:../../../../dependencies/freertos/FreeRTOSv10.4.1/FreeRTOS/Source/portable/GCC/ARM_CM4F/portmacro.h **** 
 179:../../../../dependencies/freertos/FreeRTOSv10.4.1/FreeRTOS/Source/portable/GCC/ARM_CM4F/portmacro.h ****         if( ulCurrentInterrupt == 0 )
 180:../../../../dependencies/freertos/FreeRTOSv10.4.1/FreeRTOS/Source/portable/GCC/ARM_CM4F/portmacro.h ****         {
 181:../../../../dependencies/freertos/FreeRTOSv10.4.1/FreeRTOS/Source/portable/GCC/ARM_CM4F/portmacro.h ****             xReturn = pdFALSE;
 182:../../../../dependencies/freertos/FreeRTOSv10.4.1/FreeRTOS/Source/portable/GCC/ARM_CM4F/portmacro.h ****         }
 183:../../../../dependencies/freertos/FreeRTOSv10.4.1/FreeRTOS/Source/portable/GCC/ARM_CM4F/portmacro.h ****         else
 184:../../../../dependencies/freertos/FreeRTOSv10.4.1/FreeRTOS/Source/portable/GCC/ARM_CM4F/portmacro.h ****         {
 185:../../../../dependencies/freertos/FreeRTOSv10.4.1/FreeRTOS/Source/portable/GCC/ARM_CM4F/portmacro.h ****             xReturn = pdTRUE;
 186:../../../../dependencies/freertos/FreeRTOSv10.4.1/FreeRTOS/Source/portable/GCC/ARM_CM4F/portmacro.h ****         }
 187:../../../../dependencies/freertos/FreeRTOSv10.4.1/FreeRTOS/Source/portable/GCC/ARM_CM4F/portmacro.h **** 
 188:../../../../dependencies/freertos/FreeRTOSv10.4.1/FreeRTOS/Source/portable/GCC/ARM_CM4F/portmacro.h ****         return xReturn;
 189:../../../../dependencies/freertos/FreeRTOSv10.4.1/FreeRTOS/Source/portable/GCC/ARM_CM4F/portmacro.h ****     }
 190:../../../../dependencies/freertos/FreeRTOSv10.4.1/FreeRTOS/Source/portable/GCC/ARM_CM4F/portmacro.h **** 
 191:../../../../dependencies/freertos/FreeRTOSv10.4.1/FreeRTOS/Source/portable/GCC/ARM_CM4F/portmacro.h **** /*-----------------------------------------------------------*/
 192:../../../../dependencies/freertos/FreeRTOSv10.4.1/FreeRTOS/Source/portable/GCC/ARM_CM4F/portmacro.h **** 
ARM GAS  /var/folders/kj/yzqgq53j3dg15vgwwwwgf5s00000gn/T//cc5BPkVE.s 			page 11


 193:../../../../dependencies/freertos/FreeRTOSv10.4.1/FreeRTOS/Source/portable/GCC/ARM_CM4F/portmacro.h ****     portFORCE_INLINE static void vPortRaiseBASEPRI( void )
 194:../../../../dependencies/freertos/FreeRTOSv10.4.1/FreeRTOS/Source/portable/GCC/ARM_CM4F/portmacro.h ****     {
 195:../../../../dependencies/freertos/FreeRTOSv10.4.1/FreeRTOS/Source/portable/GCC/ARM_CM4F/portmacro.h ****         uint32_t ulNewBASEPRI;
 196:../../../../dependencies/freertos/FreeRTOSv10.4.1/FreeRTOS/Source/portable/GCC/ARM_CM4F/portmacro.h **** 
 197:../../../../dependencies/freertos/FreeRTOSv10.4.1/FreeRTOS/Source/portable/GCC/ARM_CM4F/portmacro.h ****         __asm volatile
 114              		.loc 2 197 9
 115              		.syntax unified
 116              	@ 197 "../../../../dependencies/freertos/FreeRTOSv10.4.1/FreeRTOS/Source/portable/GCC/ARM_CM4F/port
 117 0034 4FF05003 			mov r3, #80												
 118 0038 83F31188 		msr basepri, r3											
 119 003c BFF36F8F 		isb														
 120 0040 BFF34F8F 		dsb														
 121              	
 122              	@ 0 "" 2
 123              		.thumb
 124              		.syntax unified
 125 0044 3B60     		str	r3, [r7]
 198:../../../../dependencies/freertos/FreeRTOSv10.4.1/FreeRTOS/Source/portable/GCC/ARM_CM4F/portmacro.h ****         (
 199:../../../../dependencies/freertos/FreeRTOSv10.4.1/FreeRTOS/Source/portable/GCC/ARM_CM4F/portmacro.h ****             "	mov %0, %1												\n"\
 200:../../../../dependencies/freertos/FreeRTOSv10.4.1/FreeRTOS/Source/portable/GCC/ARM_CM4F/portmacro.h ****             "	msr basepri, %0											\n"\
 201:../../../../dependencies/freertos/FreeRTOSv10.4.1/FreeRTOS/Source/portable/GCC/ARM_CM4F/portmacro.h ****             "	isb														\n"\
 202:../../../../dependencies/freertos/FreeRTOSv10.4.1/FreeRTOS/Source/portable/GCC/ARM_CM4F/portmacro.h ****             "	dsb														\n"\
 203:../../../../dependencies/freertos/FreeRTOSv10.4.1/FreeRTOS/Source/portable/GCC/ARM_CM4F/portmacro.h ****             : "=r" ( ulNewBASEPRI ) : "i" ( configMAX_SYSCALL_INTERRUPT_PRIORITY ) : "memory"
 204:../../../../dependencies/freertos/FreeRTOSv10.4.1/FreeRTOS/Source/portable/GCC/ARM_CM4F/portmacro.h ****         );
 205:../../../../dependencies/freertos/FreeRTOSv10.4.1/FreeRTOS/Source/portable/GCC/ARM_CM4F/portmacro.h ****     }
 126              		.loc 2 205 5
 127 0046 00BF     		nop
 128              	.L4:
 129              	.LBE35:
 130              	.LBE34:
 131              		.loc 1 269 9 discriminator 1
 132 0048 FEE7     		b	.L4
 133              	.L3:
 270:../../../../dependencies/freertos/FreeRTOSv10.4.1/FreeRTOS/Source/timers.c ****         return xReturn;
 134              		.loc 1 270 16
 135 004a 7B68     		ldr	r3, [r7, #4]
 271:../../../../dependencies/freertos/FreeRTOSv10.4.1/FreeRTOS/Source/timers.c ****     }
 136              		.loc 1 271 5
 137 004c 1846     		mov	r0, r3
 138 004e 0837     		adds	r7, r7, #8
 139              	.LCFI3:
 140              		.cfi_def_cfa_offset 8
 141 0050 BD46     		mov	sp, r7
 142              	.LCFI4:
 143              		.cfi_def_cfa_register 13
 144              		@ sp needed
 145 0052 80BD     		pop	{r7, pc}
 146              	.L7:
 147              		.align	2
 148              	.L6:
 149 0054 00000000 		.word	xTimerQueue
 150 0058 00000000 		.word	xTimerTaskHandle
 151 005c 00000000 		.word	.LC0
 152 0060 00000000 		.word	prvTimerTask
 153              		.cfi_endproc
 154              	.LFE5:
 156              		.section	.text.xTimerCreate,"ax",%progbits
ARM GAS  /var/folders/kj/yzqgq53j3dg15vgwwwwgf5s00000gn/T//cc5BPkVE.s 			page 12


 157              		.align	1
 158              		.global	xTimerCreate
 159              		.syntax unified
 160              		.thumb
 161              		.thumb_func
 162              		.fpu fpv4-sp-d16
 164              	xTimerCreate:
 165              	.LFB6:
 272:../../../../dependencies/freertos/FreeRTOSv10.4.1/FreeRTOS/Source/timers.c **** /*-----------------------------------------------------------*/
 273:../../../../dependencies/freertos/FreeRTOSv10.4.1/FreeRTOS/Source/timers.c **** 
 274:../../../../dependencies/freertos/FreeRTOSv10.4.1/FreeRTOS/Source/timers.c ****     #if ( configSUPPORT_DYNAMIC_ALLOCATION == 1 )
 275:../../../../dependencies/freertos/FreeRTOSv10.4.1/FreeRTOS/Source/timers.c **** 
 276:../../../../dependencies/freertos/FreeRTOSv10.4.1/FreeRTOS/Source/timers.c ****         TimerHandle_t xTimerCreate( const char * const pcTimerName, /*lint !e971 Unqualified char t
 277:../../../../dependencies/freertos/FreeRTOSv10.4.1/FreeRTOS/Source/timers.c ****                                     const TickType_t xTimerPeriodInTicks,
 278:../../../../dependencies/freertos/FreeRTOSv10.4.1/FreeRTOS/Source/timers.c ****                                     const UBaseType_t uxAutoReload,
 279:../../../../dependencies/freertos/FreeRTOSv10.4.1/FreeRTOS/Source/timers.c ****                                     void * const pvTimerID,
 280:../../../../dependencies/freertos/FreeRTOSv10.4.1/FreeRTOS/Source/timers.c ****                                     TimerCallbackFunction_t pxCallbackFunction )
 281:../../../../dependencies/freertos/FreeRTOSv10.4.1/FreeRTOS/Source/timers.c ****         {
 166              		.loc 1 281 9
 167              		.cfi_startproc
 168              		@ args = 4, pretend = 0, frame = 24
 169              		@ frame_needed = 1, uses_anonymous_args = 0
 170 0000 80B5     		push	{r7, lr}
 171              	.LCFI5:
 172              		.cfi_def_cfa_offset 8
 173              		.cfi_offset 7, -8
 174              		.cfi_offset 14, -4
 175 0002 88B0     		sub	sp, sp, #32
 176              	.LCFI6:
 177              		.cfi_def_cfa_offset 40
 178 0004 02AF     		add	r7, sp, #8
 179              	.LCFI7:
 180              		.cfi_def_cfa 7, 32
 181 0006 F860     		str	r0, [r7, #12]
 182 0008 B960     		str	r1, [r7, #8]
 183 000a 7A60     		str	r2, [r7, #4]
 184 000c 3B60     		str	r3, [r7]
 282:../../../../dependencies/freertos/FreeRTOSv10.4.1/FreeRTOS/Source/timers.c ****             Timer_t * pxNewTimer;
 283:../../../../dependencies/freertos/FreeRTOSv10.4.1/FreeRTOS/Source/timers.c **** 
 284:../../../../dependencies/freertos/FreeRTOSv10.4.1/FreeRTOS/Source/timers.c ****             pxNewTimer = ( Timer_t * ) pvPortMalloc( sizeof( Timer_t ) ); /*lint !e9087 !e9079 All 
 185              		.loc 1 284 40
 186 000e 2C20     		movs	r0, #44
 187 0010 FFF7FEFF 		bl	pvPortMalloc
 188 0014 7861     		str	r0, [r7, #20]
 285:../../../../dependencies/freertos/FreeRTOSv10.4.1/FreeRTOS/Source/timers.c **** 
 286:../../../../dependencies/freertos/FreeRTOSv10.4.1/FreeRTOS/Source/timers.c ****             if( pxNewTimer != NULL )
 189              		.loc 1 286 15
 190 0016 7B69     		ldr	r3, [r7, #20]
 191 0018 002B     		cmp	r3, #0
 192 001a 0DD0     		beq	.L9
 287:../../../../dependencies/freertos/FreeRTOSv10.4.1/FreeRTOS/Source/timers.c ****             {
 288:../../../../dependencies/freertos/FreeRTOSv10.4.1/FreeRTOS/Source/timers.c ****                 /* Status is thus far zero as the timer is not created statically
 289:../../../../dependencies/freertos/FreeRTOSv10.4.1/FreeRTOS/Source/timers.c ****                  * and has not been started.  The auto-reload bit may get set in
 290:../../../../dependencies/freertos/FreeRTOSv10.4.1/FreeRTOS/Source/timers.c ****                  * prvInitialiseNewTimer. */
 291:../../../../dependencies/freertos/FreeRTOSv10.4.1/FreeRTOS/Source/timers.c ****                 pxNewTimer->ucStatus = 0x00;
 193              		.loc 1 291 38
 194 001c 7B69     		ldr	r3, [r7, #20]
ARM GAS  /var/folders/kj/yzqgq53j3dg15vgwwwwgf5s00000gn/T//cc5BPkVE.s 			page 13


 195 001e 0022     		movs	r2, #0
 196 0020 83F82820 		strb	r2, [r3, #40]
 292:../../../../dependencies/freertos/FreeRTOSv10.4.1/FreeRTOS/Source/timers.c ****                 prvInitialiseNewTimer( pcTimerName, xTimerPeriodInTicks, uxAutoReload, pvTimerID, p
 197              		.loc 1 292 17
 198 0024 7B69     		ldr	r3, [r7, #20]
 199 0026 0193     		str	r3, [sp, #4]
 200 0028 3B6A     		ldr	r3, [r7, #32]
 201 002a 0093     		str	r3, [sp]
 202 002c 3B68     		ldr	r3, [r7]
 203 002e 7A68     		ldr	r2, [r7, #4]
 204 0030 B968     		ldr	r1, [r7, #8]
 205 0032 F868     		ldr	r0, [r7, #12]
 206 0034 FFF7FEFF 		bl	prvInitialiseNewTimer
 207              	.L9:
 293:../../../../dependencies/freertos/FreeRTOSv10.4.1/FreeRTOS/Source/timers.c ****             }
 294:../../../../dependencies/freertos/FreeRTOSv10.4.1/FreeRTOS/Source/timers.c **** 
 295:../../../../dependencies/freertos/FreeRTOSv10.4.1/FreeRTOS/Source/timers.c ****             return pxNewTimer;
 208              		.loc 1 295 20
 209 0038 7B69     		ldr	r3, [r7, #20]
 296:../../../../dependencies/freertos/FreeRTOSv10.4.1/FreeRTOS/Source/timers.c ****         }
 210              		.loc 1 296 9
 211 003a 1846     		mov	r0, r3
 212 003c 1837     		adds	r7, r7, #24
 213              	.LCFI8:
 214              		.cfi_def_cfa_offset 8
 215 003e BD46     		mov	sp, r7
 216              	.LCFI9:
 217              		.cfi_def_cfa_register 13
 218              		@ sp needed
 219 0040 80BD     		pop	{r7, pc}
 220              		.cfi_endproc
 221              	.LFE6:
 223              		.section	.text.prvInitialiseNewTimer,"ax",%progbits
 224              		.align	1
 225              		.syntax unified
 226              		.thumb
 227              		.thumb_func
 228              		.fpu fpv4-sp-d16
 230              	prvInitialiseNewTimer:
 231              	.LFB7:
 297:../../../../dependencies/freertos/FreeRTOSv10.4.1/FreeRTOS/Source/timers.c **** 
 298:../../../../dependencies/freertos/FreeRTOSv10.4.1/FreeRTOS/Source/timers.c ****     #endif /* configSUPPORT_DYNAMIC_ALLOCATION */
 299:../../../../dependencies/freertos/FreeRTOSv10.4.1/FreeRTOS/Source/timers.c **** /*-----------------------------------------------------------*/
 300:../../../../dependencies/freertos/FreeRTOSv10.4.1/FreeRTOS/Source/timers.c **** 
 301:../../../../dependencies/freertos/FreeRTOSv10.4.1/FreeRTOS/Source/timers.c ****     #if ( configSUPPORT_STATIC_ALLOCATION == 1 )
 302:../../../../dependencies/freertos/FreeRTOSv10.4.1/FreeRTOS/Source/timers.c **** 
 303:../../../../dependencies/freertos/FreeRTOSv10.4.1/FreeRTOS/Source/timers.c ****         TimerHandle_t xTimerCreateStatic( const char * const pcTimerName, /*lint !e971 Unqualified 
 304:../../../../dependencies/freertos/FreeRTOSv10.4.1/FreeRTOS/Source/timers.c ****                                           const TickType_t xTimerPeriodInTicks,
 305:../../../../dependencies/freertos/FreeRTOSv10.4.1/FreeRTOS/Source/timers.c ****                                           const UBaseType_t uxAutoReload,
 306:../../../../dependencies/freertos/FreeRTOSv10.4.1/FreeRTOS/Source/timers.c ****                                           void * const pvTimerID,
 307:../../../../dependencies/freertos/FreeRTOSv10.4.1/FreeRTOS/Source/timers.c ****                                           TimerCallbackFunction_t pxCallbackFunction,
 308:../../../../dependencies/freertos/FreeRTOSv10.4.1/FreeRTOS/Source/timers.c ****                                           StaticTimer_t * pxTimerBuffer )
 309:../../../../dependencies/freertos/FreeRTOSv10.4.1/FreeRTOS/Source/timers.c ****         {
 310:../../../../dependencies/freertos/FreeRTOSv10.4.1/FreeRTOS/Source/timers.c ****             Timer_t * pxNewTimer;
 311:../../../../dependencies/freertos/FreeRTOSv10.4.1/FreeRTOS/Source/timers.c **** 
 312:../../../../dependencies/freertos/FreeRTOSv10.4.1/FreeRTOS/Source/timers.c ****             #if ( configASSERT_DEFINED == 1 )
 313:../../../../dependencies/freertos/FreeRTOSv10.4.1/FreeRTOS/Source/timers.c ****                 {
ARM GAS  /var/folders/kj/yzqgq53j3dg15vgwwwwgf5s00000gn/T//cc5BPkVE.s 			page 14


 314:../../../../dependencies/freertos/FreeRTOSv10.4.1/FreeRTOS/Source/timers.c ****                     /* Sanity check that the size of the structure used to declare a
 315:../../../../dependencies/freertos/FreeRTOSv10.4.1/FreeRTOS/Source/timers.c ****                      * variable of type StaticTimer_t equals the size of the real timer
 316:../../../../dependencies/freertos/FreeRTOSv10.4.1/FreeRTOS/Source/timers.c ****                      * structure. */
 317:../../../../dependencies/freertos/FreeRTOSv10.4.1/FreeRTOS/Source/timers.c ****                     volatile size_t xSize = sizeof( StaticTimer_t );
 318:../../../../dependencies/freertos/FreeRTOSv10.4.1/FreeRTOS/Source/timers.c ****                     configASSERT( xSize == sizeof( Timer_t ) );
 319:../../../../dependencies/freertos/FreeRTOSv10.4.1/FreeRTOS/Source/timers.c ****                     ( void ) xSize; /* Keeps lint quiet when configASSERT() is not defined. */
 320:../../../../dependencies/freertos/FreeRTOSv10.4.1/FreeRTOS/Source/timers.c ****                 }
 321:../../../../dependencies/freertos/FreeRTOSv10.4.1/FreeRTOS/Source/timers.c ****             #endif /* configASSERT_DEFINED */
 322:../../../../dependencies/freertos/FreeRTOSv10.4.1/FreeRTOS/Source/timers.c **** 
 323:../../../../dependencies/freertos/FreeRTOSv10.4.1/FreeRTOS/Source/timers.c ****             /* A pointer to a StaticTimer_t structure MUST be provided, use it. */
 324:../../../../dependencies/freertos/FreeRTOSv10.4.1/FreeRTOS/Source/timers.c ****             configASSERT( pxTimerBuffer );
 325:../../../../dependencies/freertos/FreeRTOSv10.4.1/FreeRTOS/Source/timers.c ****             pxNewTimer = ( Timer_t * ) pxTimerBuffer; /*lint !e740 !e9087 StaticTimer_t is a pointe
 326:../../../../dependencies/freertos/FreeRTOSv10.4.1/FreeRTOS/Source/timers.c **** 
 327:../../../../dependencies/freertos/FreeRTOSv10.4.1/FreeRTOS/Source/timers.c ****             if( pxNewTimer != NULL )
 328:../../../../dependencies/freertos/FreeRTOSv10.4.1/FreeRTOS/Source/timers.c ****             {
 329:../../../../dependencies/freertos/FreeRTOSv10.4.1/FreeRTOS/Source/timers.c ****                 /* Timers can be created statically or dynamically so note this
 330:../../../../dependencies/freertos/FreeRTOSv10.4.1/FreeRTOS/Source/timers.c ****                  * timer was created statically in case it is later deleted.  The
 331:../../../../dependencies/freertos/FreeRTOSv10.4.1/FreeRTOS/Source/timers.c ****                  * auto-reload bit may get set in prvInitialiseNewTimer(). */
 332:../../../../dependencies/freertos/FreeRTOSv10.4.1/FreeRTOS/Source/timers.c ****                 pxNewTimer->ucStatus = tmrSTATUS_IS_STATICALLY_ALLOCATED;
 333:../../../../dependencies/freertos/FreeRTOSv10.4.1/FreeRTOS/Source/timers.c **** 
 334:../../../../dependencies/freertos/FreeRTOSv10.4.1/FreeRTOS/Source/timers.c ****                 prvInitialiseNewTimer( pcTimerName, xTimerPeriodInTicks, uxAutoReload, pvTimerID, p
 335:../../../../dependencies/freertos/FreeRTOSv10.4.1/FreeRTOS/Source/timers.c ****             }
 336:../../../../dependencies/freertos/FreeRTOSv10.4.1/FreeRTOS/Source/timers.c **** 
 337:../../../../dependencies/freertos/FreeRTOSv10.4.1/FreeRTOS/Source/timers.c ****             return pxNewTimer;
 338:../../../../dependencies/freertos/FreeRTOSv10.4.1/FreeRTOS/Source/timers.c ****         }
 339:../../../../dependencies/freertos/FreeRTOSv10.4.1/FreeRTOS/Source/timers.c **** 
 340:../../../../dependencies/freertos/FreeRTOSv10.4.1/FreeRTOS/Source/timers.c ****     #endif /* configSUPPORT_STATIC_ALLOCATION */
 341:../../../../dependencies/freertos/FreeRTOSv10.4.1/FreeRTOS/Source/timers.c **** /*-----------------------------------------------------------*/
 342:../../../../dependencies/freertos/FreeRTOSv10.4.1/FreeRTOS/Source/timers.c **** 
 343:../../../../dependencies/freertos/FreeRTOSv10.4.1/FreeRTOS/Source/timers.c ****     static void prvInitialiseNewTimer( const char * const pcTimerName, /*lint !e971 Unqualified cha
 344:../../../../dependencies/freertos/FreeRTOSv10.4.1/FreeRTOS/Source/timers.c ****                                        const TickType_t xTimerPeriodInTicks,
 345:../../../../dependencies/freertos/FreeRTOSv10.4.1/FreeRTOS/Source/timers.c ****                                        const UBaseType_t uxAutoReload,
 346:../../../../dependencies/freertos/FreeRTOSv10.4.1/FreeRTOS/Source/timers.c ****                                        void * const pvTimerID,
 347:../../../../dependencies/freertos/FreeRTOSv10.4.1/FreeRTOS/Source/timers.c ****                                        TimerCallbackFunction_t pxCallbackFunction,
 348:../../../../dependencies/freertos/FreeRTOSv10.4.1/FreeRTOS/Source/timers.c ****                                        Timer_t * pxNewTimer )
 349:../../../../dependencies/freertos/FreeRTOSv10.4.1/FreeRTOS/Source/timers.c ****     {
 232              		.loc 1 349 5
 233              		.cfi_startproc
 234              		@ args = 8, pretend = 0, frame = 24
 235              		@ frame_needed = 1, uses_anonymous_args = 0
 236 0000 80B5     		push	{r7, lr}
 237              	.LCFI10:
 238              		.cfi_def_cfa_offset 8
 239              		.cfi_offset 7, -8
 240              		.cfi_offset 14, -4
 241 0002 86B0     		sub	sp, sp, #24
 242              	.LCFI11:
 243              		.cfi_def_cfa_offset 32
 244 0004 00AF     		add	r7, sp, #0
 245              	.LCFI12:
 246              		.cfi_def_cfa_register 7
 247 0006 F860     		str	r0, [r7, #12]
 248 0008 B960     		str	r1, [r7, #8]
 249 000a 7A60     		str	r2, [r7, #4]
 250 000c 3B60     		str	r3, [r7]
 350:../../../../dependencies/freertos/FreeRTOSv10.4.1/FreeRTOS/Source/timers.c ****         /* 0 is not a valid value for xTimerPeriodInTicks. */
 351:../../../../dependencies/freertos/FreeRTOSv10.4.1/FreeRTOS/Source/timers.c ****         configASSERT( ( xTimerPeriodInTicks > 0 ) );
ARM GAS  /var/folders/kj/yzqgq53j3dg15vgwwwwgf5s00000gn/T//cc5BPkVE.s 			page 15


 251              		.loc 1 351 9
 252 000e BB68     		ldr	r3, [r7, #8]
 253 0010 002B     		cmp	r3, #0
 254 0012 0AD1     		bne	.L12
 255              	.LBB36:
 256              	.LBB37:
 197:../../../../dependencies/freertos/FreeRTOSv10.4.1/FreeRTOS/Source/portable/GCC/ARM_CM4F/portmacro.h ****         (
 257              		.loc 2 197 9
 258              		.syntax unified
 259              	@ 197 "../../../../dependencies/freertos/FreeRTOSv10.4.1/FreeRTOS/Source/portable/GCC/ARM_CM4F/port
 260 0014 4FF05003 			mov r3, #80												
 261 0018 83F31188 		msr basepri, r3											
 262 001c BFF36F8F 		isb														
 263 0020 BFF34F8F 		dsb														
 264              	
 265              	@ 0 "" 2
 266              		.thumb
 267              		.syntax unified
 268 0024 7B61     		str	r3, [r7, #20]
 269              		.loc 2 205 5
 270 0026 00BF     		nop
 271              	.L13:
 272              	.LBE37:
 273              	.LBE36:
 274              		.loc 1 351 9 discriminator 1
 275 0028 FEE7     		b	.L13
 276              	.L12:
 352:../../../../dependencies/freertos/FreeRTOSv10.4.1/FreeRTOS/Source/timers.c **** 
 353:../../../../dependencies/freertos/FreeRTOSv10.4.1/FreeRTOS/Source/timers.c ****         if( pxNewTimer != NULL )
 277              		.loc 1 353 11
 278 002a 7B6A     		ldr	r3, [r7, #36]
 279 002c 002B     		cmp	r3, #0
 280 002e 1ED0     		beq	.L15
 354:../../../../dependencies/freertos/FreeRTOSv10.4.1/FreeRTOS/Source/timers.c ****         {
 355:../../../../dependencies/freertos/FreeRTOSv10.4.1/FreeRTOS/Source/timers.c ****             /* Ensure the infrastructure used by the timer service task has been
 356:../../../../dependencies/freertos/FreeRTOSv10.4.1/FreeRTOS/Source/timers.c ****              * created/initialised. */
 357:../../../../dependencies/freertos/FreeRTOSv10.4.1/FreeRTOS/Source/timers.c ****             prvCheckForValidListAndQueue();
 281              		.loc 1 357 13
 282 0030 FFF7FEFF 		bl	prvCheckForValidListAndQueue
 358:../../../../dependencies/freertos/FreeRTOSv10.4.1/FreeRTOS/Source/timers.c **** 
 359:../../../../dependencies/freertos/FreeRTOSv10.4.1/FreeRTOS/Source/timers.c ****             /* Initialise the timer structure members using the function
 360:../../../../dependencies/freertos/FreeRTOSv10.4.1/FreeRTOS/Source/timers.c ****              * parameters. */
 361:../../../../dependencies/freertos/FreeRTOSv10.4.1/FreeRTOS/Source/timers.c ****             pxNewTimer->pcTimerName = pcTimerName;
 283              		.loc 1 361 37
 284 0034 7B6A     		ldr	r3, [r7, #36]
 285 0036 FA68     		ldr	r2, [r7, #12]
 286 0038 1A60     		str	r2, [r3]
 362:../../../../dependencies/freertos/FreeRTOSv10.4.1/FreeRTOS/Source/timers.c ****             pxNewTimer->xTimerPeriodInTicks = xTimerPeriodInTicks;
 287              		.loc 1 362 45
 288 003a 7B6A     		ldr	r3, [r7, #36]
 289 003c BA68     		ldr	r2, [r7, #8]
 290 003e 9A61     		str	r2, [r3, #24]
 363:../../../../dependencies/freertos/FreeRTOSv10.4.1/FreeRTOS/Source/timers.c ****             pxNewTimer->pvTimerID = pvTimerID;
 291              		.loc 1 363 35
 292 0040 7B6A     		ldr	r3, [r7, #36]
 293 0042 3A68     		ldr	r2, [r7]
 294 0044 DA61     		str	r2, [r3, #28]
ARM GAS  /var/folders/kj/yzqgq53j3dg15vgwwwwgf5s00000gn/T//cc5BPkVE.s 			page 16


 364:../../../../dependencies/freertos/FreeRTOSv10.4.1/FreeRTOS/Source/timers.c ****             pxNewTimer->pxCallbackFunction = pxCallbackFunction;
 295              		.loc 1 364 44
 296 0046 7B6A     		ldr	r3, [r7, #36]
 297 0048 3A6A     		ldr	r2, [r7, #32]
 298 004a 1A62     		str	r2, [r3, #32]
 365:../../../../dependencies/freertos/FreeRTOSv10.4.1/FreeRTOS/Source/timers.c ****             vListInitialiseItem( &( pxNewTimer->xTimerListItem ) );
 299              		.loc 1 365 13
 300 004c 7B6A     		ldr	r3, [r7, #36]
 301 004e 0433     		adds	r3, r3, #4
 302 0050 1846     		mov	r0, r3
 303 0052 FFF7FEFF 		bl	vListInitialiseItem
 366:../../../../dependencies/freertos/FreeRTOSv10.4.1/FreeRTOS/Source/timers.c **** 
 367:../../../../dependencies/freertos/FreeRTOSv10.4.1/FreeRTOS/Source/timers.c ****             if( uxAutoReload != pdFALSE )
 304              		.loc 1 367 15
 305 0056 7B68     		ldr	r3, [r7, #4]
 306 0058 002B     		cmp	r3, #0
 307 005a 08D0     		beq	.L15
 368:../../../../dependencies/freertos/FreeRTOSv10.4.1/FreeRTOS/Source/timers.c ****             {
 369:../../../../dependencies/freertos/FreeRTOSv10.4.1/FreeRTOS/Source/timers.c ****                 pxNewTimer->ucStatus |= tmrSTATUS_IS_AUTORELOAD;
 308              		.loc 1 369 38
 309 005c 7B6A     		ldr	r3, [r7, #36]
 310 005e 93F82830 		ldrb	r3, [r3, #40]	@ zero_extendqisi2
 311 0062 43F00403 		orr	r3, r3, #4
 312 0066 DAB2     		uxtb	r2, r3
 313 0068 7B6A     		ldr	r3, [r7, #36]
 314 006a 83F82820 		strb	r2, [r3, #40]
 315              	.L15:
 370:../../../../dependencies/freertos/FreeRTOSv10.4.1/FreeRTOS/Source/timers.c ****             }
 371:../../../../dependencies/freertos/FreeRTOSv10.4.1/FreeRTOS/Source/timers.c **** 
 372:../../../../dependencies/freertos/FreeRTOSv10.4.1/FreeRTOS/Source/timers.c ****             traceTIMER_CREATE( pxNewTimer );
 373:../../../../dependencies/freertos/FreeRTOSv10.4.1/FreeRTOS/Source/timers.c ****         }
 374:../../../../dependencies/freertos/FreeRTOSv10.4.1/FreeRTOS/Source/timers.c ****     }
 316              		.loc 1 374 5
 317 006e 00BF     		nop
 318 0070 1837     		adds	r7, r7, #24
 319              	.LCFI13:
 320              		.cfi_def_cfa_offset 8
 321 0072 BD46     		mov	sp, r7
 322              	.LCFI14:
 323              		.cfi_def_cfa_register 13
 324              		@ sp needed
 325 0074 80BD     		pop	{r7, pc}
 326              		.cfi_endproc
 327              	.LFE7:
 329              		.section	.text.xTimerGenericCommand,"ax",%progbits
 330              		.align	1
 331              		.global	xTimerGenericCommand
 332              		.syntax unified
 333              		.thumb
 334              		.thumb_func
 335              		.fpu fpv4-sp-d16
 337              	xTimerGenericCommand:
 338              	.LFB8:
 375:../../../../dependencies/freertos/FreeRTOSv10.4.1/FreeRTOS/Source/timers.c **** /*-----------------------------------------------------------*/
 376:../../../../dependencies/freertos/FreeRTOSv10.4.1/FreeRTOS/Source/timers.c **** 
 377:../../../../dependencies/freertos/FreeRTOSv10.4.1/FreeRTOS/Source/timers.c ****     BaseType_t xTimerGenericCommand( TimerHandle_t xTimer,
 378:../../../../dependencies/freertos/FreeRTOSv10.4.1/FreeRTOS/Source/timers.c ****                                      const BaseType_t xCommandID,
ARM GAS  /var/folders/kj/yzqgq53j3dg15vgwwwwgf5s00000gn/T//cc5BPkVE.s 			page 17


 379:../../../../dependencies/freertos/FreeRTOSv10.4.1/FreeRTOS/Source/timers.c ****                                      const TickType_t xOptionalValue,
 380:../../../../dependencies/freertos/FreeRTOSv10.4.1/FreeRTOS/Source/timers.c ****                                      BaseType_t * const pxHigherPriorityTaskWoken,
 381:../../../../dependencies/freertos/FreeRTOSv10.4.1/FreeRTOS/Source/timers.c ****                                      const TickType_t xTicksToWait )
 382:../../../../dependencies/freertos/FreeRTOSv10.4.1/FreeRTOS/Source/timers.c ****     {
 339              		.loc 1 382 5
 340              		.cfi_startproc
 341              		@ args = 4, pretend = 0, frame = 40
 342              		@ frame_needed = 1, uses_anonymous_args = 0
 343 0000 80B5     		push	{r7, lr}
 344              	.LCFI15:
 345              		.cfi_def_cfa_offset 8
 346              		.cfi_offset 7, -8
 347              		.cfi_offset 14, -4
 348 0002 8AB0     		sub	sp, sp, #40
 349              	.LCFI16:
 350              		.cfi_def_cfa_offset 48
 351 0004 00AF     		add	r7, sp, #0
 352              	.LCFI17:
 353              		.cfi_def_cfa_register 7
 354 0006 F860     		str	r0, [r7, #12]
 355 0008 B960     		str	r1, [r7, #8]
 356 000a 7A60     		str	r2, [r7, #4]
 357 000c 3B60     		str	r3, [r7]
 383:../../../../dependencies/freertos/FreeRTOSv10.4.1/FreeRTOS/Source/timers.c ****         BaseType_t xReturn = pdFAIL;
 358              		.loc 1 383 20
 359 000e 0023     		movs	r3, #0
 360 0010 7B62     		str	r3, [r7, #36]
 384:../../../../dependencies/freertos/FreeRTOSv10.4.1/FreeRTOS/Source/timers.c ****         DaemonTaskMessage_t xMessage;
 385:../../../../dependencies/freertos/FreeRTOSv10.4.1/FreeRTOS/Source/timers.c **** 
 386:../../../../dependencies/freertos/FreeRTOSv10.4.1/FreeRTOS/Source/timers.c ****         configASSERT( xTimer );
 361              		.loc 1 386 9
 362 0012 FB68     		ldr	r3, [r7, #12]
 363 0014 002B     		cmp	r3, #0
 364 0016 0AD1     		bne	.L17
 365              	.LBB38:
 366              	.LBB39:
 197:../../../../dependencies/freertos/FreeRTOSv10.4.1/FreeRTOS/Source/portable/GCC/ARM_CM4F/portmacro.h ****         (
 367              		.loc 2 197 9
 368              		.syntax unified
 369              	@ 197 "../../../../dependencies/freertos/FreeRTOSv10.4.1/FreeRTOS/Source/portable/GCC/ARM_CM4F/port
 370 0018 4FF05003 			mov r3, #80												
 371 001c 83F31188 		msr basepri, r3											
 372 0020 BFF36F8F 		isb														
 373 0024 BFF34F8F 		dsb														
 374              	
 375              	@ 0 "" 2
 376              		.thumb
 377              		.syntax unified
 378 0028 3B62     		str	r3, [r7, #32]
 379              		.loc 2 205 5
 380 002a 00BF     		nop
 381              	.L18:
 382              	.LBE39:
 383              	.LBE38:
 384              		.loc 1 386 9 discriminator 1
 385 002c FEE7     		b	.L18
 386              	.L17:
ARM GAS  /var/folders/kj/yzqgq53j3dg15vgwwwwgf5s00000gn/T//cc5BPkVE.s 			page 18


 387:../../../../dependencies/freertos/FreeRTOSv10.4.1/FreeRTOS/Source/timers.c **** 
 388:../../../../dependencies/freertos/FreeRTOSv10.4.1/FreeRTOS/Source/timers.c ****         /* Send a message to the timer service task to perform a particular action
 389:../../../../dependencies/freertos/FreeRTOSv10.4.1/FreeRTOS/Source/timers.c ****          * on a particular timer definition. */
 390:../../../../dependencies/freertos/FreeRTOSv10.4.1/FreeRTOS/Source/timers.c ****         if( xTimerQueue != NULL )
 387              		.loc 1 390 25
 388 002e 1A4B     		ldr	r3, .L23
 389 0030 1B68     		ldr	r3, [r3]
 390              		.loc 1 390 11
 391 0032 002B     		cmp	r3, #0
 392 0034 2AD0     		beq	.L19
 391:../../../../dependencies/freertos/FreeRTOSv10.4.1/FreeRTOS/Source/timers.c ****         {
 392:../../../../dependencies/freertos/FreeRTOSv10.4.1/FreeRTOS/Source/timers.c ****             /* Send a command to the timer service task to start the xTimer timer. */
 393:../../../../dependencies/freertos/FreeRTOSv10.4.1/FreeRTOS/Source/timers.c ****             xMessage.xMessageID = xCommandID;
 393              		.loc 1 393 33
 394 0036 BB68     		ldr	r3, [r7, #8]
 395 0038 7B61     		str	r3, [r7, #20]
 394:../../../../dependencies/freertos/FreeRTOSv10.4.1/FreeRTOS/Source/timers.c ****             xMessage.u.xTimerParameters.xMessageValue = xOptionalValue;
 396              		.loc 1 394 55
 397 003a 7B68     		ldr	r3, [r7, #4]
 398 003c BB61     		str	r3, [r7, #24]
 395:../../../../dependencies/freertos/FreeRTOSv10.4.1/FreeRTOS/Source/timers.c ****             xMessage.u.xTimerParameters.pxTimer = xTimer;
 399              		.loc 1 395 49
 400 003e FB68     		ldr	r3, [r7, #12]
 401 0040 FB61     		str	r3, [r7, #28]
 396:../../../../dependencies/freertos/FreeRTOSv10.4.1/FreeRTOS/Source/timers.c **** 
 397:../../../../dependencies/freertos/FreeRTOSv10.4.1/FreeRTOS/Source/timers.c ****             if( xCommandID < tmrFIRST_FROM_ISR_COMMAND )
 402              		.loc 1 397 15
 403 0042 BB68     		ldr	r3, [r7, #8]
 404 0044 052B     		cmp	r3, #5
 405 0046 18DC     		bgt	.L20
 398:../../../../dependencies/freertos/FreeRTOSv10.4.1/FreeRTOS/Source/timers.c ****             {
 399:../../../../dependencies/freertos/FreeRTOSv10.4.1/FreeRTOS/Source/timers.c ****                 if( xTaskGetSchedulerState() == taskSCHEDULER_RUNNING )
 406              		.loc 1 399 21
 407 0048 FFF7FEFF 		bl	xTaskGetSchedulerState
 408 004c 0346     		mov	r3, r0
 409              		.loc 1 399 19
 410 004e 022B     		cmp	r3, #2
 411 0050 09D1     		bne	.L21
 400:../../../../dependencies/freertos/FreeRTOSv10.4.1/FreeRTOS/Source/timers.c ****                 {
 401:../../../../dependencies/freertos/FreeRTOSv10.4.1/FreeRTOS/Source/timers.c ****                     xReturn = xQueueSendToBack( xTimerQueue, &xMessage, xTicksToWait );
 412              		.loc 1 401 31
 413 0052 114B     		ldr	r3, .L23
 414 0054 1868     		ldr	r0, [r3]
 415 0056 07F11401 		add	r1, r7, #20
 416 005a 0023     		movs	r3, #0
 417 005c 3A6B     		ldr	r2, [r7, #48]
 418 005e FFF7FEFF 		bl	xQueueGenericSend
 419 0062 7862     		str	r0, [r7, #36]
 420 0064 12E0     		b	.L19
 421              	.L21:
 402:../../../../dependencies/freertos/FreeRTOSv10.4.1/FreeRTOS/Source/timers.c ****                 }
 403:../../../../dependencies/freertos/FreeRTOSv10.4.1/FreeRTOS/Source/timers.c ****                 else
 404:../../../../dependencies/freertos/FreeRTOSv10.4.1/FreeRTOS/Source/timers.c ****                 {
 405:../../../../dependencies/freertos/FreeRTOSv10.4.1/FreeRTOS/Source/timers.c ****                     xReturn = xQueueSendToBack( xTimerQueue, &xMessage, tmrNO_DELAY );
 422              		.loc 1 405 31
 423 0066 0C4B     		ldr	r3, .L23
 424 0068 1868     		ldr	r0, [r3]
ARM GAS  /var/folders/kj/yzqgq53j3dg15vgwwwwgf5s00000gn/T//cc5BPkVE.s 			page 19


 425 006a 07F11401 		add	r1, r7, #20
 426 006e 0023     		movs	r3, #0
 427 0070 0022     		movs	r2, #0
 428 0072 FFF7FEFF 		bl	xQueueGenericSend
 429 0076 7862     		str	r0, [r7, #36]
 430 0078 08E0     		b	.L19
 431              	.L20:
 406:../../../../dependencies/freertos/FreeRTOSv10.4.1/FreeRTOS/Source/timers.c ****                 }
 407:../../../../dependencies/freertos/FreeRTOSv10.4.1/FreeRTOS/Source/timers.c ****             }
 408:../../../../dependencies/freertos/FreeRTOSv10.4.1/FreeRTOS/Source/timers.c ****             else
 409:../../../../dependencies/freertos/FreeRTOSv10.4.1/FreeRTOS/Source/timers.c ****             {
 410:../../../../dependencies/freertos/FreeRTOSv10.4.1/FreeRTOS/Source/timers.c ****                 xReturn = xQueueSendToBackFromISR( xTimerQueue, &xMessage, pxHigherPriorityTaskWoke
 432              		.loc 1 410 27
 433 007a 074B     		ldr	r3, .L23
 434 007c 1868     		ldr	r0, [r3]
 435 007e 07F11401 		add	r1, r7, #20
 436 0082 0023     		movs	r3, #0
 437 0084 3A68     		ldr	r2, [r7]
 438 0086 FFF7FEFF 		bl	xQueueGenericSendFromISR
 439 008a 7862     		str	r0, [r7, #36]
 440              	.L19:
 411:../../../../dependencies/freertos/FreeRTOSv10.4.1/FreeRTOS/Source/timers.c ****             }
 412:../../../../dependencies/freertos/FreeRTOSv10.4.1/FreeRTOS/Source/timers.c **** 
 413:../../../../dependencies/freertos/FreeRTOSv10.4.1/FreeRTOS/Source/timers.c ****             traceTIMER_COMMAND_SEND( xTimer, xCommandID, xOptionalValue, xReturn );
 414:../../../../dependencies/freertos/FreeRTOSv10.4.1/FreeRTOS/Source/timers.c ****         }
 415:../../../../dependencies/freertos/FreeRTOSv10.4.1/FreeRTOS/Source/timers.c ****         else
 416:../../../../dependencies/freertos/FreeRTOSv10.4.1/FreeRTOS/Source/timers.c ****         {
 417:../../../../dependencies/freertos/FreeRTOSv10.4.1/FreeRTOS/Source/timers.c ****             mtCOVERAGE_TEST_MARKER();
 418:../../../../dependencies/freertos/FreeRTOSv10.4.1/FreeRTOS/Source/timers.c ****         }
 419:../../../../dependencies/freertos/FreeRTOSv10.4.1/FreeRTOS/Source/timers.c **** 
 420:../../../../dependencies/freertos/FreeRTOSv10.4.1/FreeRTOS/Source/timers.c ****         return xReturn;
 441              		.loc 1 420 16
 442 008c 7B6A     		ldr	r3, [r7, #36]
 421:../../../../dependencies/freertos/FreeRTOSv10.4.1/FreeRTOS/Source/timers.c ****     }
 443              		.loc 1 421 5
 444 008e 1846     		mov	r0, r3
 445 0090 2837     		adds	r7, r7, #40
 446              	.LCFI18:
 447              		.cfi_def_cfa_offset 8
 448 0092 BD46     		mov	sp, r7
 449              	.LCFI19:
 450              		.cfi_def_cfa_register 13
 451              		@ sp needed
 452 0094 80BD     		pop	{r7, pc}
 453              	.L24:
 454 0096 00BF     		.align	2
 455              	.L23:
 456 0098 00000000 		.word	xTimerQueue
 457              		.cfi_endproc
 458              	.LFE8:
 460              		.section	.text.xTimerGetTimerDaemonTaskHandle,"ax",%progbits
 461              		.align	1
 462              		.global	xTimerGetTimerDaemonTaskHandle
 463              		.syntax unified
 464              		.thumb
 465              		.thumb_func
 466              		.fpu fpv4-sp-d16
ARM GAS  /var/folders/kj/yzqgq53j3dg15vgwwwwgf5s00000gn/T//cc5BPkVE.s 			page 20


 468              	xTimerGetTimerDaemonTaskHandle:
 469              	.LFB9:
 422:../../../../dependencies/freertos/FreeRTOSv10.4.1/FreeRTOS/Source/timers.c **** /*-----------------------------------------------------------*/
 423:../../../../dependencies/freertos/FreeRTOSv10.4.1/FreeRTOS/Source/timers.c **** 
 424:../../../../dependencies/freertos/FreeRTOSv10.4.1/FreeRTOS/Source/timers.c ****     TaskHandle_t xTimerGetTimerDaemonTaskHandle( void )
 425:../../../../dependencies/freertos/FreeRTOSv10.4.1/FreeRTOS/Source/timers.c ****     {
 470              		.loc 1 425 5
 471              		.cfi_startproc
 472              		@ args = 0, pretend = 0, frame = 8
 473              		@ frame_needed = 1, uses_anonymous_args = 0
 474              		@ link register save eliminated.
 475 0000 80B4     		push	{r7}
 476              	.LCFI20:
 477              		.cfi_def_cfa_offset 4
 478              		.cfi_offset 7, -4
 479 0002 83B0     		sub	sp, sp, #12
 480              	.LCFI21:
 481              		.cfi_def_cfa_offset 16
 482 0004 00AF     		add	r7, sp, #0
 483              	.LCFI22:
 484              		.cfi_def_cfa_register 7
 426:../../../../dependencies/freertos/FreeRTOSv10.4.1/FreeRTOS/Source/timers.c ****         /* If xTimerGetTimerDaemonTaskHandle() is called before the scheduler has been
 427:../../../../dependencies/freertos/FreeRTOSv10.4.1/FreeRTOS/Source/timers.c ****          * started, then xTimerTaskHandle will be NULL. */
 428:../../../../dependencies/freertos/FreeRTOSv10.4.1/FreeRTOS/Source/timers.c ****         configASSERT( ( xTimerTaskHandle != NULL ) );
 485              		.loc 1 428 9
 486 0006 0B4B     		ldr	r3, .L29
 487 0008 1B68     		ldr	r3, [r3]
 488 000a 002B     		cmp	r3, #0
 489 000c 0AD1     		bne	.L26
 490              	.LBB40:
 491              	.LBB41:
 197:../../../../dependencies/freertos/FreeRTOSv10.4.1/FreeRTOS/Source/portable/GCC/ARM_CM4F/portmacro.h ****         (
 492              		.loc 2 197 9
 493              		.syntax unified
 494              	@ 197 "../../../../dependencies/freertos/FreeRTOSv10.4.1/FreeRTOS/Source/portable/GCC/ARM_CM4F/port
 495 000e 4FF05003 			mov r3, #80												
 496 0012 83F31188 		msr basepri, r3											
 497 0016 BFF36F8F 		isb														
 498 001a BFF34F8F 		dsb														
 499              	
 500              	@ 0 "" 2
 501              		.thumb
 502              		.syntax unified
 503 001e 7B60     		str	r3, [r7, #4]
 504              		.loc 2 205 5
 505 0020 00BF     		nop
 506              	.L27:
 507              	.LBE41:
 508              	.LBE40:
 509              		.loc 1 428 9 discriminator 1
 510 0022 FEE7     		b	.L27
 511              	.L26:
 429:../../../../dependencies/freertos/FreeRTOSv10.4.1/FreeRTOS/Source/timers.c ****         return xTimerTaskHandle;
 512              		.loc 1 429 16
 513 0024 034B     		ldr	r3, .L29
 514 0026 1B68     		ldr	r3, [r3]
 430:../../../../dependencies/freertos/FreeRTOSv10.4.1/FreeRTOS/Source/timers.c ****     }
ARM GAS  /var/folders/kj/yzqgq53j3dg15vgwwwwgf5s00000gn/T//cc5BPkVE.s 			page 21


 515              		.loc 1 430 5
 516 0028 1846     		mov	r0, r3
 517 002a 0C37     		adds	r7, r7, #12
 518              	.LCFI23:
 519              		.cfi_def_cfa_offset 4
 520 002c BD46     		mov	sp, r7
 521              	.LCFI24:
 522              		.cfi_def_cfa_register 13
 523              		@ sp needed
 524 002e 5DF8047B 		ldr	r7, [sp], #4
 525              	.LCFI25:
 526              		.cfi_restore 7
 527              		.cfi_def_cfa_offset 0
 528 0032 7047     		bx	lr
 529              	.L30:
 530              		.align	2
 531              	.L29:
 532 0034 00000000 		.word	xTimerTaskHandle
 533              		.cfi_endproc
 534              	.LFE9:
 536              		.section	.text.xTimerGetPeriod,"ax",%progbits
 537              		.align	1
 538              		.global	xTimerGetPeriod
 539              		.syntax unified
 540              		.thumb
 541              		.thumb_func
 542              		.fpu fpv4-sp-d16
 544              	xTimerGetPeriod:
 545              	.LFB10:
 431:../../../../dependencies/freertos/FreeRTOSv10.4.1/FreeRTOS/Source/timers.c **** /*-----------------------------------------------------------*/
 432:../../../../dependencies/freertos/FreeRTOSv10.4.1/FreeRTOS/Source/timers.c **** 
 433:../../../../dependencies/freertos/FreeRTOSv10.4.1/FreeRTOS/Source/timers.c ****     TickType_t xTimerGetPeriod( TimerHandle_t xTimer )
 434:../../../../dependencies/freertos/FreeRTOSv10.4.1/FreeRTOS/Source/timers.c ****     {
 546              		.loc 1 434 5
 547              		.cfi_startproc
 548              		@ args = 0, pretend = 0, frame = 16
 549              		@ frame_needed = 1, uses_anonymous_args = 0
 550              		@ link register save eliminated.
 551 0000 80B4     		push	{r7}
 552              	.LCFI26:
 553              		.cfi_def_cfa_offset 4
 554              		.cfi_offset 7, -4
 555 0002 85B0     		sub	sp, sp, #20
 556              	.LCFI27:
 557              		.cfi_def_cfa_offset 24
 558 0004 00AF     		add	r7, sp, #0
 559              	.LCFI28:
 560              		.cfi_def_cfa_register 7
 561 0006 7860     		str	r0, [r7, #4]
 435:../../../../dependencies/freertos/FreeRTOSv10.4.1/FreeRTOS/Source/timers.c ****         Timer_t * pxTimer = xTimer;
 562              		.loc 1 435 19
 563 0008 7B68     		ldr	r3, [r7, #4]
 564 000a FB60     		str	r3, [r7, #12]
 436:../../../../dependencies/freertos/FreeRTOSv10.4.1/FreeRTOS/Source/timers.c **** 
 437:../../../../dependencies/freertos/FreeRTOSv10.4.1/FreeRTOS/Source/timers.c ****         configASSERT( xTimer );
 565              		.loc 1 437 9
 566 000c 7B68     		ldr	r3, [r7, #4]
ARM GAS  /var/folders/kj/yzqgq53j3dg15vgwwwwgf5s00000gn/T//cc5BPkVE.s 			page 22


 567 000e 002B     		cmp	r3, #0
 568 0010 0AD1     		bne	.L32
 569              	.LBB42:
 570              	.LBB43:
 197:../../../../dependencies/freertos/FreeRTOSv10.4.1/FreeRTOS/Source/portable/GCC/ARM_CM4F/portmacro.h ****         (
 571              		.loc 2 197 9
 572              		.syntax unified
 573              	@ 197 "../../../../dependencies/freertos/FreeRTOSv10.4.1/FreeRTOS/Source/portable/GCC/ARM_CM4F/port
 574 0012 4FF05003 			mov r3, #80												
 575 0016 83F31188 		msr basepri, r3											
 576 001a BFF36F8F 		isb														
 577 001e BFF34F8F 		dsb														
 578              	
 579              	@ 0 "" 2
 580              		.thumb
 581              		.syntax unified
 582 0022 BB60     		str	r3, [r7, #8]
 583              		.loc 2 205 5
 584 0024 00BF     		nop
 585              	.L33:
 586              	.LBE43:
 587              	.LBE42:
 588              		.loc 1 437 9 discriminator 1
 589 0026 FEE7     		b	.L33
 590              	.L32:
 438:../../../../dependencies/freertos/FreeRTOSv10.4.1/FreeRTOS/Source/timers.c ****         return pxTimer->xTimerPeriodInTicks;
 591              		.loc 1 438 23
 592 0028 FB68     		ldr	r3, [r7, #12]
 593 002a 9B69     		ldr	r3, [r3, #24]
 439:../../../../dependencies/freertos/FreeRTOSv10.4.1/FreeRTOS/Source/timers.c ****     }
 594              		.loc 1 439 5
 595 002c 1846     		mov	r0, r3
 596 002e 1437     		adds	r7, r7, #20
 597              	.LCFI29:
 598              		.cfi_def_cfa_offset 4
 599 0030 BD46     		mov	sp, r7
 600              	.LCFI30:
 601              		.cfi_def_cfa_register 13
 602              		@ sp needed
 603 0032 5DF8047B 		ldr	r7, [sp], #4
 604              	.LCFI31:
 605              		.cfi_restore 7
 606              		.cfi_def_cfa_offset 0
 607 0036 7047     		bx	lr
 608              		.cfi_endproc
 609              	.LFE10:
 611              		.section	.text.vTimerSetReloadMode,"ax",%progbits
 612              		.align	1
 613              		.global	vTimerSetReloadMode
 614              		.syntax unified
 615              		.thumb
 616              		.thumb_func
 617              		.fpu fpv4-sp-d16
 619              	vTimerSetReloadMode:
 620              	.LFB11:
 440:../../../../dependencies/freertos/FreeRTOSv10.4.1/FreeRTOS/Source/timers.c **** /*-----------------------------------------------------------*/
 441:../../../../dependencies/freertos/FreeRTOSv10.4.1/FreeRTOS/Source/timers.c **** 
ARM GAS  /var/folders/kj/yzqgq53j3dg15vgwwwwgf5s00000gn/T//cc5BPkVE.s 			page 23


 442:../../../../dependencies/freertos/FreeRTOSv10.4.1/FreeRTOS/Source/timers.c ****     void vTimerSetReloadMode( TimerHandle_t xTimer,
 443:../../../../dependencies/freertos/FreeRTOSv10.4.1/FreeRTOS/Source/timers.c ****                               const UBaseType_t uxAutoReload )
 444:../../../../dependencies/freertos/FreeRTOSv10.4.1/FreeRTOS/Source/timers.c ****     {
 621              		.loc 1 444 5
 622              		.cfi_startproc
 623              		@ args = 0, pretend = 0, frame = 16
 624              		@ frame_needed = 1, uses_anonymous_args = 0
 625 0000 80B5     		push	{r7, lr}
 626              	.LCFI32:
 627              		.cfi_def_cfa_offset 8
 628              		.cfi_offset 7, -8
 629              		.cfi_offset 14, -4
 630 0002 84B0     		sub	sp, sp, #16
 631              	.LCFI33:
 632              		.cfi_def_cfa_offset 24
 633 0004 00AF     		add	r7, sp, #0
 634              	.LCFI34:
 635              		.cfi_def_cfa_register 7
 636 0006 7860     		str	r0, [r7, #4]
 637 0008 3960     		str	r1, [r7]
 445:../../../../dependencies/freertos/FreeRTOSv10.4.1/FreeRTOS/Source/timers.c ****         Timer_t * pxTimer = xTimer;
 638              		.loc 1 445 19
 639 000a 7B68     		ldr	r3, [r7, #4]
 640 000c FB60     		str	r3, [r7, #12]
 446:../../../../dependencies/freertos/FreeRTOSv10.4.1/FreeRTOS/Source/timers.c **** 
 447:../../../../dependencies/freertos/FreeRTOSv10.4.1/FreeRTOS/Source/timers.c ****         configASSERT( xTimer );
 641              		.loc 1 447 9
 642 000e 7B68     		ldr	r3, [r7, #4]
 643 0010 002B     		cmp	r3, #0
 644 0012 0AD1     		bne	.L36
 645              	.LBB44:
 646              	.LBB45:
 197:../../../../dependencies/freertos/FreeRTOSv10.4.1/FreeRTOS/Source/portable/GCC/ARM_CM4F/portmacro.h ****         (
 647              		.loc 2 197 9
 648              		.syntax unified
 649              	@ 197 "../../../../dependencies/freertos/FreeRTOSv10.4.1/FreeRTOS/Source/portable/GCC/ARM_CM4F/port
 650 0014 4FF05003 			mov r3, #80												
 651 0018 83F31188 		msr basepri, r3											
 652 001c BFF36F8F 		isb														
 653 0020 BFF34F8F 		dsb														
 654              	
 655              	@ 0 "" 2
 656              		.thumb
 657              		.syntax unified
 658 0024 BB60     		str	r3, [r7, #8]
 659              		.loc 2 205 5
 660 0026 00BF     		nop
 661              	.L37:
 662              	.LBE45:
 663              	.LBE44:
 664              		.loc 1 447 9 discriminator 1
 665 0028 FEE7     		b	.L37
 666              	.L36:
 448:../../../../dependencies/freertos/FreeRTOSv10.4.1/FreeRTOS/Source/timers.c ****         taskENTER_CRITICAL();
 667              		.loc 1 448 9
 668 002a FFF7FEFF 		bl	vPortEnterCritical
 449:../../../../dependencies/freertos/FreeRTOSv10.4.1/FreeRTOS/Source/timers.c ****         {
ARM GAS  /var/folders/kj/yzqgq53j3dg15vgwwwwgf5s00000gn/T//cc5BPkVE.s 			page 24


 450:../../../../dependencies/freertos/FreeRTOSv10.4.1/FreeRTOS/Source/timers.c ****             if( uxAutoReload != pdFALSE )
 669              		.loc 1 450 15
 670 002e 3B68     		ldr	r3, [r7]
 671 0030 002B     		cmp	r3, #0
 672 0032 09D0     		beq	.L38
 451:../../../../dependencies/freertos/FreeRTOSv10.4.1/FreeRTOS/Source/timers.c ****             {
 452:../../../../dependencies/freertos/FreeRTOSv10.4.1/FreeRTOS/Source/timers.c ****                 pxTimer->ucStatus |= tmrSTATUS_IS_AUTORELOAD;
 673              		.loc 1 452 35
 674 0034 FB68     		ldr	r3, [r7, #12]
 675 0036 93F82830 		ldrb	r3, [r3, #40]	@ zero_extendqisi2
 676 003a 43F00403 		orr	r3, r3, #4
 677 003e DAB2     		uxtb	r2, r3
 678 0040 FB68     		ldr	r3, [r7, #12]
 679 0042 83F82820 		strb	r2, [r3, #40]
 680 0046 08E0     		b	.L39
 681              	.L38:
 453:../../../../dependencies/freertos/FreeRTOSv10.4.1/FreeRTOS/Source/timers.c ****             }
 454:../../../../dependencies/freertos/FreeRTOSv10.4.1/FreeRTOS/Source/timers.c ****             else
 455:../../../../dependencies/freertos/FreeRTOSv10.4.1/FreeRTOS/Source/timers.c ****             {
 456:../../../../dependencies/freertos/FreeRTOSv10.4.1/FreeRTOS/Source/timers.c ****                 pxTimer->ucStatus &= ~tmrSTATUS_IS_AUTORELOAD;
 682              		.loc 1 456 35
 683 0048 FB68     		ldr	r3, [r7, #12]
 684 004a 93F82830 		ldrb	r3, [r3, #40]	@ zero_extendqisi2
 685 004e 23F00403 		bic	r3, r3, #4
 686 0052 DAB2     		uxtb	r2, r3
 687 0054 FB68     		ldr	r3, [r7, #12]
 688 0056 83F82820 		strb	r2, [r3, #40]
 689              	.L39:
 457:../../../../dependencies/freertos/FreeRTOSv10.4.1/FreeRTOS/Source/timers.c ****             }
 458:../../../../dependencies/freertos/FreeRTOSv10.4.1/FreeRTOS/Source/timers.c ****         }
 459:../../../../dependencies/freertos/FreeRTOSv10.4.1/FreeRTOS/Source/timers.c ****         taskEXIT_CRITICAL();
 690              		.loc 1 459 9
 691 005a FFF7FEFF 		bl	vPortExitCritical
 460:../../../../dependencies/freertos/FreeRTOSv10.4.1/FreeRTOS/Source/timers.c ****     }
 692              		.loc 1 460 5
 693 005e 00BF     		nop
 694 0060 1037     		adds	r7, r7, #16
 695              	.LCFI35:
 696              		.cfi_def_cfa_offset 8
 697 0062 BD46     		mov	sp, r7
 698              	.LCFI36:
 699              		.cfi_def_cfa_register 13
 700              		@ sp needed
 701 0064 80BD     		pop	{r7, pc}
 702              		.cfi_endproc
 703              	.LFE11:
 705              		.section	.text.uxTimerGetReloadMode,"ax",%progbits
 706              		.align	1
 707              		.global	uxTimerGetReloadMode
 708              		.syntax unified
 709              		.thumb
 710              		.thumb_func
 711              		.fpu fpv4-sp-d16
 713              	uxTimerGetReloadMode:
 714              	.LFB12:
 461:../../../../dependencies/freertos/FreeRTOSv10.4.1/FreeRTOS/Source/timers.c **** /*-----------------------------------------------------------*/
 462:../../../../dependencies/freertos/FreeRTOSv10.4.1/FreeRTOS/Source/timers.c **** 
ARM GAS  /var/folders/kj/yzqgq53j3dg15vgwwwwgf5s00000gn/T//cc5BPkVE.s 			page 25


 463:../../../../dependencies/freertos/FreeRTOSv10.4.1/FreeRTOS/Source/timers.c ****     UBaseType_t uxTimerGetReloadMode( TimerHandle_t xTimer )
 464:../../../../dependencies/freertos/FreeRTOSv10.4.1/FreeRTOS/Source/timers.c ****     {
 715              		.loc 1 464 5
 716              		.cfi_startproc
 717              		@ args = 0, pretend = 0, frame = 24
 718              		@ frame_needed = 1, uses_anonymous_args = 0
 719 0000 80B5     		push	{r7, lr}
 720              	.LCFI37:
 721              		.cfi_def_cfa_offset 8
 722              		.cfi_offset 7, -8
 723              		.cfi_offset 14, -4
 724 0002 86B0     		sub	sp, sp, #24
 725              	.LCFI38:
 726              		.cfi_def_cfa_offset 32
 727 0004 00AF     		add	r7, sp, #0
 728              	.LCFI39:
 729              		.cfi_def_cfa_register 7
 730 0006 7860     		str	r0, [r7, #4]
 465:../../../../dependencies/freertos/FreeRTOSv10.4.1/FreeRTOS/Source/timers.c ****         Timer_t * pxTimer = xTimer;
 731              		.loc 1 465 19
 732 0008 7B68     		ldr	r3, [r7, #4]
 733 000a 3B61     		str	r3, [r7, #16]
 466:../../../../dependencies/freertos/FreeRTOSv10.4.1/FreeRTOS/Source/timers.c ****         UBaseType_t uxReturn;
 467:../../../../dependencies/freertos/FreeRTOSv10.4.1/FreeRTOS/Source/timers.c **** 
 468:../../../../dependencies/freertos/FreeRTOSv10.4.1/FreeRTOS/Source/timers.c ****         configASSERT( xTimer );
 734              		.loc 1 468 9
 735 000c 7B68     		ldr	r3, [r7, #4]
 736 000e 002B     		cmp	r3, #0
 737 0010 0AD1     		bne	.L41
 738              	.LBB46:
 739              	.LBB47:
 197:../../../../dependencies/freertos/FreeRTOSv10.4.1/FreeRTOS/Source/portable/GCC/ARM_CM4F/portmacro.h ****         (
 740              		.loc 2 197 9
 741              		.syntax unified
 742              	@ 197 "../../../../dependencies/freertos/FreeRTOSv10.4.1/FreeRTOS/Source/portable/GCC/ARM_CM4F/port
 743 0012 4FF05003 			mov r3, #80												
 744 0016 83F31188 		msr basepri, r3											
 745 001a BFF36F8F 		isb														
 746 001e BFF34F8F 		dsb														
 747              	
 748              	@ 0 "" 2
 749              		.thumb
 750              		.syntax unified
 751 0022 FB60     		str	r3, [r7, #12]
 752              		.loc 2 205 5
 753 0024 00BF     		nop
 754              	.L42:
 755              	.LBE47:
 756              	.LBE46:
 757              		.loc 1 468 9 discriminator 1
 758 0026 FEE7     		b	.L42
 759              	.L41:
 469:../../../../dependencies/freertos/FreeRTOSv10.4.1/FreeRTOS/Source/timers.c ****         taskENTER_CRITICAL();
 760              		.loc 1 469 9
 761 0028 FFF7FEFF 		bl	vPortEnterCritical
 470:../../../../dependencies/freertos/FreeRTOSv10.4.1/FreeRTOS/Source/timers.c ****         {
 471:../../../../dependencies/freertos/FreeRTOSv10.4.1/FreeRTOS/Source/timers.c ****             if( ( pxTimer->ucStatus & tmrSTATUS_IS_AUTORELOAD ) == 0 )
ARM GAS  /var/folders/kj/yzqgq53j3dg15vgwwwwgf5s00000gn/T//cc5BPkVE.s 			page 26


 762              		.loc 1 471 26
 763 002c 3B69     		ldr	r3, [r7, #16]
 764 002e 93F82830 		ldrb	r3, [r3, #40]	@ zero_extendqisi2
 765              		.loc 1 471 37
 766 0032 03F00403 		and	r3, r3, #4
 767              		.loc 1 471 15
 768 0036 002B     		cmp	r3, #0
 769 0038 02D1     		bne	.L43
 472:../../../../dependencies/freertos/FreeRTOSv10.4.1/FreeRTOS/Source/timers.c ****             {
 473:../../../../dependencies/freertos/FreeRTOSv10.4.1/FreeRTOS/Source/timers.c ****                 /* Not an auto-reload timer. */
 474:../../../../dependencies/freertos/FreeRTOSv10.4.1/FreeRTOS/Source/timers.c ****                 uxReturn = ( UBaseType_t ) pdFALSE;
 770              		.loc 1 474 26
 771 003a 0023     		movs	r3, #0
 772 003c 7B61     		str	r3, [r7, #20]
 773 003e 01E0     		b	.L44
 774              	.L43:
 475:../../../../dependencies/freertos/FreeRTOSv10.4.1/FreeRTOS/Source/timers.c ****             }
 476:../../../../dependencies/freertos/FreeRTOSv10.4.1/FreeRTOS/Source/timers.c ****             else
 477:../../../../dependencies/freertos/FreeRTOSv10.4.1/FreeRTOS/Source/timers.c ****             {
 478:../../../../dependencies/freertos/FreeRTOSv10.4.1/FreeRTOS/Source/timers.c ****                 /* Is an auto-reload timer. */
 479:../../../../dependencies/freertos/FreeRTOSv10.4.1/FreeRTOS/Source/timers.c ****                 uxReturn = ( UBaseType_t ) pdTRUE;
 775              		.loc 1 479 26
 776 0040 0123     		movs	r3, #1
 777 0042 7B61     		str	r3, [r7, #20]
 778              	.L44:
 480:../../../../dependencies/freertos/FreeRTOSv10.4.1/FreeRTOS/Source/timers.c ****             }
 481:../../../../dependencies/freertos/FreeRTOSv10.4.1/FreeRTOS/Source/timers.c ****         }
 482:../../../../dependencies/freertos/FreeRTOSv10.4.1/FreeRTOS/Source/timers.c ****         taskEXIT_CRITICAL();
 779              		.loc 1 482 9
 780 0044 FFF7FEFF 		bl	vPortExitCritical
 483:../../../../dependencies/freertos/FreeRTOSv10.4.1/FreeRTOS/Source/timers.c **** 
 484:../../../../dependencies/freertos/FreeRTOSv10.4.1/FreeRTOS/Source/timers.c ****         return uxReturn;
 781              		.loc 1 484 16
 782 0048 7B69     		ldr	r3, [r7, #20]
 485:../../../../dependencies/freertos/FreeRTOSv10.4.1/FreeRTOS/Source/timers.c ****     }
 783              		.loc 1 485 5
 784 004a 1846     		mov	r0, r3
 785 004c 1837     		adds	r7, r7, #24
 786              	.LCFI40:
 787              		.cfi_def_cfa_offset 8
 788 004e BD46     		mov	sp, r7
 789              	.LCFI41:
 790              		.cfi_def_cfa_register 13
 791              		@ sp needed
 792 0050 80BD     		pop	{r7, pc}
 793              		.cfi_endproc
 794              	.LFE12:
 796              		.section	.text.xTimerGetExpiryTime,"ax",%progbits
 797              		.align	1
 798              		.global	xTimerGetExpiryTime
 799              		.syntax unified
 800              		.thumb
 801              		.thumb_func
 802              		.fpu fpv4-sp-d16
 804              	xTimerGetExpiryTime:
 805              	.LFB13:
 486:../../../../dependencies/freertos/FreeRTOSv10.4.1/FreeRTOS/Source/timers.c **** /*-----------------------------------------------------------*/
ARM GAS  /var/folders/kj/yzqgq53j3dg15vgwwwwgf5s00000gn/T//cc5BPkVE.s 			page 27


 487:../../../../dependencies/freertos/FreeRTOSv10.4.1/FreeRTOS/Source/timers.c **** 
 488:../../../../dependencies/freertos/FreeRTOSv10.4.1/FreeRTOS/Source/timers.c ****     TickType_t xTimerGetExpiryTime( TimerHandle_t xTimer )
 489:../../../../dependencies/freertos/FreeRTOSv10.4.1/FreeRTOS/Source/timers.c ****     {
 806              		.loc 1 489 5
 807              		.cfi_startproc
 808              		@ args = 0, pretend = 0, frame = 24
 809              		@ frame_needed = 1, uses_anonymous_args = 0
 810              		@ link register save eliminated.
 811 0000 80B4     		push	{r7}
 812              	.LCFI42:
 813              		.cfi_def_cfa_offset 4
 814              		.cfi_offset 7, -4
 815 0002 87B0     		sub	sp, sp, #28
 816              	.LCFI43:
 817              		.cfi_def_cfa_offset 32
 818 0004 00AF     		add	r7, sp, #0
 819              	.LCFI44:
 820              		.cfi_def_cfa_register 7
 821 0006 7860     		str	r0, [r7, #4]
 490:../../../../dependencies/freertos/FreeRTOSv10.4.1/FreeRTOS/Source/timers.c ****         Timer_t * pxTimer = xTimer;
 822              		.loc 1 490 19
 823 0008 7B68     		ldr	r3, [r7, #4]
 824 000a 7B61     		str	r3, [r7, #20]
 491:../../../../dependencies/freertos/FreeRTOSv10.4.1/FreeRTOS/Source/timers.c ****         TickType_t xReturn;
 492:../../../../dependencies/freertos/FreeRTOSv10.4.1/FreeRTOS/Source/timers.c **** 
 493:../../../../dependencies/freertos/FreeRTOSv10.4.1/FreeRTOS/Source/timers.c ****         configASSERT( xTimer );
 825              		.loc 1 493 9
 826 000c 7B68     		ldr	r3, [r7, #4]
 827 000e 002B     		cmp	r3, #0
 828 0010 0AD1     		bne	.L47
 829              	.LBB48:
 830              	.LBB49:
 197:../../../../dependencies/freertos/FreeRTOSv10.4.1/FreeRTOS/Source/portable/GCC/ARM_CM4F/portmacro.h ****         (
 831              		.loc 2 197 9
 832              		.syntax unified
 833              	@ 197 "../../../../dependencies/freertos/FreeRTOSv10.4.1/FreeRTOS/Source/portable/GCC/ARM_CM4F/port
 834 0012 4FF05003 			mov r3, #80												
 835 0016 83F31188 		msr basepri, r3											
 836 001a BFF36F8F 		isb														
 837 001e BFF34F8F 		dsb														
 838              	
 839              	@ 0 "" 2
 840              		.thumb
 841              		.syntax unified
 842 0022 FB60     		str	r3, [r7, #12]
 843              		.loc 2 205 5
 844 0024 00BF     		nop
 845              	.L48:
 846              	.LBE49:
 847              	.LBE48:
 848              		.loc 1 493 9 discriminator 1
 849 0026 FEE7     		b	.L48
 850              	.L47:
 494:../../../../dependencies/freertos/FreeRTOSv10.4.1/FreeRTOS/Source/timers.c ****         xReturn = listGET_LIST_ITEM_VALUE( &( pxTimer->xTimerListItem ) );
 851              		.loc 1 494 17
 852 0028 7B69     		ldr	r3, [r7, #20]
 853 002a 5B68     		ldr	r3, [r3, #4]
ARM GAS  /var/folders/kj/yzqgq53j3dg15vgwwwwgf5s00000gn/T//cc5BPkVE.s 			page 28


 854 002c 3B61     		str	r3, [r7, #16]
 495:../../../../dependencies/freertos/FreeRTOSv10.4.1/FreeRTOS/Source/timers.c ****         return xReturn;
 855              		.loc 1 495 16
 856 002e 3B69     		ldr	r3, [r7, #16]
 496:../../../../dependencies/freertos/FreeRTOSv10.4.1/FreeRTOS/Source/timers.c ****     }
 857              		.loc 1 496 5
 858 0030 1846     		mov	r0, r3
 859 0032 1C37     		adds	r7, r7, #28
 860              	.LCFI45:
 861              		.cfi_def_cfa_offset 4
 862 0034 BD46     		mov	sp, r7
 863              	.LCFI46:
 864              		.cfi_def_cfa_register 13
 865              		@ sp needed
 866 0036 5DF8047B 		ldr	r7, [sp], #4
 867              	.LCFI47:
 868              		.cfi_restore 7
 869              		.cfi_def_cfa_offset 0
 870 003a 7047     		bx	lr
 871              		.cfi_endproc
 872              	.LFE13:
 874              		.section	.text.pcTimerGetName,"ax",%progbits
 875              		.align	1
 876              		.global	pcTimerGetName
 877              		.syntax unified
 878              		.thumb
 879              		.thumb_func
 880              		.fpu fpv4-sp-d16
 882              	pcTimerGetName:
 883              	.LFB14:
 497:../../../../dependencies/freertos/FreeRTOSv10.4.1/FreeRTOS/Source/timers.c **** /*-----------------------------------------------------------*/
 498:../../../../dependencies/freertos/FreeRTOSv10.4.1/FreeRTOS/Source/timers.c **** 
 499:../../../../dependencies/freertos/FreeRTOSv10.4.1/FreeRTOS/Source/timers.c ****     const char * pcTimerGetName( TimerHandle_t xTimer ) /*lint !e971 Unqualified char types are all
 500:../../../../dependencies/freertos/FreeRTOSv10.4.1/FreeRTOS/Source/timers.c ****     {
 884              		.loc 1 500 5
 885              		.cfi_startproc
 886              		@ args = 0, pretend = 0, frame = 16
 887              		@ frame_needed = 1, uses_anonymous_args = 0
 888              		@ link register save eliminated.
 889 0000 80B4     		push	{r7}
 890              	.LCFI48:
 891              		.cfi_def_cfa_offset 4
 892              		.cfi_offset 7, -4
 893 0002 85B0     		sub	sp, sp, #20
 894              	.LCFI49:
 895              		.cfi_def_cfa_offset 24
 896 0004 00AF     		add	r7, sp, #0
 897              	.LCFI50:
 898              		.cfi_def_cfa_register 7
 899 0006 7860     		str	r0, [r7, #4]
 501:../../../../dependencies/freertos/FreeRTOSv10.4.1/FreeRTOS/Source/timers.c ****         Timer_t * pxTimer = xTimer;
 900              		.loc 1 501 19
 901 0008 7B68     		ldr	r3, [r7, #4]
 902 000a FB60     		str	r3, [r7, #12]
 502:../../../../dependencies/freertos/FreeRTOSv10.4.1/FreeRTOS/Source/timers.c **** 
 503:../../../../dependencies/freertos/FreeRTOSv10.4.1/FreeRTOS/Source/timers.c ****         configASSERT( xTimer );
 903              		.loc 1 503 9
ARM GAS  /var/folders/kj/yzqgq53j3dg15vgwwwwgf5s00000gn/T//cc5BPkVE.s 			page 29


 904 000c 7B68     		ldr	r3, [r7, #4]
 905 000e 002B     		cmp	r3, #0
 906 0010 0AD1     		bne	.L51
 907              	.LBB50:
 908              	.LBB51:
 197:../../../../dependencies/freertos/FreeRTOSv10.4.1/FreeRTOS/Source/portable/GCC/ARM_CM4F/portmacro.h ****         (
 909              		.loc 2 197 9
 910              		.syntax unified
 911              	@ 197 "../../../../dependencies/freertos/FreeRTOSv10.4.1/FreeRTOS/Source/portable/GCC/ARM_CM4F/port
 912 0012 4FF05003 			mov r3, #80												
 913 0016 83F31188 		msr basepri, r3											
 914 001a BFF36F8F 		isb														
 915 001e BFF34F8F 		dsb														
 916              	
 917              	@ 0 "" 2
 918              		.thumb
 919              		.syntax unified
 920 0022 BB60     		str	r3, [r7, #8]
 921              		.loc 2 205 5
 922 0024 00BF     		nop
 923              	.L52:
 924              	.LBE51:
 925              	.LBE50:
 926              		.loc 1 503 9 discriminator 1
 927 0026 FEE7     		b	.L52
 928              	.L51:
 504:../../../../dependencies/freertos/FreeRTOSv10.4.1/FreeRTOS/Source/timers.c ****         return pxTimer->pcTimerName;
 929              		.loc 1 504 23
 930 0028 FB68     		ldr	r3, [r7, #12]
 931 002a 1B68     		ldr	r3, [r3]
 505:../../../../dependencies/freertos/FreeRTOSv10.4.1/FreeRTOS/Source/timers.c ****     }
 932              		.loc 1 505 5
 933 002c 1846     		mov	r0, r3
 934 002e 1437     		adds	r7, r7, #20
 935              	.LCFI51:
 936              		.cfi_def_cfa_offset 4
 937 0030 BD46     		mov	sp, r7
 938              	.LCFI52:
 939              		.cfi_def_cfa_register 13
 940              		@ sp needed
 941 0032 5DF8047B 		ldr	r7, [sp], #4
 942              	.LCFI53:
 943              		.cfi_restore 7
 944              		.cfi_def_cfa_offset 0
 945 0036 7047     		bx	lr
 946              		.cfi_endproc
 947              	.LFE14:
 949              		.section	.text.prvProcessExpiredTimer,"ax",%progbits
 950              		.align	1
 951              		.syntax unified
 952              		.thumb
 953              		.thumb_func
 954              		.fpu fpv4-sp-d16
 956              	prvProcessExpiredTimer:
 957              	.LFB15:
 506:../../../../dependencies/freertos/FreeRTOSv10.4.1/FreeRTOS/Source/timers.c **** /*-----------------------------------------------------------*/
 507:../../../../dependencies/freertos/FreeRTOSv10.4.1/FreeRTOS/Source/timers.c **** 
ARM GAS  /var/folders/kj/yzqgq53j3dg15vgwwwwgf5s00000gn/T//cc5BPkVE.s 			page 30


 508:../../../../dependencies/freertos/FreeRTOSv10.4.1/FreeRTOS/Source/timers.c ****     static void prvProcessExpiredTimer( const TickType_t xNextExpireTime,
 509:../../../../dependencies/freertos/FreeRTOSv10.4.1/FreeRTOS/Source/timers.c ****                                         const TickType_t xTimeNow )
 510:../../../../dependencies/freertos/FreeRTOSv10.4.1/FreeRTOS/Source/timers.c ****     {
 958              		.loc 1 510 5
 959              		.cfi_startproc
 960              		@ args = 0, pretend = 0, frame = 24
 961              		@ frame_needed = 1, uses_anonymous_args = 0
 962 0000 80B5     		push	{r7, lr}
 963              	.LCFI54:
 964              		.cfi_def_cfa_offset 8
 965              		.cfi_offset 7, -8
 966              		.cfi_offset 14, -4
 967 0002 88B0     		sub	sp, sp, #32
 968              	.LCFI55:
 969              		.cfi_def_cfa_offset 40
 970 0004 02AF     		add	r7, sp, #8
 971              	.LCFI56:
 972              		.cfi_def_cfa 7, 32
 973 0006 7860     		str	r0, [r7, #4]
 974 0008 3960     		str	r1, [r7]
 511:../../../../dependencies/freertos/FreeRTOSv10.4.1/FreeRTOS/Source/timers.c ****         BaseType_t xResult;
 512:../../../../dependencies/freertos/FreeRTOSv10.4.1/FreeRTOS/Source/timers.c ****         Timer_t * const pxTimer = ( Timer_t * ) listGET_OWNER_OF_HEAD_ENTRY( pxCurrentTimerList ); 
 975              		.loc 1 512 49
 976 000a 224B     		ldr	r3, .L58
 977 000c 1B68     		ldr	r3, [r3]
 978 000e DB68     		ldr	r3, [r3, #12]
 979              		.loc 1 512 25
 980 0010 DB68     		ldr	r3, [r3, #12]
 981 0012 7B61     		str	r3, [r7, #20]
 513:../../../../dependencies/freertos/FreeRTOSv10.4.1/FreeRTOS/Source/timers.c **** 
 514:../../../../dependencies/freertos/FreeRTOSv10.4.1/FreeRTOS/Source/timers.c ****         /* Remove the timer from the list of active timers.  A check has already
 515:../../../../dependencies/freertos/FreeRTOSv10.4.1/FreeRTOS/Source/timers.c ****          * been performed to ensure the list is not empty. */
 516:../../../../dependencies/freertos/FreeRTOSv10.4.1/FreeRTOS/Source/timers.c **** 
 517:../../../../dependencies/freertos/FreeRTOSv10.4.1/FreeRTOS/Source/timers.c ****         ( void ) uxListRemove( &( pxTimer->xTimerListItem ) );
 982              		.loc 1 517 18
 983 0014 7B69     		ldr	r3, [r7, #20]
 984 0016 0433     		adds	r3, r3, #4
 985 0018 1846     		mov	r0, r3
 986 001a FFF7FEFF 		bl	uxListRemove
 518:../../../../dependencies/freertos/FreeRTOSv10.4.1/FreeRTOS/Source/timers.c ****         traceTIMER_EXPIRED( pxTimer );
 519:../../../../dependencies/freertos/FreeRTOSv10.4.1/FreeRTOS/Source/timers.c **** 
 520:../../../../dependencies/freertos/FreeRTOSv10.4.1/FreeRTOS/Source/timers.c ****         /* If the timer is an auto-reload timer then calculate the next
 521:../../../../dependencies/freertos/FreeRTOSv10.4.1/FreeRTOS/Source/timers.c ****          * expiry time and re-insert the timer in the list of active timers. */
 522:../../../../dependencies/freertos/FreeRTOSv10.4.1/FreeRTOS/Source/timers.c ****         if( ( pxTimer->ucStatus & tmrSTATUS_IS_AUTORELOAD ) != 0 )
 987              		.loc 1 522 22
 988 001e 7B69     		ldr	r3, [r7, #20]
 989 0020 93F82830 		ldrb	r3, [r3, #40]	@ zero_extendqisi2
 990              		.loc 1 522 33
 991 0024 03F00403 		and	r3, r3, #4
 992              		.loc 1 522 11
 993 0028 002B     		cmp	r3, #0
 994 002a 22D0     		beq	.L55
 523:../../../../dependencies/freertos/FreeRTOSv10.4.1/FreeRTOS/Source/timers.c ****         {
 524:../../../../dependencies/freertos/FreeRTOSv10.4.1/FreeRTOS/Source/timers.c ****             /* The timer is inserted into a list using a time relative to anything
 525:../../../../dependencies/freertos/FreeRTOSv10.4.1/FreeRTOS/Source/timers.c ****              * other than the current time.  It will therefore be inserted into the
 526:../../../../dependencies/freertos/FreeRTOSv10.4.1/FreeRTOS/Source/timers.c ****              * correct list relative to the time this task thinks it is now. */
 527:../../../../dependencies/freertos/FreeRTOSv10.4.1/FreeRTOS/Source/timers.c ****             if( prvInsertTimerInActiveList( pxTimer, ( xNextExpireTime + pxTimer->xTimerPeriodInTic
ARM GAS  /var/folders/kj/yzqgq53j3dg15vgwwwwgf5s00000gn/T//cc5BPkVE.s 			page 31


 995              		.loc 1 527 81
 996 002c 7B69     		ldr	r3, [r7, #20]
 997 002e 9A69     		ldr	r2, [r3, #24]
 998              		.loc 1 527 17
 999 0030 7B68     		ldr	r3, [r7, #4]
 1000 0032 D118     		adds	r1, r2, r3
 1001 0034 7B68     		ldr	r3, [r7, #4]
 1002 0036 3A68     		ldr	r2, [r7]
 1003 0038 7869     		ldr	r0, [r7, #20]
 1004 003a FFF7FEFF 		bl	prvInsertTimerInActiveList
 1005 003e 0346     		mov	r3, r0
 1006              		.loc 1 527 15
 1007 0040 002B     		cmp	r3, #0
 1008 0042 1FD0     		beq	.L56
 528:../../../../dependencies/freertos/FreeRTOSv10.4.1/FreeRTOS/Source/timers.c ****             {
 529:../../../../dependencies/freertos/FreeRTOSv10.4.1/FreeRTOS/Source/timers.c ****                 /* The timer expired before it was added to the active timer
 530:../../../../dependencies/freertos/FreeRTOSv10.4.1/FreeRTOS/Source/timers.c ****                  * list.  Reload it now.  */
 531:../../../../dependencies/freertos/FreeRTOSv10.4.1/FreeRTOS/Source/timers.c ****                 xResult = xTimerGenericCommand( pxTimer, tmrCOMMAND_START_DONT_TRACE, xNextExpireTi
 1009              		.loc 1 531 27
 1010 0044 0023     		movs	r3, #0
 1011 0046 0093     		str	r3, [sp]
 1012 0048 0023     		movs	r3, #0
 1013 004a 7A68     		ldr	r2, [r7, #4]
 1014 004c 0021     		movs	r1, #0
 1015 004e 7869     		ldr	r0, [r7, #20]
 1016 0050 FFF7FEFF 		bl	xTimerGenericCommand
 1017 0054 3861     		str	r0, [r7, #16]
 532:../../../../dependencies/freertos/FreeRTOSv10.4.1/FreeRTOS/Source/timers.c ****                 configASSERT( xResult );
 1018              		.loc 1 532 17
 1019 0056 3B69     		ldr	r3, [r7, #16]
 1020 0058 002B     		cmp	r3, #0
 1021 005a 13D1     		bne	.L56
 1022              	.LBB52:
 1023              	.LBB53:
 197:../../../../dependencies/freertos/FreeRTOSv10.4.1/FreeRTOS/Source/portable/GCC/ARM_CM4F/portmacro.h ****         (
 1024              		.loc 2 197 9
 1025              		.syntax unified
 1026              	@ 197 "../../../../dependencies/freertos/FreeRTOSv10.4.1/FreeRTOS/Source/portable/GCC/ARM_CM4F/port
 1027 005c 4FF05003 			mov r3, #80												
 1028 0060 83F31188 		msr basepri, r3											
 1029 0064 BFF36F8F 		isb														
 1030 0068 BFF34F8F 		dsb														
 1031              	
 1032              	@ 0 "" 2
 1033              		.thumb
 1034              		.syntax unified
 1035 006c FB60     		str	r3, [r7, #12]
 1036              		.loc 2 205 5
 1037 006e 00BF     		nop
 1038              	.L57:
 1039              	.LBE53:
 1040              	.LBE52:
 1041              		.loc 1 532 17 discriminator 1
 1042 0070 FEE7     		b	.L57
 1043              	.L55:
 533:../../../../dependencies/freertos/FreeRTOSv10.4.1/FreeRTOS/Source/timers.c ****                 ( void ) xResult;
 534:../../../../dependencies/freertos/FreeRTOSv10.4.1/FreeRTOS/Source/timers.c ****             }
ARM GAS  /var/folders/kj/yzqgq53j3dg15vgwwwwgf5s00000gn/T//cc5BPkVE.s 			page 32


 535:../../../../dependencies/freertos/FreeRTOSv10.4.1/FreeRTOS/Source/timers.c ****             else
 536:../../../../dependencies/freertos/FreeRTOSv10.4.1/FreeRTOS/Source/timers.c ****             {
 537:../../../../dependencies/freertos/FreeRTOSv10.4.1/FreeRTOS/Source/timers.c ****                 mtCOVERAGE_TEST_MARKER();
 538:../../../../dependencies/freertos/FreeRTOSv10.4.1/FreeRTOS/Source/timers.c ****             }
 539:../../../../dependencies/freertos/FreeRTOSv10.4.1/FreeRTOS/Source/timers.c ****         }
 540:../../../../dependencies/freertos/FreeRTOSv10.4.1/FreeRTOS/Source/timers.c ****         else
 541:../../../../dependencies/freertos/FreeRTOSv10.4.1/FreeRTOS/Source/timers.c ****         {
 542:../../../../dependencies/freertos/FreeRTOSv10.4.1/FreeRTOS/Source/timers.c ****             pxTimer->ucStatus &= ~tmrSTATUS_IS_ACTIVE;
 1044              		.loc 1 542 31
 1045 0072 7B69     		ldr	r3, [r7, #20]
 1046 0074 93F82830 		ldrb	r3, [r3, #40]	@ zero_extendqisi2
 1047 0078 23F00103 		bic	r3, r3, #1
 1048 007c DAB2     		uxtb	r2, r3
 1049 007e 7B69     		ldr	r3, [r7, #20]
 1050 0080 83F82820 		strb	r2, [r3, #40]
 1051              	.L56:
 543:../../../../dependencies/freertos/FreeRTOSv10.4.1/FreeRTOS/Source/timers.c ****             mtCOVERAGE_TEST_MARKER();
 544:../../../../dependencies/freertos/FreeRTOSv10.4.1/FreeRTOS/Source/timers.c ****         }
 545:../../../../dependencies/freertos/FreeRTOSv10.4.1/FreeRTOS/Source/timers.c **** 
 546:../../../../dependencies/freertos/FreeRTOSv10.4.1/FreeRTOS/Source/timers.c ****         /* Call the timer callback. */
 547:../../../../dependencies/freertos/FreeRTOSv10.4.1/FreeRTOS/Source/timers.c ****         pxTimer->pxCallbackFunction( ( TimerHandle_t ) pxTimer );
 1052              		.loc 1 547 16
 1053 0084 7B69     		ldr	r3, [r7, #20]
 1054 0086 1B6A     		ldr	r3, [r3, #32]
 1055              		.loc 1 547 9
 1056 0088 7869     		ldr	r0, [r7, #20]
 1057 008a 9847     		blx	r3
 1058              	.LVL0:
 548:../../../../dependencies/freertos/FreeRTOSv10.4.1/FreeRTOS/Source/timers.c ****     }
 1059              		.loc 1 548 5
 1060 008c 00BF     		nop
 1061 008e 1837     		adds	r7, r7, #24
 1062              	.LCFI57:
 1063              		.cfi_def_cfa_offset 8
 1064 0090 BD46     		mov	sp, r7
 1065              	.LCFI58:
 1066              		.cfi_def_cfa_register 13
 1067              		@ sp needed
 1068 0092 80BD     		pop	{r7, pc}
 1069              	.L59:
 1070              		.align	2
 1071              	.L58:
 1072 0094 00000000 		.word	pxCurrentTimerList
 1073              		.cfi_endproc
 1074              	.LFE15:
 1076              		.section	.text.prvTimerTask,"ax",%progbits
 1077              		.align	1
 1078              		.syntax unified
 1079              		.thumb
 1080              		.thumb_func
 1081              		.fpu fpv4-sp-d16
 1083              	prvTimerTask:
 1084              	.LFB16:
 549:../../../../dependencies/freertos/FreeRTOSv10.4.1/FreeRTOS/Source/timers.c **** /*-----------------------------------------------------------*/
 550:../../../../dependencies/freertos/FreeRTOSv10.4.1/FreeRTOS/Source/timers.c **** 
 551:../../../../dependencies/freertos/FreeRTOSv10.4.1/FreeRTOS/Source/timers.c ****     static portTASK_FUNCTION( prvTimerTask, pvParameters )
 552:../../../../dependencies/freertos/FreeRTOSv10.4.1/FreeRTOS/Source/timers.c ****     {
ARM GAS  /var/folders/kj/yzqgq53j3dg15vgwwwwgf5s00000gn/T//cc5BPkVE.s 			page 33


 1085              		.loc 1 552 5
 1086              		.cfi_startproc
 1087              		@ args = 0, pretend = 0, frame = 16
 1088              		@ frame_needed = 1, uses_anonymous_args = 0
 1089 0000 80B5     		push	{r7, lr}
 1090              	.LCFI59:
 1091              		.cfi_def_cfa_offset 8
 1092              		.cfi_offset 7, -8
 1093              		.cfi_offset 14, -4
 1094 0002 84B0     		sub	sp, sp, #16
 1095              	.LCFI60:
 1096              		.cfi_def_cfa_offset 24
 1097 0004 00AF     		add	r7, sp, #0
 1098              	.LCFI61:
 1099              		.cfi_def_cfa_register 7
 1100 0006 7860     		str	r0, [r7, #4]
 1101              	.L61:
 553:../../../../dependencies/freertos/FreeRTOSv10.4.1/FreeRTOS/Source/timers.c ****         TickType_t xNextExpireTime;
 554:../../../../dependencies/freertos/FreeRTOSv10.4.1/FreeRTOS/Source/timers.c ****         BaseType_t xListWasEmpty;
 555:../../../../dependencies/freertos/FreeRTOSv10.4.1/FreeRTOS/Source/timers.c **** 
 556:../../../../dependencies/freertos/FreeRTOSv10.4.1/FreeRTOS/Source/timers.c ****         /* Just to avoid compiler warnings. */
 557:../../../../dependencies/freertos/FreeRTOSv10.4.1/FreeRTOS/Source/timers.c ****         ( void ) pvParameters;
 558:../../../../dependencies/freertos/FreeRTOSv10.4.1/FreeRTOS/Source/timers.c **** 
 559:../../../../dependencies/freertos/FreeRTOSv10.4.1/FreeRTOS/Source/timers.c ****         #if ( configUSE_DAEMON_TASK_STARTUP_HOOK == 1 )
 560:../../../../dependencies/freertos/FreeRTOSv10.4.1/FreeRTOS/Source/timers.c ****             {
 561:../../../../dependencies/freertos/FreeRTOSv10.4.1/FreeRTOS/Source/timers.c ****                 extern void vApplicationDaemonTaskStartupHook( void );
 562:../../../../dependencies/freertos/FreeRTOSv10.4.1/FreeRTOS/Source/timers.c **** 
 563:../../../../dependencies/freertos/FreeRTOSv10.4.1/FreeRTOS/Source/timers.c ****                 /* Allow the application writer to execute some code in the context of
 564:../../../../dependencies/freertos/FreeRTOSv10.4.1/FreeRTOS/Source/timers.c ****                  * this task at the point the task starts executing.  This is useful if the
 565:../../../../dependencies/freertos/FreeRTOSv10.4.1/FreeRTOS/Source/timers.c ****                  * application includes initialisation code that would benefit from
 566:../../../../dependencies/freertos/FreeRTOSv10.4.1/FreeRTOS/Source/timers.c ****                  * executing after the scheduler has been started. */
 567:../../../../dependencies/freertos/FreeRTOSv10.4.1/FreeRTOS/Source/timers.c ****                 vApplicationDaemonTaskStartupHook();
 568:../../../../dependencies/freertos/FreeRTOSv10.4.1/FreeRTOS/Source/timers.c ****             }
 569:../../../../dependencies/freertos/FreeRTOSv10.4.1/FreeRTOS/Source/timers.c ****         #endif /* configUSE_DAEMON_TASK_STARTUP_HOOK */
 570:../../../../dependencies/freertos/FreeRTOSv10.4.1/FreeRTOS/Source/timers.c **** 
 571:../../../../dependencies/freertos/FreeRTOSv10.4.1/FreeRTOS/Source/timers.c ****         for( ; ; )
 572:../../../../dependencies/freertos/FreeRTOSv10.4.1/FreeRTOS/Source/timers.c ****         {
 573:../../../../dependencies/freertos/FreeRTOSv10.4.1/FreeRTOS/Source/timers.c ****             /* Query the timers list to see if it contains any timers, and if so,
 574:../../../../dependencies/freertos/FreeRTOSv10.4.1/FreeRTOS/Source/timers.c ****              * obtain the time at which the next timer will expire. */
 575:../../../../dependencies/freertos/FreeRTOSv10.4.1/FreeRTOS/Source/timers.c ****             xNextExpireTime = prvGetNextExpireTime( &xListWasEmpty );
 1102              		.loc 1 575 31 discriminator 1
 1103 0008 07F10803 		add	r3, r7, #8
 1104 000c 1846     		mov	r0, r3
 1105 000e FFF7FEFF 		bl	prvGetNextExpireTime
 1106 0012 F860     		str	r0, [r7, #12]
 576:../../../../dependencies/freertos/FreeRTOSv10.4.1/FreeRTOS/Source/timers.c **** 
 577:../../../../dependencies/freertos/FreeRTOSv10.4.1/FreeRTOS/Source/timers.c ****             /* If a timer has expired, process it.  Otherwise, block this task
 578:../../../../dependencies/freertos/FreeRTOSv10.4.1/FreeRTOS/Source/timers.c ****              * until either a timer does expire, or a command is received. */
 579:../../../../dependencies/freertos/FreeRTOSv10.4.1/FreeRTOS/Source/timers.c ****             prvProcessTimerOrBlockTask( xNextExpireTime, xListWasEmpty );
 1107              		.loc 1 579 13 discriminator 1
 1108 0014 BB68     		ldr	r3, [r7, #8]
 1109 0016 1946     		mov	r1, r3
 1110 0018 F868     		ldr	r0, [r7, #12]
 1111 001a FFF7FEFF 		bl	prvProcessTimerOrBlockTask
 580:../../../../dependencies/freertos/FreeRTOSv10.4.1/FreeRTOS/Source/timers.c **** 
 581:../../../../dependencies/freertos/FreeRTOSv10.4.1/FreeRTOS/Source/timers.c ****             /* Empty the command queue. */
 582:../../../../dependencies/freertos/FreeRTOSv10.4.1/FreeRTOS/Source/timers.c ****             prvProcessReceivedCommands();
ARM GAS  /var/folders/kj/yzqgq53j3dg15vgwwwwgf5s00000gn/T//cc5BPkVE.s 			page 34


 1112              		.loc 1 582 13 discriminator 1
 1113 001e FFF7FEFF 		bl	prvProcessReceivedCommands
 575:../../../../dependencies/freertos/FreeRTOSv10.4.1/FreeRTOS/Source/timers.c **** 
 1114              		.loc 1 575 29 discriminator 1
 1115 0022 F1E7     		b	.L61
 1116              		.cfi_endproc
 1117              	.LFE16:
 1119              		.section	.text.prvProcessTimerOrBlockTask,"ax",%progbits
 1120              		.align	1
 1121              		.syntax unified
 1122              		.thumb
 1123              		.thumb_func
 1124              		.fpu fpv4-sp-d16
 1126              	prvProcessTimerOrBlockTask:
 1127              	.LFB17:
 583:../../../../dependencies/freertos/FreeRTOSv10.4.1/FreeRTOS/Source/timers.c ****         }
 584:../../../../dependencies/freertos/FreeRTOSv10.4.1/FreeRTOS/Source/timers.c ****     }
 585:../../../../dependencies/freertos/FreeRTOSv10.4.1/FreeRTOS/Source/timers.c **** /*-----------------------------------------------------------*/
 586:../../../../dependencies/freertos/FreeRTOSv10.4.1/FreeRTOS/Source/timers.c **** 
 587:../../../../dependencies/freertos/FreeRTOSv10.4.1/FreeRTOS/Source/timers.c ****     static void prvProcessTimerOrBlockTask( const TickType_t xNextExpireTime,
 588:../../../../dependencies/freertos/FreeRTOSv10.4.1/FreeRTOS/Source/timers.c ****                                             BaseType_t xListWasEmpty )
 589:../../../../dependencies/freertos/FreeRTOSv10.4.1/FreeRTOS/Source/timers.c ****     {
 1128              		.loc 1 589 5
 1129              		.cfi_startproc
 1130              		@ args = 0, pretend = 0, frame = 16
 1131              		@ frame_needed = 1, uses_anonymous_args = 0
 1132 0000 80B5     		push	{r7, lr}
 1133              	.LCFI62:
 1134              		.cfi_def_cfa_offset 8
 1135              		.cfi_offset 7, -8
 1136              		.cfi_offset 14, -4
 1137 0002 84B0     		sub	sp, sp, #16
 1138              	.LCFI63:
 1139              		.cfi_def_cfa_offset 24
 1140 0004 00AF     		add	r7, sp, #0
 1141              	.LCFI64:
 1142              		.cfi_def_cfa_register 7
 1143 0006 7860     		str	r0, [r7, #4]
 1144 0008 3960     		str	r1, [r7]
 590:../../../../dependencies/freertos/FreeRTOSv10.4.1/FreeRTOS/Source/timers.c ****         TickType_t xTimeNow;
 591:../../../../dependencies/freertos/FreeRTOSv10.4.1/FreeRTOS/Source/timers.c ****         BaseType_t xTimerListsWereSwitched;
 592:../../../../dependencies/freertos/FreeRTOSv10.4.1/FreeRTOS/Source/timers.c **** 
 593:../../../../dependencies/freertos/FreeRTOSv10.4.1/FreeRTOS/Source/timers.c ****         vTaskSuspendAll();
 1145              		.loc 1 593 9
 1146 000a FFF7FEFF 		bl	vTaskSuspendAll
 594:../../../../dependencies/freertos/FreeRTOSv10.4.1/FreeRTOS/Source/timers.c ****         {
 595:../../../../dependencies/freertos/FreeRTOSv10.4.1/FreeRTOS/Source/timers.c ****             /* Obtain the time now to make an assessment as to whether the timer
 596:../../../../dependencies/freertos/FreeRTOSv10.4.1/FreeRTOS/Source/timers.c ****              * has expired or not.  If obtaining the time causes the lists to switch
 597:../../../../dependencies/freertos/FreeRTOSv10.4.1/FreeRTOS/Source/timers.c ****              * then don't process this timer as any timers that remained in the list
 598:../../../../dependencies/freertos/FreeRTOSv10.4.1/FreeRTOS/Source/timers.c ****              * when the lists were switched will have been processed within the
 599:../../../../dependencies/freertos/FreeRTOSv10.4.1/FreeRTOS/Source/timers.c ****              * prvSampleTimeNow() function. */
 600:../../../../dependencies/freertos/FreeRTOSv10.4.1/FreeRTOS/Source/timers.c ****             xTimeNow = prvSampleTimeNow( &xTimerListsWereSwitched );
 1147              		.loc 1 600 24
 1148 000e 07F10803 		add	r3, r7, #8
 1149 0012 1846     		mov	r0, r3
 1150 0014 FFF7FEFF 		bl	prvSampleTimeNow
 1151 0018 F860     		str	r0, [r7, #12]
ARM GAS  /var/folders/kj/yzqgq53j3dg15vgwwwwgf5s00000gn/T//cc5BPkVE.s 			page 35


 601:../../../../dependencies/freertos/FreeRTOSv10.4.1/FreeRTOS/Source/timers.c **** 
 602:../../../../dependencies/freertos/FreeRTOSv10.4.1/FreeRTOS/Source/timers.c ****             if( xTimerListsWereSwitched == pdFALSE )
 1152              		.loc 1 602 41
 1153 001a BB68     		ldr	r3, [r7, #8]
 1154              		.loc 1 602 15
 1155 001c 002B     		cmp	r3, #0
 1156 001e 30D1     		bne	.L63
 603:../../../../dependencies/freertos/FreeRTOSv10.4.1/FreeRTOS/Source/timers.c ****             {
 604:../../../../dependencies/freertos/FreeRTOSv10.4.1/FreeRTOS/Source/timers.c ****                 /* The tick count has not overflowed, has the timer expired? */
 605:../../../../dependencies/freertos/FreeRTOSv10.4.1/FreeRTOS/Source/timers.c ****                 if( ( xListWasEmpty == pdFALSE ) && ( xNextExpireTime <= xTimeNow ) )
 1157              		.loc 1 605 19
 1158 0020 3B68     		ldr	r3, [r7]
 1159 0022 002B     		cmp	r3, #0
 1160 0024 0AD1     		bne	.L64
 1161              		.loc 1 605 50 discriminator 1
 1162 0026 7A68     		ldr	r2, [r7, #4]
 1163 0028 FB68     		ldr	r3, [r7, #12]
 1164 002a 9A42     		cmp	r2, r3
 1165 002c 06D8     		bhi	.L64
 606:../../../../dependencies/freertos/FreeRTOSv10.4.1/FreeRTOS/Source/timers.c ****                 {
 607:../../../../dependencies/freertos/FreeRTOSv10.4.1/FreeRTOS/Source/timers.c ****                     ( void ) xTaskResumeAll();
 1166              		.loc 1 607 30
 1167 002e FFF7FEFF 		bl	xTaskResumeAll
 608:../../../../dependencies/freertos/FreeRTOSv10.4.1/FreeRTOS/Source/timers.c ****                     prvProcessExpiredTimer( xNextExpireTime, xTimeNow );
 1168              		.loc 1 608 21
 1169 0032 F968     		ldr	r1, [r7, #12]
 1170 0034 7868     		ldr	r0, [r7, #4]
 1171 0036 FFF7FEFF 		bl	prvProcessExpiredTimer
 609:../../../../dependencies/freertos/FreeRTOSv10.4.1/FreeRTOS/Source/timers.c ****                 }
 610:../../../../dependencies/freertos/FreeRTOSv10.4.1/FreeRTOS/Source/timers.c ****                 else
 611:../../../../dependencies/freertos/FreeRTOSv10.4.1/FreeRTOS/Source/timers.c ****                 {
 612:../../../../dependencies/freertos/FreeRTOSv10.4.1/FreeRTOS/Source/timers.c ****                     /* The tick count has not overflowed, and the next expire
 613:../../../../dependencies/freertos/FreeRTOSv10.4.1/FreeRTOS/Source/timers.c ****                      * time has not been reached yet.  This task should therefore
 614:../../../../dependencies/freertos/FreeRTOSv10.4.1/FreeRTOS/Source/timers.c ****                      * block to wait for the next expire time or a command to be
 615:../../../../dependencies/freertos/FreeRTOSv10.4.1/FreeRTOS/Source/timers.c ****                      * received - whichever comes first.  The following line cannot
 616:../../../../dependencies/freertos/FreeRTOSv10.4.1/FreeRTOS/Source/timers.c ****                      * be reached unless xNextExpireTime > xTimeNow, except in the
 617:../../../../dependencies/freertos/FreeRTOSv10.4.1/FreeRTOS/Source/timers.c ****                      * case when the current timer list is empty. */
 618:../../../../dependencies/freertos/FreeRTOSv10.4.1/FreeRTOS/Source/timers.c ****                     if( xListWasEmpty != pdFALSE )
 619:../../../../dependencies/freertos/FreeRTOSv10.4.1/FreeRTOS/Source/timers.c ****                     {
 620:../../../../dependencies/freertos/FreeRTOSv10.4.1/FreeRTOS/Source/timers.c ****                         /* The current timer list is empty - is the overflow list
 621:../../../../dependencies/freertos/FreeRTOSv10.4.1/FreeRTOS/Source/timers.c ****                          * also empty? */
 622:../../../../dependencies/freertos/FreeRTOSv10.4.1/FreeRTOS/Source/timers.c ****                         xListWasEmpty = listLIST_IS_EMPTY( pxOverflowTimerList );
 623:../../../../dependencies/freertos/FreeRTOSv10.4.1/FreeRTOS/Source/timers.c ****                     }
 624:../../../../dependencies/freertos/FreeRTOSv10.4.1/FreeRTOS/Source/timers.c **** 
 625:../../../../dependencies/freertos/FreeRTOSv10.4.1/FreeRTOS/Source/timers.c ****                     vQueueWaitForMessageRestricted( xTimerQueue, ( xNextExpireTime - xTimeNow ), xL
 626:../../../../dependencies/freertos/FreeRTOSv10.4.1/FreeRTOS/Source/timers.c **** 
 627:../../../../dependencies/freertos/FreeRTOSv10.4.1/FreeRTOS/Source/timers.c ****                     if( xTaskResumeAll() == pdFALSE )
 628:../../../../dependencies/freertos/FreeRTOSv10.4.1/FreeRTOS/Source/timers.c ****                     {
 629:../../../../dependencies/freertos/FreeRTOSv10.4.1/FreeRTOS/Source/timers.c ****                         /* Yield to wait for either a command to arrive, or the
 630:../../../../dependencies/freertos/FreeRTOSv10.4.1/FreeRTOS/Source/timers.c ****                          * block time to expire.  If a command arrived between the
 631:../../../../dependencies/freertos/FreeRTOSv10.4.1/FreeRTOS/Source/timers.c ****                          * critical section being exited and this yield then the yield
 632:../../../../dependencies/freertos/FreeRTOSv10.4.1/FreeRTOS/Source/timers.c ****                          * will not cause the task to block. */
 633:../../../../dependencies/freertos/FreeRTOSv10.4.1/FreeRTOS/Source/timers.c ****                         portYIELD_WITHIN_API();
 634:../../../../dependencies/freertos/FreeRTOSv10.4.1/FreeRTOS/Source/timers.c ****                     }
 635:../../../../dependencies/freertos/FreeRTOSv10.4.1/FreeRTOS/Source/timers.c ****                     else
 636:../../../../dependencies/freertos/FreeRTOSv10.4.1/FreeRTOS/Source/timers.c ****                     {
 637:../../../../dependencies/freertos/FreeRTOSv10.4.1/FreeRTOS/Source/timers.c ****                         mtCOVERAGE_TEST_MARKER();
ARM GAS  /var/folders/kj/yzqgq53j3dg15vgwwwwgf5s00000gn/T//cc5BPkVE.s 			page 36


 638:../../../../dependencies/freertos/FreeRTOSv10.4.1/FreeRTOS/Source/timers.c ****                     }
 639:../../../../dependencies/freertos/FreeRTOSv10.4.1/FreeRTOS/Source/timers.c ****                 }
 640:../../../../dependencies/freertos/FreeRTOSv10.4.1/FreeRTOS/Source/timers.c ****             }
 641:../../../../dependencies/freertos/FreeRTOSv10.4.1/FreeRTOS/Source/timers.c ****             else
 642:../../../../dependencies/freertos/FreeRTOSv10.4.1/FreeRTOS/Source/timers.c ****             {
 643:../../../../dependencies/freertos/FreeRTOSv10.4.1/FreeRTOS/Source/timers.c ****                 ( void ) xTaskResumeAll();
 644:../../../../dependencies/freertos/FreeRTOSv10.4.1/FreeRTOS/Source/timers.c ****             }
 645:../../../../dependencies/freertos/FreeRTOSv10.4.1/FreeRTOS/Source/timers.c ****         }
 646:../../../../dependencies/freertos/FreeRTOSv10.4.1/FreeRTOS/Source/timers.c ****     }
 1172              		.loc 1 646 5
 1173 003a 24E0     		b	.L70
 1174              	.L64:
 618:../../../../dependencies/freertos/FreeRTOSv10.4.1/FreeRTOS/Source/timers.c ****                     {
 1175              		.loc 1 618 23
 1176 003c 3B68     		ldr	r3, [r7]
 1177 003e 002B     		cmp	r3, #0
 1178 0040 08D0     		beq	.L66
 622:../../../../dependencies/freertos/FreeRTOSv10.4.1/FreeRTOS/Source/timers.c ****                     }
 1179              		.loc 1 622 41
 1180 0042 134B     		ldr	r3, .L71
 1181 0044 1B68     		ldr	r3, [r3]
 1182 0046 1B68     		ldr	r3, [r3]
 1183 0048 002B     		cmp	r3, #0
 1184 004a 01D1     		bne	.L67
 622:../../../../dependencies/freertos/FreeRTOSv10.4.1/FreeRTOS/Source/timers.c ****                     }
 1185              		.loc 1 622 41 is_stmt 0 discriminator 1
 1186 004c 0123     		movs	r3, #1
 1187 004e 00E0     		b	.L68
 1188              	.L67:
 622:../../../../dependencies/freertos/FreeRTOSv10.4.1/FreeRTOS/Source/timers.c ****                     }
 1189              		.loc 1 622 41 discriminator 2
 1190 0050 0023     		movs	r3, #0
 1191              	.L68:
 622:../../../../dependencies/freertos/FreeRTOSv10.4.1/FreeRTOS/Source/timers.c ****                     }
 1192              		.loc 1 622 39 is_stmt 1 discriminator 4
 1193 0052 3B60     		str	r3, [r7]
 1194              	.L66:
 625:../../../../dependencies/freertos/FreeRTOSv10.4.1/FreeRTOS/Source/timers.c **** 
 1195              		.loc 1 625 21
 1196 0054 0F4B     		ldr	r3, .L71+4
 1197 0056 1868     		ldr	r0, [r3]
 1198 0058 7A68     		ldr	r2, [r7, #4]
 1199 005a FB68     		ldr	r3, [r7, #12]
 1200 005c D31A     		subs	r3, r2, r3
 1201 005e 3A68     		ldr	r2, [r7]
 1202 0060 1946     		mov	r1, r3
 1203 0062 FFF7FEFF 		bl	vQueueWaitForMessageRestricted
 627:../../../../dependencies/freertos/FreeRTOSv10.4.1/FreeRTOS/Source/timers.c ****                     {
 1204              		.loc 1 627 25
 1205 0066 FFF7FEFF 		bl	xTaskResumeAll
 1206 006a 0346     		mov	r3, r0
 627:../../../../dependencies/freertos/FreeRTOSv10.4.1/FreeRTOS/Source/timers.c ****                     {
 1207              		.loc 1 627 23
 1208 006c 002B     		cmp	r3, #0
 1209 006e 0AD1     		bne	.L70
 633:../../../../dependencies/freertos/FreeRTOSv10.4.1/FreeRTOS/Source/timers.c ****                     }
 1210              		.loc 1 633 25
ARM GAS  /var/folders/kj/yzqgq53j3dg15vgwwwwgf5s00000gn/T//cc5BPkVE.s 			page 37


 1211 0070 094B     		ldr	r3, .L71+8
 1212 0072 4FF08052 		mov	r2, #268435456
 1213 0076 1A60     		str	r2, [r3]
 1214              		.syntax unified
 1215              	@ 633 "../../../../dependencies/freertos/FreeRTOSv10.4.1/FreeRTOS/Source/timers.c" 1
 1216 0078 BFF34F8F 		dsb
 1217              	@ 0 "" 2
 1218              	@ 633 "../../../../dependencies/freertos/FreeRTOSv10.4.1/FreeRTOS/Source/timers.c" 1
 1219 007c BFF36F8F 		isb
 1220              	@ 0 "" 2
 1221              		.loc 1 646 5
 1222              		.thumb
 1223              		.syntax unified
 1224 0080 01E0     		b	.L70
 1225              	.L63:
 643:../../../../dependencies/freertos/FreeRTOSv10.4.1/FreeRTOS/Source/timers.c ****             }
 1226              		.loc 1 643 26
 1227 0082 FFF7FEFF 		bl	xTaskResumeAll
 1228              	.L70:
 1229              		.loc 1 646 5
 1230 0086 00BF     		nop
 1231 0088 1037     		adds	r7, r7, #16
 1232              	.LCFI65:
 1233              		.cfi_def_cfa_offset 8
 1234 008a BD46     		mov	sp, r7
 1235              	.LCFI66:
 1236              		.cfi_def_cfa_register 13
 1237              		@ sp needed
 1238 008c 80BD     		pop	{r7, pc}
 1239              	.L72:
 1240 008e 00BF     		.align	2
 1241              	.L71:
 1242 0090 00000000 		.word	pxOverflowTimerList
 1243 0094 00000000 		.word	xTimerQueue
 1244 0098 04ED00E0 		.word	-536810236
 1245              		.cfi_endproc
 1246              	.LFE17:
 1248              		.section	.text.prvGetNextExpireTime,"ax",%progbits
 1249              		.align	1
 1250              		.syntax unified
 1251              		.thumb
 1252              		.thumb_func
 1253              		.fpu fpv4-sp-d16
 1255              	prvGetNextExpireTime:
 1256              	.LFB18:
 647:../../../../dependencies/freertos/FreeRTOSv10.4.1/FreeRTOS/Source/timers.c **** /*-----------------------------------------------------------*/
 648:../../../../dependencies/freertos/FreeRTOSv10.4.1/FreeRTOS/Source/timers.c **** 
 649:../../../../dependencies/freertos/FreeRTOSv10.4.1/FreeRTOS/Source/timers.c ****     static TickType_t prvGetNextExpireTime( BaseType_t * const pxListWasEmpty )
 650:../../../../dependencies/freertos/FreeRTOSv10.4.1/FreeRTOS/Source/timers.c ****     {
 1257              		.loc 1 650 5
 1258              		.cfi_startproc
 1259              		@ args = 0, pretend = 0, frame = 16
 1260              		@ frame_needed = 1, uses_anonymous_args = 0
 1261              		@ link register save eliminated.
 1262 0000 80B4     		push	{r7}
 1263              	.LCFI67:
 1264              		.cfi_def_cfa_offset 4
ARM GAS  /var/folders/kj/yzqgq53j3dg15vgwwwwgf5s00000gn/T//cc5BPkVE.s 			page 38


 1265              		.cfi_offset 7, -4
 1266 0002 85B0     		sub	sp, sp, #20
 1267              	.LCFI68:
 1268              		.cfi_def_cfa_offset 24
 1269 0004 00AF     		add	r7, sp, #0
 1270              	.LCFI69:
 1271              		.cfi_def_cfa_register 7
 1272 0006 7860     		str	r0, [r7, #4]
 651:../../../../dependencies/freertos/FreeRTOSv10.4.1/FreeRTOS/Source/timers.c ****         TickType_t xNextExpireTime;
 652:../../../../dependencies/freertos/FreeRTOSv10.4.1/FreeRTOS/Source/timers.c **** 
 653:../../../../dependencies/freertos/FreeRTOSv10.4.1/FreeRTOS/Source/timers.c ****         /* Timers are listed in expiry time order, with the head of the list
 654:../../../../dependencies/freertos/FreeRTOSv10.4.1/FreeRTOS/Source/timers.c ****          * referencing the task that will expire first.  Obtain the time at which
 655:../../../../dependencies/freertos/FreeRTOSv10.4.1/FreeRTOS/Source/timers.c ****          * the timer with the nearest expiry time will expire.  If there are no
 656:../../../../dependencies/freertos/FreeRTOSv10.4.1/FreeRTOS/Source/timers.c ****          * active timers then just set the next expire time to 0.  That will cause
 657:../../../../dependencies/freertos/FreeRTOSv10.4.1/FreeRTOS/Source/timers.c ****          * this task to unblock when the tick count overflows, at which point the
 658:../../../../dependencies/freertos/FreeRTOSv10.4.1/FreeRTOS/Source/timers.c ****          * timer lists will be switched and the next expiry time can be
 659:../../../../dependencies/freertos/FreeRTOSv10.4.1/FreeRTOS/Source/timers.c ****          * re-assessed.  */
 660:../../../../dependencies/freertos/FreeRTOSv10.4.1/FreeRTOS/Source/timers.c ****         *pxListWasEmpty = listLIST_IS_EMPTY( pxCurrentTimerList );
 1273              		.loc 1 660 27
 1274 0008 0E4B     		ldr	r3, .L79
 1275 000a 1B68     		ldr	r3, [r3]
 1276 000c 1B68     		ldr	r3, [r3]
 1277 000e 002B     		cmp	r3, #0
 1278 0010 01D1     		bne	.L74
 1279              		.loc 1 660 27 is_stmt 0 discriminator 1
 1280 0012 0122     		movs	r2, #1
 1281 0014 00E0     		b	.L75
 1282              	.L74:
 1283              		.loc 1 660 27 discriminator 2
 1284 0016 0022     		movs	r2, #0
 1285              	.L75:
 1286              		.loc 1 660 25 is_stmt 1 discriminator 4
 1287 0018 7B68     		ldr	r3, [r7, #4]
 1288 001a 1A60     		str	r2, [r3]
 661:../../../../dependencies/freertos/FreeRTOSv10.4.1/FreeRTOS/Source/timers.c **** 
 662:../../../../dependencies/freertos/FreeRTOSv10.4.1/FreeRTOS/Source/timers.c ****         if( *pxListWasEmpty == pdFALSE )
 1289              		.loc 1 662 13 discriminator 4
 1290 001c 7B68     		ldr	r3, [r7, #4]
 1291 001e 1B68     		ldr	r3, [r3]
 1292              		.loc 1 662 11 discriminator 4
 1293 0020 002B     		cmp	r3, #0
 1294 0022 05D1     		bne	.L76
 663:../../../../dependencies/freertos/FreeRTOSv10.4.1/FreeRTOS/Source/timers.c ****         {
 664:../../../../dependencies/freertos/FreeRTOSv10.4.1/FreeRTOS/Source/timers.c ****             xNextExpireTime = listGET_ITEM_VALUE_OF_HEAD_ENTRY( pxCurrentTimerList );
 1295              		.loc 1 664 31
 1296 0024 074B     		ldr	r3, .L79
 1297 0026 1B68     		ldr	r3, [r3]
 1298 0028 DB68     		ldr	r3, [r3, #12]
 1299              		.loc 1 664 29
 1300 002a 1B68     		ldr	r3, [r3]
 1301 002c FB60     		str	r3, [r7, #12]
 1302 002e 01E0     		b	.L77
 1303              	.L76:
 665:../../../../dependencies/freertos/FreeRTOSv10.4.1/FreeRTOS/Source/timers.c ****         }
 666:../../../../dependencies/freertos/FreeRTOSv10.4.1/FreeRTOS/Source/timers.c ****         else
 667:../../../../dependencies/freertos/FreeRTOSv10.4.1/FreeRTOS/Source/timers.c ****         {
 668:../../../../dependencies/freertos/FreeRTOSv10.4.1/FreeRTOS/Source/timers.c ****             /* Ensure the task unblocks when the tick count rolls over. */
ARM GAS  /var/folders/kj/yzqgq53j3dg15vgwwwwgf5s00000gn/T//cc5BPkVE.s 			page 39


 669:../../../../dependencies/freertos/FreeRTOSv10.4.1/FreeRTOS/Source/timers.c ****             xNextExpireTime = ( TickType_t ) 0U;
 1304              		.loc 1 669 29
 1305 0030 0023     		movs	r3, #0
 1306 0032 FB60     		str	r3, [r7, #12]
 1307              	.L77:
 670:../../../../dependencies/freertos/FreeRTOSv10.4.1/FreeRTOS/Source/timers.c ****         }
 671:../../../../dependencies/freertos/FreeRTOSv10.4.1/FreeRTOS/Source/timers.c **** 
 672:../../../../dependencies/freertos/FreeRTOSv10.4.1/FreeRTOS/Source/timers.c ****         return xNextExpireTime;
 1308              		.loc 1 672 16
 1309 0034 FB68     		ldr	r3, [r7, #12]
 673:../../../../dependencies/freertos/FreeRTOSv10.4.1/FreeRTOS/Source/timers.c ****     }
 1310              		.loc 1 673 5
 1311 0036 1846     		mov	r0, r3
 1312 0038 1437     		adds	r7, r7, #20
 1313              	.LCFI70:
 1314              		.cfi_def_cfa_offset 4
 1315 003a BD46     		mov	sp, r7
 1316              	.LCFI71:
 1317              		.cfi_def_cfa_register 13
 1318              		@ sp needed
 1319 003c 5DF8047B 		ldr	r7, [sp], #4
 1320              	.LCFI72:
 1321              		.cfi_restore 7
 1322              		.cfi_def_cfa_offset 0
 1323 0040 7047     		bx	lr
 1324              	.L80:
 1325 0042 00BF     		.align	2
 1326              	.L79:
 1327 0044 00000000 		.word	pxCurrentTimerList
 1328              		.cfi_endproc
 1329              	.LFE18:
 1331              		.section	.text.prvSampleTimeNow,"ax",%progbits
 1332              		.align	1
 1333              		.syntax unified
 1334              		.thumb
 1335              		.thumb_func
 1336              		.fpu fpv4-sp-d16
 1338              	prvSampleTimeNow:
 1339              	.LFB19:
 674:../../../../dependencies/freertos/FreeRTOSv10.4.1/FreeRTOS/Source/timers.c **** /*-----------------------------------------------------------*/
 675:../../../../dependencies/freertos/FreeRTOSv10.4.1/FreeRTOS/Source/timers.c **** 
 676:../../../../dependencies/freertos/FreeRTOSv10.4.1/FreeRTOS/Source/timers.c ****     static TickType_t prvSampleTimeNow( BaseType_t * const pxTimerListsWereSwitched )
 677:../../../../dependencies/freertos/FreeRTOSv10.4.1/FreeRTOS/Source/timers.c ****     {
 1340              		.loc 1 677 5
 1341              		.cfi_startproc
 1342              		@ args = 0, pretend = 0, frame = 16
 1343              		@ frame_needed = 1, uses_anonymous_args = 0
 1344 0000 80B5     		push	{r7, lr}
 1345              	.LCFI73:
 1346              		.cfi_def_cfa_offset 8
 1347              		.cfi_offset 7, -8
 1348              		.cfi_offset 14, -4
 1349 0002 84B0     		sub	sp, sp, #16
 1350              	.LCFI74:
 1351              		.cfi_def_cfa_offset 24
 1352 0004 00AF     		add	r7, sp, #0
 1353              	.LCFI75:
ARM GAS  /var/folders/kj/yzqgq53j3dg15vgwwwwgf5s00000gn/T//cc5BPkVE.s 			page 40


 1354              		.cfi_def_cfa_register 7
 1355 0006 7860     		str	r0, [r7, #4]
 678:../../../../dependencies/freertos/FreeRTOSv10.4.1/FreeRTOS/Source/timers.c ****         TickType_t xTimeNow;
 679:../../../../dependencies/freertos/FreeRTOSv10.4.1/FreeRTOS/Source/timers.c ****         PRIVILEGED_DATA static TickType_t xLastTime = ( TickType_t ) 0U; /*lint !e956 Variable is o
 680:../../../../dependencies/freertos/FreeRTOSv10.4.1/FreeRTOS/Source/timers.c **** 
 681:../../../../dependencies/freertos/FreeRTOSv10.4.1/FreeRTOS/Source/timers.c ****         xTimeNow = xTaskGetTickCount();
 1356              		.loc 1 681 20
 1357 0008 FFF7FEFF 		bl	xTaskGetTickCount
 1358 000c F860     		str	r0, [r7, #12]
 682:../../../../dependencies/freertos/FreeRTOSv10.4.1/FreeRTOS/Source/timers.c **** 
 683:../../../../dependencies/freertos/FreeRTOSv10.4.1/FreeRTOS/Source/timers.c ****         if( xTimeNow < xLastTime )
 1359              		.loc 1 683 22
 1360 000e 0B4B     		ldr	r3, .L85
 1361 0010 1B68     		ldr	r3, [r3]
 1362              		.loc 1 683 11
 1363 0012 FA68     		ldr	r2, [r7, #12]
 1364 0014 9A42     		cmp	r2, r3
 1365 0016 05D2     		bcs	.L82
 684:../../../../dependencies/freertos/FreeRTOSv10.4.1/FreeRTOS/Source/timers.c ****         {
 685:../../../../dependencies/freertos/FreeRTOSv10.4.1/FreeRTOS/Source/timers.c ****             prvSwitchTimerLists();
 1366              		.loc 1 685 13
 1367 0018 FFF7FEFF 		bl	prvSwitchTimerLists
 686:../../../../dependencies/freertos/FreeRTOSv10.4.1/FreeRTOS/Source/timers.c ****             *pxTimerListsWereSwitched = pdTRUE;
 1368              		.loc 1 686 39
 1369 001c 7B68     		ldr	r3, [r7, #4]
 1370 001e 0122     		movs	r2, #1
 1371 0020 1A60     		str	r2, [r3]
 1372 0022 02E0     		b	.L83
 1373              	.L82:
 687:../../../../dependencies/freertos/FreeRTOSv10.4.1/FreeRTOS/Source/timers.c ****         }
 688:../../../../dependencies/freertos/FreeRTOSv10.4.1/FreeRTOS/Source/timers.c ****         else
 689:../../../../dependencies/freertos/FreeRTOSv10.4.1/FreeRTOS/Source/timers.c ****         {
 690:../../../../dependencies/freertos/FreeRTOSv10.4.1/FreeRTOS/Source/timers.c ****             *pxTimerListsWereSwitched = pdFALSE;
 1374              		.loc 1 690 39
 1375 0024 7B68     		ldr	r3, [r7, #4]
 1376 0026 0022     		movs	r2, #0
 1377 0028 1A60     		str	r2, [r3]
 1378              	.L83:
 691:../../../../dependencies/freertos/FreeRTOSv10.4.1/FreeRTOS/Source/timers.c ****         }
 692:../../../../dependencies/freertos/FreeRTOSv10.4.1/FreeRTOS/Source/timers.c **** 
 693:../../../../dependencies/freertos/FreeRTOSv10.4.1/FreeRTOS/Source/timers.c ****         xLastTime = xTimeNow;
 1379              		.loc 1 693 19
 1380 002a 044A     		ldr	r2, .L85
 1381 002c FB68     		ldr	r3, [r7, #12]
 1382 002e 1360     		str	r3, [r2]
 694:../../../../dependencies/freertos/FreeRTOSv10.4.1/FreeRTOS/Source/timers.c **** 
 695:../../../../dependencies/freertos/FreeRTOSv10.4.1/FreeRTOS/Source/timers.c ****         return xTimeNow;
 1383              		.loc 1 695 16
 1384 0030 FB68     		ldr	r3, [r7, #12]
 696:../../../../dependencies/freertos/FreeRTOSv10.4.1/FreeRTOS/Source/timers.c ****     }
 1385              		.loc 1 696 5
 1386 0032 1846     		mov	r0, r3
 1387 0034 1037     		adds	r7, r7, #16
 1388              	.LCFI76:
 1389              		.cfi_def_cfa_offset 8
 1390 0036 BD46     		mov	sp, r7
 1391              	.LCFI77:
ARM GAS  /var/folders/kj/yzqgq53j3dg15vgwwwwgf5s00000gn/T//cc5BPkVE.s 			page 41


 1392              		.cfi_def_cfa_register 13
 1393              		@ sp needed
 1394 0038 80BD     		pop	{r7, pc}
 1395              	.L86:
 1396 003a 00BF     		.align	2
 1397              	.L85:
 1398 003c 00000000 		.word	xLastTime.6876
 1399              		.cfi_endproc
 1400              	.LFE19:
 1402              		.section	.text.prvInsertTimerInActiveList,"ax",%progbits
 1403              		.align	1
 1404              		.syntax unified
 1405              		.thumb
 1406              		.thumb_func
 1407              		.fpu fpv4-sp-d16
 1409              	prvInsertTimerInActiveList:
 1410              	.LFB20:
 697:../../../../dependencies/freertos/FreeRTOSv10.4.1/FreeRTOS/Source/timers.c **** /*-----------------------------------------------------------*/
 698:../../../../dependencies/freertos/FreeRTOSv10.4.1/FreeRTOS/Source/timers.c **** 
 699:../../../../dependencies/freertos/FreeRTOSv10.4.1/FreeRTOS/Source/timers.c ****     static BaseType_t prvInsertTimerInActiveList( Timer_t * const pxTimer,
 700:../../../../dependencies/freertos/FreeRTOSv10.4.1/FreeRTOS/Source/timers.c ****                                                   const TickType_t xNextExpiryTime,
 701:../../../../dependencies/freertos/FreeRTOSv10.4.1/FreeRTOS/Source/timers.c ****                                                   const TickType_t xTimeNow,
 702:../../../../dependencies/freertos/FreeRTOSv10.4.1/FreeRTOS/Source/timers.c ****                                                   const TickType_t xCommandTime )
 703:../../../../dependencies/freertos/FreeRTOSv10.4.1/FreeRTOS/Source/timers.c ****     {
 1411              		.loc 1 703 5
 1412              		.cfi_startproc
 1413              		@ args = 0, pretend = 0, frame = 24
 1414              		@ frame_needed = 1, uses_anonymous_args = 0
 1415 0000 80B5     		push	{r7, lr}
 1416              	.LCFI78:
 1417              		.cfi_def_cfa_offset 8
 1418              		.cfi_offset 7, -8
 1419              		.cfi_offset 14, -4
 1420 0002 86B0     		sub	sp, sp, #24
 1421              	.LCFI79:
 1422              		.cfi_def_cfa_offset 32
 1423 0004 00AF     		add	r7, sp, #0
 1424              	.LCFI80:
 1425              		.cfi_def_cfa_register 7
 1426 0006 F860     		str	r0, [r7, #12]
 1427 0008 B960     		str	r1, [r7, #8]
 1428 000a 7A60     		str	r2, [r7, #4]
 1429 000c 3B60     		str	r3, [r7]
 704:../../../../dependencies/freertos/FreeRTOSv10.4.1/FreeRTOS/Source/timers.c ****         BaseType_t xProcessTimerNow = pdFALSE;
 1430              		.loc 1 704 20
 1431 000e 0023     		movs	r3, #0
 1432 0010 7B61     		str	r3, [r7, #20]
 705:../../../../dependencies/freertos/FreeRTOSv10.4.1/FreeRTOS/Source/timers.c **** 
 706:../../../../dependencies/freertos/FreeRTOSv10.4.1/FreeRTOS/Source/timers.c ****         listSET_LIST_ITEM_VALUE( &( pxTimer->xTimerListItem ), xNextExpiryTime );
 1433              		.loc 1 706 9
 1434 0012 FB68     		ldr	r3, [r7, #12]
 1435 0014 BA68     		ldr	r2, [r7, #8]
 1436 0016 5A60     		str	r2, [r3, #4]
 707:../../../../dependencies/freertos/FreeRTOSv10.4.1/FreeRTOS/Source/timers.c ****         listSET_LIST_ITEM_OWNER( &( pxTimer->xTimerListItem ), pxTimer );
 1437              		.loc 1 707 9
 1438 0018 FB68     		ldr	r3, [r7, #12]
 1439 001a FA68     		ldr	r2, [r7, #12]
ARM GAS  /var/folders/kj/yzqgq53j3dg15vgwwwwgf5s00000gn/T//cc5BPkVE.s 			page 42


 1440 001c 1A61     		str	r2, [r3, #16]
 708:../../../../dependencies/freertos/FreeRTOSv10.4.1/FreeRTOS/Source/timers.c **** 
 709:../../../../dependencies/freertos/FreeRTOSv10.4.1/FreeRTOS/Source/timers.c ****         if( xNextExpiryTime <= xTimeNow )
 1441              		.loc 1 709 11
 1442 001e BA68     		ldr	r2, [r7, #8]
 1443 0020 7B68     		ldr	r3, [r7, #4]
 1444 0022 9A42     		cmp	r2, r3
 1445 0024 12D8     		bhi	.L88
 710:../../../../dependencies/freertos/FreeRTOSv10.4.1/FreeRTOS/Source/timers.c ****         {
 711:../../../../dependencies/freertos/FreeRTOSv10.4.1/FreeRTOS/Source/timers.c ****             /* Has the expiry time elapsed between the command to start/reset a
 712:../../../../dependencies/freertos/FreeRTOSv10.4.1/FreeRTOS/Source/timers.c ****              * timer was issued, and the time the command was processed? */
 713:../../../../dependencies/freertos/FreeRTOSv10.4.1/FreeRTOS/Source/timers.c ****             if( ( ( TickType_t ) ( xTimeNow - xCommandTime ) ) >= pxTimer->xTimerPeriodInTicks ) /*
 1446              		.loc 1 713 19
 1447 0026 7A68     		ldr	r2, [r7, #4]
 1448 0028 3B68     		ldr	r3, [r7]
 1449 002a D21A     		subs	r2, r2, r3
 1450              		.loc 1 713 74
 1451 002c FB68     		ldr	r3, [r7, #12]
 1452 002e 9B69     		ldr	r3, [r3, #24]
 1453              		.loc 1 713 15
 1454 0030 9A42     		cmp	r2, r3
 1455 0032 02D3     		bcc	.L89
 714:../../../../dependencies/freertos/FreeRTOSv10.4.1/FreeRTOS/Source/timers.c ****             {
 715:../../../../dependencies/freertos/FreeRTOSv10.4.1/FreeRTOS/Source/timers.c ****                 /* The time between a command being issued and the command being
 716:../../../../dependencies/freertos/FreeRTOSv10.4.1/FreeRTOS/Source/timers.c ****                  * processed actually exceeds the timers period.  */
 717:../../../../dependencies/freertos/FreeRTOSv10.4.1/FreeRTOS/Source/timers.c ****                 xProcessTimerNow = pdTRUE;
 1456              		.loc 1 717 34
 1457 0034 0123     		movs	r3, #1
 1458 0036 7B61     		str	r3, [r7, #20]
 1459 0038 1BE0     		b	.L90
 1460              	.L89:
 718:../../../../dependencies/freertos/FreeRTOSv10.4.1/FreeRTOS/Source/timers.c ****             }
 719:../../../../dependencies/freertos/FreeRTOSv10.4.1/FreeRTOS/Source/timers.c ****             else
 720:../../../../dependencies/freertos/FreeRTOSv10.4.1/FreeRTOS/Source/timers.c ****             {
 721:../../../../dependencies/freertos/FreeRTOSv10.4.1/FreeRTOS/Source/timers.c ****                 vListInsert( pxOverflowTimerList, &( pxTimer->xTimerListItem ) );
 1461              		.loc 1 721 17
 1462 003a 104B     		ldr	r3, .L93
 1463 003c 1A68     		ldr	r2, [r3]
 1464 003e FB68     		ldr	r3, [r7, #12]
 1465 0040 0433     		adds	r3, r3, #4
 1466 0042 1946     		mov	r1, r3
 1467 0044 1046     		mov	r0, r2
 1468 0046 FFF7FEFF 		bl	vListInsert
 1469 004a 12E0     		b	.L90
 1470              	.L88:
 722:../../../../dependencies/freertos/FreeRTOSv10.4.1/FreeRTOS/Source/timers.c ****             }
 723:../../../../dependencies/freertos/FreeRTOSv10.4.1/FreeRTOS/Source/timers.c ****         }
 724:../../../../dependencies/freertos/FreeRTOSv10.4.1/FreeRTOS/Source/timers.c ****         else
 725:../../../../dependencies/freertos/FreeRTOSv10.4.1/FreeRTOS/Source/timers.c ****         {
 726:../../../../dependencies/freertos/FreeRTOSv10.4.1/FreeRTOS/Source/timers.c ****             if( ( xTimeNow < xCommandTime ) && ( xNextExpiryTime >= xCommandTime ) )
 1471              		.loc 1 726 15
 1472 004c 7A68     		ldr	r2, [r7, #4]
 1473 004e 3B68     		ldr	r3, [r7]
 1474 0050 9A42     		cmp	r2, r3
 1475 0052 06D2     		bcs	.L91
 1476              		.loc 1 726 45 discriminator 1
 1477 0054 BA68     		ldr	r2, [r7, #8]
ARM GAS  /var/folders/kj/yzqgq53j3dg15vgwwwwgf5s00000gn/T//cc5BPkVE.s 			page 43


 1478 0056 3B68     		ldr	r3, [r7]
 1479 0058 9A42     		cmp	r2, r3
 1480 005a 02D3     		bcc	.L91
 727:../../../../dependencies/freertos/FreeRTOSv10.4.1/FreeRTOS/Source/timers.c ****             {
 728:../../../../dependencies/freertos/FreeRTOSv10.4.1/FreeRTOS/Source/timers.c ****                 /* If, since the command was issued, the tick count has overflowed
 729:../../../../dependencies/freertos/FreeRTOSv10.4.1/FreeRTOS/Source/timers.c ****                  * but the expiry time has not, then the timer must have already passed
 730:../../../../dependencies/freertos/FreeRTOSv10.4.1/FreeRTOS/Source/timers.c ****                  * its expiry time and should be processed immediately. */
 731:../../../../dependencies/freertos/FreeRTOSv10.4.1/FreeRTOS/Source/timers.c ****                 xProcessTimerNow = pdTRUE;
 1481              		.loc 1 731 34
 1482 005c 0123     		movs	r3, #1
 1483 005e 7B61     		str	r3, [r7, #20]
 1484 0060 07E0     		b	.L90
 1485              	.L91:
 732:../../../../dependencies/freertos/FreeRTOSv10.4.1/FreeRTOS/Source/timers.c ****             }
 733:../../../../dependencies/freertos/FreeRTOSv10.4.1/FreeRTOS/Source/timers.c ****             else
 734:../../../../dependencies/freertos/FreeRTOSv10.4.1/FreeRTOS/Source/timers.c ****             {
 735:../../../../dependencies/freertos/FreeRTOSv10.4.1/FreeRTOS/Source/timers.c ****                 vListInsert( pxCurrentTimerList, &( pxTimer->xTimerListItem ) );
 1486              		.loc 1 735 17
 1487 0062 074B     		ldr	r3, .L93+4
 1488 0064 1A68     		ldr	r2, [r3]
 1489 0066 FB68     		ldr	r3, [r7, #12]
 1490 0068 0433     		adds	r3, r3, #4
 1491 006a 1946     		mov	r1, r3
 1492 006c 1046     		mov	r0, r2
 1493 006e FFF7FEFF 		bl	vListInsert
 1494              	.L90:
 736:../../../../dependencies/freertos/FreeRTOSv10.4.1/FreeRTOS/Source/timers.c ****             }
 737:../../../../dependencies/freertos/FreeRTOSv10.4.1/FreeRTOS/Source/timers.c ****         }
 738:../../../../dependencies/freertos/FreeRTOSv10.4.1/FreeRTOS/Source/timers.c **** 
 739:../../../../dependencies/freertos/FreeRTOSv10.4.1/FreeRTOS/Source/timers.c ****         return xProcessTimerNow;
 1495              		.loc 1 739 16
 1496 0072 7B69     		ldr	r3, [r7, #20]
 740:../../../../dependencies/freertos/FreeRTOSv10.4.1/FreeRTOS/Source/timers.c ****     }
 1497              		.loc 1 740 5
 1498 0074 1846     		mov	r0, r3
 1499 0076 1837     		adds	r7, r7, #24
 1500              	.LCFI81:
 1501              		.cfi_def_cfa_offset 8
 1502 0078 BD46     		mov	sp, r7
 1503              	.LCFI82:
 1504              		.cfi_def_cfa_register 13
 1505              		@ sp needed
 1506 007a 80BD     		pop	{r7, pc}
 1507              	.L94:
 1508              		.align	2
 1509              	.L93:
 1510 007c 00000000 		.word	pxOverflowTimerList
 1511 0080 00000000 		.word	pxCurrentTimerList
 1512              		.cfi_endproc
 1513              	.LFE20:
 1515              		.section	.text.prvProcessReceivedCommands,"ax",%progbits
 1516              		.align	1
 1517              		.syntax unified
 1518              		.thumb
 1519              		.thumb_func
 1520              		.fpu fpv4-sp-d16
 1522              	prvProcessReceivedCommands:
ARM GAS  /var/folders/kj/yzqgq53j3dg15vgwwwwgf5s00000gn/T//cc5BPkVE.s 			page 44


 1523              	.LFB21:
 741:../../../../dependencies/freertos/FreeRTOSv10.4.1/FreeRTOS/Source/timers.c **** /*-----------------------------------------------------------*/
 742:../../../../dependencies/freertos/FreeRTOSv10.4.1/FreeRTOS/Source/timers.c **** 
 743:../../../../dependencies/freertos/FreeRTOSv10.4.1/FreeRTOS/Source/timers.c ****     static void prvProcessReceivedCommands( void )
 744:../../../../dependencies/freertos/FreeRTOSv10.4.1/FreeRTOS/Source/timers.c ****     {
 1524              		.loc 1 744 5
 1525              		.cfi_startproc
 1526              		@ args = 0, pretend = 0, frame = 40
 1527              		@ frame_needed = 1, uses_anonymous_args = 0
 1528 0000 80B5     		push	{r7, lr}
 1529              	.LCFI83:
 1530              		.cfi_def_cfa_offset 8
 1531              		.cfi_offset 7, -8
 1532              		.cfi_offset 14, -4
 1533 0002 8CB0     		sub	sp, sp, #48
 1534              	.LCFI84:
 1535              		.cfi_def_cfa_offset 56
 1536 0004 02AF     		add	r7, sp, #8
 1537              	.LCFI85:
 1538              		.cfi_def_cfa 7, 48
 745:../../../../dependencies/freertos/FreeRTOSv10.4.1/FreeRTOS/Source/timers.c ****         DaemonTaskMessage_t xMessage;
 746:../../../../dependencies/freertos/FreeRTOSv10.4.1/FreeRTOS/Source/timers.c ****         Timer_t * pxTimer;
 747:../../../../dependencies/freertos/FreeRTOSv10.4.1/FreeRTOS/Source/timers.c ****         BaseType_t xTimerListsWereSwitched, xResult;
 748:../../../../dependencies/freertos/FreeRTOSv10.4.1/FreeRTOS/Source/timers.c ****         TickType_t xTimeNow;
 749:../../../../dependencies/freertos/FreeRTOSv10.4.1/FreeRTOS/Source/timers.c **** 
 750:../../../../dependencies/freertos/FreeRTOSv10.4.1/FreeRTOS/Source/timers.c ****         while( xQueueReceive( xTimerQueue, &xMessage, tmrNO_DELAY ) != pdFAIL ) /*lint !e603 xMessa
 1539              		.loc 1 750 14
 1540 0006 AEE0     		b	.L96
 1541              	.L110:
 751:../../../../dependencies/freertos/FreeRTOSv10.4.1/FreeRTOS/Source/timers.c ****         {
 752:../../../../dependencies/freertos/FreeRTOSv10.4.1/FreeRTOS/Source/timers.c ****             #if ( INCLUDE_xTimerPendFunctionCall == 1 )
 753:../../../../dependencies/freertos/FreeRTOSv10.4.1/FreeRTOS/Source/timers.c ****                 {
 754:../../../../dependencies/freertos/FreeRTOSv10.4.1/FreeRTOS/Source/timers.c ****                     /* Negative commands are pended function calls rather than timer
 755:../../../../dependencies/freertos/FreeRTOSv10.4.1/FreeRTOS/Source/timers.c ****                      * commands. */
 756:../../../../dependencies/freertos/FreeRTOSv10.4.1/FreeRTOS/Source/timers.c ****                     if( xMessage.xMessageID < ( BaseType_t ) 0 )
 757:../../../../dependencies/freertos/FreeRTOSv10.4.1/FreeRTOS/Source/timers.c ****                     {
 758:../../../../dependencies/freertos/FreeRTOSv10.4.1/FreeRTOS/Source/timers.c ****                         const CallbackParameters_t * const pxCallback = &( xMessage.u.xCallbackPara
 759:../../../../dependencies/freertos/FreeRTOSv10.4.1/FreeRTOS/Source/timers.c **** 
 760:../../../../dependencies/freertos/FreeRTOSv10.4.1/FreeRTOS/Source/timers.c ****                         /* The timer uses the xCallbackParameters member to request a
 761:../../../../dependencies/freertos/FreeRTOSv10.4.1/FreeRTOS/Source/timers.c ****                          * callback be executed.  Check the callback is not NULL. */
 762:../../../../dependencies/freertos/FreeRTOSv10.4.1/FreeRTOS/Source/timers.c ****                         configASSERT( pxCallback );
 763:../../../../dependencies/freertos/FreeRTOSv10.4.1/FreeRTOS/Source/timers.c **** 
 764:../../../../dependencies/freertos/FreeRTOSv10.4.1/FreeRTOS/Source/timers.c ****                         /* Call the function. */
 765:../../../../dependencies/freertos/FreeRTOSv10.4.1/FreeRTOS/Source/timers.c ****                         pxCallback->pxCallbackFunction( pxCallback->pvParameter1, pxCallback->ulPar
 766:../../../../dependencies/freertos/FreeRTOSv10.4.1/FreeRTOS/Source/timers.c ****                     }
 767:../../../../dependencies/freertos/FreeRTOSv10.4.1/FreeRTOS/Source/timers.c ****                     else
 768:../../../../dependencies/freertos/FreeRTOSv10.4.1/FreeRTOS/Source/timers.c ****                     {
 769:../../../../dependencies/freertos/FreeRTOSv10.4.1/FreeRTOS/Source/timers.c ****                         mtCOVERAGE_TEST_MARKER();
 770:../../../../dependencies/freertos/FreeRTOSv10.4.1/FreeRTOS/Source/timers.c ****                     }
 771:../../../../dependencies/freertos/FreeRTOSv10.4.1/FreeRTOS/Source/timers.c ****                 }
 772:../../../../dependencies/freertos/FreeRTOSv10.4.1/FreeRTOS/Source/timers.c ****             #endif /* INCLUDE_xTimerPendFunctionCall */
 773:../../../../dependencies/freertos/FreeRTOSv10.4.1/FreeRTOS/Source/timers.c **** 
 774:../../../../dependencies/freertos/FreeRTOSv10.4.1/FreeRTOS/Source/timers.c ****             /* Commands that are positive are timer commands rather than pended
 775:../../../../dependencies/freertos/FreeRTOSv10.4.1/FreeRTOS/Source/timers.c ****              * function calls. */
 776:../../../../dependencies/freertos/FreeRTOSv10.4.1/FreeRTOS/Source/timers.c ****             if( xMessage.xMessageID >= ( BaseType_t ) 0 )
 1542              		.loc 1 776 25
 1543 0008 BB68     		ldr	r3, [r7, #8]
ARM GAS  /var/folders/kj/yzqgq53j3dg15vgwwwwgf5s00000gn/T//cc5BPkVE.s 			page 45


 1544              		.loc 1 776 15
 1545 000a 002B     		cmp	r3, #0
 1546 000c C0F2AA80 		blt	.L111
 777:../../../../dependencies/freertos/FreeRTOSv10.4.1/FreeRTOS/Source/timers.c ****             {
 778:../../../../dependencies/freertos/FreeRTOSv10.4.1/FreeRTOS/Source/timers.c ****                 /* The messages uses the xTimerParameters member to work on a
 779:../../../../dependencies/freertos/FreeRTOSv10.4.1/FreeRTOS/Source/timers.c ****                  * software timer. */
 780:../../../../dependencies/freertos/FreeRTOSv10.4.1/FreeRTOS/Source/timers.c ****                 pxTimer = xMessage.u.xTimerParameters.pxTimer;
 1547              		.loc 1 780 25
 1548 0010 3B69     		ldr	r3, [r7, #16]
 1549 0012 7B62     		str	r3, [r7, #36]
 781:../../../../dependencies/freertos/FreeRTOSv10.4.1/FreeRTOS/Source/timers.c **** 
 782:../../../../dependencies/freertos/FreeRTOSv10.4.1/FreeRTOS/Source/timers.c ****                 if( listIS_CONTAINED_WITHIN( NULL, &( pxTimer->xTimerListItem ) ) == pdFALSE ) /*li
 1550              		.loc 1 782 21
 1551 0014 7B6A     		ldr	r3, [r7, #36]
 1552 0016 5B69     		ldr	r3, [r3, #20]
 1553              		.loc 1 782 19
 1554 0018 002B     		cmp	r3, #0
 1555 001a 04D0     		beq	.L97
 783:../../../../dependencies/freertos/FreeRTOSv10.4.1/FreeRTOS/Source/timers.c ****                 {
 784:../../../../dependencies/freertos/FreeRTOSv10.4.1/FreeRTOS/Source/timers.c ****                     /* The timer is in a list, remove it. */
 785:../../../../dependencies/freertos/FreeRTOSv10.4.1/FreeRTOS/Source/timers.c ****                     ( void ) uxListRemove( &( pxTimer->xTimerListItem ) );
 1556              		.loc 1 785 30
 1557 001c 7B6A     		ldr	r3, [r7, #36]
 1558 001e 0433     		adds	r3, r3, #4
 1559 0020 1846     		mov	r0, r3
 1560 0022 FFF7FEFF 		bl	uxListRemove
 1561              	.L97:
 786:../../../../dependencies/freertos/FreeRTOSv10.4.1/FreeRTOS/Source/timers.c ****                 }
 787:../../../../dependencies/freertos/FreeRTOSv10.4.1/FreeRTOS/Source/timers.c ****                 else
 788:../../../../dependencies/freertos/FreeRTOSv10.4.1/FreeRTOS/Source/timers.c ****                 {
 789:../../../../dependencies/freertos/FreeRTOSv10.4.1/FreeRTOS/Source/timers.c ****                     mtCOVERAGE_TEST_MARKER();
 790:../../../../dependencies/freertos/FreeRTOSv10.4.1/FreeRTOS/Source/timers.c ****                 }
 791:../../../../dependencies/freertos/FreeRTOSv10.4.1/FreeRTOS/Source/timers.c **** 
 792:../../../../dependencies/freertos/FreeRTOSv10.4.1/FreeRTOS/Source/timers.c ****                 traceTIMER_COMMAND_RECEIVED( pxTimer, xMessage.xMessageID, xMessage.u.xTimerParamet
 793:../../../../dependencies/freertos/FreeRTOSv10.4.1/FreeRTOS/Source/timers.c **** 
 794:../../../../dependencies/freertos/FreeRTOSv10.4.1/FreeRTOS/Source/timers.c ****                 /* In this case the xTimerListsWereSwitched parameter is not used, but
 795:../../../../dependencies/freertos/FreeRTOSv10.4.1/FreeRTOS/Source/timers.c ****                  *  it must be present in the function call.  prvSampleTimeNow() must be
 796:../../../../dependencies/freertos/FreeRTOSv10.4.1/FreeRTOS/Source/timers.c ****                  *  called after the message is received from xTimerQueue so there is no
 797:../../../../dependencies/freertos/FreeRTOSv10.4.1/FreeRTOS/Source/timers.c ****                  *  possibility of a higher priority task adding a message to the message
 798:../../../../dependencies/freertos/FreeRTOSv10.4.1/FreeRTOS/Source/timers.c ****                  *  queue with a time that is ahead of the timer daemon task (because it
 799:../../../../dependencies/freertos/FreeRTOSv10.4.1/FreeRTOS/Source/timers.c ****                  *  pre-empted the timer daemon task after the xTimeNow value was set). */
 800:../../../../dependencies/freertos/FreeRTOSv10.4.1/FreeRTOS/Source/timers.c ****                 xTimeNow = prvSampleTimeNow( &xTimerListsWereSwitched );
 1562              		.loc 1 800 28
 1563 0026 3B1D     		adds	r3, r7, #4
 1564 0028 1846     		mov	r0, r3
 1565 002a FFF7FEFF 		bl	prvSampleTimeNow
 1566 002e 3862     		str	r0, [r7, #32]
 801:../../../../dependencies/freertos/FreeRTOSv10.4.1/FreeRTOS/Source/timers.c **** 
 802:../../../../dependencies/freertos/FreeRTOSv10.4.1/FreeRTOS/Source/timers.c ****                 switch( xMessage.xMessageID )
 1567              		.loc 1 802 33
 1568 0030 BB68     		ldr	r3, [r7, #8]
 1569 0032 092B     		cmp	r3, #9
 1570 0034 00F29780 		bhi	.L96
 1571 0038 01A2     		adr	r2, .L100
 1572 003a 52F823F0 		ldr	pc, [r2, r3, lsl #2]
 1573 003e 00BF     		.p2align 2
 1574              	.L100:
ARM GAS  /var/folders/kj/yzqgq53j3dg15vgwwwwgf5s00000gn/T//cc5BPkVE.s 			page 46


 1575 0040 69000000 		.word	.L102+1
 1576 0044 69000000 		.word	.L102+1
 1577 0048 69000000 		.word	.L102+1
 1578 004c DD000000 		.word	.L101+1
 1579 0050 F1000000 		.word	.L99+1
 1580 0054 3B010000 		.word	.L103+1
 1581 0058 69000000 		.word	.L102+1
 1582 005c 69000000 		.word	.L102+1
 1583 0060 DD000000 		.word	.L101+1
 1584 0064 F1000000 		.word	.L99+1
 1585              		.p2align 1
 1586              	.L102:
 803:../../../../dependencies/freertos/FreeRTOSv10.4.1/FreeRTOS/Source/timers.c ****                 {
 804:../../../../dependencies/freertos/FreeRTOSv10.4.1/FreeRTOS/Source/timers.c ****                     case tmrCOMMAND_START:
 805:../../../../dependencies/freertos/FreeRTOSv10.4.1/FreeRTOS/Source/timers.c ****                     case tmrCOMMAND_START_FROM_ISR:
 806:../../../../dependencies/freertos/FreeRTOSv10.4.1/FreeRTOS/Source/timers.c ****                     case tmrCOMMAND_RESET:
 807:../../../../dependencies/freertos/FreeRTOSv10.4.1/FreeRTOS/Source/timers.c ****                     case tmrCOMMAND_RESET_FROM_ISR:
 808:../../../../dependencies/freertos/FreeRTOSv10.4.1/FreeRTOS/Source/timers.c ****                     case tmrCOMMAND_START_DONT_TRACE:
 809:../../../../dependencies/freertos/FreeRTOSv10.4.1/FreeRTOS/Source/timers.c ****                         /* Start or restart a timer. */
 810:../../../../dependencies/freertos/FreeRTOSv10.4.1/FreeRTOS/Source/timers.c ****                         pxTimer->ucStatus |= tmrSTATUS_IS_ACTIVE;
 1587              		.loc 1 810 43
 1588 0068 7B6A     		ldr	r3, [r7, #36]
 1589 006a 93F82830 		ldrb	r3, [r3, #40]	@ zero_extendqisi2
 1590 006e 43F00103 		orr	r3, r3, #1
 1591 0072 DAB2     		uxtb	r2, r3
 1592 0074 7B6A     		ldr	r3, [r7, #36]
 1593 0076 83F82820 		strb	r2, [r3, #40]
 811:../../../../dependencies/freertos/FreeRTOSv10.4.1/FreeRTOS/Source/timers.c **** 
 812:../../../../dependencies/freertos/FreeRTOSv10.4.1/FreeRTOS/Source/timers.c ****                         if( prvInsertTimerInActiveList( pxTimer, xMessage.u.xTimerParameters.xMessa
 1594              		.loc 1 812 93
 1595 007a FA68     		ldr	r2, [r7, #12]
 1596              		.loc 1 812 117
 1597 007c 7B6A     		ldr	r3, [r7, #36]
 1598 007e 9B69     		ldr	r3, [r3, #24]
 1599              		.loc 1 812 29
 1600 0080 D118     		adds	r1, r2, r3
 1601 0082 FB68     		ldr	r3, [r7, #12]
 1602 0084 3A6A     		ldr	r2, [r7, #32]
 1603 0086 786A     		ldr	r0, [r7, #36]
 1604 0088 FFF7FEFF 		bl	prvInsertTimerInActiveList
 1605 008c 0346     		mov	r3, r0
 1606              		.loc 1 812 27
 1607 008e 002B     		cmp	r3, #0
 1608 0090 69D0     		beq	.L96
 813:../../../../dependencies/freertos/FreeRTOSv10.4.1/FreeRTOS/Source/timers.c ****                         {
 814:../../../../dependencies/freertos/FreeRTOSv10.4.1/FreeRTOS/Source/timers.c ****                             /* The timer expired before it was added to the active
 815:../../../../dependencies/freertos/FreeRTOSv10.4.1/FreeRTOS/Source/timers.c ****                              * timer list.  Process it now. */
 816:../../../../dependencies/freertos/FreeRTOSv10.4.1/FreeRTOS/Source/timers.c ****                             pxTimer->pxCallbackFunction( ( TimerHandle_t ) pxTimer );
 1609              		.loc 1 816 36
 1610 0092 7B6A     		ldr	r3, [r7, #36]
 1611 0094 1B6A     		ldr	r3, [r3, #32]
 1612              		.loc 1 816 29
 1613 0096 786A     		ldr	r0, [r7, #36]
 1614 0098 9847     		blx	r3
 1615              	.LVL1:
 817:../../../../dependencies/freertos/FreeRTOSv10.4.1/FreeRTOS/Source/timers.c ****                             traceTIMER_EXPIRED( pxTimer );
 818:../../../../dependencies/freertos/FreeRTOSv10.4.1/FreeRTOS/Source/timers.c **** 
ARM GAS  /var/folders/kj/yzqgq53j3dg15vgwwwwgf5s00000gn/T//cc5BPkVE.s 			page 47


 819:../../../../dependencies/freertos/FreeRTOSv10.4.1/FreeRTOS/Source/timers.c ****                             if( ( pxTimer->ucStatus & tmrSTATUS_IS_AUTORELOAD ) != 0 )
 1616              		.loc 1 819 42
 1617 009a 7B6A     		ldr	r3, [r7, #36]
 1618 009c 93F82830 		ldrb	r3, [r3, #40]	@ zero_extendqisi2
 1619              		.loc 1 819 53
 1620 00a0 03F00403 		and	r3, r3, #4
 1621              		.loc 1 819 31
 1622 00a4 002B     		cmp	r3, #0
 1623 00a6 5ED0     		beq	.L96
 820:../../../../dependencies/freertos/FreeRTOSv10.4.1/FreeRTOS/Source/timers.c ****                             {
 821:../../../../dependencies/freertos/FreeRTOSv10.4.1/FreeRTOS/Source/timers.c ****                                 xResult = xTimerGenericCommand( pxTimer, tmrCOMMAND_START_DONT_TRAC
 1624              		.loc 1 821 130
 1625 00a8 FA68     		ldr	r2, [r7, #12]
 1626              		.loc 1 821 154
 1627 00aa 7B6A     		ldr	r3, [r7, #36]
 1628 00ac 9B69     		ldr	r3, [r3, #24]
 1629              		.loc 1 821 43
 1630 00ae 1A44     		add	r2, r2, r3
 1631 00b0 0023     		movs	r3, #0
 1632 00b2 0093     		str	r3, [sp]
 1633 00b4 0023     		movs	r3, #0
 1634 00b6 0021     		movs	r1, #0
 1635 00b8 786A     		ldr	r0, [r7, #36]
 1636 00ba FFF7FEFF 		bl	xTimerGenericCommand
 1637 00be F861     		str	r0, [r7, #28]
 822:../../../../dependencies/freertos/FreeRTOSv10.4.1/FreeRTOS/Source/timers.c ****                                 configASSERT( xResult );
 1638              		.loc 1 822 33
 1639 00c0 FB69     		ldr	r3, [r7, #28]
 1640 00c2 002B     		cmp	r3, #0
 1641 00c4 4FD1     		bne	.L96
 1642              	.LBB54:
 1643              	.LBB55:
 197:../../../../dependencies/freertos/FreeRTOSv10.4.1/FreeRTOS/Source/portable/GCC/ARM_CM4F/portmacro.h ****         (
 1644              		.loc 2 197 9
 1645              		.syntax unified
 1646              	@ 197 "../../../../dependencies/freertos/FreeRTOSv10.4.1/FreeRTOS/Source/portable/GCC/ARM_CM4F/port
 1647 00c6 4FF05003 			mov r3, #80												
 1648 00ca 83F31188 		msr basepri, r3											
 1649 00ce BFF36F8F 		isb														
 1650 00d2 BFF34F8F 		dsb														
 1651              	
 1652              	@ 0 "" 2
 1653              		.thumb
 1654              		.syntax unified
 1655 00d6 BB61     		str	r3, [r7, #24]
 1656              		.loc 2 205 5
 1657 00d8 00BF     		nop
 1658              	.L105:
 1659              	.LBE55:
 1660              	.LBE54:
 1661              		.loc 1 822 33 discriminator 1
 1662 00da FEE7     		b	.L105
 1663              	.L101:
 823:../../../../dependencies/freertos/FreeRTOSv10.4.1/FreeRTOS/Source/timers.c ****                                 ( void ) xResult;
 824:../../../../dependencies/freertos/FreeRTOSv10.4.1/FreeRTOS/Source/timers.c ****                             }
 825:../../../../dependencies/freertos/FreeRTOSv10.4.1/FreeRTOS/Source/timers.c ****                             else
 826:../../../../dependencies/freertos/FreeRTOSv10.4.1/FreeRTOS/Source/timers.c ****                             {
ARM GAS  /var/folders/kj/yzqgq53j3dg15vgwwwwgf5s00000gn/T//cc5BPkVE.s 			page 48


 827:../../../../dependencies/freertos/FreeRTOSv10.4.1/FreeRTOS/Source/timers.c ****                                 mtCOVERAGE_TEST_MARKER();
 828:../../../../dependencies/freertos/FreeRTOSv10.4.1/FreeRTOS/Source/timers.c ****                             }
 829:../../../../dependencies/freertos/FreeRTOSv10.4.1/FreeRTOS/Source/timers.c ****                         }
 830:../../../../dependencies/freertos/FreeRTOSv10.4.1/FreeRTOS/Source/timers.c ****                         else
 831:../../../../dependencies/freertos/FreeRTOSv10.4.1/FreeRTOS/Source/timers.c ****                         {
 832:../../../../dependencies/freertos/FreeRTOSv10.4.1/FreeRTOS/Source/timers.c ****                             mtCOVERAGE_TEST_MARKER();
 833:../../../../dependencies/freertos/FreeRTOSv10.4.1/FreeRTOS/Source/timers.c ****                         }
 834:../../../../dependencies/freertos/FreeRTOSv10.4.1/FreeRTOS/Source/timers.c **** 
 835:../../../../dependencies/freertos/FreeRTOSv10.4.1/FreeRTOS/Source/timers.c ****                         break;
 836:../../../../dependencies/freertos/FreeRTOSv10.4.1/FreeRTOS/Source/timers.c **** 
 837:../../../../dependencies/freertos/FreeRTOSv10.4.1/FreeRTOS/Source/timers.c ****                     case tmrCOMMAND_STOP:
 838:../../../../dependencies/freertos/FreeRTOSv10.4.1/FreeRTOS/Source/timers.c ****                     case tmrCOMMAND_STOP_FROM_ISR:
 839:../../../../dependencies/freertos/FreeRTOSv10.4.1/FreeRTOS/Source/timers.c ****                         /* The timer has already been removed from the active list. */
 840:../../../../dependencies/freertos/FreeRTOSv10.4.1/FreeRTOS/Source/timers.c ****                         pxTimer->ucStatus &= ~tmrSTATUS_IS_ACTIVE;
 1664              		.loc 1 840 43
 1665 00dc 7B6A     		ldr	r3, [r7, #36]
 1666 00de 93F82830 		ldrb	r3, [r3, #40]	@ zero_extendqisi2
 1667 00e2 23F00103 		bic	r3, r3, #1
 1668 00e6 DAB2     		uxtb	r2, r3
 1669 00e8 7B6A     		ldr	r3, [r7, #36]
 1670 00ea 83F82820 		strb	r2, [r3, #40]
 841:../../../../dependencies/freertos/FreeRTOSv10.4.1/FreeRTOS/Source/timers.c ****                         break;
 1671              		.loc 1 841 25
 1672 00ee 3AE0     		b	.L96
 1673              	.L99:
 842:../../../../dependencies/freertos/FreeRTOSv10.4.1/FreeRTOS/Source/timers.c **** 
 843:../../../../dependencies/freertos/FreeRTOSv10.4.1/FreeRTOS/Source/timers.c ****                     case tmrCOMMAND_CHANGE_PERIOD:
 844:../../../../dependencies/freertos/FreeRTOSv10.4.1/FreeRTOS/Source/timers.c ****                     case tmrCOMMAND_CHANGE_PERIOD_FROM_ISR:
 845:../../../../dependencies/freertos/FreeRTOSv10.4.1/FreeRTOS/Source/timers.c ****                         pxTimer->ucStatus |= tmrSTATUS_IS_ACTIVE;
 1674              		.loc 1 845 43
 1675 00f0 7B6A     		ldr	r3, [r7, #36]
 1676 00f2 93F82830 		ldrb	r3, [r3, #40]	@ zero_extendqisi2
 1677 00f6 43F00103 		orr	r3, r3, #1
 1678 00fa DAB2     		uxtb	r2, r3
 1679 00fc 7B6A     		ldr	r3, [r7, #36]
 1680 00fe 83F82820 		strb	r2, [r3, #40]
 846:../../../../dependencies/freertos/FreeRTOSv10.4.1/FreeRTOS/Source/timers.c ****                         pxTimer->xTimerPeriodInTicks = xMessage.u.xTimerParameters.xMessageValue;
 1681              		.loc 1 846 83
 1682 0102 FA68     		ldr	r2, [r7, #12]
 1683              		.loc 1 846 54
 1684 0104 7B6A     		ldr	r3, [r7, #36]
 1685 0106 9A61     		str	r2, [r3, #24]
 847:../../../../dependencies/freertos/FreeRTOSv10.4.1/FreeRTOS/Source/timers.c ****                         configASSERT( ( pxTimer->xTimerPeriodInTicks > 0 ) );
 1686              		.loc 1 847 25
 1687 0108 7B6A     		ldr	r3, [r7, #36]
 1688 010a 9B69     		ldr	r3, [r3, #24]
 1689 010c 002B     		cmp	r3, #0
 1690 010e 0AD1     		bne	.L106
 1691              	.LBB56:
 1692              	.LBB57:
 197:../../../../dependencies/freertos/FreeRTOSv10.4.1/FreeRTOS/Source/portable/GCC/ARM_CM4F/portmacro.h ****         (
 1693              		.loc 2 197 9
 1694              		.syntax unified
 1695              	@ 197 "../../../../dependencies/freertos/FreeRTOSv10.4.1/FreeRTOS/Source/portable/GCC/ARM_CM4F/port
 1696 0110 4FF05003 			mov r3, #80												
 1697 0114 83F31188 		msr basepri, r3											
 1698 0118 BFF36F8F 		isb														
ARM GAS  /var/folders/kj/yzqgq53j3dg15vgwwwwgf5s00000gn/T//cc5BPkVE.s 			page 49


 1699 011c BFF34F8F 		dsb														
 1700              	
 1701              	@ 0 "" 2
 1702              		.thumb
 1703              		.syntax unified
 1704 0120 7B61     		str	r3, [r7, #20]
 1705              		.loc 2 205 5
 1706 0122 00BF     		nop
 1707              	.L107:
 1708              	.LBE57:
 1709              	.LBE56:
 1710              		.loc 1 847 25 discriminator 4
 1711 0124 FEE7     		b	.L107
 1712              	.L106:
 848:../../../../dependencies/freertos/FreeRTOSv10.4.1/FreeRTOS/Source/timers.c **** 
 849:../../../../dependencies/freertos/FreeRTOSv10.4.1/FreeRTOS/Source/timers.c ****                         /* The new period does not really have a reference, and can
 850:../../../../dependencies/freertos/FreeRTOSv10.4.1/FreeRTOS/Source/timers.c ****                          * be longer or shorter than the old one.  The command time is
 851:../../../../dependencies/freertos/FreeRTOSv10.4.1/FreeRTOS/Source/timers.c ****                          * therefore set to the current time, and as the period cannot
 852:../../../../dependencies/freertos/FreeRTOSv10.4.1/FreeRTOS/Source/timers.c ****                          * be zero the next expiry time can only be in the future,
 853:../../../../dependencies/freertos/FreeRTOSv10.4.1/FreeRTOS/Source/timers.c ****                          * meaning (unlike for the xTimerStart() case above) there is
 854:../../../../dependencies/freertos/FreeRTOSv10.4.1/FreeRTOS/Source/timers.c ****                          * no fail case that needs to be handled here. */
 855:../../../../dependencies/freertos/FreeRTOSv10.4.1/FreeRTOS/Source/timers.c ****                         ( void ) prvInsertTimerInActiveList( pxTimer, ( xTimeNow + pxTimer->xTimerP
 1713              		.loc 1 855 91
 1714 0126 7B6A     		ldr	r3, [r7, #36]
 1715 0128 9A69     		ldr	r2, [r3, #24]
 1716              		.loc 1 855 34
 1717 012a 3B6A     		ldr	r3, [r7, #32]
 1718 012c D118     		adds	r1, r2, r3
 1719 012e 3B6A     		ldr	r3, [r7, #32]
 1720 0130 3A6A     		ldr	r2, [r7, #32]
 1721 0132 786A     		ldr	r0, [r7, #36]
 1722 0134 FFF7FEFF 		bl	prvInsertTimerInActiveList
 856:../../../../dependencies/freertos/FreeRTOSv10.4.1/FreeRTOS/Source/timers.c ****                         break;
 1723              		.loc 1 856 25
 1724 0138 15E0     		b	.L96
 1725              	.L103:
 857:../../../../dependencies/freertos/FreeRTOSv10.4.1/FreeRTOS/Source/timers.c **** 
 858:../../../../dependencies/freertos/FreeRTOSv10.4.1/FreeRTOS/Source/timers.c ****                     case tmrCOMMAND_DELETE:
 859:../../../../dependencies/freertos/FreeRTOSv10.4.1/FreeRTOS/Source/timers.c ****                         #if ( configSUPPORT_DYNAMIC_ALLOCATION == 1 )
 860:../../../../dependencies/freertos/FreeRTOSv10.4.1/FreeRTOS/Source/timers.c ****                             {
 861:../../../../dependencies/freertos/FreeRTOSv10.4.1/FreeRTOS/Source/timers.c ****                                 /* The timer has already been removed from the active list,
 862:../../../../dependencies/freertos/FreeRTOSv10.4.1/FreeRTOS/Source/timers.c ****                                  * just free up the memory if the memory was dynamically
 863:../../../../dependencies/freertos/FreeRTOSv10.4.1/FreeRTOS/Source/timers.c ****                                  * allocated. */
 864:../../../../dependencies/freertos/FreeRTOSv10.4.1/FreeRTOS/Source/timers.c ****                                 if( ( pxTimer->ucStatus & tmrSTATUS_IS_STATICALLY_ALLOCATED ) == ( 
 1726              		.loc 1 864 46
 1727 013a 7B6A     		ldr	r3, [r7, #36]
 1728 013c 93F82830 		ldrb	r3, [r3, #40]	@ zero_extendqisi2
 1729              		.loc 1 864 57
 1730 0140 03F00203 		and	r3, r3, #2
 1731              		.loc 1 864 35
 1732 0144 002B     		cmp	r3, #0
 1733 0146 03D1     		bne	.L108
 865:../../../../dependencies/freertos/FreeRTOSv10.4.1/FreeRTOS/Source/timers.c ****                                 {
 866:../../../../dependencies/freertos/FreeRTOSv10.4.1/FreeRTOS/Source/timers.c ****                                     vPortFree( pxTimer );
 1734              		.loc 1 866 37
 1735 0148 786A     		ldr	r0, [r7, #36]
 1736 014a FFF7FEFF 		bl	vPortFree
ARM GAS  /var/folders/kj/yzqgq53j3dg15vgwwwwgf5s00000gn/T//cc5BPkVE.s 			page 50


 1737 014e 0AE0     		b	.L96
 1738              	.L108:
 867:../../../../dependencies/freertos/FreeRTOSv10.4.1/FreeRTOS/Source/timers.c ****                                 }
 868:../../../../dependencies/freertos/FreeRTOSv10.4.1/FreeRTOS/Source/timers.c ****                                 else
 869:../../../../dependencies/freertos/FreeRTOSv10.4.1/FreeRTOS/Source/timers.c ****                                 {
 870:../../../../dependencies/freertos/FreeRTOSv10.4.1/FreeRTOS/Source/timers.c ****                                     pxTimer->ucStatus &= ~tmrSTATUS_IS_ACTIVE;
 1739              		.loc 1 870 55
 1740 0150 7B6A     		ldr	r3, [r7, #36]
 1741 0152 93F82830 		ldrb	r3, [r3, #40]	@ zero_extendqisi2
 1742 0156 23F00103 		bic	r3, r3, #1
 1743 015a DAB2     		uxtb	r2, r3
 1744 015c 7B6A     		ldr	r3, [r7, #36]
 1745 015e 83F82820 		strb	r2, [r3, #40]
 871:../../../../dependencies/freertos/FreeRTOSv10.4.1/FreeRTOS/Source/timers.c ****                                 }
 872:../../../../dependencies/freertos/FreeRTOSv10.4.1/FreeRTOS/Source/timers.c ****                             }
 873:../../../../dependencies/freertos/FreeRTOSv10.4.1/FreeRTOS/Source/timers.c ****                         #else /* if ( configSUPPORT_DYNAMIC_ALLOCATION == 1 ) */
 874:../../../../dependencies/freertos/FreeRTOSv10.4.1/FreeRTOS/Source/timers.c ****                             {
 875:../../../../dependencies/freertos/FreeRTOSv10.4.1/FreeRTOS/Source/timers.c ****                                 /* If dynamic allocation is not enabled, the memory
 876:../../../../dependencies/freertos/FreeRTOSv10.4.1/FreeRTOS/Source/timers.c ****                                  * could not have been dynamically allocated. So there is
 877:../../../../dependencies/freertos/FreeRTOSv10.4.1/FreeRTOS/Source/timers.c ****                                  * no need to free the memory - just mark the timer as
 878:../../../../dependencies/freertos/FreeRTOSv10.4.1/FreeRTOS/Source/timers.c ****                                  * "not active". */
 879:../../../../dependencies/freertos/FreeRTOSv10.4.1/FreeRTOS/Source/timers.c ****                                 pxTimer->ucStatus &= ~tmrSTATUS_IS_ACTIVE;
 880:../../../../dependencies/freertos/FreeRTOSv10.4.1/FreeRTOS/Source/timers.c ****                             }
 881:../../../../dependencies/freertos/FreeRTOSv10.4.1/FreeRTOS/Source/timers.c ****                         #endif /* configSUPPORT_DYNAMIC_ALLOCATION */
 882:../../../../dependencies/freertos/FreeRTOSv10.4.1/FreeRTOS/Source/timers.c ****                         break;
 1746              		.loc 1 882 25
 1747 0162 00E0     		b	.L96
 1748              	.L111:
 883:../../../../dependencies/freertos/FreeRTOSv10.4.1/FreeRTOS/Source/timers.c **** 
 884:../../../../dependencies/freertos/FreeRTOSv10.4.1/FreeRTOS/Source/timers.c ****                     default:
 885:../../../../dependencies/freertos/FreeRTOSv10.4.1/FreeRTOS/Source/timers.c ****                         /* Don't expect to get here. */
 886:../../../../dependencies/freertos/FreeRTOSv10.4.1/FreeRTOS/Source/timers.c ****                         break;
 887:../../../../dependencies/freertos/FreeRTOSv10.4.1/FreeRTOS/Source/timers.c ****                 }
 888:../../../../dependencies/freertos/FreeRTOSv10.4.1/FreeRTOS/Source/timers.c ****             }
 1749              		.loc 1 888 13
 1750 0164 00BF     		nop
 1751              	.L96:
 750:../../../../dependencies/freertos/FreeRTOSv10.4.1/FreeRTOS/Source/timers.c ****         {
 1752              		.loc 1 750 16
 1753 0166 084B     		ldr	r3, .L112
 1754 0168 1B68     		ldr	r3, [r3]
 1755 016a 07F10801 		add	r1, r7, #8
 1756 016e 0022     		movs	r2, #0
 1757 0170 1846     		mov	r0, r3
 1758 0172 FFF7FEFF 		bl	xQueueReceive
 1759 0176 0346     		mov	r3, r0
 750:../../../../dependencies/freertos/FreeRTOSv10.4.1/FreeRTOS/Source/timers.c ****         {
 1760              		.loc 1 750 14
 1761 0178 002B     		cmp	r3, #0
 1762 017a 7FF445AF 		bne	.L110
 889:../../../../dependencies/freertos/FreeRTOSv10.4.1/FreeRTOS/Source/timers.c ****         }
 890:../../../../dependencies/freertos/FreeRTOSv10.4.1/FreeRTOS/Source/timers.c ****     }
 1763              		.loc 1 890 5
 1764 017e 00BF     		nop
 1765 0180 00BF     		nop
 1766 0182 2837     		adds	r7, r7, #40
 1767              	.LCFI86:
ARM GAS  /var/folders/kj/yzqgq53j3dg15vgwwwwgf5s00000gn/T//cc5BPkVE.s 			page 51


 1768              		.cfi_def_cfa_offset 8
 1769 0184 BD46     		mov	sp, r7
 1770              	.LCFI87:
 1771              		.cfi_def_cfa_register 13
 1772              		@ sp needed
 1773 0186 80BD     		pop	{r7, pc}
 1774              	.L113:
 1775              		.align	2
 1776              	.L112:
 1777 0188 00000000 		.word	xTimerQueue
 1778              		.cfi_endproc
 1779              	.LFE21:
 1781              		.section	.text.prvSwitchTimerLists,"ax",%progbits
 1782              		.align	1
 1783              		.syntax unified
 1784              		.thumb
 1785              		.thumb_func
 1786              		.fpu fpv4-sp-d16
 1788              	prvSwitchTimerLists:
 1789              	.LFB22:
 891:../../../../dependencies/freertos/FreeRTOSv10.4.1/FreeRTOS/Source/timers.c **** /*-----------------------------------------------------------*/
 892:../../../../dependencies/freertos/FreeRTOSv10.4.1/FreeRTOS/Source/timers.c **** 
 893:../../../../dependencies/freertos/FreeRTOSv10.4.1/FreeRTOS/Source/timers.c ****     static void prvSwitchTimerLists( void )
 894:../../../../dependencies/freertos/FreeRTOSv10.4.1/FreeRTOS/Source/timers.c ****     {
 1790              		.loc 1 894 5
 1791              		.cfi_startproc
 1792              		@ args = 0, pretend = 0, frame = 24
 1793              		@ frame_needed = 1, uses_anonymous_args = 0
 1794 0000 80B5     		push	{r7, lr}
 1795              	.LCFI88:
 1796              		.cfi_def_cfa_offset 8
 1797              		.cfi_offset 7, -8
 1798              		.cfi_offset 14, -4
 1799 0002 88B0     		sub	sp, sp, #32
 1800              	.LCFI89:
 1801              		.cfi_def_cfa_offset 40
 1802 0004 02AF     		add	r7, sp, #8
 1803              	.LCFI90:
 1804              		.cfi_def_cfa 7, 32
 895:../../../../dependencies/freertos/FreeRTOSv10.4.1/FreeRTOS/Source/timers.c ****         TickType_t xNextExpireTime, xReloadTime;
 896:../../../../dependencies/freertos/FreeRTOSv10.4.1/FreeRTOS/Source/timers.c ****         List_t * pxTemp;
 897:../../../../dependencies/freertos/FreeRTOSv10.4.1/FreeRTOS/Source/timers.c ****         Timer_t * pxTimer;
 898:../../../../dependencies/freertos/FreeRTOSv10.4.1/FreeRTOS/Source/timers.c ****         BaseType_t xResult;
 899:../../../../dependencies/freertos/FreeRTOSv10.4.1/FreeRTOS/Source/timers.c **** 
 900:../../../../dependencies/freertos/FreeRTOSv10.4.1/FreeRTOS/Source/timers.c ****         /* The tick count has overflowed.  The timer lists must be switched.
 901:../../../../dependencies/freertos/FreeRTOSv10.4.1/FreeRTOS/Source/timers.c ****          * If there are any timers still referenced from the current timer list
 902:../../../../dependencies/freertos/FreeRTOSv10.4.1/FreeRTOS/Source/timers.c ****          * then they must have expired and should be processed before the lists
 903:../../../../dependencies/freertos/FreeRTOSv10.4.1/FreeRTOS/Source/timers.c ****          * are switched. */
 904:../../../../dependencies/freertos/FreeRTOSv10.4.1/FreeRTOS/Source/timers.c ****         while( listLIST_IS_EMPTY( pxCurrentTimerList ) == pdFALSE )
 1805              		.loc 1 904 14
 1806 0006 48E0     		b	.L115
 1807              	.L118:
 905:../../../../dependencies/freertos/FreeRTOSv10.4.1/FreeRTOS/Source/timers.c ****         {
 906:../../../../dependencies/freertos/FreeRTOSv10.4.1/FreeRTOS/Source/timers.c ****             xNextExpireTime = listGET_ITEM_VALUE_OF_HEAD_ENTRY( pxCurrentTimerList );
 1808              		.loc 1 906 31
 1809 0008 2D4B     		ldr	r3, .L119
 1810 000a 1B68     		ldr	r3, [r3]
ARM GAS  /var/folders/kj/yzqgq53j3dg15vgwwwwgf5s00000gn/T//cc5BPkVE.s 			page 52


 1811 000c DB68     		ldr	r3, [r3, #12]
 1812              		.loc 1 906 29
 1813 000e 1B68     		ldr	r3, [r3]
 1814 0010 3B61     		str	r3, [r7, #16]
 907:../../../../dependencies/freertos/FreeRTOSv10.4.1/FreeRTOS/Source/timers.c **** 
 908:../../../../dependencies/freertos/FreeRTOSv10.4.1/FreeRTOS/Source/timers.c ****             /* Remove the timer from the list. */
 909:../../../../dependencies/freertos/FreeRTOSv10.4.1/FreeRTOS/Source/timers.c ****             pxTimer = ( Timer_t * ) listGET_OWNER_OF_HEAD_ENTRY( pxCurrentTimerList ); /*lint !e908
 1815              		.loc 1 909 37
 1816 0012 2B4B     		ldr	r3, .L119
 1817 0014 1B68     		ldr	r3, [r3]
 1818 0016 DB68     		ldr	r3, [r3, #12]
 1819              		.loc 1 909 21
 1820 0018 DB68     		ldr	r3, [r3, #12]
 1821 001a FB60     		str	r3, [r7, #12]
 910:../../../../dependencies/freertos/FreeRTOSv10.4.1/FreeRTOS/Source/timers.c ****             ( void ) uxListRemove( &( pxTimer->xTimerListItem ) );
 1822              		.loc 1 910 22
 1823 001c FB68     		ldr	r3, [r7, #12]
 1824 001e 0433     		adds	r3, r3, #4
 1825 0020 1846     		mov	r0, r3
 1826 0022 FFF7FEFF 		bl	uxListRemove
 911:../../../../dependencies/freertos/FreeRTOSv10.4.1/FreeRTOS/Source/timers.c ****             traceTIMER_EXPIRED( pxTimer );
 912:../../../../dependencies/freertos/FreeRTOSv10.4.1/FreeRTOS/Source/timers.c **** 
 913:../../../../dependencies/freertos/FreeRTOSv10.4.1/FreeRTOS/Source/timers.c ****             /* Execute its callback, then send a command to restart the timer if
 914:../../../../dependencies/freertos/FreeRTOSv10.4.1/FreeRTOS/Source/timers.c ****              * it is an auto-reload timer.  It cannot be restarted here as the lists
 915:../../../../dependencies/freertos/FreeRTOSv10.4.1/FreeRTOS/Source/timers.c ****              * have not yet been switched. */
 916:../../../../dependencies/freertos/FreeRTOSv10.4.1/FreeRTOS/Source/timers.c ****             pxTimer->pxCallbackFunction( ( TimerHandle_t ) pxTimer );
 1827              		.loc 1 916 20
 1828 0026 FB68     		ldr	r3, [r7, #12]
 1829 0028 1B6A     		ldr	r3, [r3, #32]
 1830              		.loc 1 916 13
 1831 002a F868     		ldr	r0, [r7, #12]
 1832 002c 9847     		blx	r3
 1833              	.LVL2:
 917:../../../../dependencies/freertos/FreeRTOSv10.4.1/FreeRTOS/Source/timers.c **** 
 918:../../../../dependencies/freertos/FreeRTOSv10.4.1/FreeRTOS/Source/timers.c ****             if( ( pxTimer->ucStatus & tmrSTATUS_IS_AUTORELOAD ) != 0 )
 1834              		.loc 1 918 26
 1835 002e FB68     		ldr	r3, [r7, #12]
 1836 0030 93F82830 		ldrb	r3, [r3, #40]	@ zero_extendqisi2
 1837              		.loc 1 918 37
 1838 0034 03F00403 		and	r3, r3, #4
 1839              		.loc 1 918 15
 1840 0038 002B     		cmp	r3, #0
 1841 003a 2ED0     		beq	.L115
 919:../../../../dependencies/freertos/FreeRTOSv10.4.1/FreeRTOS/Source/timers.c ****             {
 920:../../../../dependencies/freertos/FreeRTOSv10.4.1/FreeRTOS/Source/timers.c ****                 /* Calculate the reload value, and if the reload value results in
 921:../../../../dependencies/freertos/FreeRTOSv10.4.1/FreeRTOS/Source/timers.c ****                  * the timer going into the same timer list then it has already expired
 922:../../../../dependencies/freertos/FreeRTOSv10.4.1/FreeRTOS/Source/timers.c ****                  * and the timer should be re-inserted into the current list so it is
 923:../../../../dependencies/freertos/FreeRTOSv10.4.1/FreeRTOS/Source/timers.c ****                  * processed again within this loop.  Otherwise a command should be sent
 924:../../../../dependencies/freertos/FreeRTOSv10.4.1/FreeRTOS/Source/timers.c ****                  * to restart the timer to ensure it is only inserted into a list after
 925:../../../../dependencies/freertos/FreeRTOSv10.4.1/FreeRTOS/Source/timers.c ****                  * the lists have been swapped. */
 926:../../../../dependencies/freertos/FreeRTOSv10.4.1/FreeRTOS/Source/timers.c ****                 xReloadTime = ( xNextExpireTime + pxTimer->xTimerPeriodInTicks );
 1842              		.loc 1 926 58
 1843 003c FB68     		ldr	r3, [r7, #12]
 1844 003e 9B69     		ldr	r3, [r3, #24]
 1845              		.loc 1 926 29
 1846 0040 3A69     		ldr	r2, [r7, #16]
 1847 0042 1344     		add	r3, r3, r2
ARM GAS  /var/folders/kj/yzqgq53j3dg15vgwwwwgf5s00000gn/T//cc5BPkVE.s 			page 53


 1848 0044 BB60     		str	r3, [r7, #8]
 927:../../../../dependencies/freertos/FreeRTOSv10.4.1/FreeRTOS/Source/timers.c **** 
 928:../../../../dependencies/freertos/FreeRTOSv10.4.1/FreeRTOS/Source/timers.c ****                 if( xReloadTime > xNextExpireTime )
 1849              		.loc 1 928 19
 1850 0046 BA68     		ldr	r2, [r7, #8]
 1851 0048 3B69     		ldr	r3, [r7, #16]
 1852 004a 9A42     		cmp	r2, r3
 1853 004c 0ED9     		bls	.L116
 929:../../../../dependencies/freertos/FreeRTOSv10.4.1/FreeRTOS/Source/timers.c ****                 {
 930:../../../../dependencies/freertos/FreeRTOSv10.4.1/FreeRTOS/Source/timers.c ****                     listSET_LIST_ITEM_VALUE( &( pxTimer->xTimerListItem ), xReloadTime );
 1854              		.loc 1 930 21
 1855 004e FB68     		ldr	r3, [r7, #12]
 1856 0050 BA68     		ldr	r2, [r7, #8]
 1857 0052 5A60     		str	r2, [r3, #4]
 931:../../../../dependencies/freertos/FreeRTOSv10.4.1/FreeRTOS/Source/timers.c ****                     listSET_LIST_ITEM_OWNER( &( pxTimer->xTimerListItem ), pxTimer );
 1858              		.loc 1 931 21
 1859 0054 FB68     		ldr	r3, [r7, #12]
 1860 0056 FA68     		ldr	r2, [r7, #12]
 1861 0058 1A61     		str	r2, [r3, #16]
 932:../../../../dependencies/freertos/FreeRTOSv10.4.1/FreeRTOS/Source/timers.c ****                     vListInsert( pxCurrentTimerList, &( pxTimer->xTimerListItem ) );
 1862              		.loc 1 932 21
 1863 005a 194B     		ldr	r3, .L119
 1864 005c 1A68     		ldr	r2, [r3]
 1865 005e FB68     		ldr	r3, [r7, #12]
 1866 0060 0433     		adds	r3, r3, #4
 1867 0062 1946     		mov	r1, r3
 1868 0064 1046     		mov	r0, r2
 1869 0066 FFF7FEFF 		bl	vListInsert
 1870 006a 16E0     		b	.L115
 1871              	.L116:
 933:../../../../dependencies/freertos/FreeRTOSv10.4.1/FreeRTOS/Source/timers.c ****                 }
 934:../../../../dependencies/freertos/FreeRTOSv10.4.1/FreeRTOS/Source/timers.c ****                 else
 935:../../../../dependencies/freertos/FreeRTOSv10.4.1/FreeRTOS/Source/timers.c ****                 {
 936:../../../../dependencies/freertos/FreeRTOSv10.4.1/FreeRTOS/Source/timers.c ****                     xResult = xTimerGenericCommand( pxTimer, tmrCOMMAND_START_DONT_TRACE, xNextExpi
 1872              		.loc 1 936 31
 1873 006c 0023     		movs	r3, #0
 1874 006e 0093     		str	r3, [sp]
 1875 0070 0023     		movs	r3, #0
 1876 0072 3A69     		ldr	r2, [r7, #16]
 1877 0074 0021     		movs	r1, #0
 1878 0076 F868     		ldr	r0, [r7, #12]
 1879 0078 FFF7FEFF 		bl	xTimerGenericCommand
 1880 007c 7860     		str	r0, [r7, #4]
 937:../../../../dependencies/freertos/FreeRTOSv10.4.1/FreeRTOS/Source/timers.c ****                     configASSERT( xResult );
 1881              		.loc 1 937 21
 1882 007e 7B68     		ldr	r3, [r7, #4]
 1883 0080 002B     		cmp	r3, #0
 1884 0082 0AD1     		bne	.L115
 1885              	.LBB58:
 1886              	.LBB59:
 197:../../../../dependencies/freertos/FreeRTOSv10.4.1/FreeRTOS/Source/portable/GCC/ARM_CM4F/portmacro.h ****         (
 1887              		.loc 2 197 9
 1888              		.syntax unified
 1889              	@ 197 "../../../../dependencies/freertos/FreeRTOSv10.4.1/FreeRTOS/Source/portable/GCC/ARM_CM4F/port
 1890 0084 4FF05003 			mov r3, #80												
 1891 0088 83F31188 		msr basepri, r3											
 1892 008c BFF36F8F 		isb														
ARM GAS  /var/folders/kj/yzqgq53j3dg15vgwwwwgf5s00000gn/T//cc5BPkVE.s 			page 54


 1893 0090 BFF34F8F 		dsb														
 1894              	
 1895              	@ 0 "" 2
 1896              		.thumb
 1897              		.syntax unified
 1898 0094 3B60     		str	r3, [r7]
 1899              		.loc 2 205 5
 1900 0096 00BF     		nop
 1901              	.L117:
 1902              	.LBE59:
 1903              	.LBE58:
 1904              		.loc 1 937 21 discriminator 1
 1905 0098 FEE7     		b	.L117
 1906              	.L115:
 904:../../../../dependencies/freertos/FreeRTOSv10.4.1/FreeRTOS/Source/timers.c ****         {
 1907              		.loc 1 904 16
 1908 009a 094B     		ldr	r3, .L119
 1909 009c 1B68     		ldr	r3, [r3]
 1910 009e 1B68     		ldr	r3, [r3]
 904:../../../../dependencies/freertos/FreeRTOSv10.4.1/FreeRTOS/Source/timers.c ****         {
 1911              		.loc 1 904 14
 1912 00a0 002B     		cmp	r3, #0
 1913 00a2 B1D1     		bne	.L118
 938:../../../../dependencies/freertos/FreeRTOSv10.4.1/FreeRTOS/Source/timers.c ****                     ( void ) xResult;
 939:../../../../dependencies/freertos/FreeRTOSv10.4.1/FreeRTOS/Source/timers.c ****                 }
 940:../../../../dependencies/freertos/FreeRTOSv10.4.1/FreeRTOS/Source/timers.c ****             }
 941:../../../../dependencies/freertos/FreeRTOSv10.4.1/FreeRTOS/Source/timers.c ****             else
 942:../../../../dependencies/freertos/FreeRTOSv10.4.1/FreeRTOS/Source/timers.c ****             {
 943:../../../../dependencies/freertos/FreeRTOSv10.4.1/FreeRTOS/Source/timers.c ****                 mtCOVERAGE_TEST_MARKER();
 944:../../../../dependencies/freertos/FreeRTOSv10.4.1/FreeRTOS/Source/timers.c ****             }
 945:../../../../dependencies/freertos/FreeRTOSv10.4.1/FreeRTOS/Source/timers.c ****         }
 946:../../../../dependencies/freertos/FreeRTOSv10.4.1/FreeRTOS/Source/timers.c **** 
 947:../../../../dependencies/freertos/FreeRTOSv10.4.1/FreeRTOS/Source/timers.c ****         pxTemp = pxCurrentTimerList;
 1914              		.loc 1 947 16
 1915 00a4 064B     		ldr	r3, .L119
 1916 00a6 1B68     		ldr	r3, [r3]
 1917 00a8 7B61     		str	r3, [r7, #20]
 948:../../../../dependencies/freertos/FreeRTOSv10.4.1/FreeRTOS/Source/timers.c ****         pxCurrentTimerList = pxOverflowTimerList;
 1918              		.loc 1 948 28
 1919 00aa 064B     		ldr	r3, .L119+4
 1920 00ac 1B68     		ldr	r3, [r3]
 1921 00ae 044A     		ldr	r2, .L119
 1922 00b0 1360     		str	r3, [r2]
 949:../../../../dependencies/freertos/FreeRTOSv10.4.1/FreeRTOS/Source/timers.c ****         pxOverflowTimerList = pxTemp;
 1923              		.loc 1 949 29
 1924 00b2 044A     		ldr	r2, .L119+4
 1925 00b4 7B69     		ldr	r3, [r7, #20]
 1926 00b6 1360     		str	r3, [r2]
 950:../../../../dependencies/freertos/FreeRTOSv10.4.1/FreeRTOS/Source/timers.c ****     }
 1927              		.loc 1 950 5
 1928 00b8 00BF     		nop
 1929 00ba 1837     		adds	r7, r7, #24
 1930              	.LCFI91:
 1931              		.cfi_def_cfa_offset 8
 1932 00bc BD46     		mov	sp, r7
 1933              	.LCFI92:
 1934              		.cfi_def_cfa_register 13
ARM GAS  /var/folders/kj/yzqgq53j3dg15vgwwwwgf5s00000gn/T//cc5BPkVE.s 			page 55


 1935              		@ sp needed
 1936 00be 80BD     		pop	{r7, pc}
 1937              	.L120:
 1938              		.align	2
 1939              	.L119:
 1940 00c0 00000000 		.word	pxCurrentTimerList
 1941 00c4 00000000 		.word	pxOverflowTimerList
 1942              		.cfi_endproc
 1943              	.LFE22:
 1945              		.section	.rodata
 1946              		.align	2
 1947              	.LC1:
 1948 0008 546D7251 		.ascii	"TmrQ\000"
 1948      00
 1949              		.section	.text.prvCheckForValidListAndQueue,"ax",%progbits
 1950              		.align	1
 1951              		.syntax unified
 1952              		.thumb
 1953              		.thumb_func
 1954              		.fpu fpv4-sp-d16
 1956              	prvCheckForValidListAndQueue:
 1957              	.LFB23:
 951:../../../../dependencies/freertos/FreeRTOSv10.4.1/FreeRTOS/Source/timers.c **** /*-----------------------------------------------------------*/
 952:../../../../dependencies/freertos/FreeRTOSv10.4.1/FreeRTOS/Source/timers.c **** 
 953:../../../../dependencies/freertos/FreeRTOSv10.4.1/FreeRTOS/Source/timers.c ****     static void prvCheckForValidListAndQueue( void )
 954:../../../../dependencies/freertos/FreeRTOSv10.4.1/FreeRTOS/Source/timers.c ****     {
 1958              		.loc 1 954 5
 1959              		.cfi_startproc
 1960              		@ args = 0, pretend = 0, frame = 0
 1961              		@ frame_needed = 1, uses_anonymous_args = 0
 1962 0000 80B5     		push	{r7, lr}
 1963              	.LCFI93:
 1964              		.cfi_def_cfa_offset 8
 1965              		.cfi_offset 7, -8
 1966              		.cfi_offset 14, -4
 1967 0002 00AF     		add	r7, sp, #0
 1968              	.LCFI94:
 1969              		.cfi_def_cfa_register 7
 955:../../../../dependencies/freertos/FreeRTOSv10.4.1/FreeRTOS/Source/timers.c ****         /* Check that the list from which active timers are referenced, and the
 956:../../../../dependencies/freertos/FreeRTOSv10.4.1/FreeRTOS/Source/timers.c ****          * queue used to communicate with the timer service, have been
 957:../../../../dependencies/freertos/FreeRTOSv10.4.1/FreeRTOS/Source/timers.c ****          * initialised. */
 958:../../../../dependencies/freertos/FreeRTOSv10.4.1/FreeRTOS/Source/timers.c ****         taskENTER_CRITICAL();
 1970              		.loc 1 958 9
 1971 0004 FFF7FEFF 		bl	vPortEnterCritical
 959:../../../../dependencies/freertos/FreeRTOSv10.4.1/FreeRTOS/Source/timers.c ****         {
 960:../../../../dependencies/freertos/FreeRTOSv10.4.1/FreeRTOS/Source/timers.c ****             if( xTimerQueue == NULL )
 1972              		.loc 1 960 29
 1973 0008 124B     		ldr	r3, .L123
 1974 000a 1B68     		ldr	r3, [r3]
 1975              		.loc 1 960 15
 1976 000c 002B     		cmp	r3, #0
 1977 000e 1DD1     		bne	.L122
 961:../../../../dependencies/freertos/FreeRTOSv10.4.1/FreeRTOS/Source/timers.c ****             {
 962:../../../../dependencies/freertos/FreeRTOSv10.4.1/FreeRTOS/Source/timers.c ****                 vListInitialise( &xActiveTimerList1 );
 1978              		.loc 1 962 17
 1979 0010 1148     		ldr	r0, .L123+4
 1980 0012 FFF7FEFF 		bl	vListInitialise
ARM GAS  /var/folders/kj/yzqgq53j3dg15vgwwwwgf5s00000gn/T//cc5BPkVE.s 			page 56


 963:../../../../dependencies/freertos/FreeRTOSv10.4.1/FreeRTOS/Source/timers.c ****                 vListInitialise( &xActiveTimerList2 );
 1981              		.loc 1 963 17
 1982 0016 1148     		ldr	r0, .L123+8
 1983 0018 FFF7FEFF 		bl	vListInitialise
 964:../../../../dependencies/freertos/FreeRTOSv10.4.1/FreeRTOS/Source/timers.c ****                 pxCurrentTimerList = &xActiveTimerList1;
 1984              		.loc 1 964 36
 1985 001c 104B     		ldr	r3, .L123+12
 1986 001e 0E4A     		ldr	r2, .L123+4
 1987 0020 1A60     		str	r2, [r3]
 965:../../../../dependencies/freertos/FreeRTOSv10.4.1/FreeRTOS/Source/timers.c ****                 pxOverflowTimerList = &xActiveTimerList2;
 1988              		.loc 1 965 37
 1989 0022 104B     		ldr	r3, .L123+16
 1990 0024 0D4A     		ldr	r2, .L123+8
 1991 0026 1A60     		str	r2, [r3]
 966:../../../../dependencies/freertos/FreeRTOSv10.4.1/FreeRTOS/Source/timers.c **** 
 967:../../../../dependencies/freertos/FreeRTOSv10.4.1/FreeRTOS/Source/timers.c ****                 #if ( configSUPPORT_STATIC_ALLOCATION == 1 )
 968:../../../../dependencies/freertos/FreeRTOSv10.4.1/FreeRTOS/Source/timers.c ****                     {
 969:../../../../dependencies/freertos/FreeRTOSv10.4.1/FreeRTOS/Source/timers.c ****                         /* The timer queue is allocated statically in case
 970:../../../../dependencies/freertos/FreeRTOSv10.4.1/FreeRTOS/Source/timers.c ****                          * configSUPPORT_DYNAMIC_ALLOCATION is 0. */
 971:../../../../dependencies/freertos/FreeRTOSv10.4.1/FreeRTOS/Source/timers.c ****                         PRIVILEGED_DATA static StaticQueue_t xStaticTimerQueue;                    
 972:../../../../dependencies/freertos/FreeRTOSv10.4.1/FreeRTOS/Source/timers.c ****                         PRIVILEGED_DATA static uint8_t ucStaticTimerQueueStorage[ ( size_t ) config
 973:../../../../dependencies/freertos/FreeRTOSv10.4.1/FreeRTOS/Source/timers.c **** 
 974:../../../../dependencies/freertos/FreeRTOSv10.4.1/FreeRTOS/Source/timers.c ****                         xTimerQueue = xQueueCreateStatic( ( UBaseType_t ) configTIMER_QUEUE_LENGTH,
 975:../../../../dependencies/freertos/FreeRTOSv10.4.1/FreeRTOS/Source/timers.c ****                     }
 976:../../../../dependencies/freertos/FreeRTOSv10.4.1/FreeRTOS/Source/timers.c ****                 #else
 977:../../../../dependencies/freertos/FreeRTOSv10.4.1/FreeRTOS/Source/timers.c ****                     {
 978:../../../../dependencies/freertos/FreeRTOSv10.4.1/FreeRTOS/Source/timers.c ****                         xTimerQueue = xQueueCreate( ( UBaseType_t ) configTIMER_QUEUE_LENGTH, sizeo
 1992              		.loc 1 978 39
 1993 0028 0022     		movs	r2, #0
 1994 002a 0C21     		movs	r1, #12
 1995 002c 0A20     		movs	r0, #10
 1996 002e FFF7FEFF 		bl	xQueueGenericCreate
 1997 0032 0346     		mov	r3, r0
 1998              		.loc 1 978 37
 1999 0034 074A     		ldr	r2, .L123
 2000 0036 1360     		str	r3, [r2]
 979:../../../../dependencies/freertos/FreeRTOSv10.4.1/FreeRTOS/Source/timers.c ****                     }
 980:../../../../dependencies/freertos/FreeRTOSv10.4.1/FreeRTOS/Source/timers.c ****                 #endif /* if ( configSUPPORT_STATIC_ALLOCATION == 1 ) */
 981:../../../../dependencies/freertos/FreeRTOSv10.4.1/FreeRTOS/Source/timers.c **** 
 982:../../../../dependencies/freertos/FreeRTOSv10.4.1/FreeRTOS/Source/timers.c ****                 #if ( configQUEUE_REGISTRY_SIZE > 0 )
 983:../../../../dependencies/freertos/FreeRTOSv10.4.1/FreeRTOS/Source/timers.c ****                     {
 984:../../../../dependencies/freertos/FreeRTOSv10.4.1/FreeRTOS/Source/timers.c ****                         if( xTimerQueue != NULL )
 2001              		.loc 1 984 41
 2002 0038 064B     		ldr	r3, .L123
 2003 003a 1B68     		ldr	r3, [r3]
 2004              		.loc 1 984 27
 2005 003c 002B     		cmp	r3, #0
 2006 003e 05D0     		beq	.L122
 985:../../../../dependencies/freertos/FreeRTOSv10.4.1/FreeRTOS/Source/timers.c ****                         {
 986:../../../../dependencies/freertos/FreeRTOSv10.4.1/FreeRTOS/Source/timers.c ****                             vQueueAddToRegistry( xTimerQueue, "TmrQ" );
 2007              		.loc 1 986 29
 2008 0040 044B     		ldr	r3, .L123
 2009 0042 1B68     		ldr	r3, [r3]
 2010 0044 0849     		ldr	r1, .L123+20
 2011 0046 1846     		mov	r0, r3
 2012 0048 FFF7FEFF 		bl	vQueueAddToRegistry
 2013              	.L122:
ARM GAS  /var/folders/kj/yzqgq53j3dg15vgwwwwgf5s00000gn/T//cc5BPkVE.s 			page 57


 987:../../../../dependencies/freertos/FreeRTOSv10.4.1/FreeRTOS/Source/timers.c ****                         }
 988:../../../../dependencies/freertos/FreeRTOSv10.4.1/FreeRTOS/Source/timers.c ****                         else
 989:../../../../dependencies/freertos/FreeRTOSv10.4.1/FreeRTOS/Source/timers.c ****                         {
 990:../../../../dependencies/freertos/FreeRTOSv10.4.1/FreeRTOS/Source/timers.c ****                             mtCOVERAGE_TEST_MARKER();
 991:../../../../dependencies/freertos/FreeRTOSv10.4.1/FreeRTOS/Source/timers.c ****                         }
 992:../../../../dependencies/freertos/FreeRTOSv10.4.1/FreeRTOS/Source/timers.c ****                     }
 993:../../../../dependencies/freertos/FreeRTOSv10.4.1/FreeRTOS/Source/timers.c ****                 #endif /* configQUEUE_REGISTRY_SIZE */
 994:../../../../dependencies/freertos/FreeRTOSv10.4.1/FreeRTOS/Source/timers.c ****             }
 995:../../../../dependencies/freertos/FreeRTOSv10.4.1/FreeRTOS/Source/timers.c ****             else
 996:../../../../dependencies/freertos/FreeRTOSv10.4.1/FreeRTOS/Source/timers.c ****             {
 997:../../../../dependencies/freertos/FreeRTOSv10.4.1/FreeRTOS/Source/timers.c ****                 mtCOVERAGE_TEST_MARKER();
 998:../../../../dependencies/freertos/FreeRTOSv10.4.1/FreeRTOS/Source/timers.c ****             }
 999:../../../../dependencies/freertos/FreeRTOSv10.4.1/FreeRTOS/Source/timers.c ****         }
1000:../../../../dependencies/freertos/FreeRTOSv10.4.1/FreeRTOS/Source/timers.c ****         taskEXIT_CRITICAL();
 2014              		.loc 1 1000 9
 2015 004c FFF7FEFF 		bl	vPortExitCritical
1001:../../../../dependencies/freertos/FreeRTOSv10.4.1/FreeRTOS/Source/timers.c ****     }
 2016              		.loc 1 1001 5
 2017 0050 00BF     		nop
 2018 0052 80BD     		pop	{r7, pc}
 2019              	.L124:
 2020              		.align	2
 2021              	.L123:
 2022 0054 00000000 		.word	xTimerQueue
 2023 0058 00000000 		.word	xActiveTimerList1
 2024 005c 00000000 		.word	xActiveTimerList2
 2025 0060 00000000 		.word	pxCurrentTimerList
 2026 0064 00000000 		.word	pxOverflowTimerList
 2027 0068 08000000 		.word	.LC1
 2028              		.cfi_endproc
 2029              	.LFE23:
 2031              		.section	.text.xTimerIsTimerActive,"ax",%progbits
 2032              		.align	1
 2033              		.global	xTimerIsTimerActive
 2034              		.syntax unified
 2035              		.thumb
 2036              		.thumb_func
 2037              		.fpu fpv4-sp-d16
 2039              	xTimerIsTimerActive:
 2040              	.LFB24:
1002:../../../../dependencies/freertos/FreeRTOSv10.4.1/FreeRTOS/Source/timers.c **** /*-----------------------------------------------------------*/
1003:../../../../dependencies/freertos/FreeRTOSv10.4.1/FreeRTOS/Source/timers.c **** 
1004:../../../../dependencies/freertos/FreeRTOSv10.4.1/FreeRTOS/Source/timers.c ****     BaseType_t xTimerIsTimerActive( TimerHandle_t xTimer )
1005:../../../../dependencies/freertos/FreeRTOSv10.4.1/FreeRTOS/Source/timers.c ****     {
 2041              		.loc 1 1005 5
 2042              		.cfi_startproc
 2043              		@ args = 0, pretend = 0, frame = 24
 2044              		@ frame_needed = 1, uses_anonymous_args = 0
 2045 0000 80B5     		push	{r7, lr}
 2046              	.LCFI95:
 2047              		.cfi_def_cfa_offset 8
 2048              		.cfi_offset 7, -8
 2049              		.cfi_offset 14, -4
 2050 0002 86B0     		sub	sp, sp, #24
 2051              	.LCFI96:
 2052              		.cfi_def_cfa_offset 32
 2053 0004 00AF     		add	r7, sp, #0
ARM GAS  /var/folders/kj/yzqgq53j3dg15vgwwwwgf5s00000gn/T//cc5BPkVE.s 			page 58


 2054              	.LCFI97:
 2055              		.cfi_def_cfa_register 7
 2056 0006 7860     		str	r0, [r7, #4]
1006:../../../../dependencies/freertos/FreeRTOSv10.4.1/FreeRTOS/Source/timers.c ****         BaseType_t xReturn;
1007:../../../../dependencies/freertos/FreeRTOSv10.4.1/FreeRTOS/Source/timers.c ****         Timer_t * pxTimer = xTimer;
 2057              		.loc 1 1007 19
 2058 0008 7B68     		ldr	r3, [r7, #4]
 2059 000a 3B61     		str	r3, [r7, #16]
1008:../../../../dependencies/freertos/FreeRTOSv10.4.1/FreeRTOS/Source/timers.c **** 
1009:../../../../dependencies/freertos/FreeRTOSv10.4.1/FreeRTOS/Source/timers.c ****         configASSERT( xTimer );
 2060              		.loc 1 1009 9
 2061 000c 7B68     		ldr	r3, [r7, #4]
 2062 000e 002B     		cmp	r3, #0
 2063 0010 0AD1     		bne	.L126
 2064              	.LBB60:
 2065              	.LBB61:
 197:../../../../dependencies/freertos/FreeRTOSv10.4.1/FreeRTOS/Source/portable/GCC/ARM_CM4F/portmacro.h ****         (
 2066              		.loc 2 197 9
 2067              		.syntax unified
 2068              	@ 197 "../../../../dependencies/freertos/FreeRTOSv10.4.1/FreeRTOS/Source/portable/GCC/ARM_CM4F/port
 2069 0012 4FF05003 			mov r3, #80												
 2070 0016 83F31188 		msr basepri, r3											
 2071 001a BFF36F8F 		isb														
 2072 001e BFF34F8F 		dsb														
 2073              	
 2074              	@ 0 "" 2
 2075              		.thumb
 2076              		.syntax unified
 2077 0022 FB60     		str	r3, [r7, #12]
 2078              		.loc 2 205 5
 2079 0024 00BF     		nop
 2080              	.L127:
 2081              	.LBE61:
 2082              	.LBE60:
 2083              		.loc 1 1009 9 discriminator 1
 2084 0026 FEE7     		b	.L127
 2085              	.L126:
1010:../../../../dependencies/freertos/FreeRTOSv10.4.1/FreeRTOS/Source/timers.c **** 
1011:../../../../dependencies/freertos/FreeRTOSv10.4.1/FreeRTOS/Source/timers.c ****         /* Is the timer in the list of active timers? */
1012:../../../../dependencies/freertos/FreeRTOSv10.4.1/FreeRTOS/Source/timers.c ****         taskENTER_CRITICAL();
 2086              		.loc 1 1012 9
 2087 0028 FFF7FEFF 		bl	vPortEnterCritical
1013:../../../../dependencies/freertos/FreeRTOSv10.4.1/FreeRTOS/Source/timers.c ****         {
1014:../../../../dependencies/freertos/FreeRTOSv10.4.1/FreeRTOS/Source/timers.c ****             if( ( pxTimer->ucStatus & tmrSTATUS_IS_ACTIVE ) == 0 )
 2088              		.loc 1 1014 26
 2089 002c 3B69     		ldr	r3, [r7, #16]
 2090 002e 93F82830 		ldrb	r3, [r3, #40]	@ zero_extendqisi2
 2091              		.loc 1 1014 37
 2092 0032 03F00103 		and	r3, r3, #1
 2093              		.loc 1 1014 15
 2094 0036 002B     		cmp	r3, #0
 2095 0038 02D1     		bne	.L128
1015:../../../../dependencies/freertos/FreeRTOSv10.4.1/FreeRTOS/Source/timers.c ****             {
1016:../../../../dependencies/freertos/FreeRTOSv10.4.1/FreeRTOS/Source/timers.c ****                 xReturn = pdFALSE;
 2096              		.loc 1 1016 25
 2097 003a 0023     		movs	r3, #0
 2098 003c 7B61     		str	r3, [r7, #20]
ARM GAS  /var/folders/kj/yzqgq53j3dg15vgwwwwgf5s00000gn/T//cc5BPkVE.s 			page 59


 2099 003e 01E0     		b	.L129
 2100              	.L128:
1017:../../../../dependencies/freertos/FreeRTOSv10.4.1/FreeRTOS/Source/timers.c ****             }
1018:../../../../dependencies/freertos/FreeRTOSv10.4.1/FreeRTOS/Source/timers.c ****             else
1019:../../../../dependencies/freertos/FreeRTOSv10.4.1/FreeRTOS/Source/timers.c ****             {
1020:../../../../dependencies/freertos/FreeRTOSv10.4.1/FreeRTOS/Source/timers.c ****                 xReturn = pdTRUE;
 2101              		.loc 1 1020 25
 2102 0040 0123     		movs	r3, #1
 2103 0042 7B61     		str	r3, [r7, #20]
 2104              	.L129:
1021:../../../../dependencies/freertos/FreeRTOSv10.4.1/FreeRTOS/Source/timers.c ****             }
1022:../../../../dependencies/freertos/FreeRTOSv10.4.1/FreeRTOS/Source/timers.c ****         }
1023:../../../../dependencies/freertos/FreeRTOSv10.4.1/FreeRTOS/Source/timers.c ****         taskEXIT_CRITICAL();
 2105              		.loc 1 1023 9
 2106 0044 FFF7FEFF 		bl	vPortExitCritical
1024:../../../../dependencies/freertos/FreeRTOSv10.4.1/FreeRTOS/Source/timers.c **** 
1025:../../../../dependencies/freertos/FreeRTOSv10.4.1/FreeRTOS/Source/timers.c ****         return xReturn;
 2107              		.loc 1 1025 16
 2108 0048 7B69     		ldr	r3, [r7, #20]
1026:../../../../dependencies/freertos/FreeRTOSv10.4.1/FreeRTOS/Source/timers.c ****     } /*lint !e818 Can't be pointer to const due to the typedef. */
 2109              		.loc 1 1026 5
 2110 004a 1846     		mov	r0, r3
 2111 004c 1837     		adds	r7, r7, #24
 2112              	.LCFI98:
 2113              		.cfi_def_cfa_offset 8
 2114 004e BD46     		mov	sp, r7
 2115              	.LCFI99:
 2116              		.cfi_def_cfa_register 13
 2117              		@ sp needed
 2118 0050 80BD     		pop	{r7, pc}
 2119              		.cfi_endproc
 2120              	.LFE24:
 2122              		.section	.text.pvTimerGetTimerID,"ax",%progbits
 2123              		.align	1
 2124              		.global	pvTimerGetTimerID
 2125              		.syntax unified
 2126              		.thumb
 2127              		.thumb_func
 2128              		.fpu fpv4-sp-d16
 2130              	pvTimerGetTimerID:
 2131              	.LFB25:
1027:../../../../dependencies/freertos/FreeRTOSv10.4.1/FreeRTOS/Source/timers.c **** /*-----------------------------------------------------------*/
1028:../../../../dependencies/freertos/FreeRTOSv10.4.1/FreeRTOS/Source/timers.c **** 
1029:../../../../dependencies/freertos/FreeRTOSv10.4.1/FreeRTOS/Source/timers.c ****     void * pvTimerGetTimerID( const TimerHandle_t xTimer )
1030:../../../../dependencies/freertos/FreeRTOSv10.4.1/FreeRTOS/Source/timers.c ****     {
 2132              		.loc 1 1030 5
 2133              		.cfi_startproc
 2134              		@ args = 0, pretend = 0, frame = 24
 2135              		@ frame_needed = 1, uses_anonymous_args = 0
 2136 0000 80B5     		push	{r7, lr}
 2137              	.LCFI100:
 2138              		.cfi_def_cfa_offset 8
 2139              		.cfi_offset 7, -8
 2140              		.cfi_offset 14, -4
 2141 0002 86B0     		sub	sp, sp, #24
 2142              	.LCFI101:
 2143              		.cfi_def_cfa_offset 32
ARM GAS  /var/folders/kj/yzqgq53j3dg15vgwwwwgf5s00000gn/T//cc5BPkVE.s 			page 60


 2144 0004 00AF     		add	r7, sp, #0
 2145              	.LCFI102:
 2146              		.cfi_def_cfa_register 7
 2147 0006 7860     		str	r0, [r7, #4]
1031:../../../../dependencies/freertos/FreeRTOSv10.4.1/FreeRTOS/Source/timers.c ****         Timer_t * const pxTimer = xTimer;
 2148              		.loc 1 1031 25
 2149 0008 7B68     		ldr	r3, [r7, #4]
 2150 000a 7B61     		str	r3, [r7, #20]
1032:../../../../dependencies/freertos/FreeRTOSv10.4.1/FreeRTOS/Source/timers.c ****         void * pvReturn;
1033:../../../../dependencies/freertos/FreeRTOSv10.4.1/FreeRTOS/Source/timers.c **** 
1034:../../../../dependencies/freertos/FreeRTOSv10.4.1/FreeRTOS/Source/timers.c ****         configASSERT( xTimer );
 2151              		.loc 1 1034 9
 2152 000c 7B68     		ldr	r3, [r7, #4]
 2153 000e 002B     		cmp	r3, #0
 2154 0010 0AD1     		bne	.L132
 2155              	.LBB62:
 2156              	.LBB63:
 197:../../../../dependencies/freertos/FreeRTOSv10.4.1/FreeRTOS/Source/portable/GCC/ARM_CM4F/portmacro.h ****         (
 2157              		.loc 2 197 9
 2158              		.syntax unified
 2159              	@ 197 "../../../../dependencies/freertos/FreeRTOSv10.4.1/FreeRTOS/Source/portable/GCC/ARM_CM4F/port
 2160 0012 4FF05003 			mov r3, #80												
 2161 0016 83F31188 		msr basepri, r3											
 2162 001a BFF36F8F 		isb														
 2163 001e BFF34F8F 		dsb														
 2164              	
 2165              	@ 0 "" 2
 2166              		.thumb
 2167              		.syntax unified
 2168 0022 FB60     		str	r3, [r7, #12]
 2169              		.loc 2 205 5
 2170 0024 00BF     		nop
 2171              	.L133:
 2172              	.LBE63:
 2173              	.LBE62:
 2174              		.loc 1 1034 9 discriminator 1
 2175 0026 FEE7     		b	.L133
 2176              	.L132:
1035:../../../../dependencies/freertos/FreeRTOSv10.4.1/FreeRTOS/Source/timers.c **** 
1036:../../../../dependencies/freertos/FreeRTOSv10.4.1/FreeRTOS/Source/timers.c ****         taskENTER_CRITICAL();
 2177              		.loc 1 1036 9
 2178 0028 FFF7FEFF 		bl	vPortEnterCritical
1037:../../../../dependencies/freertos/FreeRTOSv10.4.1/FreeRTOS/Source/timers.c ****         {
1038:../../../../dependencies/freertos/FreeRTOSv10.4.1/FreeRTOS/Source/timers.c ****             pvReturn = pxTimer->pvTimerID;
 2179              		.loc 1 1038 22
 2180 002c 7B69     		ldr	r3, [r7, #20]
 2181 002e DB69     		ldr	r3, [r3, #28]
 2182 0030 3B61     		str	r3, [r7, #16]
1039:../../../../dependencies/freertos/FreeRTOSv10.4.1/FreeRTOS/Source/timers.c ****         }
1040:../../../../dependencies/freertos/FreeRTOSv10.4.1/FreeRTOS/Source/timers.c ****         taskEXIT_CRITICAL();
 2183              		.loc 1 1040 9
 2184 0032 FFF7FEFF 		bl	vPortExitCritical
